ASxxxx Linker V03.00/V05.40 + sdld,  page 1.
Hexadecimal  [32-Bits]

Area                                    Addr        Size        Decimal Bytes (Attributes)
--------------------------------        ----        ----        ------- ----- ------------
.  .ABS.                            00000000    00000000 =           0. bytes (ABS,CON)

      Value  Global                              Global Defined In Module
      -----  --------------------------------   ------------------------
     00000000  .__.ABS.                           
     00000000  _rRAMG                             
     00000000  l__BASE                         
     00000000  l__BSS                          
     00000000  l__CABS                         
     00000000  l__CODE_0                       
     00000000  l__CRASH_HEADER                 
     00000000  l__CRASH_SCRATCH                
     00000000  l__DABS                         
     00000000  l__HEADER                       
     00000000  l__HEADER_LCD                   
     00000000  l__HEADER_SIO                   
     00000000  l__HEADER_TIMER                 
     00000000  l__HEAP                         
     00000000  l__HEAP_END                     
     00000000  l__HRAM                         
     00000000  l__LIT                          
     00000000  s__CABS                         
     00000000  s__CRASH_HEADER                 
     00000000  s__CRASH_HEADER0                
     00000000  s__CRASH_HEADER1                
     00000000  s__CRASH_SCRATCH                
     00000000  s__CRASH_SCRATCH2               
     00000000  s__DABS                         
     00000000  s__HEADER                       
     00000000  s__HEADER0                      
     00000000  s__HEADER1                      
     00000000  s__HEADER10                     
     00000000  s__HEADER11                     
     00000000  s__HEADER2                      
     00000000  s__HEADER3                      
     00000000  s__HEADER4                      
     00000000  s__HEADER5                      
     00000000  s__HEADER6                      
     00000000  s__HEADER7                      
     00000000  s__HEADER8                      
     00000000  s__HEADER9                      
     00000000  s__HEADER_LCD                   
     00000000  s__HEADER_LCD0                  
     00000000  s__HEADER_SIO                   
     00000000  s__HEADER_SIO0                  
     00000000  s__HEADER_TIMER                 
     00000000  s__HEADER_TIMER0                
     00000000  s__HEADERa                      
     00000000  s__HEADERb                      
     00000000  s__HEADERc                      
     00000000  s__HEADERd                      
     00000000  s__HEADERe                      
     00000000  s__HEADERf                      
     00000000  s__HRAM                         
ASxxxx Linker V03.00/V05.40 + sdld,  page 2.
Hexadecimal  [32-Bits]

Area                                    Addr        Size        Decimal Bytes (Attributes)
--------------------------------        ----        ----        ------- ----- ------------
.  .ABS.                            00000000    00000000 =           0. bytes (ABS,CON)

      Value  Global                              Global Defined In Module
      -----  --------------------------------   ------------------------
     00000000  s__HRAM12                       
     00000001  ___bank_VM_SGB                     vm_sgb
     00000001  ___bank_bg_lencityopen_copy_0_ti   bg_lencityopen_copy_0_tilema
     00000001  ___bank_bg_lencityopen_tilemap_a   bg_lencityopen_tilemap_attr
     00000001  ___bank_scene_17_sprites           scene_17_sprites
     00000001  ___bank_sprite_pixelperfectvoti    sprite_pixelperfectvoti
     00000001  b_ui_draw_frame                    ui
     00000001  b_ui_draw_text_buffer_char         ui
     00000001  b_ui_init                          ui
     00000001  b_ui_load_tiles                    ui
     00000001  b_ui_run_menu                      ui
     00000001  b_ui_run_modal                     ui
     00000001  b_ui_set_start_tile                ui
     00000001  l__GSFINAL                      
     00000001  l__HEADER0                      
     00000001  l__HEADER5                      
     00000001  l__HEADERa                      
     00000001  l__HEADERb                      
     00000001  l__HEADERc                      
     00000001  l__HEADERe                      
     00000001  l__HEADERf                      
     00000002  ___bank_avatar_font_0              avatar_font_0
     00000002  ___bank_bg_controls_gb_copy__til   bg_controls_gb_copy__tileset
     00000002  ___bank_bg_lencityopen_tilemap     bg_lencityopen_tilemap
     00000002  ___bank_script_input_7             script_input_7
     00000002  l__HEADER10                     
     00000002  l__HEADER6                      
     00000002  l__HEADERd                      
     00000003  ___bank_bg_controls_gba_copy__ti   bg_controls_gba_copy__tilese
     00000003  ___bank_scene_14_init              scene_14_init
     00000003  ___bank_scene_18_collisions        scene_18_collisions
     00000003  ___bank_scene_18_sprites           scene_18_sprites
     00000003  l__HEADER9                      
     00000003  l__HEADER_LCD0                  
     00000003  l__HRAM12                       
     00000004  ___bank_bg_controls_gba_copy_0_t   bg_controls_gba_copy_0_tiles
     00000004  ___bank_bg_lair_right_tilemap_at   bg_lair_right_tilemap_attr
     00000004  ___bank_scene_34_collisions        scene_34_collisions
     00000004  ___bank_scene_46_sprites           scene_46_sprites
     00000004  l__CRASH_HEADER1                
     00000004  l__HEADER_SIO0                  
     00000004  l__HEADER_TIMER0                
     00000005  ___bank_bg_controls_gbc_copy__ti   bg_controls_gbc_copy__tilese
     00000005  ___bank_bg_lair_right_tilemap      bg_lair_right_tilemap
     00000005  ___bank_scene_15_triggers          scene_15_triggers
     00000005  ___bank_scene_58_collisions        scene_58_collisions
     00000005  l__CRASH_HEADER0                
     00000005  l__HEADER1                      
     00000006  ___bank_bg_controls_mobile_copy_   bg_controls_mobile_copy__til
     00000006  ___bank_scene_19_triggers          scene_19_triggers
     00000006  ___bank_scene_62_collisions        scene_62_collisions
ASxxxx Linker V03.00/V05.40 + sdld,  page 3.
Hexadecimal  [32-Bits]

Area                                    Addr        Size        Decimal Bytes (Attributes)
--------------------------------        ----        ----        ------- ----- ------------
.  .ABS.                            00000000    00000000 =           0. bytes (ABS,CON)

      Value  Global                              Global Defined In Module
      -----  --------------------------------   ------------------------
     00000006  ___bank_scene_65_collisions        scene_65_collisions
     00000006  l__HEADER8                      
     00000007  ___bank_SGB_border_chr             border
     00000007  ___bank_SGB_border_map             border
     00000007  ___bank_SGB_border_pal             border
     00000007  ___bank_VM_PROJECTILE              vm_projectiles
     00000007  ___bank_bg_controls_mobile_copy_   bg_controls_mobile_copy_0_ti
     00000007  ___bank_bg_lencityopen_copy__til   bg_lencityopen_copy__tilemap
     00000007  ___bank_scene_22_sprites           scene_22_sprites
     00000007  b_vm_projectile_launch             vm_projectiles
     00000007  b_vm_projectile_load_type          vm_projectiles
     00000007  l__HEADER2                      
     00000008  ___bank_VM_MAIN                    vm
     00000008  ___bank_actor_6_interact           actor_6_interact
     00000008  ___bank_bg_options_copy__tileset   bg_options_copy__tileset
     00000008  ___bank_bg_title_tileset           bg_title_tileset
     00000008  b_remove_LCD_ISRs                  interrupts
     00000008  b_script_detach_hthread            vm
     00000008  b_script_execute                   vm
     00000008  b_script_runner_init               vm
     00000008  b_script_terminate                 vm
     00000008  b_vm_call                          vm
     00000008  b_vm_call_far                      vm
     00000008  b_vm_get_indirect                  vm
     00000008  b_vm_get_tlocal                    vm
     00000008  b_vm_idle                          vm
     00000008  b_vm_if                            vm
     00000008  b_vm_if_const                      vm
     00000008  b_vm_init_rng                      vm
     00000008  b_vm_invoke                        vm
     00000008  b_vm_join                          vm
     00000008  b_vm_jump                          vm
     00000008  b_vm_lock                          vm
     00000008  b_vm_loop                          vm
     00000008  b_vm_memcpy                        vm
     00000008  b_vm_memset                        vm
     00000008  b_vm_poll_loaded                   vm
     00000008  b_vm_pop                           vm
     00000008  b_vm_push                          vm
     00000008  b_vm_push_reference                vm
     00000008  b_vm_push_value                    vm
     00000008  b_vm_push_value_ind                vm
     00000008  b_vm_raise                         vm
     00000008  b_vm_rand                          vm
     00000008  b_vm_reserve                       vm
     00000008  b_vm_ret                           vm
     00000008  b_vm_ret_far                       vm
     00000008  b_vm_set                           vm
     00000008  b_vm_set_const                     vm
     00000008  b_vm_set_indirect                  vm
     00000008  b_vm_terminate                     vm
ASxxxx Linker V03.00/V05.40 + sdld,  page 4.
Hexadecimal  [32-Bits]

Area                                    Addr        Size        Decimal Bytes (Attributes)
--------------------------------        ----        ----        ------- ----- ------------
.  .ABS.                            00000000    00000000 =           0. bytes (ABS,CON)

      Value  Global                              Global Defined In Module
      -----  --------------------------------   ------------------------
     00000008  b_vm_test_terminate                vm
     00000008  b_vm_unlock                        vm
     00000008  b_wait_frames                      vm
     00000008  l__HEADER3                      
     00000009  ___bank_ACTOR                      actor
     00000009  ___bank_VM_ACTOR                   vm_actor
     00000009  ___bank_scene_10_init              scene_10_init
     00000009  b_activate_actor                   actor
     00000009  b_activate_actors_in_col           actor
     00000009  b_activate_actors_in_row           actor
     00000009  b_actor_at_tile                    actor
     00000009  b_actor_get_frame_offset           actor
     00000009  b_actor_in_front_of_player         actor
     00000009  b_actor_overlapping_bb             actor
     00000009  b_actor_overlapping_player         actor
     00000009  b_actor_set_anim_idle              actor
     00000009  b_actor_set_anim_moving            actor
     00000009  b_actor_set_dir                    actor
     00000009  b_actor_set_frame_offset           actor
     00000009  b_actor_set_frames                 actor
     00000009  b_actors_handle_player_collision   actor
     00000009  b_actors_init                      actor
     00000009  b_check_collision_in_direction     actor
     00000009  b_deactivate_actor                 actor
     00000009  b_platform_init                    platform
     00000009  b_platform_update                  platform
     00000009  b_player_init                      actor
     00000009  b_vm_actor_activate                vm_actor
     00000009  b_vm_actor_begin_update            vm_actor
     00000009  b_vm_actor_deactivate              vm_actor
     00000009  b_vm_actor_emote                   vm_actor
     00000009  b_vm_actor_get_angle               vm_actor
     00000009  b_vm_actor_get_anim_frame          vm_actor
     00000009  b_vm_actor_get_dir                 vm_actor
     00000009  b_vm_actor_get_pos                 vm_actor
     00000009  b_vm_actor_move_cancel             vm_actor
     00000009  b_vm_actor_move_to                 vm_actor
     00000009  b_vm_actor_replace_tile            vm_actor
     00000009  b_vm_actor_set_anim                vm_actor
     00000009  b_vm_actor_set_anim_frame          vm_actor
     00000009  b_vm_actor_set_anim_set            vm_actor
     00000009  b_vm_actor_set_anim_tick           vm_actor
     00000009  b_vm_actor_set_bounds              vm_actor
     00000009  b_vm_actor_set_dir                 vm_actor
     00000009  b_vm_actor_set_flags               vm_actor
     00000009  b_vm_actor_set_move_speed          vm_actor
     00000009  b_vm_actor_set_pos                 vm_actor
     00000009  b_vm_actor_set_spritesheet         vm_actor
     00000009  b_vm_actor_set_spritesheet_by_re   vm_actor
     00000009  b_vm_actor_terminate_update        vm_actor
     0000000A  ___bank_bg_cave_ladder_copy_       bg_cave_ladder_copy_
ASxxxx Linker V03.00/V05.40 + sdld,  page 5.
Hexadecimal  [32-Bits]

Area                                    Addr        Size        Decimal Bytes (Attributes)
--------------------------------        ----        ----        ------- ----- ------------
.  .ABS.                            00000000    00000000 =           0. bytes (ABS,CON)

      Value  Global                              Global Defined In Module
      -----  --------------------------------   ------------------------
     0000000A  ___bank_bg_lencityopen_copy_0_ti   bg_lencityopen_copy_0_tilema
     0000000A  ___bank_bg_pixil_frame_0_31_tile   bg_pixil_frame_0_31_tilemap_
     0000000A  ___bank_bg_title_copy__tileset     bg_title_copy__tileset
     0000000A  ___bank_font_gbs_variable_width    font_gbs_variable_width
     0000000A  ___bank_scene_52_collisions        scene_52_collisions
     0000000A  ___bank_scene_53_collisions        scene_53_collisions
     0000000B  ___bank_bg_iceos_login_copy__til   bg_iceos_login_copy__tileset
     0000000B  ___bank_bg_lencityopen_copy__til   bg_lencityopen_copy__tilemap
     0000000B  ___bank_bg_pixil_frame_0_31_tile   bg_pixil_frame_0_31_tilemap
     0000000B  ___bank_bg_pixil_frame_0_33_tile   bg_pixil_frame_0_33_tilemap_
     0000000B  ___bank_scene_31_collisions        scene_31_collisions
     0000000B  ___bank_scene_47_collisions        scene_47_collisions
     0000000B  ___bank_trigger_61_interact        trigger_61_interact
     0000000B  b_do_load_palette                  data_manager
     0000000B  b_load_background                  data_manager
     0000000B  b_load_bkg_tileset                 data_manager
     0000000B  b_load_bounds                      data_manager
     0000000B  b_load_emote                       data_manager
     0000000B  b_load_init                        data_manager
     0000000B  b_load_player                      data_manager
     0000000B  b_load_scene                       data_manager
     0000000B  b_load_sprite                      data_manager
     0000000C  ___bank_VM_UI                      vm_ui
     0000000C  ___bank_bg_controls_gb_copy__til   bg_controls_gb_copy__tilemap
     0000000C  ___bank_bg_dhilly_game_1_tileset   bg_dhilly_game_1_tileset
     0000000C  ___bank_bg_fieldlazy_tilemap_att   bg_fieldlazy_tilemap_attr
     0000000C  ___bank_bg_pixil_frame_0_31_tile   bg_pixil_frame_0_31_tileset
     0000000C  ___bank_bg_title_copy_1_tileset    bg_title_copy_1_tileset
     0000000C  ___bank_scene_46_init              scene_46_init
     0000000C  ___bank_scene_52_init              scene_52_init
     0000000C  ___bank_trigger_1_interact         trigger_1_interact
     0000000C  b_shmup_init                       shmup
     0000000C  b_shmup_update                     shmup
     0000000C  b_vm_choice                        vm_ui
     0000000C  b_vm_display_text                  vm_ui
     0000000C  b_vm_overlay_clear                 vm_ui
     0000000C  b_vm_overlay_move_to               vm_ui
     0000000C  b_vm_overlay_scroll                vm_ui
     0000000C  b_vm_overlay_set_map               vm_ui
     0000000C  b_vm_overlay_set_scroll            vm_ui
     0000000C  b_vm_overlay_set_submap            vm_ui
     0000000C  b_vm_overlay_set_submap_ex         vm_ui
     0000000C  b_vm_overlay_setpos                vm_ui
     0000000C  b_vm_overlay_show                  vm_ui
     0000000C  b_vm_overlay_wait                  vm_ui
     0000000C  b_vm_set_font                      vm_ui
     0000000C  b_vm_set_text_sound                vm_ui
     0000000C  b_vm_switch_text_layer             vm_ui
     0000000D  ___bank_bg_fieldlazy_tilemap       bg_fieldlazy_tilemap
     0000000D  ___bank_bg_pixil_frame_23_0_tile   bg_pixil_frame_23_0_tilemap
     0000000D  ___bank_bg_pixil_frame_23_0_tile   bg_pixil_frame_23_0_tilemap_
ASxxxx Linker V03.00/V05.40 + sdld,  page 6.
Hexadecimal  [32-Bits]

Area                                    Addr        Size        Decimal Bytes (Attributes)
--------------------------------        ----        ----        ------- ----- ------------
.  .ABS.                            00000000    00000000 =           0. bytes (ABS,CON)

      Value  Global                              Global Defined In Module
      -----  --------------------------------   ------------------------
     0000000D  ___bank_scene_20_sprites           scene_20_sprites
     0000000D  ___bank_scene_22_init              scene_22_init
     0000000D  ___bank_scene_28_collisions        scene_28_collisions
     0000000D  ___bank_scene_49_collisions        scene_49_collisions
     0000000D  ___bank_trigger_40_interact        trigger_40_interact
     0000000D  b_adventure_init                   adventure
     0000000D  b_adventure_update                 adventure
     0000000D  b_scroll_init                      scroll
     0000000D  b_scroll_repaint                   scroll
     0000000D  b_scroll_reset                     scroll
     0000000D  b_scroll_update                    scroll
     0000000D  b_topdown_init                     topdown
     0000000D  b_topdown_update                   topdown
     0000000E  ___bank_VM_GAMEBOY                 vm_gameboy
     0000000E  ___bank_actor_31_interact          actor_31_interact
     0000000E  ___bank_actor_43_interact          actor_43_interact
     0000000E  ___bank_bg_cave_ladder_copy_0_ti   bg_cave_ladder_copy_0_tilema
     0000000E  ___bank_bg_cave_ladder_copy_0_ti   bg_cave_ladder_copy_0_tilema
     0000000E  ___bank_bg_intro_scenary_copy__t   bg_intro_scenary_copy__tilem
     0000000E  ___bank_bg_intro_scenary_copy__t   bg_intro_scenary_copy__tilem
     0000000E  ___bank_bg_lair_left_3_tileset     bg_lair_left_3_tileset
     0000000E  ___bank_bg_pixil_frame_0_24_tile   bg_pixil_frame_0_24_tileset
     0000000E  ___bank_bg_title_copy_2_tileset    bg_title_copy_2_tileset
     0000000E  ___bank_scene_17_collisions        scene_17_collisions
     0000000E  ___bank_scene_55_collisions        scene_55_collisions
     0000000E  b_vm_context_prepare               vm_gameboy
     0000000E  b_vm_fade                          vm_gameboy
     0000000E  b_vm_get_tile_xy                   vm_gameboy
     0000000E  b_vm_input_attach                  vm_gameboy
     0000000E  b_vm_input_detach                  vm_gameboy
     0000000E  b_vm_input_get                     vm_gameboy
     0000000E  b_vm_input_wait                    vm_gameboy
     0000000E  b_vm_load_tileset                  vm_gameboy
     0000000E  b_vm_poll                          vm_gameboy
     0000000E  b_vm_replace_tile                  vm_gameboy
     0000000E  b_vm_replace_tile_xy               vm_gameboy
     0000000E  b_vm_rumble                        vm_gameboy
     0000000E  b_vm_set_sprite_mode               vm_gameboy
     0000000E  b_vm_set_sprites_visible           vm_gameboy
     0000000E  b_vm_timer_prepare                 vm_gameboy
     0000000E  b_vm_timer_reset                   vm_gameboy
     0000000E  b_vm_timer_set                     vm_gameboy
     0000000E  b_vm_timer_stop                    vm_gameboy
     0000000F  ___bank_actor_11_interact          actor_11_interact
     0000000F  ___bank_bg_cave_ladder_copy__til   bg_cave_ladder_copy__tilemap
     0000000F  ___bank_bg_cave_ladder_copy__til   bg_cave_ladder_copy__tilemap
     0000000F  ___bank_bg_init_copy_0_tilemap     bg_init_copy_0_tilemap
     0000000F  ___bank_bg_init_copy_0_tilemap_a   bg_init_copy_0_tilemap_attr
     0000000F  ___bank_bg_lencityopen_tileset     bg_lencityopen_tileset
     0000000F  ___bank_bg_pixil_frame_0_33_tile   bg_pixil_frame_0_33_tilemap
     0000000F  ___bank_bg_shillycityopen_copy__   bg_shillycityopen_copy__tile
ASxxxx Linker V03.00/V05.40 + sdld,  page 7.
Hexadecimal  [32-Bits]

Area                                    Addr        Size        Decimal Bytes (Attributes)
--------------------------------        ----        ----        ------- ----- ------------
.  .ABS.                            00000000    00000000 =           0. bytes (ABS,CON)

      Value  Global                              Global Defined In Module
      -----  --------------------------------   ------------------------
     0000000F  ___bank_scene_32_collisions        scene_32_collisions
     0000000F  ___bank_scene_50_collisions        scene_50_collisions
     0000000F  ___bank_scene_51_collisions        scene_51_collisions
     0000000F  ___bank_scene_56_collisions        scene_56_collisions
     0000000F  ___bank_scene_57_collisions        scene_57_collisions
     0000000F  b_projectile_launch                projectiles
     0000000F  b_projectiles_init                 projectiles
     00000010  ___bank_VM_CAMERA                  vm_camera
     00000010  ___bank_actor_19_interact          actor_19_interact
     00000010  ___bank_bg_controls_gb_copy_0_ti   bg_controls_gb_copy_0_tilema
     00000010  ___bank_bg_controls_gb_copy_0_ti   bg_controls_gb_copy_0_tilema
     00000010  ___bank_bg_init_copy__tilemap      bg_init_copy__tilemap
     00000010  ___bank_bg_init_copy__tilemap_at   bg_init_copy__tilemap_attr
     00000010  ___bank_bg_pixil_frame_0_30_tile   bg_pixil_frame_0_30_tilemap
     00000010  ___bank_bg_pixil_frame_0_30_tile   bg_pixil_frame_0_30_tilemap_
     00000010  ___bank_bg_pixil_frame_0_33_tile   bg_pixil_frame_0_33_tileset
     00000010  ___bank_bg_pixil_frame_0_copy_co   bg_pixil_frame_0_copy_copy__
     00000010  ___bank_bootstrap_script           
     00000010  ___bank_scene_0_collisions         scene_0_collisions
     00000010  ___bank_scene_15_collisions        scene_15_collisions
     00000010  ___bank_scene_30_collisions        scene_30_collisions
     00000010  ___bank_scene_54_init              scene_54_init
     00000010  ___bank_script_input_6             script_input_6
     00000010  b_camera_shake_frames              vm_camera
     00000010  b_core_reset                       core
     00000010  b_core_run                         core
     00000010  b_data_clear                       load_save
     00000010  b_data_init                        load_save
     00000010  b_data_load                        load_save
     00000010  b_data_peek                        load_save
     00000010  b_data_save                        load_save
     00000010  b_trigger_activate_at              trigger
     00000010  b_trigger_activate_at_intersecti   trigger
     00000010  b_trigger_at_intersection          trigger
     00000010  b_trigger_at_tile                  trigger
     00000010  b_trigger_interact                 trigger
     00000010  b_trigger_reset                    trigger
     00000010  b_vm_camera_move_to                vm_camera
     00000010  b_vm_camera_set_pos                vm_camera
     00000011  ___bank_VM_SIO                     vm_sio
     00000011  ___bank_bg_iceos_login_2_copy__t   bg_iceos_login_2_copy__tiles
     00000011  ___bank_bg_lair_right_5_tileset    bg_lair_right_5_tileset
     00000011  ___bank_bg_pixil_frame_0_23_tile   bg_pixil_frame_0_23_tileset
     00000011  ___bank_bg_pixil_frame_0_24_tile   bg_pixil_frame_0_24_tilemap
     00000011  ___bank_bg_pixil_frame_0_24_tile   bg_pixil_frame_0_24_tilemap_
     00000011  ___bank_bg_pixil_frame_23_0_tile   bg_pixil_frame_23_0_tileset
     00000011  ___bank_bg_samsam_copy_tileset     bg_samsam_copy_tileset
     00000011  ___bank_bg_square_frozen_future_   bg_square_frozen_future_tile
     00000011  ___bank_bg_theatre_tileset         bg_theatre_tileset
     00000011  ___bank_bg_title_copy_0_tileset    bg_title_copy_0_tileset
     00000011  ___bank_scene_27_init              scene_27_init
ASxxxx Linker V03.00/V05.40 + sdld,  page 8.
Hexadecimal  [32-Bits]

Area                                    Addr        Size        Decimal Bytes (Attributes)
--------------------------------        ----        ----        ------- ----- ------------
.  .ABS.                            00000000    00000000 =           0. bytes (ABS,CON)

      Value  Global                              Global Defined In Module
      -----  --------------------------------   ------------------------
     00000011  ___bank_scene_29_collisions        scene_29_collisions
     00000011  ___bank_scene_3_sprites            scene_3_sprites
     00000011  ___bank_scene_7_init               scene_7_init
     00000011  ___bank_script_input_3             script_input_3
     00000011  ___bank_sprite_pixelperfectvoti_   sprite_pixelperfectvoti_tile
     00000011  ___bank_trigger_81_interact        trigger_81_interact
     00000011  b___HandleCrash_banked             
     00000011  b_atan2                            math_atan2
     00000011  b_fade_applypalettechange          fade_manager
     00000011  b_fade_in                          fade_manager
     00000011  b_fade_in_modal                    fade_manager
     00000011  b_fade_init                        fade_manager
     00000011  b_fade_out                         fade_manager
     00000011  b_fade_out_modal                   fade_manager
     00000011  b_fade_setspeed                    fade_manager
     00000011  b_fade_update                      fade_manager
     00000011  b_gbprinter_detect                 gbprinter
     00000011  b_gbprinter_print_overlay          gbprinter
     00000011  b_pointnclick_init                 pointnclick
     00000011  b_pointnclick_update               pointnclick
     00000011  b_vm_sio_exchange                  vm_sio
     00000011  b_vm_sio_set_mode                  vm_sio
     00000012  ___bank_VM_PALETTE                 vm_palette
     00000012  ___bank_actor_25_interact          actor_25_interact
     00000012  ___bank_bg_cinema_tilemap          bg_cinema_tilemap
     00000012  ___bank_bg_cinema_tilemap_attr     bg_cinema_tilemap_attr
     00000012  ___bank_bg_controls_gb_copy__til   bg_controls_gb_copy__tilemap
     00000012  ___bank_bg_controls_gba_copy_0_t   bg_controls_gba_copy_0_tilem
     00000012  ___bank_bg_controls_gba_copy_0_t   bg_controls_gba_copy_0_tilem
     00000012  ___bank_bg_controls_gba_copy__ti   bg_controls_gba_copy__tilema
     00000012  ___bank_bg_controls_gba_copy__ti   bg_controls_gba_copy__tilema
     00000012  ___bank_bg_iceos_desktop_copy__t   bg_iceos_desktop_copy__tiles
     00000012  ___bank_bg_init_copy_1_tileset     bg_init_copy_1_tileset
     00000012  ___bank_bg_lair_right_3_tileset    bg_lair_right_3_tileset
     00000012  ___bank_bg_lair_right_tileset      bg_lair_right_tileset
     00000012  ___bank_bg_lencity_trainstation_   bg_lencity_trainstation_cop_
     00000012  ___bank_bg_lencity_trainstation_   bg_lencity_trainstation_tile
     00000012  ___bank_bg_lencity_trainstation_   bg_lencity_trainstation_tile
     00000012  ___bank_bg_lencity_yua_building_   bg_lencity_yua_building_tile
     00000012  ___bank_bg_lencityopen_copy__til   bg_lencityopen_copy__tileset
     00000012  ___bank_bg_pixil_frame_0_30_tile   bg_pixil_frame_0_30_tileset
     00000012  ___bank_bg_shillycity_sara_house   bg_shillycity_sara_house_co_
     00000012  ___bank_bg_shillycityopen_copy_0   bg_shillycityopen_copy_0_til
     00000012  ___bank_bg_shillycityopen_copy_0   bg_shillycityopen_copy_0_til
     00000012  ___bank_bg_shillycityopen_copy_0   bg_shillycityopen_copy_0_til
     00000012  ___bank_bg_square_frozen_future_   bg_square_frozen_future_tile
     00000012  ___bank_bg_square_frozen_future_   bg_square_frozen_future_tile
     00000012  ___bank_bg_theatre_tilemap         bg_theatre_tilemap
     00000012  ___bank_bg_theatre_tilemap_attr    bg_theatre_tilemap_attr
     00000012  ___bank_scene_19_collisions        scene_19_collisions
     00000012  ___bank_scene_20_collisions        scene_20_collisions
ASxxxx Linker V03.00/V05.40 + sdld,  page 9.
Hexadecimal  [32-Bits]

Area                                    Addr        Size        Decimal Bytes (Attributes)
--------------------------------        ----        ----        ------- ----- ------------
.  .ABS.                            00000000    00000000 =           0. bytes (ABS,CON)

      Value  Global                              Global Defined In Module
      -----  --------------------------------   ------------------------
     00000012  ___bank_scene_27_collisions        scene_27_collisions
     00000012  ___bank_scene_35_collisions        scene_35_collisions
     00000012  ___bank_scene_45_collisions        scene_45_collisions
     00000012  ___bank_scene_46_collisions        scene_46_collisions
     00000012  ___bank_scene_48_collisions        scene_48_collisions
     00000012  ___bank_scene_63_collisions        scene_63_collisions
     00000012  ___bank_scene_70_init              scene_70_init
     00000012  b_set_sgb_border                   sgb_border
     00000012  b_vm_load_palette                  vm_palette
     00000013  ___bank_bg_controls_gbc_copy__ti   bg_controls_gbc_copy__tilema
     00000013  ___bank_bg_controls_gbc_copy__ti   bg_controls_gbc_copy__tilema
     00000013  ___bank_bg_controls_mobile_copy_   bg_controls_mobile_copy_0_ti
     00000013  ___bank_bg_controls_mobile_copy_   bg_controls_mobile_copy_0_ti
     00000013  ___bank_bg_controls_mobile_copy_   bg_controls_mobile_copy__til
     00000013  ___bank_bg_controls_mobile_copy_   bg_controls_mobile_copy__til
     00000013  ___bank_bg_dhilly_game_1_tilemap   bg_dhilly_game_1_tilemap
     00000013  ___bank_bg_dhilly_game_1_tilemap   bg_dhilly_game_1_tilemap_att
     00000013  ___bank_bg_elevator_tilemap        bg_elevator_tilemap
     00000013  ___bank_bg_elevator_tilemap_attr   bg_elevator_tilemap_attr
     00000013  ___bank_bg_iceos_desktop_copy__t   bg_iceos_desktop_copy__tilem
     00000013  ___bank_bg_iceos_desktop_copy__t   bg_iceos_desktop_copy__tilem
     00000013  ___bank_bg_iceos_login_2_copy__t   bg_iceos_login_2_copy__tilem
     00000013  ___bank_bg_iceos_login_2_copy__t   bg_iceos_login_2_copy__tilem
     00000013  ___bank_bg_iceos_login_copy__til   bg_iceos_login_copy__tilemap
     00000013  ___bank_bg_iceos_login_copy__til   bg_iceos_login_copy__tilemap
     00000013  ___bank_bg_iceos_platformer2_cop   bg_iceos_platformer2_copy__t
     00000013  ___bank_bg_iceos_platformer2_cop   bg_iceos_platformer2_copy__t
     00000013  ___bank_bg_iceos_platformer3_cop   bg_iceos_platformer3_copy__t
     00000013  ___bank_bg_iceos_platformer3_cop   bg_iceos_platformer3_copy__t
     00000013  ___bank_bg_iceos_platformer4_til   bg_iceos_platformer4_tilemap
     00000013  ___bank_bg_iceos_platformer4_til   bg_iceos_platformer4_tilemap
     00000013  ___bank_bg_iceos_platformer4_til   bg_iceos_platformer4_tileset
     00000013  ___bank_bg_init_copy_1_tilemap     bg_init_copy_1_tilemap
     00000013  ___bank_bg_init_copy_1_tilemap_a   bg_init_copy_1_tilemap_attr
     00000013  ___bank_bg_intro_weather_copy__t   bg_intro_weather_copy__tilem
     00000013  ___bank_bg_intro_weather_copy__t   bg_intro_weather_copy__tilem
     00000013  ___bank_bg_lair_hub_tilemap        bg_lair_hub_tilemap
     00000013  ___bank_bg_lair_hub_tilemap_attr   bg_lair_hub_tilemap_attr
     00000013  ___bank_bg_lair_left_2_copy__til   bg_lair_left_2_copy__tilemap
     00000013  ___bank_bg_lair_left_2_copy__til   bg_lair_left_2_copy__tilemap
     00000013  ___bank_bg_lair_left_2_tilemap     bg_lair_left_2_tilemap
     00000013  ___bank_bg_lair_left_2_tilemap_a   bg_lair_left_2_tilemap_attr
     00000013  ___bank_bg_lair_left_3_tilemap     bg_lair_left_3_tilemap
     00000013  ___bank_bg_lair_left_3_tilemap_a   bg_lair_left_3_tilemap_attr
     00000013  ___bank_bg_lair_right_2_copy__ti   bg_lair_right_2_copy__tilema
     00000013  ___bank_bg_lair_right_2_copy__ti   bg_lair_right_2_copy__tilema
     00000013  ___bank_bg_lair_right_2_tilemap    bg_lair_right_2_tilemap
     00000013  ___bank_bg_lair_right_2_tilemap_   bg_lair_right_2_tilemap_attr
     00000013  ___bank_bg_lair_right_3_copy__ti   bg_lair_right_3_copy__tilema
     00000013  ___bank_bg_lair_right_3_copy__ti   bg_lair_right_3_copy__tilema
     00000013  ___bank_bg_lair_right_3_tilemap    bg_lair_right_3_tilemap
ASxxxx Linker V03.00/V05.40 + sdld,  page 10.
Hexadecimal  [32-Bits]

Area                                    Addr        Size        Decimal Bytes (Attributes)
--------------------------------        ----        ----        ------- ----- ------------
.  .ABS.                            00000000    00000000 =           0. bytes (ABS,CON)

      Value  Global                              Global Defined In Module
      -----  --------------------------------   ------------------------
     00000013  ___bank_bg_lair_right_3_tilemap_   bg_lair_right_3_tilemap_attr
     00000013  ___bank_bg_lair_right_4_copy__ti   bg_lair_right_4_copy__tilema
     00000013  ___bank_bg_lair_right_4_copy__ti   bg_lair_right_4_copy__tilema
     00000013  ___bank_bg_lair_right_5_tilemap_   bg_lair_right_5_tilemap_attr
     00000013  ___bank_scene_45_sprites           scene_45_sprites
     00000014  ___bank_bg_lair_right_3_copy__ti   bg_lair_right_3_copy__tilese
     00000014  ___bank_bg_lair_right_5_tilemap    bg_lair_right_5_tilemap
     00000014  ___bank_bg_lencity_dhillybuildin   bg_lencity_dhillybuilding_c_
     00000014  ___bank_bg_lencity_dhillybuildin   bg_lencity_dhillybuilding_c_
     00000014  ___bank_bg_lencity_dhillybuildin   bg_lencity_dhillybuilding_f_
     00000014  ___bank_bg_lencity_dhillybuildin   bg_lencity_dhillybuilding_f_
     00000014  ___bank_bg_lencity_trainstation_   bg_lencity_trainstation_cop_
     00000014  ___bank_bg_lencity_trainstation_   bg_lencity_trainstation_cop_
     00000014  ___bank_bg_lencity_yua_building_   bg_lencity_yua_building_tile
     00000014  ___bank_bg_lencity_yua_building_   bg_lencity_yua_building_tile
     00000014  ___bank_bg_options_copy__tilemap   bg_options_copy__tilemap
     00000014  ___bank_bg_options_copy__tilemap   bg_options_copy__tilemap_att
     00000014  ___bank_bg_pixil_frame_0_23_tile   bg_pixil_frame_0_23_tilemap
     00000014  ___bank_bg_pixil_frame_0_23_tile   bg_pixil_frame_0_23_tilemap_
     00000014  ___bank_bg_pixil_frame_0_copy_co   bg_pixil_frame_0_copy_copy__
     00000014  ___bank_bg_pixil_frame_0_copy_co   bg_pixil_frame_0_copy_copy__
     00000014  ___bank_bg_samsam_copy_tilemap     bg_samsam_copy_tilemap
     00000014  ___bank_bg_samsam_copy_tilemap_a   bg_samsam_copy_tilemap_attr
     00000014  ___bank_bg_shillycity_sara_house   bg_shillycity_sara_house_co_
     00000014  ___bank_bg_shillycity_sara_house   bg_shillycity_sara_house_co_
     00000014  ___bank_bg_shillycityopen_copy__   bg_shillycityopen_copy__tile
     00000014  ___bank_bg_shillycityopen_copy__   bg_shillycityopen_copy__tile
     00000014  ___bank_bg_title_copy_0_tilemap    bg_title_copy_0_tilemap
     00000014  ___bank_bg_title_copy_0_tilemap_   bg_title_copy_0_tilemap_attr
     00000014  ___bank_bg_title_copy_1_tilemap    bg_title_copy_1_tilemap
     00000014  ___bank_bg_title_copy_1_tilemap_   bg_title_copy_1_tilemap_attr
     00000014  ___bank_bg_title_copy_2_tilemap    bg_title_copy_2_tilemap
     00000014  ___bank_bg_title_copy_2_tilemap_   bg_title_copy_2_tilemap_attr
     00000014  ___bank_bg_title_copy__tilemap     bg_title_copy__tilemap
     00000014  ___bank_bg_title_copy__tilemap_a   bg_title_copy__tilemap_attr
     00000014  ___bank_bg_title_tilemap           bg_title_tilemap
     00000014  ___bank_bg_title_tilemap_attr      bg_title_tilemap_attr
     00000014  ___bank_scene_10_collisions        scene_10_collisions
     00000014  ___bank_scene_11_collisions        scene_11_collisions
     00000014  ___bank_scene_12_collisions        scene_12_collisions
     00000014  ___bank_scene_13_collisions        scene_13_collisions
     00000014  ___bank_scene_14_collisions        scene_14_collisions
     00000014  ___bank_scene_16_collisions        scene_16_collisions
     00000014  ___bank_scene_1_collisions         scene_1_collisions
     00000014  ___bank_scene_22_collisions        scene_22_collisions
     00000014  ___bank_scene_23_collisions        scene_23_collisions
     00000014  ___bank_scene_24_collisions        scene_24_collisions
     00000014  ___bank_scene_25_collisions        scene_25_collisions
     00000014  ___bank_scene_26_collisions        scene_26_collisions
     00000014  ___bank_scene_2_collisions         scene_2_collisions
     00000014  ___bank_scene_3_collisions         scene_3_collisions
ASxxxx Linker V03.00/V05.40 + sdld,  page 11.
Hexadecimal  [32-Bits]

Area                                    Addr        Size        Decimal Bytes (Attributes)
--------------------------------        ----        ----        ------- ----- ------------
.  .ABS.                            00000000    00000000 =           0. bytes (ABS,CON)

      Value  Global                              Global Defined In Module
      -----  --------------------------------   ------------------------
     00000014  ___bank_scene_48_sprites           scene_48_sprites
     00000015  ___bank_VM_MATH                    vm_math
     00000015  ___bank_VM_MUSIC                   vm_music
     00000015  ___bank_bg_cave_ladder_copy__til   bg_cave_ladder_copy__tileset
     00000015  ___bank_bg_cinema_tileset          bg_cinema_tileset
     00000015  ___bank_bg_controls_gb_copy_0_ti   bg_controls_gb_copy_0_tilese
     00000015  ___bank_bg_elevator_tileset        bg_elevator_tileset
     00000015  ___bank_bg_iceos_platformer2_cop   bg_iceos_platformer2_copy__t
     00000015  ___bank_bg_iceos_platformer3_cop   bg_iceos_platformer3_copy__t
     00000015  ___bank_bg_lair_hub_tileset        bg_lair_hub_tileset
     00000015  ___bank_bg_lair_left_2_tileset     bg_lair_left_2_tileset
     00000015  ___bank_bg_lencity_dhillybuildin   bg_lencity_dhillybuilding_c_
     00000015  ___bank_bg_lencity_dhillybuildin   bg_lencity_dhillybuilding_f_
     00000015  ___bank_bg_lencity_trainstation_   bg_lencity_trainstation_tile
     00000015  ___bank_bg_lencityopen_copy_0_ti   bg_lencityopen_copy_0_tilese
     00000015  ___bank_scene_33_collisions        scene_33_collisions
     00000015  ___bank_scene_36_collisions        scene_36_collisions
     00000015  ___bank_scene_37_collisions        scene_37_collisions
     00000015  ___bank_scene_38_collisions        scene_38_collisions
     00000015  ___bank_scene_39_collisions        scene_39_collisions
     00000015  ___bank_scene_40_collisions        scene_40_collisions
     00000015  ___bank_scene_41_collisions        scene_41_collisions
     00000015  ___bank_scene_42_collisions        scene_42_collisions
     00000015  ___bank_scene_43_collisions        scene_43_collisions
     00000015  ___bank_scene_44_collisions        scene_44_collisions
     00000015  ___bank_scene_4_collisions         scene_4_collisions
     00000015  ___bank_scene_52_actors            scene_52_actors
     00000015  ___bank_scene_53_actors            scene_53_actors
     00000015  ___bank_scene_54_collisions        scene_54_collisions
     00000015  ___bank_scene_59_collisions        scene_59_collisions
     00000015  ___bank_scene_5_collisions         scene_5_collisions
     00000015  ___bank_scene_60_collisions        scene_60_collisions
     00000015  ___bank_scene_61_collisions        scene_61_collisions
     00000015  ___bank_scene_64_collisions        scene_64_collisions
     00000015  ___bank_scene_66_collisions        scene_66_collisions
     00000015  ___bank_scene_67_collisions        scene_67_collisions
     00000015  ___bank_scene_68_collisions        scene_68_collisions
     00000015  ___bank_scene_69_collisions        scene_69_collisions
     00000015  ___bank_scene_6_collisions         scene_6_collisions
     00000015  ___bank_scene_70_collisions        scene_70_collisions
     00000015  ___bank_scene_71_collisions        scene_71_collisions
     00000015  ___bank_scene_72_collisions        scene_72_collisions
     00000015  ___bank_scene_73_collisions        scene_73_collisions
     00000015  ___bank_scene_74_collisions        scene_74_collisions
     00000015  ___bank_scene_75_collisions        scene_75_collisions
     00000015  ___bank_scene_7_collisions         scene_7_collisions
     00000015  ___bank_scene_8_collisions         scene_8_collisions
     00000015  ___bank_scene_9_collisions         scene_9_collisions
     00000015  ___bank_script_input_0             script_input_0
     00000015  b_erase_flash                      
     00000015  b_save_sram_banks                  
ASxxxx Linker V03.00/V05.40 + sdld,  page 12.
Hexadecimal  [32-Bits]

Area                                    Addr        Size        Decimal Bytes (Attributes)
--------------------------------        ----        ----        ------- ----- ------------
.  .ABS.                            00000000    00000000 =           0. bytes (ABS,CON)

      Value  Global                              Global Defined In Module
      -----  --------------------------------   ------------------------
     00000015  b_vm_cos_scale                     vm_math
     00000015  b_vm_music_mute                    vm_music
     00000015  b_vm_music_play                    vm_music
     00000015  b_vm_music_routine                 vm_music
     00000015  b_vm_music_setpos                  vm_music
     00000015  b_vm_music_stop                    vm_music
     00000015  b_vm_sfx_play                      vm_music
     00000015  b_vm_sin_scale                     vm_math
     00000015  b_vm_sound_mastervol               vm_music
     00000016  ___bank_VM_GBPRINTER               vm_gbprinter
     00000016  ___bank_VM_LOAD_SAVE               vm_load_save
     00000016  ___bank_VM_RTC                     vm_rtc
     00000016  ___bank_VM_SCENE                   vm_scene
     00000016  ___bank_actor_16_interact          actor_16_interact
     00000016  ___bank_actor_18_interact          actor_18_interact
     00000016  ___bank_actor_21_interact          actor_21_interact
     00000016  ___bank_actor_33_interact          actor_33_interact
     00000016  ___bank_actor_34_interact          actor_34_interact
     00000016  ___bank_actor_38_interact          actor_38_interact
     00000016  ___bank_actor_39_interact          actor_39_interact
     00000016  ___bank_actor_41_interact          actor_41_interact
     00000016  ___bank_actor_42_interact          actor_42_interact
     00000016  ___bank_bg_cave_ladder_copy_0_ti   bg_cave_ladder_copy_0_tilese
     00000016  ___bank_bg_fieldlazy_tileset       bg_fieldlazy_tileset
     00000016  ___bank_bg_init_copy_0_tileset     bg_init_copy_0_tileset
     00000016  ___bank_bg_intro_scenary_copy__t   bg_intro_scenary_copy__tiles
     00000016  ___bank_bg_intro_weather_copy__t   bg_intro_weather_copy__tiles
     00000016  ___bank_bg_lair_left_2_copy__til   bg_lair_left_2_copy__tileset
     00000016  ___bank_bg_lair_right_2_copy__ti   bg_lair_right_2_copy__tilese
     00000016  ___bank_bg_lair_right_2_tileset    bg_lair_right_2_tileset
     00000016  ___bank_bg_lair_right_4_copy__ti   bg_lair_right_4_copy__tilese
     00000016  ___bank_emote_shock                emote_shock
     00000016  ___bank_frame_image                frame_image
     00000016  ___bank_palette_0                  palette_0
     00000016  ___bank_palette_1                  palette_1
     00000016  ___bank_palette_10                 palette_10
     00000016  ___bank_palette_11                 palette_11
     00000016  ___bank_palette_12                 palette_12
     00000016  ___bank_palette_13                 palette_13
     00000016  ___bank_palette_14                 palette_14
     00000016  ___bank_palette_15                 palette_15
     00000016  ___bank_palette_16                 palette_16
     00000016  ___bank_palette_17                 palette_17
     00000016  ___bank_palette_18                 palette_18
     00000016  ___bank_palette_19                 palette_19
     00000016  ___bank_palette_2                  palette_2
     00000016  ___bank_palette_20                 palette_20
     00000016  ___bank_palette_21                 palette_21
     00000016  ___bank_palette_22                 palette_22
     00000016  ___bank_palette_23                 palette_23
     00000016  ___bank_palette_24                 palette_24
ASxxxx Linker V03.00/V05.40 + sdld,  page 13.
Hexadecimal  [32-Bits]

Area                                    Addr        Size        Decimal Bytes (Attributes)
--------------------------------        ----        ----        ------- ----- ------------
.  .ABS.                            00000000    00000000 =           0. bytes (ABS,CON)

      Value  Global                              Global Defined In Module
      -----  --------------------------------   ------------------------
     00000016  ___bank_palette_25                 palette_25
     00000016  ___bank_palette_26                 palette_26
     00000016  ___bank_palette_27                 palette_27
     00000016  ___bank_palette_28                 palette_28
     00000016  ___bank_palette_29                 palette_29
     00000016  ___bank_palette_3                  palette_3
     00000016  ___bank_palette_30                 palette_30
     00000016  ___bank_palette_31                 palette_31
     00000016  ___bank_palette_32                 palette_32
     00000016  ___bank_palette_33                 palette_33
     00000016  ___bank_palette_34                 palette_34
     00000016  ___bank_palette_35                 palette_35
     00000016  ___bank_palette_36                 palette_36
     00000016  ___bank_palette_37                 palette_37
     00000016  ___bank_palette_38                 palette_38
     00000016  ___bank_palette_39                 palette_39
     00000016  ___bank_palette_4                  palette_4
     00000016  ___bank_palette_40                 palette_40
     00000016  ___bank_palette_41                 palette_41
     00000016  ___bank_palette_42                 palette_42
     00000016  ___bank_palette_43                 palette_43
     00000016  ___bank_palette_44                 palette_44
     00000016  ___bank_palette_45                 palette_45
     00000016  ___bank_palette_46                 palette_46
     00000016  ___bank_palette_47                 palette_47
     00000016  ___bank_palette_48                 palette_48
     00000016  ___bank_palette_49                 palette_49
     00000016  ___bank_palette_5                  palette_5
     00000016  ___bank_palette_50                 palette_50
     00000016  ___bank_palette_51                 palette_51
     00000016  ___bank_palette_52                 palette_52
     00000016  ___bank_palette_53                 palette_53
     00000016  ___bank_palette_54                 palette_54
     00000016  ___bank_palette_55                 palette_55
     00000016  ___bank_palette_6                  palette_6
     00000016  ___bank_palette_7                  palette_7
     00000016  ___bank_palette_8                  palette_8
     00000016  ___bank_palette_9                  palette_9
     00000016  ___bank_scene_0                    scene_0
     00000016  ___bank_scene_1                    scene_1
     00000016  ___bank_scene_10                   scene_10
     00000016  ___bank_scene_11                   scene_11
     00000016  ___bank_scene_11_init              scene_11_init
     00000016  ___bank_scene_12                   scene_12
     00000016  ___bank_scene_12_init              scene_12_init
     00000016  ___bank_scene_13                   scene_13
     00000016  ___bank_scene_14                   scene_14
     00000016  ___bank_scene_15                   scene_15
     00000016  ___bank_scene_16                   scene_16
     00000016  ___bank_scene_17                   scene_17
     00000016  ___bank_scene_18                   scene_18
ASxxxx Linker V03.00/V05.40 + sdld,  page 14.
Hexadecimal  [32-Bits]

Area                                    Addr        Size        Decimal Bytes (Attributes)
--------------------------------        ----        ----        ------- ----- ------------
.  .ABS.                            00000000    00000000 =           0. bytes (ABS,CON)

      Value  Global                              Global Defined In Module
      -----  --------------------------------   ------------------------
     00000016  ___bank_scene_18_actors            scene_18_actors
     00000016  ___bank_scene_18_init              scene_18_init
     00000016  ___bank_scene_19                   scene_19
     00000016  ___bank_scene_19_init              scene_19_init
     00000016  ___bank_scene_1_init               scene_1_init
     00000016  ___bank_scene_2                    scene_2
     00000016  ___bank_scene_20                   scene_20
     00000016  ___bank_scene_22                   scene_22
     00000016  ___bank_scene_22_actors            scene_22_actors
     00000016  ___bank_scene_23                   scene_23
     00000016  ___bank_scene_23_init              scene_23_init
     00000016  ___bank_scene_24                   scene_24
     00000016  ___bank_scene_24_init              scene_24_init
     00000016  ___bank_scene_25                   scene_25
     00000016  ___bank_scene_25_init              scene_25_init
     00000016  ___bank_scene_26                   scene_26
     00000016  ___bank_scene_26_init              scene_26_init
     00000016  ___bank_scene_27                   scene_27
     00000016  ___bank_scene_28                   scene_28
     00000016  ___bank_scene_29                   scene_29
     00000016  ___bank_scene_2_actors             scene_2_actors
     00000016  ___bank_scene_2_init               scene_2_init
     00000016  ___bank_scene_3                    scene_3
     00000016  ___bank_scene_30                   scene_30
     00000016  ___bank_scene_31                   scene_31
     00000016  ___bank_scene_33_actors            scene_33_actors
     00000016  ___bank_scene_37_actors            scene_37_actors
     00000016  ___bank_scene_38_init              scene_38_init
     00000016  ___bank_scene_39_actors            scene_39_actors
     00000016  ___bank_scene_3_init               scene_3_init
     00000016  ___bank_scene_45_actors            scene_45_actors
     00000016  ___bank_scene_45_init              scene_45_init
     00000016  ___bank_scene_46_actors            scene_46_actors
     00000016  ___bank_scene_46_p_hit1            scene_46_p_hit1
     00000016  ___bank_scene_48_p_hit1            scene_48_p_hit1
     00000016  ___bank_scene_49_p_hit1            scene_49_p_hit1
     00000016  ___bank_scene_49_triggers          scene_49_triggers
     00000016  ___bank_scene_4_init               scene_4_init
     00000016  ___bank_scene_5_init               scene_5_init
     00000016  ___bank_scene_64_init              scene_64_init
     00000016  ___bank_scene_69_init              scene_69_init
     00000016  ___bank_scene_6_init               scene_6_init
     00000016  ___bank_scene_73_actors            scene_73_actors
     00000016  ___bank_scene_74_init              scene_74_init
     00000016  ___bank_scene_8_init               scene_8_init
     00000016  ___bank_scene_9_init               scene_9_init
     00000016  ___bank_script_engine_init         
     00000016  ___bank_script_input_1             script_input_1
     00000016  ___bank_script_input_2             script_input_2
     00000016  ___bank_script_input_4             script_input_4
     00000016  ___bank_script_input_5             script_input_5
ASxxxx Linker V03.00/V05.40 + sdld,  page 15.
Hexadecimal  [32-Bits]

Area                                    Addr        Size        Decimal Bytes (Attributes)
--------------------------------        ----        ----        ------- ----- ------------
.  .ABS.                            00000000    00000000 =           0. bytes (ABS,CON)

      Value  Global                              Global Defined In Module
      -----  --------------------------------   ------------------------
     00000016  ___bank_sprite_blank_interactabl   sprite_blank_interactable_c_
     00000016  ___bank_sprite_blank_interactabl   sprite_blank_interactable_c_
     00000016  ___bank_sprite_blank_interactabl   sprite_blank_interactable_c_
     00000016  ___bank_sprite_car_tileset         sprite_car_tileset
     00000016  ___bank_sprite_cataa_tileset       sprite_cataa_tileset
     00000016  ___bank_sprite_dhilly_5_level_co   sprite_dhilly_5_level_copy_
     00000016  ___bank_sprite_dhilly_5_level_co   sprite_dhilly_5_level_copy__
     00000016  ___bank_sprite_dhilly_saveselect   sprite_dhilly_saveselect
     00000016  ___bank_sprite_highlight_options   sprite_highlight_options_co
     00000016  ___bank_sprite_highlight_options   sprite_highlight_options_co_
     00000016  ___bank_sprite_iceosapp_ctf_copy   sprite_iceosapp_ctf_copy_0_t
     00000016  ___bank_sprite_iceosapp_wveruner   sprite_iceosapp_wveruner_co_
     00000016  ___bank_sprite_knife_down_copy__   sprite_knife_down_copy__tile
     00000016  ___bank_sprite_mzdesigns_tileset   sprite_mzdesigns_tileset
     00000016  ___bank_sprite_shapiro_tileset     sprite_shapiro_tileset
     00000016  ___bank_sprite_square_cart_copy_   sprite_square_cart_copy_
     00000016  ___bank_sprite_square_cart_copy_   sprite_square_cart_copy__til
     00000016  ___bank_sprite_square_full_hitbo   sprite_square_full_hitbox_c_
     00000016  ___bank_sprite_square_full_hitbo   sprite_square_full_hitbox_c_
     00000016  ___bank_sprite_square_full_hitbo   sprite_square_full_hitbox_c_
     00000016  ___bank_sprite_square_full_hitbo   sprite_square_full_hitbox_c_
     00000016  ___bank_sprite_square_full_hitbo   sprite_square_full_hitbox_c_
     00000016  ___bank_sprite_static_copy_tiles   sprite_static_copy_tileset
     00000016  ___bank_trigger_52_interact        trigger_52_interact
     00000016  ___bank_trigger_69_interact        trigger_69_interact
     00000016  ___bank_trigger_77_interact        trigger_77_interact
     00000016  ___bank_trigger_86_interact        trigger_86_interact
     00000016  ___bank_trigger_89_interact        trigger_89_interact
     00000016  ___bank_trigger_90_interact        trigger_90_interact
     00000016  b_CGBZeroPalette                   palette
     00000016  b_SGBTransferPalettes              palette
     00000016  b_events_init                      events
     00000016  b_itoa_fmt                         vm_ui_a
     00000016  b_music_events_poll                music_manager
     00000016  b_music_init_driver                music_manager
     00000016  b_music_init_events                music_manager
     00000016  b_palette_init                     palette
     00000016  b_restore_sram                     flasher
     00000016  b_restore_sram_bank                flasher
     00000016  b_save_sram                        flasher
     00000016  b_scroll_rect                      
     00000016  b_timers_init                      events
     00000016  b_vm_print_detect                  vm_gbprinter
     00000016  b_vm_print_overlay                 vm_gbprinter
     00000016  b_vm_rtc_get                       vm_rtc
     00000016  b_vm_rtc_latch                     vm_rtc
     00000016  b_vm_rtc_set                       vm_rtc
     00000016  b_vm_rtc_start                     vm_rtc
     00000016  b_vm_save_clear                    vm_load_save
     00000016  b_vm_save_peek                     vm_load_save
     00000016  b_vm_scene_pop                     vm_scene
ASxxxx Linker V03.00/V05.40 + sdld,  page 16.
Hexadecimal  [32-Bits]

Area                                    Addr        Size        Decimal Bytes (Attributes)
--------------------------------        ----        ----        ------- ----- ------------
.  .ABS.                            00000000    00000000 =           0. bytes (ABS,CON)

      Value  Global                              Global Defined In Module
      -----  --------------------------------   ------------------------
     00000016  b_vm_scene_pop_all                 vm_scene
     00000016  b_vm_scene_push                    vm_scene
     00000016  b_vm_scene_stack_reset             vm_scene
     00000017  ___bank_actor_14_interact          actor_14_interact
     00000017  ___bank_actor_17_interact          actor_17_interact
     00000017  ___bank_actor_32_interact          actor_32_interact
     00000017  ___bank_actor_36_interact          actor_36_interact
     00000017  ___bank_actor_37_interact          actor_37_interact
     00000017  ___bank_actor_46_interact          actor_46_interact
     00000017  ___bank_actor_47_interact          actor_47_interact
     00000017  ___bank_bg_cave_ladder_copy_0      bg_cave_ladder_copy_0
     00000017  ___bank_bg_cinema                  bg_cinema
     00000017  ___bank_bg_controls_gb_copy_       bg_controls_gb_copy_
     00000017  ___bank_bg_controls_gb_copy_0      bg_controls_gb_copy_0
     00000017  ___bank_bg_controls_gba_copy_      bg_controls_gba_copy_
     00000017  ___bank_bg_controls_gba_copy_0     bg_controls_gba_copy_0
     00000017  ___bank_bg_controls_gbc_copy_      bg_controls_gbc_copy_
     00000017  ___bank_bg_controls_mobile_copy_   bg_controls_mobile_copy_
     00000017  ___bank_bg_controls_mobile_copy_   bg_controls_mobile_copy_0
     00000017  ___bank_bg_dhilly_game_1           bg_dhilly_game_1
     00000017  ___bank_bg_elevator                bg_elevator
     00000017  ___bank_bg_fieldlazy               bg_fieldlazy
     00000017  ___bank_bg_iceos_desktop_copy_     bg_iceos_desktop_copy_
     00000017  ___bank_bg_iceos_login_2_copy_     bg_iceos_login_2_copy_
     00000017  ___bank_bg_iceos_login_copy_       bg_iceos_login_copy_
     00000017  ___bank_bg_iceos_platformer2_cop   bg_iceos_platformer2_copy_
     00000017  ___bank_bg_iceos_platformer3_cop   bg_iceos_platformer3_copy_
     00000017  ___bank_bg_iceos_platformer4       bg_iceos_platformer4
     00000017  ___bank_bg_init_copy_              bg_init_copy_
     00000017  ___bank_bg_init_copy_0             bg_init_copy_0
     00000017  ___bank_bg_init_copy_1             bg_init_copy_1
     00000017  ___bank_bg_init_copy__tileset      bg_init_copy__tileset
     00000017  ___bank_bg_intro_scenary_copy_     bg_intro_scenary_copy_
     00000017  ___bank_bg_intro_weather_copy_     bg_intro_weather_copy_
     00000017  ___bank_bg_lair_hub                bg_lair_hub
     00000017  ___bank_bg_lair_left_2             bg_lair_left_2
     00000017  ___bank_bg_lair_left_2_copy_       bg_lair_left_2_copy_
     00000017  ___bank_bg_lair_left_3             bg_lair_left_3
     00000017  ___bank_bg_lair_right              bg_lair_right
     00000017  ___bank_bg_lair_right_2            bg_lair_right_2
     00000017  ___bank_bg_lair_right_2_copy_      bg_lair_right_2_copy_
     00000017  ___bank_bg_lair_right_3            bg_lair_right_3
     00000017  ___bank_bg_lair_right_3_copy_      bg_lair_right_3_copy_
     00000017  ___bank_bg_lair_right_4_copy_      bg_lair_right_4_copy_
     00000017  ___bank_bg_lair_right_5            bg_lair_right_5
     00000017  ___bank_bg_lencity_dhillybuildin   bg_lencity_dhillybuilding_c
     00000017  ___bank_bg_lencity_dhillybuildin   bg_lencity_dhillybuilding_f
     00000017  ___bank_bg_lencity_trainstation    bg_lencity_trainstation
     00000017  ___bank_bg_lencity_trainstation_   bg_lencity_trainstation_cop
     00000017  ___bank_bg_lencity_yua_building    bg_lencity_yua_building
     00000017  ___bank_bg_lencityopen             bg_lencityopen
ASxxxx Linker V03.00/V05.40 + sdld,  page 17.
Hexadecimal  [32-Bits]

Area                                    Addr        Size        Decimal Bytes (Attributes)
--------------------------------        ----        ----        ------- ----- ------------
.  .ABS.                            00000000    00000000 =           0. bytes (ABS,CON)

      Value  Global                              Global Defined In Module
      -----  --------------------------------   ------------------------
     00000017  ___bank_bg_lencityopen_copy_       bg_lencityopen_copy_
     00000017  ___bank_bg_lencityopen_copy_0      bg_lencityopen_copy_0
     00000017  ___bank_bg_options_copy_           bg_options_copy_
     00000017  ___bank_bg_pixil_frame_0_23        bg_pixil_frame_0_23
     00000017  ___bank_bg_pixil_frame_0_24        bg_pixil_frame_0_24
     00000017  ___bank_bg_pixil_frame_0_30        bg_pixil_frame_0_30
     00000017  ___bank_bg_pixil_frame_0_31        bg_pixil_frame_0_31
     00000017  ___bank_bg_pixil_frame_0_33        bg_pixil_frame_0_33
     00000017  ___bank_bg_pixil_frame_0_copy_co   bg_pixil_frame_0_copy_copy_
     00000017  ___bank_bg_pixil_frame_23_0        bg_pixil_frame_23_0
     00000017  ___bank_bg_samsam_copy             bg_samsam_copy
     00000017  ___bank_bg_shillycity_sara_house   bg_shillycity_sara_house_co
     00000017  ___bank_bg_shillycityopen_copy_    bg_shillycityopen_copy_
     00000017  ___bank_bg_shillycityopen_copy_0   bg_shillycityopen_copy_0
     00000017  ___bank_bg_square_frozen_future    bg_square_frozen_future
     00000017  ___bank_bg_theatre                 bg_theatre
     00000017  ___bank_bg_title                   bg_title
     00000017  ___bank_bg_title_copy_             bg_title_copy_
     00000017  ___bank_bg_title_copy_0            bg_title_copy_0
     00000017  ___bank_bg_title_copy_1            bg_title_copy_1
     00000017  ___bank_bg_title_copy_2            bg_title_copy_2
     00000017  ___bank_cursor_image               cursor_image
     00000017  ___bank_scene_0_init               scene_0_init
     00000017  ___bank_scene_0_triggers           scene_0_triggers
     00000017  ___bank_scene_13_init              scene_13_init
     00000017  ___bank_scene_15_init              scene_15_init
     00000017  ___bank_scene_16_init              scene_16_init
     00000017  ___bank_scene_17_actors            scene_17_actors
     00000017  ___bank_scene_17_init              scene_17_init
     00000017  ___bank_scene_17_triggers          scene_17_triggers
     00000017  ___bank_scene_18_triggers          scene_18_triggers
     00000017  ___bank_scene_19_actors            scene_19_actors
     00000017  ___bank_scene_20_actors            scene_20_actors
     00000017  ___bank_scene_20_init              scene_20_init
     00000017  ___bank_scene_20_triggers          scene_20_triggers
     00000017  ___bank_scene_27_triggers          scene_27_triggers
     00000017  ___bank_scene_28_init              scene_28_init
     00000017  ___bank_scene_28_triggers          scene_28_triggers
     00000017  ___bank_scene_29_init              scene_29_init
     00000017  ___bank_scene_29_triggers          scene_29_triggers
     00000017  ___bank_scene_30_init              scene_30_init
     00000017  ___bank_scene_30_triggers          scene_30_triggers
     00000017  ___bank_scene_31_init              scene_31_init
     00000017  ___bank_scene_31_triggers          scene_31_triggers
     00000017  ___bank_scene_32                   scene_32
     00000017  ___bank_scene_32_init              scene_32_init
     00000017  ___bank_scene_32_triggers          scene_32_triggers
     00000017  ___bank_scene_33                   scene_33
     00000017  ___bank_scene_33_init              scene_33_init
     00000017  ___bank_scene_33_sprites           scene_33_sprites
     00000017  ___bank_scene_33_triggers          scene_33_triggers
ASxxxx Linker V03.00/V05.40 + sdld,  page 18.
Hexadecimal  [32-Bits]

Area                                    Addr        Size        Decimal Bytes (Attributes)
--------------------------------        ----        ----        ------- ----- ------------
.  .ABS.                            00000000    00000000 =           0. bytes (ABS,CON)

      Value  Global                              Global Defined In Module
      -----  --------------------------------   ------------------------
     00000017  ___bank_scene_34                   scene_34
     00000017  ___bank_scene_34_actors            scene_34_actors
     00000017  ___bank_scene_34_init              scene_34_init
     00000017  ___bank_scene_34_sprites           scene_34_sprites
     00000017  ___bank_scene_34_triggers          scene_34_triggers
     00000017  ___bank_scene_35                   scene_35
     00000017  ___bank_scene_35_init              scene_35_init
     00000017  ___bank_scene_35_triggers          scene_35_triggers
     00000017  ___bank_scene_36                   scene_36
     00000017  ___bank_scene_36_actors            scene_36_actors
     00000017  ___bank_scene_36_init              scene_36_init
     00000017  ___bank_scene_36_sprites           scene_36_sprites
     00000017  ___bank_scene_37                   scene_37
     00000017  ___bank_scene_37_init              scene_37_init
     00000017  ___bank_scene_37_sprites           scene_37_sprites
     00000017  ___bank_scene_38                   scene_38
     00000017  ___bank_scene_39                   scene_39
     00000017  ___bank_scene_39_init              scene_39_init
     00000017  ___bank_scene_39_sprites           scene_39_sprites
     00000017  ___bank_scene_3_actors             scene_3_actors
     00000017  ___bank_scene_4                    scene_4
     00000017  ___bank_scene_40                   scene_40
     00000017  ___bank_scene_40_init              scene_40_init
     00000017  ___bank_scene_40_triggers          scene_40_triggers
     00000017  ___bank_scene_41                   scene_41
     00000017  ___bank_scene_41_init              scene_41_init
     00000017  ___bank_scene_41_triggers          scene_41_triggers
     00000017  ___bank_scene_42                   scene_42
     00000017  ___bank_scene_42_init              scene_42_init
     00000017  ___bank_scene_42_triggers          scene_42_triggers
     00000017  ___bank_scene_43                   scene_43
     00000017  ___bank_scene_43_init              scene_43_init
     00000017  ___bank_scene_43_triggers          scene_43_triggers
     00000017  ___bank_scene_44                   scene_44
     00000017  ___bank_scene_44_init              scene_44_init
     00000017  ___bank_scene_44_triggers          scene_44_triggers
     00000017  ___bank_scene_45                   scene_45
     00000017  ___bank_scene_45_triggers          scene_45_triggers
     00000017  ___bank_scene_46                   scene_46
     00000017  ___bank_scene_46_projectiles       scene_46_projectiles
     00000017  ___bank_scene_46_triggers          scene_46_triggers
     00000017  ___bank_scene_47                   scene_47
     00000017  ___bank_scene_47_init              scene_47_init
     00000017  ___bank_scene_48                   scene_48
     00000017  ___bank_scene_48_actors            scene_48_actors
     00000017  ___bank_scene_48_init              scene_48_init
     00000017  ___bank_scene_48_projectiles       scene_48_projectiles
     00000017  ___bank_scene_48_triggers          scene_48_triggers
     00000017  ___bank_scene_49                   scene_49
     00000017  ___bank_scene_49_actors            scene_49_actors
     00000017  ___bank_scene_49_init              scene_49_init
ASxxxx Linker V03.00/V05.40 + sdld,  page 19.
Hexadecimal  [32-Bits]

Area                                    Addr        Size        Decimal Bytes (Attributes)
--------------------------------        ----        ----        ------- ----- ------------
.  .ABS.                            00000000    00000000 =           0. bytes (ABS,CON)

      Value  Global                              Global Defined In Module
      -----  --------------------------------   ------------------------
     00000017  ___bank_scene_49_projectiles       scene_49_projectiles
     00000017  ___bank_scene_49_sprites           scene_49_sprites
     00000017  ___bank_scene_5                    scene_5
     00000017  ___bank_scene_50                   scene_50
     00000017  ___bank_scene_50_actors            scene_50_actors
     00000017  ___bank_scene_50_init              scene_50_init
     00000017  ___bank_scene_50_projectiles       scene_50_projectiles
     00000017  ___bank_scene_50_sprites           scene_50_sprites
     00000017  ___bank_scene_50_triggers          scene_50_triggers
     00000017  ___bank_scene_51                   scene_51
     00000017  ___bank_scene_51_actors            scene_51_actors
     00000017  ___bank_scene_51_init              scene_51_init
     00000017  ___bank_scene_51_sprites           scene_51_sprites
     00000017  ___bank_scene_51_triggers          scene_51_triggers
     00000017  ___bank_scene_52                   scene_52
     00000017  ___bank_scene_52_sprites           scene_52_sprites
     00000017  ___bank_scene_53                   scene_53
     00000017  ___bank_scene_53_init              scene_53_init
     00000017  ___bank_scene_53_sprites           scene_53_sprites
     00000017  ___bank_scene_53_triggers          scene_53_triggers
     00000017  ___bank_scene_54                   scene_54
     00000017  ___bank_scene_54_actors            scene_54_actors
     00000017  ___bank_scene_54_sprites           scene_54_sprites
     00000017  ___bank_scene_54_triggers          scene_54_triggers
     00000017  ___bank_scene_55                   scene_55
     00000017  ___bank_scene_55_init              scene_55_init
     00000017  ___bank_scene_55_triggers          scene_55_triggers
     00000017  ___bank_scene_56                   scene_56
     00000017  ___bank_scene_56_init              scene_56_init
     00000017  ___bank_scene_56_triggers          scene_56_triggers
     00000017  ___bank_scene_57                   scene_57
     00000017  ___bank_scene_57_init              scene_57_init
     00000017  ___bank_scene_57_triggers          scene_57_triggers
     00000017  ___bank_scene_58                   scene_58
     00000017  ___bank_scene_58_actors            scene_58_actors
     00000017  ___bank_scene_58_init              scene_58_init
     00000017  ___bank_scene_58_sprites           scene_58_sprites
     00000017  ___bank_scene_58_triggers          scene_58_triggers
     00000017  ___bank_scene_59                   scene_59
     00000017  ___bank_scene_59_init              scene_59_init
     00000017  ___bank_scene_59_triggers          scene_59_triggers
     00000017  ___bank_scene_6                    scene_6
     00000017  ___bank_scene_60                   scene_60
     00000017  ___bank_scene_60_actors            scene_60_actors
     00000017  ___bank_scene_60_init              scene_60_init
     00000017  ___bank_scene_60_sprites           scene_60_sprites
     00000017  ___bank_scene_60_triggers          scene_60_triggers
     00000017  ___bank_scene_61                   scene_61
     00000017  ___bank_scene_61_actors            scene_61_actors
     00000017  ___bank_scene_61_init              scene_61_init
     00000017  ___bank_scene_61_sprites           scene_61_sprites
ASxxxx Linker V03.00/V05.40 + sdld,  page 20.
Hexadecimal  [32-Bits]

Area                                    Addr        Size        Decimal Bytes (Attributes)
--------------------------------        ----        ----        ------- ----- ------------
.  .ABS.                            00000000    00000000 =           0. bytes (ABS,CON)

      Value  Global                              Global Defined In Module
      -----  --------------------------------   ------------------------
     00000017  ___bank_scene_61_triggers          scene_61_triggers
     00000017  ___bank_scene_62                   scene_62
     00000017  ___bank_scene_62_init              scene_62_init
     00000017  ___bank_scene_62_triggers          scene_62_triggers
     00000017  ___bank_scene_63                   scene_63
     00000017  ___bank_scene_63_init              scene_63_init
     00000017  ___bank_scene_63_triggers          scene_63_triggers
     00000017  ___bank_scene_64                   scene_64
     00000017  ___bank_scene_64_actors            scene_64_actors
     00000017  ___bank_scene_64_sprites           scene_64_sprites
     00000017  ___bank_scene_64_triggers          scene_64_triggers
     00000017  ___bank_scene_65                   scene_65
     00000017  ___bank_scene_65_init              scene_65_init
     00000017  ___bank_scene_65_triggers          scene_65_triggers
     00000017  ___bank_scene_66                   scene_66
     00000017  ___bank_scene_66_init              scene_66_init
     00000017  ___bank_scene_66_triggers          scene_66_triggers
     00000017  ___bank_scene_67                   scene_67
     00000017  ___bank_scene_67_init              scene_67_init
     00000017  ___bank_scene_67_triggers          scene_67_triggers
     00000017  ___bank_scene_68                   scene_68
     00000017  ___bank_scene_68_init              scene_68_init
     00000017  ___bank_scene_68_triggers          scene_68_triggers
     00000017  ___bank_scene_69                   scene_69
     00000017  ___bank_scene_7                    scene_7
     00000017  ___bank_scene_70                   scene_70
     00000017  ___bank_scene_70_triggers          scene_70_triggers
     00000017  ___bank_scene_71                   scene_71
     00000017  ___bank_scene_71_actors            scene_71_actors
     00000017  ___bank_scene_71_init              scene_71_init
     00000017  ___bank_scene_71_sprites           scene_71_sprites
     00000017  ___bank_scene_71_triggers          scene_71_triggers
     00000017  ___bank_scene_72                   scene_72
     00000017  ___bank_scene_72_init              scene_72_init
     00000017  ___bank_scene_72_triggers          scene_72_triggers
     00000017  ___bank_scene_73                   scene_73
     00000017  ___bank_scene_73_init              scene_73_init
     00000017  ___bank_scene_73_sprites           scene_73_sprites
     00000017  ___bank_scene_74                   scene_74
     00000017  ___bank_scene_75                   scene_75
     00000017  ___bank_scene_75_init              scene_75_init
     00000017  ___bank_scene_75_triggers          scene_75_triggers
     00000017  ___bank_scene_8                    scene_8
     00000017  ___bank_scene_9                    scene_9
     00000017  ___bank_script_input_10            script_input_10
     00000017  ___bank_script_input_11            script_input_11
     00000017  ___bank_script_input_12            script_input_12
     00000017  ___bank_script_input_8             script_input_8
     00000017  ___bank_script_input_9             script_input_9
     00000017  ___bank_script_timer_0             script_timer_0
     00000017  ___bank_script_timer_1             script_timer_1
ASxxxx Linker V03.00/V05.40 + sdld,  page 21.
Hexadecimal  [32-Bits]

Area                                    Addr        Size        Decimal Bytes (Attributes)
--------------------------------        ----        ----        ------- ----- ------------
.  .ABS.                            00000000    00000000 =           0. bytes (ABS,CON)

      Value  Global                              Global Defined In Module
      -----  --------------------------------   ------------------------
     00000017  ___bank_script_timer_2             script_timer_2
     00000017  ___bank_script_timer_3             script_timer_3
     00000017  ___bank_script_timer_4             script_timer_4
     00000017  ___bank_script_timer_5             script_timer_5
     00000017  ___bank_script_timer_6             script_timer_6
     00000017  ___bank_script_timer_7             script_timer_7
     00000017  ___bank_script_timer_8             script_timer_8
     00000017  ___bank_script_timer_9             script_timer_9
     00000017  ___bank_sprite_blank_interactabl   sprite_blank_interactable_c
     00000017  ___bank_sprite_car                 sprite_car
     00000017  ___bank_sprite_cataa               sprite_cataa
     00000017  ___bank_sprite_dhilly_saveselect   sprite_dhilly_saveselect_co
     00000017  ___bank_sprite_dhilly_saveselect   sprite_dhilly_saveselect_co_
     00000017  ___bank_sprite_dhilly_saveselect   sprite_dhilly_saveselect_co_
     00000017  ___bank_sprite_dhilly_saveselect   sprite_dhilly_saveselect_co_
     00000017  ___bank_sprite_dhilly_saveselect   sprite_dhilly_saveselect_til
     00000017  ___bank_sprite_iceos_cursor_copy   sprite_iceos_cursor_copy_
     00000017  ___bank_sprite_iceosapp_ctf_copy   sprite_iceosapp_ctf_copy_0
     00000017  ___bank_sprite_iceosapp_pltfrmr_   sprite_iceosapp_pltfrmr_cop
     00000017  ___bank_sprite_iceosapp_pltfrmr_   sprite_iceosapp_pltfrmr_cop_
     00000017  ___bank_sprite_iceosapp_settings   sprite_iceosapp_settings_co
     00000017  ___bank_sprite_iceosapp_settings   sprite_iceosapp_settings_co_
     00000017  ___bank_sprite_iceosapp_wveruner   sprite_iceosapp_wveruner_co
     00000017  ___bank_sprite_knife_down_copy_    sprite_knife_down_copy_
     00000017  ___bank_sprite_len_city_dhilly_h   sprite_len_city_dhilly_hous
     00000017  ___bank_sprite_mzdesigns           sprite_mzdesigns
     00000017  ___bank_sprite_shapiro             sprite_shapiro
     00000017  ___bank_sprite_square_full_hitbo   sprite_square_full_hitbox_c
     00000017  ___bank_sprite_square_full_hitbo   sprite_square_full_hitbox_c_
     00000017  ___bank_sprite_square_full_hitbo   sprite_square_full_hitbox_c_
     00000017  ___bank_sprite_square_full_hitbo   sprite_square_full_hitbox_c_
     00000017  ___bank_sprite_square_full_hitbo   sprite_square_full_hitbox_c_
     00000017  ___bank_sprite_square_platformin   sprite_square_platforming_c
     00000017  ___bank_sprite_square_platformin   sprite_square_platforming_c_
     00000017  ___bank_sprite_static_copy         sprite_static_copy
     00000017  ___bank_spritesheet_none           spritesheet_none
     00000017  ___bank_trigger_0_interact         trigger_0_interact
     00000017  ___bank_trigger_10_interact        trigger_10_interact
     00000017  ___bank_trigger_11_interact        trigger_11_interact
     00000017  ___bank_trigger_12_interact        trigger_12_interact
     00000017  ___bank_trigger_13_interact        trigger_13_interact
     00000017  ___bank_trigger_14_interact        trigger_14_interact
     00000017  ___bank_trigger_15_interact        trigger_15_interact
     00000017  ___bank_trigger_16_interact        trigger_16_interact
     00000017  ___bank_trigger_17_interact        trigger_17_interact
     00000017  ___bank_trigger_18_interact        trigger_18_interact
     00000017  ___bank_trigger_19_interact        trigger_19_interact
     00000017  ___bank_trigger_20_interact        trigger_20_interact
     00000017  ___bank_trigger_21_interact        trigger_21_interact
     00000017  ___bank_trigger_22_interact        trigger_22_interact
     00000017  ___bank_trigger_23_interact        trigger_23_interact
ASxxxx Linker V03.00/V05.40 + sdld,  page 22.
Hexadecimal  [32-Bits]

Area                                    Addr        Size        Decimal Bytes (Attributes)
--------------------------------        ----        ----        ------- ----- ------------
.  .ABS.                            00000000    00000000 =           0. bytes (ABS,CON)

      Value  Global                              Global Defined In Module
      -----  --------------------------------   ------------------------
     00000017  ___bank_trigger_24_interact        trigger_24_interact
     00000017  ___bank_trigger_25_interact        trigger_25_interact
     00000017  ___bank_trigger_26_interact        trigger_26_interact
     00000017  ___bank_trigger_27_interact        trigger_27_interact
     00000017  ___bank_trigger_28_interact        trigger_28_interact
     00000017  ___bank_trigger_29_interact        trigger_29_interact
     00000017  ___bank_trigger_2_interact         trigger_2_interact
     00000017  ___bank_trigger_30_interact        trigger_30_interact
     00000017  ___bank_trigger_31_interact        trigger_31_interact
     00000017  ___bank_trigger_32_interact        trigger_32_interact
     00000017  ___bank_trigger_33_interact        trigger_33_interact
     00000017  ___bank_trigger_34_interact        trigger_34_interact
     00000017  ___bank_trigger_35_interact        trigger_35_interact
     00000017  ___bank_trigger_36_interact        trigger_36_interact
     00000017  ___bank_trigger_37_interact        trigger_37_interact
     00000017  ___bank_trigger_38_interact        trigger_38_interact
     00000017  ___bank_trigger_39_interact        trigger_39_interact
     00000017  ___bank_trigger_41_interact        trigger_41_interact
     00000017  ___bank_trigger_42_interact        trigger_42_interact
     00000017  ___bank_trigger_43_interact        trigger_43_interact
     00000017  ___bank_trigger_44_interact        trigger_44_interact
     00000017  ___bank_trigger_45_interact        trigger_45_interact
     00000017  ___bank_trigger_46_interact        trigger_46_interact
     00000017  ___bank_trigger_47_interact        trigger_47_interact
     00000017  ___bank_trigger_48_interact        trigger_48_interact
     00000017  ___bank_trigger_4_interact         trigger_4_interact
     00000017  ___bank_trigger_50_interact        trigger_50_interact
     00000017  ___bank_trigger_51_interact        trigger_51_interact
     00000017  ___bank_trigger_53_interact        trigger_53_interact
     00000017  ___bank_trigger_54_interact        trigger_54_interact
     00000017  ___bank_trigger_55_interact        trigger_55_interact
     00000017  ___bank_trigger_56_interact        trigger_56_interact
     00000017  ___bank_trigger_57_interact        trigger_57_interact
     00000017  ___bank_trigger_58_interact        trigger_58_interact
     00000017  ___bank_trigger_59_interact        trigger_59_interact
     00000017  ___bank_trigger_5_interact         trigger_5_interact
     00000017  ___bank_trigger_60_interact        trigger_60_interact
     00000017  ___bank_trigger_62_interact        trigger_62_interact
     00000017  ___bank_trigger_63_interact        trigger_63_interact
     00000017  ___bank_trigger_64_interact        trigger_64_interact
     00000017  ___bank_trigger_65_interact        trigger_65_interact
     00000017  ___bank_trigger_66_interact        trigger_66_interact
     00000017  ___bank_trigger_67_interact        trigger_67_interact
     00000017  ___bank_trigger_68_interact        trigger_68_interact
     00000017  ___bank_trigger_6_interact         trigger_6_interact
     00000017  ___bank_trigger_70_interact        trigger_70_interact
     00000017  ___bank_trigger_71_interact        trigger_71_interact
     00000017  ___bank_trigger_72_interact        trigger_72_interact
     00000017  ___bank_trigger_73_interact        trigger_73_interact
     00000017  ___bank_trigger_74_interact        trigger_74_interact
     00000017  ___bank_trigger_75_interact        trigger_75_interact
ASxxxx Linker V03.00/V05.40 + sdld,  page 23.
Hexadecimal  [32-Bits]

Area                                    Addr        Size        Decimal Bytes (Attributes)
--------------------------------        ----        ----        ------- ----- ------------
.  .ABS.                            00000000    00000000 =           0. bytes (ABS,CON)

      Value  Global                              Global Defined In Module
      -----  --------------------------------   ------------------------
     00000017  ___bank_trigger_76_interact        trigger_76_interact
     00000017  ___bank_trigger_78_interact        trigger_78_interact
     00000017  ___bank_trigger_79_interact        trigger_79_interact
     00000017  ___bank_trigger_7_interact         trigger_7_interact
     00000017  ___bank_trigger_80_interact        trigger_80_interact
     00000017  ___bank_trigger_82_interact        trigger_82_interact
     00000017  ___bank_trigger_83_interact        trigger_83_interact
     00000017  ___bank_trigger_84_interact        trigger_84_interact
     00000017  ___bank_trigger_85_interact        trigger_85_interact
     00000017  ___bank_trigger_87_interact        trigger_87_interact
     00000017  ___bank_trigger_88_interact        trigger_88_interact
     00000017  ___bank_trigger_8_interact         trigger_8_interact
     00000017  ___bank_trigger_91_interact        trigger_91_interact
     00000017  ___bank_trigger_92_interact        trigger_92_interact
     00000017  ___bank_trigger_93_interact        trigger_93_interact
     00000017  ___bank_trigger_9_interact         trigger_9_interact
     00000017  b_SIO_init                         sio
     00000017  b_camera_init                      camera
     00000017  b_input_init                       input
     00000017  b_logo_init                        logo
     00000017  b_logo_update                      logo
     00000017  b_parallax_init                    parallax
     0000001A  l__INITIALIZED                  
     0000001A  l__INITIALIZER                  
     0000001C  __start_save                    
     00000027  l__GSINIT                       
     00000030  l__HEADER7                      
     00000060  l__HEADER4                      
     00000080  ___size_SGB_border_pal             border
     000000AB  l__HEADER11                     
     000001CB  l__CRASH_SCRATCH2               
     00000200  s__CODE                         
     00000700  ___size_SGB_border_map             border
     00000ED4  l__CODE                         
     000010D4  s__HOME                         
     00001800  ___size_SGB_border_chr             border
     00001994  l__DATA                         
     00002000  _rROMB0                            
     00002DB1  l__HOME                         
     00003000  _rROMB1                            
     00003261  l__CODE_23                      
     00003E85  s__BASE                         
     00003E85  s__CODE_0                       
     00003E85  s__INITIALIZER                  
     00003E85  s__LIT                          
     00003E9F  s__GSINIT                       
     00003EC6  s__GSFINAL                      
     00003FFE  l__CODE_12                      
     00003FFE  l__CODE_5                       
     00003FFE  l__CODE_6                       
     00003FFE  l__CODE_9                       
ASxxxx Linker V03.00/V05.40 + sdld,  page 24.
Hexadecimal  [32-Bits]

Area                                    Addr        Size        Decimal Bytes (Attributes)
--------------------------------        ----        ----        ------- ----- ------------
.  .ABS.                            00000000    00000000 =           0. bytes (ABS,CON)

      Value  Global                              Global Defined In Module
      -----  --------------------------------   ------------------------
     00003FFF  l__CODE_10                      
     00003FFF  l__CODE_13                      
     00003FFF  l__CODE_14                      
     00003FFF  l__CODE_15                      
     00003FFF  l__CODE_17                      
     00003FFF  l__CODE_18                      
     00003FFF  l__CODE_2                       
     00003FFF  l__CODE_3                       
     00003FFF  l__CODE_4                       
     00003FFF  l__CODE_7                       
     00004000  _RTC_SELECT_REG                    vm_rtc
     00004000  _rRAMB                             
     00004000  l__CODE_1                       
     00004000  l__CODE_11                      
     00004000  l__CODE_16                      
     00004000  l__CODE_19                      
     00004000  l__CODE_20                      
     00004000  l__CODE_21                      
     00004000  l__CODE_22                      
     00004000  l__CODE_8                       
     00006000  _RTC_LATCH_REG                     vm_rtc
     00008000  __VRAM                             
     00008000  __VRAM8000                         
     00008800  __VRAM8800                         
     00009000  __VRAM9000                         
     00009800  __SCRN0                            
     00009C00  __SCRN1                            
     0000A000  _RTC_VALUE_REG                     vm_rtc
     0000A000  __SRAM                             
     0000C000  __RAM                              
     0000C000  _shadow_OAM                     
     0000C0A0  s__DATA                         
     0000D000  __RAMBANK                          
     0000DA34  s__BSS                          
     0000DA34  s__INITIALIZED                  
     0000DA4E  s__HEAP                         
     0000DA4E  s__HEAP_END                     
     0000DF00  .STACK                          
     0000DF00  _shadow_OAM2                       absolute
     0000DFA0  _BkgPalette                        absolute
     0000DFE0  _vwf_tile_data                     absolute
     0000FE00  __OAMRAM                           
     0000FF00  _P1_REG                            
     0000FF00  __IO                               
     0000FF01  _SB_REG                            
     0000FF02  _SC_REG                            
     0000FF04  _DIV_REG                           
     0000FF05  _TIMA_REG                          
     0000FF06  _TMA_REG                           
     0000FF07  _TAC_REG                           
     0000FF0F  _IF_REG                            
ASxxxx Linker V03.00/V05.40 + sdld,  page 25.
Hexadecimal  [32-Bits]

Area                                    Addr        Size        Decimal Bytes (Attributes)
--------------------------------        ----        ----        ------- ----- ------------
.  .ABS.                            00000000    00000000 =           0. bytes (ABS,CON)

      Value  Global                              Global Defined In Module
      -----  --------------------------------   ------------------------
     0000FF10  _NR10_REG                          
     0000FF11  _NR11_REG                          
     0000FF12  _NR12_REG                          
     0000FF13  _NR13_REG                          
     0000FF14  _NR14_REG                          
     0000FF16  _NR21_REG                          
     0000FF17  _NR22_REG                          
     0000FF18  _NR23_REG                          
     0000FF19  _NR24_REG                          
     0000FF1A  _NR30_REG                          
     0000FF1B  _NR31_REG                          
     0000FF1C  _NR32_REG                          
     0000FF1D  _NR33_REG                          
     0000FF1E  _NR34_REG                          
     0000FF20  _NR41_REG                          
     0000FF21  _NR42_REG                          
     0000FF22  _NR43_REG                          
     0000FF23  _NR44_REG                          
     0000FF24  _NR50_REG                          
     0000FF25  _NR51_REG                          
     0000FF26  _NR52_REG                          
     0000FF30  _AUD3WAVE                          
     0000FF30  _PCM_SAMPLE                        
     0000FF30  __AUD3WAVERAM                      
     0000FF40  _LCDC_REG                          
     0000FF41  _STAT_REG                          
     0000FF42  _SCY_REG                           
     0000FF43  _SCX_REG                           
     0000FF44  _LY_REG                            
     0000FF45  _LYC_REG                           
     0000FF46  _DMA_REG                           
     0000FF47  _BGP_REG                           
     0000FF48  _OBP0_REG                          
     0000FF49  _OBP1_REG                          
     0000FF4A  _WY_REG                            
     0000FF4B  _WX_REG                            
     0000FF4D  _KEY1_REG                          
     0000FF4F  _VBK_REG                           
     0000FF51  _HDMA1_REG                         
     0000FF52  _HDMA2_REG                         
     0000FF53  _HDMA3_REG                         
     0000FF54  _HDMA4_REG                         
     0000FF55  _HDMA5_REG                         
     0000FF56  _RP_REG                            
     0000FF68  _BCPS_REG                          
     0000FF69  _BCPD_REG                          
     0000FF6A  _OCPS_REG                          
     0000FF6B  _OCPD_REG                          
     0000FF70  _SVBK_REG                          
     0000FF76  _PCM12_REG                         
     0000FF77  _PCM34_REG                         
ASxxxx Linker V03.00/V05.40 + sdld,  page 26.
Hexadecimal  [32-Bits]

Area                                    Addr        Size        Decimal Bytes (Attributes)
--------------------------------        ----        ----        ------- ----- ------------
.  .ABS.                            00000000    00000000 =           0. bytes (ABS,CON)

      Value  Global                              Global Defined In Module
      -----  --------------------------------   ------------------------
     0000FF80  .refresh_OAM                    
     0000FF80  __HRAM                             
     0000FFFF  _IE_REG                            
     00014000  s__CODE_1                       
     00024000  s__CODE_2                       
     00034000  s__CODE_3                       
     00044000  s__CODE_4                       
     00054000  s__CODE_5                       
     00064000  s__CODE_6                       
     00074000  s__CODE_7                       
     00084000  s__CODE_8                       
     00094000  s__CODE_9                       
     000A4000  s__CODE_10                      
     000B4000  s__CODE_11                      
     000C4000  s__CODE_12                      
     000D4000  s__CODE_13                      
     000E4000  s__CODE_14                      
     000F4000  s__CODE_15                      
     00104000  s__CODE_16                      
     00114000  s__CODE_17                      
     00124000  s__CODE_18                      
     00134000  s__CODE_19                      
     00144000  s__CODE_20                      
     00154000  s__CODE_21                      
     00164000  s__CODE_22                      
     00174000  s__CODE_23                      

ASxxxx Linker V03.00/V05.40 + sdld,  page 27.
Hexadecimal  [32-Bits]

Area                                    Addr        Size        Decimal Bytes (Attributes)
--------------------------------        ----        ----        ------- ----- ------------
_CODE                               00000200    00000ED4 =        3796. bytes (REL,CON)

      Value  Global                              Global Defined In Module
      -----  --------------------------------   ------------------------
     00000200  ___HandleCrash                     
     0000020A  _SIO_send_byte                     
     0000021D  _SIO_receive                       
     0000022E  _GetWinAddr                        
     00000236  _GetBkgAddr                        
     00000244  _state_init                        
     00000249  _state_update                      
     0000026B  _ui_time_masks                     
     00000273  _ui_print_shift_char               
     000002F6  _ui_draw_frame_row                 
     000002FF  .ui_draw_frame_row                 
     00000328  _script_cmds                       vm_instructions
     00000560  _save_signature                    game_signature
     00000564  _start_scene_x                     
     00000566  _start_scene_y                     
     00000568  _start_scene_dir                   
     00000569  _start_scene                       
     0000056C  _start_player_move_speed           
     0000056D  _start_player_anim_tick            
     0000056E  _ui_fonts                          
     00000574  _core_reset_hook                   main
     0000057C  _main                              main
     00000584  _state_start_fns                   
     00000596  _state_update_fns                  
     000005A8  _hUGE_init                         hUGEDriver_obj
     000005AA  hUGE_init                          hUGEDriver_obj
     00000600  _hUGE_mute_channel                 hUGEDriver_obj
     00000602  hUGE_mute_channel                  hUGEDriver_obj
     00000850  _hUGE_set_position                 hUGEDriver_obj
     00000852  hUGE_set_position                  hUGEDriver_obj
     00000A17  _hUGE_dosound                      hUGEDriver_obj
     00000A17  hUGE_dosound                       hUGEDriver_obj
     00000D43  _get_vram_byte                     
     00000D4B  _get_win_tile_xy                   
     00000D53  _get_bkg_tile_xy                   
     00000D7A  _set_sprite_palette                CGB
     00000D7F  _set_bkg_palette                   CGB
     00000D82  .set_palette                       CGB
     00000DA1  _set_sprite_palette_entry          CGB
     00000DA6  _set_bkg_palette_entry             CGB
     00000DA9  .set_palette_entry                 CGB
     00000DC5  _hide_sprites_range                Metasprites
     00000DF4  __mulsuchar                        mul
     00000DF7  __muluschar                        mul
     00000E00  __mulschar                         mul
     00000E08  __mulint                           mul
     00000E27  __muluchar                         mul
     00000E39  _set_vram_byte                     
     00000E42  _set_win_tile_xy                   
     00000E4B  _set_bkg_tile_xy                   
ASxxxx Linker V03.00/V05.40 + sdld,  page 28.
Hexadecimal  [32-Bits]

Area                                    Addr        Size        Decimal Bytes (Attributes)
--------------------------------        ----        ----        ------- ----- ------------
_CODE                               00000200    00000ED4 =        3796. bytes (REL,CON)

      Value  Global                              Global Defined In Module
      -----  --------------------------------   ------------------------
     00000E7A  .sgb_check                         
     00000E7A  _sgb_check                         
     00000EC2  _sgb_transfer                      
     00000EC7  .sgb_transfer                      
     00000F08  .copy_vram                         
     00000F0E  _get_data                          
     00000F0E  _set_data                          
     00000F0E  _vmemcpy                           
     00000F5C  ___move_metasprite                 Metasprites
     00000F99  ___memcpy                          
     00000F99  _memcpy                            
     00000FCB  _cpu_slow                          CGB
     00000FE6  _cpu_fast                          CGB
     00000FED  __divsuchar                        divmod
     00000FF3  __modsuchar                        divmod
     00000FFC  __divuschar                        divmod
     00001005  __moduschar                        divmod
     00001011  __divschar                         divmod
     00001016  __modschar                         divmod
     0000101D  __divsint                          divmod
     00001026  __modsint                          divmod
     00001032  __divuchar                         divmod
     00001037  __moduchar                         divmod
     0000103E  __divuint                          divmod
     00001047  __moduint                          divmod
     00001053  .div8                              divmod
     00001053  .mod8                              divmod
     0000105B  .div16                             divmod
     0000105B  .mod16                             divmod
     00001091  .divu8                             divmod
     00001091  .modu8                             divmod
     00001094  .divu16                            divmod
     00001094  .modu16                            divmod

ASxxxx Linker V03.00/V05.40 + sdld,  page 29.
Hexadecimal  [32-Bits]

Area                                    Addr        Size        Decimal Bytes (Attributes)
--------------------------------        ----        ----        ------- ----- ------------
_HEADER0                            00000000    00000001 =           1. bytes (ABS,CON)

      Value  Global                              Global Defined In Module
      -----  --------------------------------   ------------------------
     00000020  .call_hl                           Runtime

ASxxxx Linker V03.00/V05.40 + sdld,  page 30.
Hexadecimal  [32-Bits]

Area                                    Addr        Size        Decimal Bytes (Attributes)
--------------------------------        ----        ----        ------- ----- ------------
_HEADER1                            00000000    00000005 =           5. bytes (ABS,CON)

      Value  Global                              Global Defined In Module
      -----  --------------------------------   ------------------------
     00000028  .MemsetSmall                       Runtime

ASxxxx Linker V03.00/V05.40 + sdld,  page 31.
Hexadecimal  [32-Bits]

Area                                    Addr        Size        Decimal Bytes (Attributes)
--------------------------------        ----        ----        ------- ----- ------------
_HEADER2                            00000000    00000007 =           7. bytes (ABS,CON)

      Value  Global                              Global Defined In Module
      -----  --------------------------------   ------------------------
     00000030  .MemcpySmall                       Runtime

ASxxxx Linker V03.00/V05.40 + sdld,  page 32.
Hexadecimal  [32-Bits]

Area                                    Addr        Size        Decimal Bytes (Attributes)
--------------------------------        ----        ----        ------- ----- ------------
_HEADER3                            00000000    00000008 =           8. bytes (ABS,CON)

      Value  Global                              Global Defined In Module
      -----  --------------------------------   ------------------------
ASxxxx Linker V03.00/V05.40 + sdld,  page 33.
Hexadecimal  [32-Bits]

Area                                    Addr        Size        Decimal Bytes (Attributes)
--------------------------------        ----        ----        ------- ----- ------------
_HEADER4                            00000000    00000060 =          96. bytes (ABS,CON)

      Value  Global                              Global Defined In Module
      -----  --------------------------------   ------------------------
     00000080  .int                               Runtime
     0000008F  _wait_int_handler                  Runtime
     0000009C  __standard_VBL_handler             Runtime
     000000AB  _refresh_OAM                       Runtime
     000000CC  _set_interrupts                    Runtime

ASxxxx Linker V03.00/V05.40 + sdld,  page 34.
Hexadecimal  [32-Bits]

Area                                    Addr        Size        Decimal Bytes (Attributes)
--------------------------------        ----        ----        ------- ----- ------------
_HEADER5                            00000000    00000001 =           1. bytes (ABS,CON)

      Value  Global                              Global Defined In Module
      -----  --------------------------------   ------------------------
ASxxxx Linker V03.00/V05.40 + sdld,  page 35.
Hexadecimal  [32-Bits]

Area                                    Addr        Size        Decimal Bytes (Attributes)
--------------------------------        ----        ----        ------- ----- ------------
_HEADER6                            00000000    00000002 =           2. bytes (ABS,CON)

      Value  Global                              Global Defined In Module
      -----  --------------------------------   ------------------------
ASxxxx Linker V03.00/V05.40 + sdld,  page 36.
Hexadecimal  [32-Bits]

Area                                    Addr        Size        Decimal Bytes (Attributes)
--------------------------------        ----        ----        ------- ----- ------------
_HEADER7                            00000000    00000030 =          48. bytes (ABS,CON)

      Value  Global                              Global Defined In Module
      -----  --------------------------------   ------------------------
ASxxxx Linker V03.00/V05.40 + sdld,  page 37.
Hexadecimal  [32-Bits]

Area                                    Addr        Size        Decimal Bytes (Attributes)
--------------------------------        ----        ----        ------- ----- ------------
_HEADER8                            00000000    00000006 =           6. bytes (ABS,CON)

      Value  Global                              Global Defined In Module
      -----  --------------------------------   ------------------------
ASxxxx Linker V03.00/V05.40 + sdld,  page 38.
Hexadecimal  [32-Bits]

Area                                    Addr        Size        Decimal Bytes (Attributes)
--------------------------------        ----        ----        ------- ----- ------------
_HEADER9                            00000000    00000003 =           3. bytes (ABS,CON)

      Value  Global                              Global Defined In Module
      -----  --------------------------------   ------------------------
ASxxxx Linker V03.00/V05.40 + sdld,  page 39.
Hexadecimal  [32-Bits]

Area                                    Addr        Size        Decimal Bytes (Attributes)
--------------------------------        ----        ----        ------- ----- ------------
_HEADERa                            00000000    00000001 =           1. bytes (ABS,CON)

      Value  Global                              Global Defined In Module
      -----  --------------------------------   ------------------------
ASxxxx Linker V03.00/V05.40 + sdld,  page 40.
Hexadecimal  [32-Bits]

Area                                    Addr        Size        Decimal Bytes (Attributes)
--------------------------------        ----        ----        ------- ----- ------------
_HEADERb                            00000000    00000001 =           1. bytes (ABS,CON)

      Value  Global                              Global Defined In Module
      -----  --------------------------------   ------------------------
ASxxxx Linker V03.00/V05.40 + sdld,  page 41.
Hexadecimal  [32-Bits]

Area                                    Addr        Size        Decimal Bytes (Attributes)
--------------------------------        ----        ----        ------- ----- ------------
_HEADERc                            00000000    00000001 =           1. bytes (ABS,CON)

      Value  Global                              Global Defined In Module
      -----  --------------------------------   ------------------------
ASxxxx Linker V03.00/V05.40 + sdld,  page 42.
Hexadecimal  [32-Bits]

Area                                    Addr        Size        Decimal Bytes (Attributes)
--------------------------------        ----        ----        ------- ----- ------------
_HEADERd                            00000000    00000002 =           2. bytes (ABS,CON)

      Value  Global                              Global Defined In Module
      -----  --------------------------------   ------------------------
ASxxxx Linker V03.00/V05.40 + sdld,  page 43.
Hexadecimal  [32-Bits]

Area                                    Addr        Size        Decimal Bytes (Attributes)
--------------------------------        ----        ----        ------- ----- ------------
_HEADERe                            00000000    00000001 =           1. bytes (ABS,CON)

      Value  Global                              Global Defined In Module
      -----  --------------------------------   ------------------------
ASxxxx Linker V03.00/V05.40 + sdld,  page 44.
Hexadecimal  [32-Bits]

Area                                    Addr        Size        Decimal Bytes (Attributes)
--------------------------------        ----        ----        ------- ----- ------------
_HEADERf                            00000000    00000001 =           1. bytes (ABS,CON)

      Value  Global                              Global Defined In Module
      -----  --------------------------------   ------------------------
ASxxxx Linker V03.00/V05.40 + sdld,  page 45.
Hexadecimal  [32-Bits]

Area                                    Addr        Size        Decimal Bytes (Attributes)
--------------------------------        ----        ----        ------- ----- ------------
_HEADER10                           00000000    00000002 =           2. bytes (ABS,CON)

      Value  Global                              Global Defined In Module
      -----  --------------------------------   ------------------------
ASxxxx Linker V03.00/V05.40 + sdld,  page 46.
Hexadecimal  [32-Bits]

Area                                    Addr        Size        Decimal Bytes (Attributes)
--------------------------------        ----        ----        ------- ----- ------------
_HEADER11                           00000000    000000AB =         171. bytes (ABS,CON)

      Value  Global                              Global Defined In Module
      -----  --------------------------------   ------------------------
     00000150  .reset                             Runtime
     00000150  _reset                             Runtime
     00000157  .code_start                        Runtime
     000001B9  _exit                              Runtime
     000001BD  .wait_vbl_done                     Runtime
     000001BD  _vsync                             Runtime
     000001BD  _wait_vbl_done                     Runtime
     000001CD  .remove_VBL                        Runtime
     000001CD  _remove_VBL                        Runtime
     000001D0  .remove_int                        Runtime
     000001ED  .add_VBL                           Runtime
     000001ED  _add_VBL                           Runtime
     000001F0  .add_int                           Runtime

ASxxxx Linker V03.00/V05.40 + sdld,  page 47.
Hexadecimal  [32-Bits]

Area                                    Addr        Size        Decimal Bytes (Attributes)
--------------------------------        ----        ----        ------- ----- ------------
_HOME                               000010D4    00002DB1 =       11697. bytes (REL,CON)

      Value  Global                              Global Defined In Module
      -----  --------------------------------   ------------------------
     000010D4  .memset_simple                     Runtime
     000010DD  .memcpy_simple                     Runtime
     000010FA  .display_off                       Runtime
     000010FA  _display_off                       Runtime
     00001112  _actors_update                     actor
     0000157A  _SetBankedBkgData                  bankdata
     00001596  _SetBankedSpriteData               bankdata
     000015B2  _SetBankedBkgTiles                 bankdata
     000015CE  _SetBankedWinTiles                 bankdata
     000015EA  _ReadBankedFarPtr                  bankdata
     0000160C  _ReadBankedUWORD                   bankdata
     00001626  _MemcpyBanked                      bankdata
     00001648  _MemcpyVRAMBanked                  bankdata
     00001677  _IndexOfFarPtr                     bankdata
     000016FC  _camera_update                     camera
     0000182F  _load_animations                   data_manager
     00001888  _events_update                     events
     0000195B  _timers_update                     events
     000019E4  _input_update                      input
     00001A0A  .sio_ISR                           
     00001A64  .timer_ISR                         
     00001A79  _simple_LCD_isr                    interrupts
     00001AF8  _fullscreen_LCD_isr                interrupts
     00001B24  _VBL_isr                           interrupts
     00001B6E  _isqrt                             math
     00001BCB  _sine_wave                         math
     00001CCB  _dir_lookup                        math
     00001CD3  _dir_angle_lookup                  math
     00001CD7  _hUGETrackerRoutine                music_manager
     00001CFE  _music_events_update               music_manager
     00001D80  _music_play_isr                    music_manager
     00001E21  _parallax_LCD_isr                  parallax
     00001E5E  _projectiles_update                projectiles
     000022DF  _projectiles_render                projectiles
     00002434  _scroll_load_pending_row           scroll
     000024BA  _scroll_load_row                   scroll
     0000252F  _scroll_load_col                   scroll
     00002598  _scroll_load_pending_col           scroll
     00002620  _set_bkg_submap                    
     00002663  _set_xy_win_submap                 
     00002690  .set_xy_win_submap                 
     00002699  .set_xy_bkg_submap                 
     000026A8  .set_xy_submap                     
     000026F4  _sfx_play_isr                      sfx_player
     000027CD  _on_SIO_receive                    sio
     0000280E  _SIO_update                        sio
     00002875  _ui_update                         ui
     000029AD  _vm_sgb_transfer                   vm_sgb
     000029FA  _vm_load_text                      vm_ui
     00002C50  _vm_switch                         vm
ASxxxx Linker V03.00/V05.40 + sdld,  page 48.
Hexadecimal  [32-Bits]

Area                                    Addr        Size        Decimal Bytes (Attributes)
--------------------------------        ----        ----        ------- ----- ------------
_HOME                               000010D4    00002DB1 =       11697. bytes (REL,CON)

      Value  Global                              Global Defined In Module
      -----  --------------------------------   ------------------------
     00002D81  _vm_beginthread                    vm
     00002EA5  _vm_rpn                            vm
     000038BD  _vm_get_far                        vm
     0000392B  _vm_call_native                    vm
     0000393E  _VM_STEP                           vm
     000039A8  _script_runner_update              vm
     00003B0D  _fill_win_rect                     
     00003B1F  _rand                              
     00003B1F  _randw                             
     00003B4A  _initrand                          
     00003B4C  .initrand                          
     00003B55  _get_bkg_data                      
     00003B55  _get_win_data                      
     00003BA2  _get_sprite_data                   
     00003BD5  _abs                               abs
     00003BE2  _set_win_tiles                     
     00003BF6  _set_tile_data                     
     00003BFB  _set_bkg_data                      
     00003BFB  _set_win_data                      
     00003C03  _set_sprite_data                   
     00003C33  _reverse                           reverse
     00003C67  ___call__banked                    far_ptr
     00003C84  _to_far_ptr                        far_ptr
     00003CBA  .add_LCD                           
     00003CBA  _add_LCD                           
     00003CC0  .remove_LCD                        
     00003CC0  _remove_LCD                        
     00003CC6  .fill_rect_wtt                     
     00003CCF  .fill_rect_btt                     
     00003D1C  _joypad_init                       
     00003D6A  .joypad_ex                         
     00003D6A  _joypad_ex                         
     00003DB5  _fill_bkg_rect                     
     00003DC7  ___sdcc_call_hl                    call_hl
     00003DC8  _memset                            memset
     00003DFB  .set_xy_wtt                        SetTileMap
     00003E04  .set_xy_btt                        SetTileMap
     00003E13  .set_xy_tt                         SetTileMap
     00003E57  ___sdcc_bcall_ehl                  
     00003E71  _set_bkg_tiles                     
ASxxxx Linker V03.00/V05.40 + sdld,  page 49.
Hexadecimal  [32-Bits]

Area                                    Addr        Size        Decimal Bytes (Attributes)
--------------------------------        ----        ----        ------- ----- ------------
_INITIALIZER                        00003E85    0000001A =          26. bytes (REL,CON)

      Value  Global                              Global Defined In Module
      -----  --------------------------------   ------------------------
ASxxxx Linker V03.00/V05.40 + sdld,  page 50.
Hexadecimal  [32-Bits]

Area                                    Addr        Size        Decimal Bytes (Attributes)
--------------------------------        ----        ----        ------- ----- ------------
_GSINIT                             00003E9F    00000027 =          39. bytes (REL,CON)

      Value  Global                              Global Defined In Module
      -----  --------------------------------   ------------------------
     00003E9F  gsinit                             Runtime

ASxxxx Linker V03.00/V05.40 + sdld,  page 51.
Hexadecimal  [32-Bits]

Area                                    Addr        Size        Decimal Bytes (Attributes)
--------------------------------        ----        ----        ------- ----- ------------
_GSFINAL                            00003EC6    00000001 =           1. bytes (REL,CON)

      Value  Global                              Global Defined In Module
      -----  --------------------------------   ------------------------
ASxxxx Linker V03.00/V05.40 + sdld,  page 52.
Hexadecimal  [32-Bits]

Area                                    Addr        Size        Decimal Bytes (Attributes)
--------------------------------        ----        ----        ------- ----- ------------
_DATA                               0000C0A0    00001994 =        6548. bytes (REL,CON)

      Value  Global                              Global Defined In Module
      -----  --------------------------------   ------------------------
     0000C0A0  __cpu                              Runtime
     0000C0A1  __is_GBA                           Runtime
     0000C0A2  .mode                              Runtime
     0000C0A3  .sys_time                          Runtime
     0000C0A3  _sys_time                          Runtime
     0000C0A5  .int_0x40                          Runtime
     0000C0B1  _actors                            actor
     0000C4F5  _actors_active_head                actor
     0000C4F7  _actors_active_tail                actor
     0000C4F9  _actors_inactive_head              actor
     0000C4FB  _screen_x                          actor
     0000C4FC  _screen_y                          actor
     0000C4FD  _invalid                           actor
     0000C4FF  _player_moving                     actor
     0000C500  _player_iframes                    actor
     0000C501  _player_collision_actor            actor
     0000C503  _emote_actor                       actor
     0000C505  _emote_timer                       actor
     0000C506  _allocated_sprite_tiles            actor
     0000C507  _allocated_hardware_sprites        actor
     0000C514  _camera_x                          camera
     0000C516  _camera_y                          camera
     0000C518  _camera_offset_x                   camera
     0000C519  _camera_offset_y                   camera
     0000C51A  _camera_deadzone_x                 camera
     0000C51B  _camera_deadzone_y                 camera
     0000C51C  _camera_settings                   camera
     0000C520  _current_scene                     data_manager
     0000C523  _image_bank                        data_manager
     0000C524  _image_ptr                         data_manager
     0000C526  _image_attr_bank                   data_manager
     0000C527  _image_attr_ptr                    data_manager
     0000C529  _collision_bank                    data_manager
     0000C52A  _collision_ptr                     data_manager
     0000C52C  _image_tile_width                  data_manager
     0000C52D  _image_tile_height                 data_manager
     0000C52E  _image_width                       data_manager
     0000C530  _image_height                      data_manager
     0000C532  _sprites_len                       data_manager
     0000C533  _actors_len                        data_manager
     0000C534  _projectiles_len                   data_manager
     0000C535  _player_sprite_len                 data_manager
     0000C536  _scene_type                        data_manager
     0000C537  _scene_LCD_type                    data_manager
     0000C538  _scene_stack                       data_manager
     0000C578  _scene_stack_ptr                   data_manager
     0000C57A  _scene_sprites_base_tiles          data_manager
     0000C5BA  _input_events                      events
     0000C5E2  _input_slots                       events
     0000C5EA  _timer_events                      events
ASxxxx Linker V03.00/V05.40 + sdld,  page 53.
Hexadecimal  [32-Bits]

Area                                    Addr        Size        Decimal Bytes (Attributes)
--------------------------------        ----        ----        ------- ----- ------------
_DATA                               0000C0A0    00001994 =        6548. bytes (REL,CON)

      Value  Global                              Global Defined In Module
      -----  --------------------------------   ------------------------
     0000C5FE  _timer_values                      events
     0000C606  _fade_running                      fade_manager
     0000C607  _fade_frames_per_step              fade_manager
     0000C608  _fade_timer                        fade_manager
     0000C610  _joypads                           input
     0000C615  _frame_joy                         input
     0000C616  _last_joy                          input
     0000C617  _recent_joy                        input
     0000C618  _SIO_status                        
     0000C619  _link_byte_sent                    
     0000C61A  _link_next_mode                    
     0000C61B  _save_blob_size                    load_save
     0000C61D  _routine_queue                     music_manager
     0000C621  _routine_queue_head                music_manager
     0000C622  _routine_queue_tail                music_manager
     0000C623  _music_events                      music_manager
     0000C637  _music_current_track_bank          music_manager
     0000C638  _music_mute_mask                   music_manager
     0000C639  _music_effective_mute              music_manager
     0000C63A  _music_next_track                  music_manager
     0000C63C  _music_current_track               music_manager
     0000C63E  _music_play_isr_counter            music_manager
     0000C63F  _music_play_isr_pause              music_manager
     0000C640  _music_global_mute_mask            music_manager
     0000C641  _music_sfx_priority                music_manager
     0000C642  _DMG_palette                       palette
     0000C645  _SprPalette                        palette
     0000C685  _parallax_rows                     parallax
     0000C697  _parallax_row                      parallax
     0000C699  _projectiles                       projectiles
     0000C752  _projectile_defs                   projectiles
     0000C7C5  _projectiles_active_head           projectiles
     0000C7C7  _projectiles_inactive_head         projectiles
     0000C7CE  _scroll_x                          scroll
     0000C7D0  _scroll_y                          scroll
     0000C7D2  _draw_scroll_x                     scroll
     0000C7D4  _draw_scroll_y                     scroll
     0000C7D6  _scroll_x_max                      scroll
     0000C7D8  _scroll_y_max                      scroll
     0000C7DA  _scroll_offset_x                   scroll
     0000C7DB  _scroll_offset_y                   scroll
     0000C7DC  _pending_h_x                       scroll
     0000C7DD  _pending_h_y                       scroll
     0000C7DE  _pending_h_i                       scroll
     0000C7DF  _pending_w_x                       scroll
     0000C7E0  _pending_w_y                       scroll
     0000C7E1  _pending_w_i                       scroll
     0000C7E2  _current_row                       scroll
     0000C7E4  _new_row                           scroll
     0000C7E6  _current_col                       scroll
     0000C7E8  _new_col                           scroll
ASxxxx Linker V03.00/V05.40 + sdld,  page 54.
Hexadecimal  [32-Bits]

Area                                    Addr        Size        Decimal Bytes (Attributes)
--------------------------------        ----        ----        ------- ----- ------------
_DATA                               0000C0A0    00001994 =        6548. bytes (REL,CON)

      Value  Global                              Global Defined In Module
      -----  --------------------------------   ------------------------
     0000C7EA  .image_tile_width                  
     0000C7EB  _sfx_play_bank                     sfx_player
     0000C7EC  _sfx_play_sample                   sfx_player
     0000C7EE  _sfx_frame_skip                    sfx_player
     0000C7EF  _link_operation_mode               sio
     0000C7F0  _link_packet                       sio
     0000C810  _link_packet_len                   sio
     0000C811  _link_packet_ptr                   sio
     0000C813  _link_packet_received              sio
     0000C814  _link_packet_snd_len               sio
     0000C815  _link_packet_snd_ptr               sio
     0000C817  _link_packet_sent                  sio
     0000C818  __is_CGB                           system
     0000C819  __is_SGB                           system
     0000C81A  __current_ram_bank                 system
     0000C81B  _triggers                          trigger
     0000C913  _last_trigger_tx                   trigger
     0000C914  _last_trigger_ty                   trigger
     0000C915  _last_trigger                      trigger
     0000C916  _win_pos_x                         ui
     0000C917  _win_dest_pos_x                    ui
     0000C918  _win_pos_y                         ui
     0000C919  _win_dest_pos_y                    ui
     0000C91A  _win_speed                         ui
     0000C91B  _text_drawn                        ui
     0000C91C  _current_text_speed                ui
     0000C91D  _text_wait                         ui
     0000C91E  _text_options                      ui
     0000C91F  _text_in_speed                     ui
     0000C920  _text_out_speed                    ui
     0000C921  _text_draw_speed                   ui
     0000C922  _text_ff_joypad                    ui
     0000C923  _text_ff                           ui
     0000C924  _text_bkg_fill                     ui
     0000C925  _ui_text_data                      ui
     0000CA2F  _vwf_current_mask                  ui
     0000CA30  _vwf_current_rotate                ui
     0000CA31  _vwf_inverse_map                   ui
     0000CA32  _vwf_direction                     ui
     0000CA33  _vwf_current_font_desc             ui
     0000CA3B  _vwf_current_font_bank             ui
     0000CA3C  _vwf_current_font_idx              ui
     0000CA3D  _text_render_base_addr             ui
     0000CA3F  _text_scroll_addr                  ui
     0000CA41  _text_scroll_width                 ui
     0000CA42  _text_scroll_height                ui
     0000CA43  _text_scroll_fill                  ui
     0000CA44  _text_sound_mask                   ui
     0000CA45  _text_sound_bank                   ui
     0000CA46  _text_sound_data                   ui
     0000CA48  _overlay_priority                  ui
ASxxxx Linker V03.00/V05.40 + sdld,  page 55.
Hexadecimal  [32-Bits]

Area                                    Addr        Size        Decimal Bytes (Attributes)
--------------------------------        ----        ----        ------- ----- ------------
_DATA                               0000C0A0    00001994 =        6548. bytes (REL,CON)

      Value  Global                              Global Defined In Module
      -----  --------------------------------   ------------------------
     0000CA49  _text_palette                      ui
     0000CA50  __itoa_fmt_len                     vm_ui_a
     0000CA51  .itoa_fmt_buf                      vm_ui_a
     0000CA54  _CTXS                              vm
     0000CB84  _first_ctx                         vm
     0000CB86  _free_ctxs                         vm
     0000CB88  _old_executing_ctx                 vm
     0000CB8A  _executing_ctx                     vm
     0000CB8C  _vm_lock_state                     vm
     0000CB8D  _vm_loaded_state                   vm
     0000CB8E  _vm_exception_code                 vm
     0000CB8F  _vm_exception_params_length        vm
     0000CB90  _vm_exception_params_bank          vm
     0000CB91  _vm_exception_params_offset        vm
     0000CB95  _script_memory                     vm
     0000D99B  _grounded                          platform
     0000D99C  _on_slope                          platform
     0000D99D  _slope_y                           platform
     0000D99E  _on_ladder                         platform
     0000D99F  _pl_vel_x                          platform
     0000D9A1  _pl_vel_y                          platform
     0000D9A3  _plat_min_vel                      platform
     0000D9A5  _plat_walk_vel                     platform
     0000D9A7  _plat_climb_vel                    platform
     0000D9A9  _plat_run_vel                      platform
     0000D9AB  _plat_walk_acc                     platform
     0000D9AD  _plat_run_acc                      platform
     0000D9AF  _plat_dec                          platform
     0000D9B1  _plat_jump_vel                     platform
     0000D9B3  _plat_grav                         platform
     0000D9B5  _plat_hold_grav                    platform
     0000D9B7  _plat_max_fall_vel                 platform
     0000D9B9  _shooter_reached_end               shmup
     0000D9BA  _shooter_dest                      shmup
     0000D9BC  _shooter_direction                 shmup
     0000D9BD  _topdown_grid                      topdown
     0000D9BE  ___rand_seed                       
     0000D9DC  _hUGE_current_wave                 hUGEDriver_obj
     0000D9DC  hUGE_current_wave                  hUGEDriver_obj
     0000D9DD  _hUGE_mute_mask                    hUGEDriver_obj
     0000DA24  ___call_banked_addr                far_ptr
     0000DA24  ___call_banked_ptr                 far_ptr
     0000DA26  ___call_banked_bank                far_ptr
     0000DA28  .int_0x48                          
     0000DA30  ___current_metasprite              Metasprites
     0000DA32  ___current_base_tile               Metasprites
     0000DA33  ___current_base_prop               Metasprites

ASxxxx Linker V03.00/V05.40 + sdld,  page 56.
Hexadecimal  [32-Bits]

Area                                    Addr        Size        Decimal Bytes (Attributes)
--------------------------------        ----        ----        ------- ----- ------------
_INITIALIZED                        0000DA34    0000001A =          26. bytes (REL,CON)

      Value  Global                              Global Defined In Module
      -----  --------------------------------   ------------------------
     0000DA34  _fade_style                        fade_manager
     0000DA35  _game_time                         game_time
     0000DA36  _PRN_PKT_START                     gbprinter
     0000DA44  _hide_sprites                      interrupts
     0000DA45  _show_actors_on_overlay            interrupts
     0000DA46  _overlay_cut_scanline              interrupts
     0000DA47  __submap_tile_offset               
     0000DA48  _triggers_len                      trigger
     0000DA49  _exchange_state                    vm_sio
     0000DA4A  _last_hit_trigger                  pointnclick
     0000DA4B  _shooter_scroll_speed              shmup
     0000DA4C  ___render_shadow_OAM               Metasprites
     0000DA4D  __map_tile_offset                  SetTileMap

ASxxxx Linker V03.00/V05.40 + sdld,  page 57.
Hexadecimal  [32-Bits]

Area                                    Addr        Size        Decimal Bytes (Attributes)
--------------------------------        ----        ----        ------- ----- ------------
_HRAM12                             00000000    00000003 =           3. bytes (ABS,CON)

      Value  Global                              Global Defined In Module
      -----  --------------------------------   ------------------------
     0000FF90  __current_bank                     Runtime
     0000FF92  __shadow_OAM_base                  Runtime

ASxxxx Linker V03.00/V05.40 + sdld,  page 58.
Hexadecimal  [32-Bits]

Area                                    Addr        Size        Decimal Bytes (Attributes)
--------------------------------        ----        ----        ------- ----- ------------
_CODE_9                             00094000    00003FFE =       16382. bytes (REL,CON)

      Value  Global                              Global Defined In Module
      -----  --------------------------------   ------------------------
     00094000  ___func_ACTOR                      actor
     00094000  _actors_init                       actor
     0009403A  _emote_offsets                     actor
     00094049  _emote_metasprite                  actor
     00094055  _player_init                       actor
     0009406A  _deactivate_actor                  actor
     000941CB  _activate_actor                    actor
     0009430A  _activate_actors_in_row            actor
     00094401  _activate_actors_in_col            actor
     00094552  _actor_set_frames                  actor
     000945A8  _actor_set_frame_offset            actor
     000945E3  _actor_get_frame_offset            actor
     000945F5  _actor_set_anim_idle               actor
     00094623  _actor_set_anim_moving             actor
     00094654  _actor_set_dir                     actor
     000946B9  _actor_at_tile                     actor
     0009478D  _actor_in_front_of_player          actor
     00094841  _actor_overlapping_player          actor
     00094ADA  _actor_overlapping_bb              actor
     00094CF9  _actors_handle_player_collision    actor
     00094D85  _check_collision_in_direction      actor
     000955A3  ___func_VM_ACTOR                   vm_actor
     000955A3  _vm_actor_move_to                  vm_actor
     00095F3F  _vm_actor_move_cancel              vm_actor
     00095F75  _vm_actor_activate                 vm_actor
     00095FC6  _vm_actor_deactivate               vm_actor
     00096017  _vm_actor_begin_update             vm_actor
     0009609E  _vm_actor_terminate_update         vm_actor
     000960E5  _vm_actor_set_dir                  vm_actor
     0009612E  _vm_actor_set_anim                 vm_actor
     000961BC  _vm_actor_set_pos                  vm_actor
     00096236  _vm_actor_get_pos                  vm_actor
     000962A5  _vm_actor_get_dir                  vm_actor
     0009631F  _vm_actor_get_angle                vm_actor
     000963A0  _vm_actor_emote                    vm_actor
     00096464  _vm_actor_set_bounds               vm_actor
     000964C2  _vm_actor_set_spritesheet          vm_actor
     0009658C  _vm_actor_replace_tile             vm_actor
     000965F7  _vm_actor_set_anim_tick            vm_actor
     00096635  _vm_actor_set_move_speed           vm_actor
     00096673  _vm_actor_set_anim_frame           vm_actor
     000966B7  _vm_actor_get_anim_frame           vm_actor
     00096701  _vm_actor_set_anim_set             vm_actor
     00096789  _vm_actor_set_spritesheet_by_ref   vm_actor
     00096896  _vm_actor_set_flags                vm_actor
     00096944  _scene_10_init                     scene_10_init
     0009698C  _platform_init                     platform
     00096B06  _platform_update                   platform
ASxxxx Linker V03.00/V05.40 + sdld,  page 59.
Hexadecimal  [32-Bits]

Area                                    Addr        Size        Decimal Bytes (Attributes)
--------------------------------        ----        ----        ------- ----- ------------
_CODE_16                            00104000    00004000 =       16384. bytes (REL,CON)

      Value  Global                              Global Defined In Module
      -----  --------------------------------   ------------------------
     00104000  _bootstrap_script                  
     0010400B  _core_reset                        core
     00104080  _process_VM                        core
     001042FE  _core_run                          core
     00104422  _data_init                         load_save
     0010446D  _save_points                       load_save
     001044CD  _data_slot_address                 load_save
     00104545  _data_save                         load_save
     00104606  _data_load                         load_save
     0010471A  _data_clear                        load_save
     00104747  _data_peek                         load_save
     001047E8  _trigger_reset                     trigger
     001047F8  _trigger_interact                  trigger
     00104837  _trigger_activate_at               trigger
     00104882  _trigger_at_intersection           trigger
     001049A9  _trigger_activate_at_intersectio   trigger
     00104AEA  _trigger_at_tile                   trigger
     00104B7B  ___func_VM_CAMERA                  vm_camera
     00104B7B  _vm_camera_move_to                 vm_camera
     00104DCE  _vm_camera_set_pos                 vm_camera
     00104E15  _camera_shake_frames               vm_camera
     00104F44  _actor_19_interact                 actor_19_interact
     00105341  ___func_bg_controls_gb_copy_0_ti   bg_controls_gb_copy_0_tilema
     00105341  _bg_controls_gb_copy_0_tilemap_a   bg_controls_gb_copy_0_tilema
     001056D7  ___func_bg_controls_gb_copy_0_ti   bg_controls_gb_copy_0_tilema
     001056D7  _bg_controls_gb_copy_0_tilemap     bg_controls_gb_copy_0_tilema
     00105A6D  ___func_bg_init_copy__tilemap_at   bg_init_copy__tilemap_attr
     00105A6D  _bg_init_copy__tilemap_attr        bg_init_copy__tilemap_attr
     00105E05  ___func_bg_init_copy__tilemap      bg_init_copy__tilemap
     00105E05  _bg_init_copy__tilemap             bg_init_copy__tilemap
     0010619D  ___func_bg_pixil_frame_0_30_tile   bg_pixil_frame_0_30_tilemap_
     0010619D  _bg_pixil_frame_0_30_tilemap_att   bg_pixil_frame_0_30_tilemap_
     00106521  ___func_bg_pixil_frame_0_30_tile   bg_pixil_frame_0_30_tilemap
     00106521  _bg_pixil_frame_0_30_tilemap       bg_pixil_frame_0_30_tilemap
     001068A5  ___func_bg_pixil_frame_0_33_tile   bg_pixil_frame_0_33_tileset
     001068A5  _bg_pixil_frame_0_33_tileset       bg_pixil_frame_0_33_tileset
     00106C77  ___func_bg_pixil_frame_0_copy_co   bg_pixil_frame_0_copy_copy__
     00106C77  _bg_pixil_frame_0_copy_copy__til   bg_pixil_frame_0_copy_copy__
     00106FF9  ___func_scene_0_collisions         scene_0_collisions
     00106FF9  _scene_0_collisions                scene_0_collisions
     00107391  ___func_scene_15_collisions        scene_15_collisions
     00107391  _scene_15_collisions               scene_15_collisions
     00107727  ___func_scene_30_collisions        scene_30_collisions
     00107727  _scene_30_collisions               scene_30_collisions
     00107AAB  _scene_54_init                     scene_54_init
     00107C67  _script_input_6                    script_input_6

ASxxxx Linker V03.00/V05.40 + sdld,  page 60.
Hexadecimal  [32-Bits]

Area                                    Addr        Size        Decimal Bytes (Attributes)
--------------------------------        ----        ----        ------- ----- ------------
_CODE_23                            00174000    00003261 =       12897. bytes (REL,CON)

      Value  Global                              Global Defined In Module
      -----  --------------------------------   ------------------------
     00174000  _camera_init                       camera
     00174026  _input_init                        input
     00174051  _parallax_init                     parallax
     00174071  _SIO_init                          sio
     0017409A  _actor_14_interact                 actor_14_interact
     001740D0  _actor_17_interact                 actor_17_interact
     00174106  _actor_32_interact                 actor_32_interact
     00174136  _actor_36_interact                 actor_36_interact
     00174166  _actor_37_interact                 actor_37_interact
     00174196  _actor_46_interact                 actor_46_interact
     001741CC  _actor_47_interact                 actor_47_interact
     00174202  ___func_bg_cave_ladder_copy_0      bg_cave_ladder_copy_0
     00174202  _bg_cave_ladder_copy_0             bg_cave_ladder_copy_0
     00174210  ___func_bg_cinema                  bg_cinema
     00174210  _bg_cinema                         bg_cinema
     0017421E  ___func_bg_controls_gb_copy_       bg_controls_gb_copy_
     0017421E  _bg_controls_gb_copy_              bg_controls_gb_copy_
     0017422C  ___func_bg_controls_gb_copy_0      bg_controls_gb_copy_0
     0017422C  _bg_controls_gb_copy_0             bg_controls_gb_copy_0
     0017423A  ___func_bg_controls_gba_copy_      bg_controls_gba_copy_
     0017423A  _bg_controls_gba_copy_             bg_controls_gba_copy_
     00174248  ___func_bg_controls_gba_copy_0     bg_controls_gba_copy_0
     00174248  _bg_controls_gba_copy_0            bg_controls_gba_copy_0
     00174256  ___func_bg_controls_gbc_copy_      bg_controls_gbc_copy_
     00174256  _bg_controls_gbc_copy_             bg_controls_gbc_copy_
     00174264  ___func_bg_controls_mobile_copy_   bg_controls_mobile_copy_
     00174264  _bg_controls_mobile_copy_          bg_controls_mobile_copy_
     00174272  ___func_bg_controls_mobile_copy_   bg_controls_mobile_copy_0
     00174272  _bg_controls_mobile_copy_0         bg_controls_mobile_copy_0
     00174280  ___func_bg_dhilly_game_1           bg_dhilly_game_1
     00174280  _bg_dhilly_game_1                  bg_dhilly_game_1
     0017428E  ___func_bg_elevator                bg_elevator
     0017428E  _bg_elevator                       bg_elevator
     0017429C  ___func_bg_fieldlazy               bg_fieldlazy
     0017429C  _bg_fieldlazy                      bg_fieldlazy
     001742AA  ___func_bg_iceos_desktop_copy_     bg_iceos_desktop_copy_
     001742AA  _bg_iceos_desktop_copy_            bg_iceos_desktop_copy_
     001742B8  ___func_bg_iceos_login_2_copy_     bg_iceos_login_2_copy_
     001742B8  _bg_iceos_login_2_copy_            bg_iceos_login_2_copy_
     001742C6  ___func_bg_iceos_login_copy_       bg_iceos_login_copy_
     001742C6  _bg_iceos_login_copy_              bg_iceos_login_copy_
     001742D4  ___func_bg_iceos_platformer2_cop   bg_iceos_platformer2_copy_
     001742D4  _bg_iceos_platformer2_copy_        bg_iceos_platformer2_copy_
     001742E2  ___func_bg_iceos_platformer3_cop   bg_iceos_platformer3_copy_
     001742E2  _bg_iceos_platformer3_copy_        bg_iceos_platformer3_copy_
     001742F0  ___func_bg_iceos_platformer4       bg_iceos_platformer4
     001742F0  _bg_iceos_platformer4              bg_iceos_platformer4
     001742FE  ___func_bg_init_copy__tileset      bg_init_copy__tileset
     001742FE  _bg_init_copy__tileset             bg_init_copy__tileset
     00174320  ___func_bg_init_copy_              bg_init_copy_
ASxxxx Linker V03.00/V05.40 + sdld,  page 61.
Hexadecimal  [32-Bits]

Area                                    Addr        Size        Decimal Bytes (Attributes)
--------------------------------        ----        ----        ------- ----- ------------
_CODE_23                            00174000    00003261 =       12897. bytes (REL,CON)

      Value  Global                              Global Defined In Module
      -----  --------------------------------   ------------------------
     00174320  _bg_init_copy_                     bg_init_copy_
     0017432E  ___func_bg_init_copy_0             bg_init_copy_0
     0017432E  _bg_init_copy_0                    bg_init_copy_0
     0017433C  ___func_bg_init_copy_1             bg_init_copy_1
     0017433C  _bg_init_copy_1                    bg_init_copy_1
     0017434A  ___func_bg_intro_scenary_copy_     bg_intro_scenary_copy_
     0017434A  _bg_intro_scenary_copy_            bg_intro_scenary_copy_
     00174358  ___func_bg_intro_weather_copy_     bg_intro_weather_copy_
     00174358  _bg_intro_weather_copy_            bg_intro_weather_copy_
     00174366  ___func_bg_lair_hub                bg_lair_hub
     00174366  _bg_lair_hub                       bg_lair_hub
     00174374  ___func_bg_lair_left_2_copy_       bg_lair_left_2_copy_
     00174374  _bg_lair_left_2_copy_              bg_lair_left_2_copy_
     00174382  ___func_bg_lair_left_2             bg_lair_left_2
     00174382  _bg_lair_left_2                    bg_lair_left_2
     00174390  ___func_bg_lair_left_3             bg_lair_left_3
     00174390  _bg_lair_left_3                    bg_lair_left_3
     0017439E  ___func_bg_lair_right_2_copy_      bg_lair_right_2_copy_
     0017439E  _bg_lair_right_2_copy_             bg_lair_right_2_copy_
     001743AC  ___func_bg_lair_right_2            bg_lair_right_2
     001743AC  _bg_lair_right_2                   bg_lair_right_2
     001743BA  ___func_bg_lair_right_3_copy_      bg_lair_right_3_copy_
     001743BA  _bg_lair_right_3_copy_             bg_lair_right_3_copy_
     001743C8  ___func_bg_lair_right_3            bg_lair_right_3
     001743C8  _bg_lair_right_3                   bg_lair_right_3
     001743D6  ___func_bg_lair_right_4_copy_      bg_lair_right_4_copy_
     001743D6  _bg_lair_right_4_copy_             bg_lair_right_4_copy_
     001743E4  ___func_bg_lair_right_5            bg_lair_right_5
     001743E4  _bg_lair_right_5                   bg_lair_right_5
     001743F2  ___func_bg_lair_right              bg_lair_right
     001743F2  _bg_lair_right                     bg_lair_right
     00174400  ___func_bg_lencity_dhillybuildin   bg_lencity_dhillybuilding_c
     00174400  _bg_lencity_dhillybuilding_c       bg_lencity_dhillybuilding_c
     0017440E  ___func_bg_lencity_dhillybuildin   bg_lencity_dhillybuilding_f
     0017440E  _bg_lencity_dhillybuilding_f       bg_lencity_dhillybuilding_f
     0017441C  ___func_bg_lencity_trainstation_   bg_lencity_trainstation_cop
     0017441C  _bg_lencity_trainstation_cop       bg_lencity_trainstation_cop
     0017442A  ___func_bg_lencity_trainstation    bg_lencity_trainstation
     0017442A  _bg_lencity_trainstation           bg_lencity_trainstation
     00174438  ___func_bg_lencity_yua_building    bg_lencity_yua_building
     00174438  _bg_lencity_yua_building           bg_lencity_yua_building
     00174446  ___func_bg_lencityopen_copy_       bg_lencityopen_copy_
     00174446  _bg_lencityopen_copy_              bg_lencityopen_copy_
     00174454  ___func_bg_lencityopen_copy_0      bg_lencityopen_copy_0
     00174454  _bg_lencityopen_copy_0             bg_lencityopen_copy_0
     00174462  ___func_bg_lencityopen             bg_lencityopen
     00174462  _bg_lencityopen                    bg_lencityopen
     00174470  ___func_bg_options_copy_           bg_options_copy_
     00174470  _bg_options_copy_                  bg_options_copy_
     0017447E  ___func_bg_pixil_frame_0_23        bg_pixil_frame_0_23
     0017447E  _bg_pixil_frame_0_23               bg_pixil_frame_0_23
ASxxxx Linker V03.00/V05.40 + sdld,  page 62.
Hexadecimal  [32-Bits]

Area                                    Addr        Size        Decimal Bytes (Attributes)
--------------------------------        ----        ----        ------- ----- ------------
_CODE_23                            00174000    00003261 =       12897. bytes (REL,CON)

      Value  Global                              Global Defined In Module
      -----  --------------------------------   ------------------------
     0017448C  ___func_bg_pixil_frame_0_24        bg_pixil_frame_0_24
     0017448C  _bg_pixil_frame_0_24               bg_pixil_frame_0_24
     0017449A  ___func_bg_pixil_frame_0_30        bg_pixil_frame_0_30
     0017449A  _bg_pixil_frame_0_30               bg_pixil_frame_0_30
     001744A8  ___func_bg_pixil_frame_0_31        bg_pixil_frame_0_31
     001744A8  _bg_pixil_frame_0_31               bg_pixil_frame_0_31
     001744B6  ___func_bg_pixil_frame_0_33        bg_pixil_frame_0_33
     001744B6  _bg_pixil_frame_0_33               bg_pixil_frame_0_33
     001744C4  ___func_bg_pixil_frame_0_copy_co   bg_pixil_frame_0_copy_copy_
     001744C4  _bg_pixil_frame_0_copy_copy_       bg_pixil_frame_0_copy_copy_
     001744D2  ___func_bg_pixil_frame_23_0        bg_pixil_frame_23_0
     001744D2  _bg_pixil_frame_23_0               bg_pixil_frame_23_0
     001744E0  ___func_bg_samsam_copy             bg_samsam_copy
     001744E0  _bg_samsam_copy                    bg_samsam_copy
     001744EE  ___func_bg_shillycity_sara_house   bg_shillycity_sara_house_co
     001744EE  _bg_shillycity_sara_house_co       bg_shillycity_sara_house_co
     001744FC  ___func_bg_shillycityopen_copy_    bg_shillycityopen_copy_
     001744FC  _bg_shillycityopen_copy_           bg_shillycityopen_copy_
     0017450A  ___func_bg_shillycityopen_copy_0   bg_shillycityopen_copy_0
     0017450A  _bg_shillycityopen_copy_0          bg_shillycityopen_copy_0
     00174518  ___func_bg_square_frozen_future    bg_square_frozen_future
     00174518  _bg_square_frozen_future           bg_square_frozen_future
     00174526  ___func_bg_theatre                 bg_theatre
     00174526  _bg_theatre                        bg_theatre
     00174534  ___func_bg_title_copy_             bg_title_copy_
     00174534  _bg_title_copy_                    bg_title_copy_
     00174542  ___func_bg_title_copy_0            bg_title_copy_0
     00174542  _bg_title_copy_0                   bg_title_copy_0
     00174550  ___func_bg_title_copy_1            bg_title_copy_1
     00174550  _bg_title_copy_1                   bg_title_copy_1
     0017455E  ___func_bg_title_copy_2            bg_title_copy_2
     0017455E  _bg_title_copy_2                   bg_title_copy_2
     0017456C  ___func_bg_title                   bg_title
     0017456C  _bg_title                          bg_title
     0017457A  ___func_cursor_image               cursor_image
     0017457A  _cursor_image                      cursor_image
     0017458A  _scene_0_init                      scene_0_init
     001745A2  ___func_scene_0_triggers           scene_0_triggers
     001745A2  _scene_0_triggers                  scene_0_triggers
     001745CA  _scene_13_init                     scene_13_init
     001745D7  _scene_15_init                     scene_15_init
     001745F6  _scene_16_init                     scene_16_init
     00174603  ___func_scene_17_actors            scene_17_actors
     00174603  _scene_17_actors                   scene_17_actors
     00174637  _scene_17_init                     scene_17_init
     0017464C  ___func_scene_17_triggers          scene_17_triggers
     0017464C  _scene_17_triggers                 scene_17_triggers
     0017465C  ___func_scene_18_triggers          scene_18_triggers
     0017465C  _scene_18_triggers                 scene_18_triggers
     00174674  ___func_scene_19_actors            scene_19_actors
     00174674  _scene_19_actors                   scene_19_actors
ASxxxx Linker V03.00/V05.40 + sdld,  page 63.
Hexadecimal  [32-Bits]

Area                                    Addr        Size        Decimal Bytes (Attributes)
--------------------------------        ----        ----        ------- ----- ------------
_CODE_23                            00174000    00003261 =       12897. bytes (REL,CON)

      Value  Global                              Global Defined In Module
      -----  --------------------------------   ------------------------
     001746A8  ___func_scene_20_actors            scene_20_actors
     001746A8  _scene_20_actors                   scene_20_actors
     001746DC  _scene_20_init                     scene_20_init
     001746E9  ___func_scene_20_triggers          scene_20_triggers
     001746E9  _scene_20_triggers                 scene_20_triggers
     001746F1  ___func_scene_27_triggers          scene_27_triggers
     001746F1  _scene_27_triggers                 scene_27_triggers
     001746F9  _scene_28_init                     scene_28_init
     00174706  ___func_scene_28_triggers          scene_28_triggers
     00174706  _scene_28_triggers                 scene_28_triggers
     00174726  _scene_29_init                     scene_29_init
     00174733  ___func_scene_29_triggers          scene_29_triggers
     00174733  _scene_29_triggers                 scene_29_triggers
     0017473B  ___func_scene_3_actors             scene_3_actors
     0017473B  _scene_3_actors                    scene_3_actors
     0017476F  _scene_30_init                     scene_30_init
     0017477C  ___func_scene_30_triggers          scene_30_triggers
     0017477C  _scene_30_triggers                 scene_30_triggers
     0017478C  _scene_31_init                     scene_31_init
     00174799  ___func_scene_31_triggers          scene_31_triggers
     00174799  _scene_31_triggers                 scene_31_triggers
     001747B1  _scene_32_init                     scene_32_init
     001747BE  ___func_scene_32_triggers          scene_32_triggers
     001747BE  _scene_32_triggers                 scene_32_triggers
     001747C6  ___func_scene_32                   scene_32
     001747C6  _scene_32                          scene_32
     00174801  _scene_33_init                     scene_33_init
     0017482E  ___func_scene_33_sprites           scene_33_sprites
     0017482E  _scene_33_sprites                  scene_33_sprites
     00174831  ___func_scene_33_triggers          scene_33_triggers
     00174831  _scene_33_triggers                 scene_33_triggers
     00174839  ___func_scene_33                   scene_33
     00174839  _scene_33                          scene_33
     00174874  ___func_scene_34_actors            scene_34_actors
     00174874  _scene_34_actors                   scene_34_actors
     001748A8  _scene_34_init                     scene_34_init
     001748C2  ___func_scene_34_sprites           scene_34_sprites
     001748C2  _scene_34_sprites                  scene_34_sprites
     001748C5  ___func_scene_34_triggers          scene_34_triggers
     001748C5  _scene_34_triggers                 scene_34_triggers
     001748DD  ___func_scene_34                   scene_34
     001748DD  _scene_34                          scene_34
     00174918  _scene_35_init                     scene_35_init
     00174925  ___func_scene_35_triggers          scene_35_triggers
     00174925  _scene_35_triggers                 scene_35_triggers
     0017492D  ___func_scene_35                   scene_35
     0017492D  _scene_35                          scene_35
     00174968  ___func_scene_36_actors            scene_36_actors
     00174968  _scene_36_actors                   scene_36_actors
     0017499C  _scene_36_init                     scene_36_init
     001749A9  ___func_scene_36_sprites           scene_36_sprites
ASxxxx Linker V03.00/V05.40 + sdld,  page 64.
Hexadecimal  [32-Bits]

Area                                    Addr        Size        Decimal Bytes (Attributes)
--------------------------------        ----        ----        ------- ----- ------------
_CODE_23                            00174000    00003261 =       12897. bytes (REL,CON)

      Value  Global                              Global Defined In Module
      -----  --------------------------------   ------------------------
     001749A9  _scene_36_sprites                  scene_36_sprites
     001749AC  ___func_scene_36                   scene_36
     001749AC  _scene_36                          scene_36
     001749E7  _scene_37_init                     scene_37_init
     001749F4  ___func_scene_37_sprites           scene_37_sprites
     001749F4  _scene_37_sprites                  scene_37_sprites
     001749F7  ___func_scene_37                   scene_37
     001749F7  _scene_37                          scene_37
     00174A32  ___func_scene_38                   scene_38
     00174A32  _scene_38                          scene_38
     00174A6D  _scene_39_init                     scene_39_init
     00174A7A  ___func_scene_39_sprites           scene_39_sprites
     00174A7A  _scene_39_sprites                  scene_39_sprites
     00174A86  ___func_scene_39                   scene_39
     00174A86  _scene_39                          scene_39
     00174AC1  ___func_scene_4                    scene_4
     00174AC1  _scene_4                           scene_4
     00174AFC  _scene_40_init                     scene_40_init
     00174B11  ___func_scene_40_triggers          scene_40_triggers
     00174B11  _scene_40_triggers                 scene_40_triggers
     00174B29  ___func_scene_40                   scene_40
     00174B29  _scene_40                          scene_40
     00174B64  _scene_41_init                     scene_41_init
     00174B79  ___func_scene_41_triggers          scene_41_triggers
     00174B79  _scene_41_triggers                 scene_41_triggers
     00174BA1  ___func_scene_41                   scene_41
     00174BA1  _scene_41                          scene_41
     00174BDC  _scene_42_init                     scene_42_init
     00174BF1  ___func_scene_42_triggers          scene_42_triggers
     00174BF1  _scene_42_triggers                 scene_42_triggers
     00174BF9  ___func_scene_42                   scene_42
     00174BF9  _scene_42                          scene_42
     00174C34  _scene_43_init                     scene_43_init
     00174C49  ___func_scene_43_triggers          scene_43_triggers
     00174C49  _scene_43_triggers                 scene_43_triggers
     00174C79  ___func_scene_43                   scene_43
     00174C79  _scene_43                          scene_43
     00174CB4  _scene_44_init                     scene_44_init
     00174CC9  ___func_scene_44_triggers          scene_44_triggers
     00174CC9  _scene_44_triggers                 scene_44_triggers
     00174CD1  ___func_scene_44                   scene_44
     00174CD1  _scene_44                          scene_44
     00174D0C  ___func_scene_45_triggers          scene_45_triggers
     00174D0C  _scene_45_triggers                 scene_45_triggers
     00174D14  ___func_scene_45                   scene_45
     00174D14  _scene_45                          scene_45
     00174D4F  ___func_scene_46_projectiles       scene_46_projectiles
     00174D4F  _scene_46_projectiles              scene_46_projectiles
     00174D66  ___func_scene_46_triggers          scene_46_triggers
     00174D66  _scene_46_triggers                 scene_46_triggers
     00174D6E  ___func_scene_46                   scene_46
ASxxxx Linker V03.00/V05.40 + sdld,  page 65.
Hexadecimal  [32-Bits]

Area                                    Addr        Size        Decimal Bytes (Attributes)
--------------------------------        ----        ----        ------- ----- ------------
_CODE_23                            00174000    00003261 =       12897. bytes (REL,CON)

      Value  Global                              Global Defined In Module
      -----  --------------------------------   ------------------------
     00174D6E  _scene_46                          scene_46
     00174DA9  _scene_47_init                     scene_47_init
     00174DB6  ___func_scene_47                   scene_47
     00174DB6  _scene_47                          scene_47
     00174DF1  ___func_scene_48_actors            scene_48_actors
     00174DF1  _scene_48_actors                   scene_48_actors
     00174E25  _scene_48_init                     scene_48_init
     00174E3A  ___func_scene_48_projectiles       scene_48_projectiles
     00174E3A  _scene_48_projectiles              scene_48_projectiles
     00174E51  ___func_scene_48_triggers          scene_48_triggers
     00174E51  _scene_48_triggers                 scene_48_triggers
     00174E59  ___func_scene_48                   scene_48
     00174E59  _scene_48                          scene_48
     00174E94  ___func_scene_49_actors            scene_49_actors
     00174E94  _scene_49_actors                   scene_49_actors
     00174EC8  _scene_49_init                     scene_49_init
     00174EDD  ___func_scene_49_projectiles       scene_49_projectiles
     00174EDD  _scene_49_projectiles              scene_49_projectiles
     00174EF4  ___func_scene_49_sprites           scene_49_sprites
     00174EF4  _scene_49_sprites                  scene_49_sprites
     00174EFA  ___func_scene_49                   scene_49
     00174EFA  _scene_49                          scene_49
     00174F35  ___func_scene_5                    scene_5
     00174F35  _scene_5                           scene_5
     00174F70  ___func_scene_50_actors            scene_50_actors
     00174F70  _scene_50_actors                   scene_50_actors
     00174FA4  _scene_50_init                     scene_50_init
     00174FBD  ___func_scene_50_projectiles       scene_50_projectiles
     00174FBD  _scene_50_projectiles              scene_50_projectiles
     00174FD4  ___func_scene_50_sprites           scene_50_sprites
     00174FD4  _scene_50_sprites                  scene_50_sprites
     00174FDA  ___func_scene_50_triggers          scene_50_triggers
     00174FDA  _scene_50_triggers                 scene_50_triggers
     00174FEA  ___func_scene_50                   scene_50
     00174FEA  _scene_50                          scene_50
     00175025  ___func_scene_51_actors            scene_51_actors
     00175025  _scene_51_actors                   scene_51_actors
     00175059  _scene_51_init                     scene_51_init
     00175072  ___func_scene_51_sprites           scene_51_sprites
     00175072  _scene_51_sprites                  scene_51_sprites
     00175075  ___func_scene_51_triggers          scene_51_triggers
     00175075  _scene_51_triggers                 scene_51_triggers
     0017507D  ___func_scene_51                   scene_51
     0017507D  _scene_51                          scene_51
     001750B8  ___func_scene_52_sprites           scene_52_sprites
     001750B8  _scene_52_sprites                  scene_52_sprites
     001750BE  ___func_scene_52                   scene_52
     001750BE  _scene_52                          scene_52
     001750F9  _scene_53_init                     scene_53_init
     00175106  ___func_scene_53_sprites           scene_53_sprites
     00175106  _scene_53_sprites                  scene_53_sprites
ASxxxx Linker V03.00/V05.40 + sdld,  page 66.
Hexadecimal  [32-Bits]

Area                                    Addr        Size        Decimal Bytes (Attributes)
--------------------------------        ----        ----        ------- ----- ------------
_CODE_23                            00174000    00003261 =       12897. bytes (REL,CON)

      Value  Global                              Global Defined In Module
      -----  --------------------------------   ------------------------
     0017510C  ___func_scene_53_triggers          scene_53_triggers
     0017510C  _scene_53_triggers                 scene_53_triggers
     00175114  ___func_scene_53                   scene_53
     00175114  _scene_53                          scene_53
     0017514F  ___func_scene_54_actors            scene_54_actors
     0017514F  _scene_54_actors                   scene_54_actors
     00175183  ___func_scene_54_sprites           scene_54_sprites
     00175183  _scene_54_sprites                  scene_54_sprites
     00175186  ___func_scene_54_triggers          scene_54_triggers
     00175186  _scene_54_triggers                 scene_54_triggers
     0017518E  ___func_scene_54                   scene_54
     0017518E  _scene_54                          scene_54
     001751C9  _scene_55_init                     scene_55_init
     001751D6  ___func_scene_55_triggers          scene_55_triggers
     001751D6  _scene_55_triggers                 scene_55_triggers
     001751DE  ___func_scene_55                   scene_55
     001751DE  _scene_55                          scene_55
     00175219  _scene_56_init                     scene_56_init
     00175226  ___func_scene_56_triggers          scene_56_triggers
     00175226  _scene_56_triggers                 scene_56_triggers
     0017522E  ___func_scene_56                   scene_56
     0017522E  _scene_56                          scene_56
     00175269  _scene_57_init                     scene_57_init
     00175276  ___func_scene_57_triggers          scene_57_triggers
     00175276  _scene_57_triggers                 scene_57_triggers
     00175286  ___func_scene_57                   scene_57
     00175286  _scene_57                          scene_57
     001752C1  ___func_scene_58_actors            scene_58_actors
     001752C1  _scene_58_actors                   scene_58_actors
     001752F5  _scene_58_init                     scene_58_init
     0017530F  ___func_scene_58_sprites           scene_58_sprites
     0017530F  _scene_58_sprites                  scene_58_sprites
     00175312  ___func_scene_58_triggers          scene_58_triggers
     00175312  _scene_58_triggers                 scene_58_triggers
     00175322  ___func_scene_58                   scene_58
     00175322  _scene_58                          scene_58
     0017535D  _scene_59_init                     scene_59_init
     0017536A  ___func_scene_59_triggers          scene_59_triggers
     0017536A  _scene_59_triggers                 scene_59_triggers
     00175372  ___func_scene_59                   scene_59
     00175372  _scene_59                          scene_59
     001753AD  ___func_scene_6                    scene_6
     001753AD  _scene_6                           scene_6
     001753E8  ___func_scene_60_actors            scene_60_actors
     001753E8  _scene_60_actors                   scene_60_actors
     0017541C  _scene_60_init                     scene_60_init
     00175429  ___func_scene_60_sprites           scene_60_sprites
     00175429  _scene_60_sprites                  scene_60_sprites
     0017542C  ___func_scene_60_triggers          scene_60_triggers
     0017542C  _scene_60_triggers                 scene_60_triggers
     00175434  ___func_scene_60                   scene_60
ASxxxx Linker V03.00/V05.40 + sdld,  page 67.
Hexadecimal  [32-Bits]

Area                                    Addr        Size        Decimal Bytes (Attributes)
--------------------------------        ----        ----        ------- ----- ------------
_CODE_23                            00174000    00003261 =       12897. bytes (REL,CON)

      Value  Global                              Global Defined In Module
      -----  --------------------------------   ------------------------
     00175434  _scene_60                          scene_60
     0017546F  ___func_scene_61_actors            scene_61_actors
     0017546F  _scene_61_actors                   scene_61_actors
     001754A3  _scene_61_init                     scene_61_init
     001754B0  ___func_scene_61_sprites           scene_61_sprites
     001754B0  _scene_61_sprites                  scene_61_sprites
     001754B3  ___func_scene_61_triggers          scene_61_triggers
     001754B3  _scene_61_triggers                 scene_61_triggers
     001754BB  ___func_scene_61                   scene_61
     001754BB  _scene_61                          scene_61
     001754F6  _scene_62_init                     scene_62_init
     00175510  ___func_scene_62_triggers          scene_62_triggers
     00175510  _scene_62_triggers                 scene_62_triggers
     00175528  ___func_scene_62                   scene_62
     00175528  _scene_62                          scene_62
     00175563  _scene_63_init                     scene_63_init
     00175570  ___func_scene_63_triggers          scene_63_triggers
     00175570  _scene_63_triggers                 scene_63_triggers
     00175578  ___func_scene_63                   scene_63
     00175578  _scene_63                          scene_63
     001755B3  ___func_scene_64_actors            scene_64_actors
     001755B3  _scene_64_actors                   scene_64_actors
     001755E7  ___func_scene_64_sprites           scene_64_sprites
     001755E7  _scene_64_sprites                  scene_64_sprites
     001755EA  ___func_scene_64_triggers          scene_64_triggers
     001755EA  _scene_64_triggers                 scene_64_triggers
     00175602  ___func_scene_64                   scene_64
     00175602  _scene_64                          scene_64
     0017563D  _scene_65_init                     scene_65_init
     0017564A  ___func_scene_65_triggers          scene_65_triggers
     0017564A  _scene_65_triggers                 scene_65_triggers
     0017565A  ___func_scene_65                   scene_65
     0017565A  _scene_65                          scene_65
     00175695  _scene_66_init                     scene_66_init
     001756A2  ___func_scene_66_triggers          scene_66_triggers
     001756A2  _scene_66_triggers                 scene_66_triggers
     001756B2  ___func_scene_66                   scene_66
     001756B2  _scene_66                          scene_66
     001756ED  _scene_67_init                     scene_67_init
     001756FA  ___func_scene_67_triggers          scene_67_triggers
     001756FA  _scene_67_triggers                 scene_67_triggers
     00175702  ___func_scene_67                   scene_67
     00175702  _scene_67                          scene_67
     0017573D  _scene_68_init                     scene_68_init
     0017574A  ___func_scene_68_triggers          scene_68_triggers
     0017574A  _scene_68_triggers                 scene_68_triggers
     00175752  ___func_scene_68                   scene_68
     00175752  _scene_68                          scene_68
     0017578D  ___func_scene_69                   scene_69
     0017578D  _scene_69                          scene_69
     001757C8  ___func_scene_7                    scene_7
ASxxxx Linker V03.00/V05.40 + sdld,  page 68.
Hexadecimal  [32-Bits]

Area                                    Addr        Size        Decimal Bytes (Attributes)
--------------------------------        ----        ----        ------- ----- ------------
_CODE_23                            00174000    00003261 =       12897. bytes (REL,CON)

      Value  Global                              Global Defined In Module
      -----  --------------------------------   ------------------------
     001757C8  _scene_7                           scene_7
     00175803  ___func_scene_70_triggers          scene_70_triggers
     00175803  _scene_70_triggers                 scene_70_triggers
     0017580B  ___func_scene_70                   scene_70
     0017580B  _scene_70                          scene_70
     00175846  ___func_scene_71_actors            scene_71_actors
     00175846  _scene_71_actors                   scene_71_actors
     0017587A  _scene_71_init                     scene_71_init
     00175887  ___func_scene_71_sprites           scene_71_sprites
     00175887  _scene_71_sprites                  scene_71_sprites
     0017588A  ___func_scene_71_triggers          scene_71_triggers
     0017588A  _scene_71_triggers                 scene_71_triggers
     001758A2  ___func_scene_71                   scene_71
     001758A2  _scene_71                          scene_71
     001758DD  _scene_72_init                     scene_72_init
     001758EA  ___func_scene_72_triggers          scene_72_triggers
     001758EA  _scene_72_triggers                 scene_72_triggers
     00175902  ___func_scene_72                   scene_72
     00175902  _scene_72                          scene_72
     0017593D  _scene_73_init                     scene_73_init
     0017594A  ___func_scene_73_sprites           scene_73_sprites
     0017594A  _scene_73_sprites                  scene_73_sprites
     0017594D  ___func_scene_73                   scene_73
     0017594D  _scene_73                          scene_73
     00175988  ___func_scene_74                   scene_74
     00175988  _scene_74                          scene_74
     001759C3  _scene_75_init                     scene_75_init
     001759D0  ___func_scene_75_triggers          scene_75_triggers
     001759D0  _scene_75_triggers                 scene_75_triggers
     001759D8  ___func_scene_75                   scene_75
     001759D8  _scene_75                          scene_75
     00175A13  ___func_scene_8                    scene_8
     00175A13  _scene_8                           scene_8
     00175A4E  ___func_scene_9                    scene_9
     00175A4E  _scene_9                           scene_9
     00175A89  _script_input_10                   script_input_10
     00175ABE  _script_input_11                   script_input_11
     00175AF3  _script_input_12                   script_input_12
     00175B28  _script_input_8                    script_input_8
     00175B5D  _script_input_9                    script_input_9
     00175B92  _script_timer_0                    script_timer_0
     00175BCC  _script_timer_1                    script_timer_1
     00175C06  _script_timer_2                    script_timer_2
     00175C2E  _script_timer_3                    script_timer_3
     00175C56  _script_timer_4                    script_timer_4
     00175C90  _script_timer_5                    script_timer_5
     00175CCA  _script_timer_6                    script_timer_6
     00175CE9  _script_timer_7                    script_timer_7
     00175D08  _script_timer_8                    script_timer_8
     00175D30  _script_timer_9                    script_timer_9
     00175D58  ___func_sprite_blank_interactabl   sprite_blank_interactable_c
ASxxxx Linker V03.00/V05.40 + sdld,  page 69.
Hexadecimal  [32-Bits]

Area                                    Addr        Size        Decimal Bytes (Attributes)
--------------------------------        ----        ----        ------- ----- ------------
_CODE_23                            00174000    00003261 =       12897. bytes (REL,CON)

      Value  Global                              Global Defined In Module
      -----  --------------------------------   ------------------------
     00175D58  _sprite_blank_interactable_c_met   sprite_blank_interactable_c
     00175D64  _sprite_blank_interactable_c_met   sprite_blank_interactable_c
     00175D66  _sprite_blank_interactable_c_ani   sprite_blank_interactable_c
     00175D76  _sprite_blank_interactable_c_ani   sprite_blank_interactable_c
     00175D78  _sprite_blank_interactable_c       sprite_blank_interactable_c
     00175D8B  ___func_sprite_car                 sprite_car
     00175D8B  _sprite_car_metasprite_0           sprite_car
     00175D97  _sprite_car_metasprites            sprite_car
     00175D99  _sprite_car_animations             sprite_car
     00175DA9  _sprite_car_animations_lookup      sprite_car
     00175DAB  _sprite_car                        sprite_car
     00175DBE  ___func_sprite_cataa               sprite_cataa
     00175DBE  _sprite_cataa_metasprite_0         sprite_cataa
     00175DCA  _sprite_cataa_metasprites          sprite_cataa
     00175DCC  _sprite_cataa_animations           sprite_cataa
     00175DDC  _sprite_cataa_animations_lookup    sprite_cataa
     00175DDE  _sprite_cataa                      sprite_cataa
     00175DF1  ___func_sprite_dhilly_saveselect   sprite_dhilly_saveselect_co_
     00175DF1  _sprite_dhilly_saveselect_co_0_t   sprite_dhilly_saveselect_co_
     00175E13  ___func_sprite_dhilly_saveselect   sprite_dhilly_saveselect_co_
     00175E13  _sprite_dhilly_saveselect_co_0_m   sprite_dhilly_saveselect_co_
     00175E1F  _sprite_dhilly_saveselect_co_0_m   sprite_dhilly_saveselect_co_
     00175E21  _sprite_dhilly_saveselect_co_0_a   sprite_dhilly_saveselect_co_
     00175E31  _sprite_dhilly_saveselect_co_0_a   sprite_dhilly_saveselect_co_
     00175E33  _sprite_dhilly_saveselect_co_0     sprite_dhilly_saveselect_co_
     00175E46  ___func_sprite_dhilly_saveselect   sprite_dhilly_saveselect_co_
     00175E46  _sprite_dhilly_saveselect_co_til   sprite_dhilly_saveselect_co_
     00175E68  ___func_sprite_dhilly_saveselect   sprite_dhilly_saveselect_co
     00175E68  _sprite_dhilly_saveselect_co_met   sprite_dhilly_saveselect_co
     00175E74  _sprite_dhilly_saveselect_co_met   sprite_dhilly_saveselect_co
     00175E76  _sprite_dhilly_saveselect_co_ani   sprite_dhilly_saveselect_co
     00175E86  _sprite_dhilly_saveselect_co_ani   sprite_dhilly_saveselect_co
     00175E88  _sprite_dhilly_saveselect_co       sprite_dhilly_saveselect_co
     00175E9B  ___func_sprite_dhilly_saveselect   sprite_dhilly_saveselect_til
     00175E9B  _sprite_dhilly_saveselect_tilese   sprite_dhilly_saveselect_til
     00175EBD  ___func_sprite_iceos_cursor_copy   sprite_iceos_cursor_copy_
     00175EBD  _sprite_iceos_cursor_copy__metas   sprite_iceos_cursor_copy_
     00175EC1  _sprite_iceos_cursor_copy__metas   sprite_iceos_cursor_copy_
     00175EC3  _sprite_iceos_cursor_copy__anima   sprite_iceos_cursor_copy_
     00175ED3  _sprite_iceos_cursor_copy__anima   sprite_iceos_cursor_copy_
     00175ED5  _sprite_iceos_cursor_copy_         sprite_iceos_cursor_copy_
     00175EE8  ___func_sprite_iceosapp_ctf_copy   sprite_iceosapp_ctf_copy_0
     00175EE8  _sprite_iceosapp_ctf_copy_0_meta   sprite_iceosapp_ctf_copy_0
     00175EF4  _sprite_iceosapp_ctf_copy_0_meta   sprite_iceosapp_ctf_copy_0
     00175EF6  _sprite_iceosapp_ctf_copy_0_anim   sprite_iceosapp_ctf_copy_0
     00175F06  _sprite_iceosapp_ctf_copy_0_anim   sprite_iceosapp_ctf_copy_0
     00175F08  _sprite_iceosapp_ctf_copy_0        sprite_iceosapp_ctf_copy_0
     00175F1B  ___func_sprite_iceosapp_pltfrmr_   sprite_iceosapp_pltfrmr_cop_
     00175F1B  _sprite_iceosapp_pltfrmr_cop_til   sprite_iceosapp_pltfrmr_cop_
     00175F3D  ___func_sprite_iceosapp_pltfrmr_   sprite_iceosapp_pltfrmr_cop
     00175F3D  _sprite_iceosapp_pltfrmr_cop_met   sprite_iceosapp_pltfrmr_cop
ASxxxx Linker V03.00/V05.40 + sdld,  page 70.
Hexadecimal  [32-Bits]

Area                                    Addr        Size        Decimal Bytes (Attributes)
--------------------------------        ----        ----        ------- ----- ------------
_CODE_23                            00174000    00003261 =       12897. bytes (REL,CON)

      Value  Global                              Global Defined In Module
      -----  --------------------------------   ------------------------
     00175F49  _sprite_iceosapp_pltfrmr_cop_met   sprite_iceosapp_pltfrmr_cop
     00175F4B  _sprite_iceosapp_pltfrmr_cop_ani   sprite_iceosapp_pltfrmr_cop
     00175F5B  _sprite_iceosapp_pltfrmr_cop_ani   sprite_iceosapp_pltfrmr_cop
     00175F5D  _sprite_iceosapp_pltfrmr_cop       sprite_iceosapp_pltfrmr_cop
     00175F70  ___func_sprite_iceosapp_settings   sprite_iceosapp_settings_co_
     00175F70  _sprite_iceosapp_settings_co_til   sprite_iceosapp_settings_co_
     00175F92  ___func_sprite_iceosapp_settings   sprite_iceosapp_settings_co
     00175F92  _sprite_iceosapp_settings_co_met   sprite_iceosapp_settings_co
     00175F9E  _sprite_iceosapp_settings_co_met   sprite_iceosapp_settings_co
     00175FA0  _sprite_iceosapp_settings_co_ani   sprite_iceosapp_settings_co
     00175FB0  _sprite_iceosapp_settings_co_ani   sprite_iceosapp_settings_co
     00175FB2  _sprite_iceosapp_settings_co       sprite_iceosapp_settings_co
     00175FC5  ___func_sprite_iceosapp_wveruner   sprite_iceosapp_wveruner_co
     00175FC5  _sprite_iceosapp_wveruner_co_met   sprite_iceosapp_wveruner_co
     00175FD1  _sprite_iceosapp_wveruner_co_met   sprite_iceosapp_wveruner_co
     00175FD3  _sprite_iceosapp_wveruner_co_ani   sprite_iceosapp_wveruner_co
     00175FE3  _sprite_iceosapp_wveruner_co_ani   sprite_iceosapp_wveruner_co
     00175FE5  _sprite_iceosapp_wveruner_co       sprite_iceosapp_wveruner_co
     00175FF8  ___func_sprite_knife_down_copy_    sprite_knife_down_copy_
     00175FF8  _sprite_knife_down_copy__metaspr   sprite_knife_down_copy_
     00176004  _sprite_knife_down_copy__metaspr   sprite_knife_down_copy_
     00176006  _sprite_knife_down_copy__animati   sprite_knife_down_copy_
     00176016  _sprite_knife_down_copy__animati   sprite_knife_down_copy_
     00176018  _sprite_knife_down_copy_           sprite_knife_down_copy_
     0017602B  ___func_sprite_len_city_dhilly_h   sprite_len_city_dhilly_hous
     0017602B  _sprite_len_city_dhilly_hous_met   sprite_len_city_dhilly_hous
     0017602F  _sprite_len_city_dhilly_hous_met   sprite_len_city_dhilly_hous
     00176031  _sprite_len_city_dhilly_hous_ani   sprite_len_city_dhilly_hous
     00176041  _sprite_len_city_dhilly_hous_ani   sprite_len_city_dhilly_hous
     00176043  _sprite_len_city_dhilly_hous       sprite_len_city_dhilly_hous
     00176056  ___func_sprite_mzdesigns           sprite_mzdesigns
     00176056  _sprite_mzdesigns_metasprite_0     sprite_mzdesigns
     00176062  _sprite_mzdesigns_metasprites      sprite_mzdesigns
     00176064  _sprite_mzdesigns_animations       sprite_mzdesigns
     00176074  _sprite_mzdesigns_animations_loo   sprite_mzdesigns
     00176076  _sprite_mzdesigns                  sprite_mzdesigns
     00176089  ___func_sprite_shapiro             sprite_shapiro
     00176089  _sprite_shapiro_metasprite_0       sprite_shapiro
     00176095  _sprite_shapiro_metasprite_1       sprite_shapiro
     00176099  _sprite_shapiro_metasprites        sprite_shapiro
     0017609D  _sprite_shapiro_animations         sprite_shapiro
     001760AD  _sprite_shapiro_animations_looku   sprite_shapiro
     001760AF  _sprite_shapiro                    sprite_shapiro
     001760C2  ___func_sprite_square_full_hitbo   sprite_square_full_hitbox_c_
     001760C2  _sprite_square_full_hitbox_c_1_t   sprite_square_full_hitbox_c_
     001760E4  ___func_sprite_square_full_hitbo   sprite_square_full_hitbox_c_
     001760E4  _sprite_square_full_hitbox_c_1_m   sprite_square_full_hitbox_c_
     001760F0  _sprite_square_full_hitbox_c_1_m   sprite_square_full_hitbox_c_
     001760F2  _sprite_square_full_hitbox_c_1_a   sprite_square_full_hitbox_c_
     00176102  _sprite_square_full_hitbox_c_1_a   sprite_square_full_hitbox_c_
     00176104  _sprite_square_full_hitbox_c_1     sprite_square_full_hitbox_c_
ASxxxx Linker V03.00/V05.40 + sdld,  page 71.
Hexadecimal  [32-Bits]

Area                                    Addr        Size        Decimal Bytes (Attributes)
--------------------------------        ----        ----        ------- ----- ------------
_CODE_23                            00174000    00003261 =       12897. bytes (REL,CON)

      Value  Global                              Global Defined In Module
      -----  --------------------------------   ------------------------
     00176117  ___func_sprite_square_full_hitbo   sprite_square_full_hitbox_c_
     00176117  _sprite_square_full_hitbox_c_4_m   sprite_square_full_hitbox_c_
     0017612B  _sprite_square_full_hitbox_c_4_m   sprite_square_full_hitbox_c_
     0017612D  _sprite_square_full_hitbox_c_4_a   sprite_square_full_hitbox_c_
     0017613D  _sprite_square_full_hitbox_c_4_a   sprite_square_full_hitbox_c_
     0017613F  _sprite_square_full_hitbox_c_4     sprite_square_full_hitbox_c_
     00176152  ___func_sprite_square_full_hitbo   sprite_square_full_hitbox_c_
     00176152  _sprite_square_full_hitbox_c_til   sprite_square_full_hitbox_c_
     00176174  ___func_sprite_square_full_hitbo   sprite_square_full_hitbox_c
     00176174  _sprite_square_full_hitbox_c_met   sprite_square_full_hitbox_c
     0017617C  _sprite_square_full_hitbox_c_met   sprite_square_full_hitbox_c
     0017617E  _sprite_square_full_hitbox_c_ani   sprite_square_full_hitbox_c
     0017618E  _sprite_square_full_hitbox_c_ani   sprite_square_full_hitbox_c
     00176190  _sprite_square_full_hitbox_c       sprite_square_full_hitbox_c
     001761A3  ___func_sprite_square_platformin   sprite_square_platforming_c_
     001761A3  _sprite_square_platforming_c_til   sprite_square_platforming_c_
     001761C5  ___func_sprite_square_platformin   sprite_square_platforming_c
     001761C5  _sprite_square_platforming_c_met   sprite_square_platforming_c
     001761D1  _sprite_square_platforming_c_met   sprite_square_platforming_c
     001761D3  _sprite_square_platforming_c_ani   sprite_square_platforming_c
     001761E3  _sprite_square_platforming_c_ani   sprite_square_platforming_c
     001761E5  _sprite_square_platforming_c       sprite_square_platforming_c
     001761F8  ___func_sprite_static_copy         sprite_static_copy
     001761F8  _sprite_static_copy_metasprite_0   sprite_static_copy
     00176204  _sprite_static_copy_metasprites    sprite_static_copy
     00176206  _sprite_static_copy_animations     sprite_static_copy
     00176216  _sprite_static_copy_animations_l   sprite_static_copy
     00176218  _sprite_static_copy                sprite_static_copy
     0017622B  _spritesheet_none_metasprite       spritesheet_none
     0017622F  _spritesheet_none_metasprites      spritesheet_none
     00176231  _spritesheet_none                  spritesheet_none
     00176244  _trigger_0_interact                trigger_0_interact
     0017627A  _trigger_10_interact               trigger_10_interact
     00176292  _trigger_11_interact               trigger_11_interact
     001762B2  _trigger_12_interact               trigger_12_interact
     001762E8  _trigger_13_interact               trigger_13_interact
     0017631E  _trigger_14_interact               trigger_14_interact
     00176338  _trigger_15_interact               trigger_15_interact
     0017636E  _trigger_16_interact               trigger_16_interact
     001763A4  _trigger_17_interact               trigger_17_interact
     001763DA  _trigger_18_interact               trigger_18_interact
     00176410  _trigger_19_interact               trigger_19_interact
     00176446  _trigger_2_interact                trigger_2_interact
     0017647C  _trigger_20_interact               trigger_20_interact
     001764B2  _trigger_21_interact               trigger_21_interact
     001764E8  _trigger_22_interact               trigger_22_interact
     0017651E  _trigger_23_interact               trigger_23_interact
     00176554  _trigger_24_interact               trigger_24_interact
     0017658A  _trigger_25_interact               trigger_25_interact
     001765C0  _trigger_26_interact               trigger_26_interact
     001765F6  _trigger_27_interact               trigger_27_interact
ASxxxx Linker V03.00/V05.40 + sdld,  page 72.
Hexadecimal  [32-Bits]

Area                                    Addr        Size        Decimal Bytes (Attributes)
--------------------------------        ----        ----        ------- ----- ------------
_CODE_23                            00174000    00003261 =       12897. bytes (REL,CON)

      Value  Global                              Global Defined In Module
      -----  --------------------------------   ------------------------
     0017662C  _trigger_28_interact               trigger_28_interact
     00176662  _trigger_29_interact               trigger_29_interact
     00176698  _trigger_30_interact               trigger_30_interact
     001766CE  _trigger_31_interact               trigger_31_interact
     00176704  _trigger_32_interact               trigger_32_interact
     0017673A  _trigger_33_interact               trigger_33_interact
     00176770  _trigger_34_interact               trigger_34_interact
     001767A6  _trigger_35_interact               trigger_35_interact
     001767DC  _trigger_36_interact               trigger_36_interact
     00176812  _trigger_37_interact               trigger_37_interact
     00176848  _trigger_38_interact               trigger_38_interact
     0017687E  _trigger_39_interact               trigger_39_interact
     001768B4  _trigger_4_interact                trigger_4_interact
     001768EA  _trigger_41_interact               trigger_41_interact
     00176920  _trigger_42_interact               trigger_42_interact
     00176956  _trigger_43_interact               trigger_43_interact
     0017698C  _trigger_44_interact               trigger_44_interact
     001769C2  _trigger_45_interact               trigger_45_interact
     001769F8  _trigger_46_interact               trigger_46_interact
     00176A2E  _trigger_47_interact               trigger_47_interact
     00176A64  _trigger_48_interact               trigger_48_interact
     00176A9A  _trigger_5_interact                trigger_5_interact
     00176AD0  _trigger_50_interact               trigger_50_interact
     00176ADE  _trigger_51_interact               trigger_51_interact
     00176B14  _trigger_53_interact               trigger_53_interact
     00176B4A  _trigger_54_interact               trigger_54_interact
     00176B80  _trigger_55_interact               trigger_55_interact
     00176B9A  _trigger_56_interact               trigger_56_interact
     00176BB4  _trigger_57_interact               trigger_57_interact
     00176BCE  _trigger_58_interact               trigger_58_interact
     00176BE8  _trigger_59_interact               trigger_59_interact
     00176C02  _trigger_6_interact                trigger_6_interact
     00176C38  _trigger_60_interact               trigger_60_interact
     00176C6E  _trigger_62_interact               trigger_62_interact
     00176CA4  _trigger_63_interact               trigger_63_interact
     00176CDA  _trigger_64_interact               trigger_64_interact
     00176D10  _trigger_65_interact               trigger_65_interact
     00176D46  _trigger_66_interact               trigger_66_interact
     00176D7C  _trigger_67_interact               trigger_67_interact
     00176DB2  _trigger_68_interact               trigger_68_interact
     00176DE8  _trigger_7_interact                trigger_7_interact
     00176E1E  _trigger_70_interact               trigger_70_interact
     00176E54  _trigger_71_interact               trigger_71_interact
     00176E8A  _trigger_72_interact               trigger_72_interact
     00176EC0  _trigger_73_interact               trigger_73_interact
     00176EF6  _trigger_74_interact               trigger_74_interact
     00176F2C  _trigger_75_interact               trigger_75_interact
     00176F62  _trigger_76_interact               trigger_76_interact
     00176F98  _trigger_78_interact               trigger_78_interact
     00176FCE  _trigger_79_interact               trigger_79_interact
     00177004  _trigger_8_interact                trigger_8_interact
ASxxxx Linker V03.00/V05.40 + sdld,  page 73.
Hexadecimal  [32-Bits]

Area                                    Addr        Size        Decimal Bytes (Attributes)
--------------------------------        ----        ----        ------- ----- ------------
_CODE_23                            00174000    00003261 =       12897. bytes (REL,CON)

      Value  Global                              Global Defined In Module
      -----  --------------------------------   ------------------------
     0017701C  _trigger_80_interact               trigger_80_interact
     00177052  _trigger_82_interact               trigger_82_interact
     00177088  _trigger_83_interact               trigger_83_interact
     001770BE  _trigger_84_interact               trigger_84_interact
     001770F4  _trigger_85_interact               trigger_85_interact
     0017712A  _trigger_87_interact               trigger_87_interact
     00177160  _trigger_88_interact               trigger_88_interact
     00177196  _trigger_9_interact                trigger_9_interact
     001771AE  _trigger_91_interact               trigger_91_interact
     001771E4  _trigger_92_interact               trigger_92_interact
     0017721A  _trigger_93_interact               trigger_93_interact
     00177250  _logo_init                         logo
     00177260  _logo_update                       logo
ASxxxx Linker V03.00/V05.40 + sdld,  page 74.
Hexadecimal  [32-Bits]

Area                                    Addr        Size        Decimal Bytes (Attributes)
--------------------------------        ----        ----        ------- ----- ------------
_CRASH_HEADER0                      00000000    00000005 =           5. bytes (ABS,CON)

      Value  Global                              Global Defined In Module
      -----  --------------------------------   ------------------------
ASxxxx Linker V03.00/V05.40 + sdld,  page 75.
Hexadecimal  [32-Bits]

Area                                    Addr        Size        Decimal Bytes (Attributes)
--------------------------------        ----        ----        ------- ----- ------------
_CRASH_HEADER1                      00000000    00000004 =           4. bytes (ABS,CON)

      Value  Global                              Global Defined In Module
      -----  --------------------------------   ------------------------
ASxxxx Linker V03.00/V05.40 + sdld,  page 76.
Hexadecimal  [32-Bits]

Area                                    Addr        Size        Decimal Bytes (Attributes)
--------------------------------        ----        ----        ------- ----- ------------
_CODE_17                            00114000    00003FFF =       16383. bytes (REL,CON)

      Value  Global                              Global Defined In Module
      -----  --------------------------------   ------------------------
     00114000  ___HandleCrash_banked              
     00114368  _CGBFadeToWhiteStep                fade_manager
     001143A1  _CGBFadeToBlackStep                fade_manager
     001143DC  _ApplyPaletteChangeColor           fade_manager
     00114419  _fade_speeds                       fade_manager
     00114420  _DMGFadeToWhiteStep                fade_manager
     00114441  _DMGFadeToBlackStep                fade_manager
     00114464  _ApplyPaletteChangeDMG             fade_manager
     001144BA  _fade_init                         fade_manager
     001144DB  _fade_in                           fade_manager
     00114513  _fade_out                          fade_manager
     0011454C  _fade_update                       fade_manager
     0011459F  _fade_applypalettechange           fade_manager
     001145B1  _fade_setspeed                     fade_manager
     001145C1  _fade_in_modal                     fade_manager
     001145DB  _fade_out_modal                    fade_manager
     001145F5  _printer_send_receive              gbprinter
     0011462B  _printer_send_byte                 gbprinter
     0011463E  _printer_send_command              gbprinter
     00114661  _printer_print_tile                gbprinter
     001146F2  _printer_wait                      gbprinter
     00114724  _gbprinter_detect                  gbprinter
     0011473E  _gbprinter_print_overlay           gbprinter
     0011490B  _atan2                             math_atan2
     00114AA4  _atan2_table                       math_atan2
     00114C0C  ___func_VM_SIO                     vm_sio
     00114C0C  _vm_sio_set_mode                   vm_sio
     00114C1E  _vm_sio_exchange                   vm_sio
     00114F00  ___func_bg_iceos_login_2_copy__t   bg_iceos_login_2_copy__tiles
     00114F00  _bg_iceos_login_2_copy__tileset    bg_iceos_login_2_copy__tiles
     00115192  ___func_bg_lair_right_5_tileset    bg_lair_right_5_tileset
     00115192  _bg_lair_right_5_tileset           bg_lair_right_5_tileset
     00115504  ___func_bg_pixil_frame_0_23_tile   bg_pixil_frame_0_23_tileset
     00115504  _bg_pixil_frame_0_23_tileset       bg_pixil_frame_0_23_tileset
     001157B6  ___func_bg_pixil_frame_0_24_tile   bg_pixil_frame_0_24_tilemap_
     001157B6  _bg_pixil_frame_0_24_tilemap_att   bg_pixil_frame_0_24_tilemap_
     00115AE0  ___func_bg_pixil_frame_0_24_tile   bg_pixil_frame_0_24_tilemap
     00115AE0  _bg_pixil_frame_0_24_tilemap       bg_pixil_frame_0_24_tilemap
     00115E0A  ___func_bg_pixil_frame_23_0_tile   bg_pixil_frame_23_0_tileset
     00115E0A  _bg_pixil_frame_23_0_tileset       bg_pixil_frame_23_0_tileset
     0011613C  ___func_bg_samsam_copy_tileset     bg_samsam_copy_tileset
     0011613C  _bg_samsam_copy_tileset            bg_samsam_copy_tileset
     001163DE  ___func_bg_square_frozen_future_   bg_square_frozen_future_tile
     001163DE  _bg_square_frozen_future_tileset   bg_square_frozen_future_tile
     001166A0  ___func_bg_theatre_tileset         bg_theatre_tileset
     001166A0  _bg_theatre_tileset                bg_theatre_tileset
     00116922  ___func_bg_title_copy_0_tileset    bg_title_copy_0_tileset
     00116922  _bg_title_copy_0_tileset           bg_title_copy_0_tileset
     00116BB4  _scene_27_init                     scene_27_init
     00116E81  ___func_scene_29_collisions        scene_29_collisions
ASxxxx Linker V03.00/V05.40 + sdld,  page 77.
Hexadecimal  [32-Bits]

Area                                    Addr        Size        Decimal Bytes (Attributes)
--------------------------------        ----        ----        ------- ----- ------------
_CODE_17                            00114000    00003FFF =       16383. bytes (REL,CON)

      Value  Global                              Global Defined In Module
      -----  --------------------------------   ------------------------
     00116E81  _scene_29_collisions               scene_29_collisions
     001171AB  ___func_scene_3_sprites            scene_3_sprites
     001171AB  _scene_3_sprites                   scene_3_sprites
     001171AE  _scene_7_init                      scene_7_init
     0011745B  _script_input_3                    script_input_3
     001177B5  ___func_sprite_pixelperfectvoti_   sprite_pixelperfectvoti_tile
     001177B5  _sprite_pixelperfectvoti_tileset   sprite_pixelperfectvoti_tile
     001179D7  _trigger_81_interact               trigger_81_interact
     00117C8B  _pointnclick_init                  pointnclick
     00117CC4  _pointnclick_update                pointnclick
ASxxxx Linker V03.00/V05.40 + sdld,  page 78.
Hexadecimal  [32-Bits]

Area                                    Addr        Size        Decimal Bytes (Attributes)
--------------------------------        ----        ----        ------- ----- ------------
_CRASH_SCRATCH2                     00000000    000001CB =         459. bytes (ABS,CON)

      Value  Global                              Global Defined In Module
      -----  --------------------------------   ------------------------
ASxxxx Linker V03.00/V05.40 + sdld,  page 79.
Hexadecimal  [32-Bits]

Area                                    Addr        Size        Decimal Bytes (Attributes)
--------------------------------        ----        ----        ------- ----- ------------
_CODE_11                            000B4000    00004000 =       16384. bytes (REL,CON)

      Value  Global                              Global Defined In Module
      -----  --------------------------------   ------------------------
     000B4000  _load_init                         data_manager
     000B4013  _spritesheet_none_far              data_manager
     000B4016  _load_bkg_tileset                  data_manager
     000B40F3  _load_background                   data_manager
     000B41B9  _load_sprite                       data_manager
     000B428F  _load_bounds                       data_manager
     000B42AC  _do_load_palette                   data_manager
     000B4331  _load_scene                        data_manager
     000B49BD  _load_player                       data_manager
     000B4A06  _load_emote                        data_manager
     000B4A1F  ___func_bg_iceos_login_copy__til   bg_iceos_login_copy__tileset
     000B4A1F  _bg_iceos_login_copy__tileset      bg_iceos_login_copy__tileset
     000B4A31  ___func_bg_lencityopen_copy__til   bg_lencityopen_copy__tilemap
     000B4A31  _bg_lencityopen_copy__tilemap      bg_lencityopen_copy__tilemap
     000B5355  ___func_bg_pixil_frame_0_31_tile   bg_pixil_frame_0_31_tilemap
     000B5355  _bg_pixil_frame_0_31_tilemap       bg_pixil_frame_0_31_tilemap
     000B5E3B  ___func_bg_pixil_frame_0_33_tile   bg_pixil_frame_0_33_tilemap_
     000B5E3B  _bg_pixil_frame_0_33_tilemap_att   bg_pixil_frame_0_33_tilemap_
     000B6381  ___func_scene_31_collisions        scene_31_collisions
     000B6381  _scene_31_collisions               scene_31_collisions
     000B6E67  ___func_scene_47_collisions        scene_47_collisions
     000B6E67  _scene_47_collisions               scene_47_collisions
     000B778B  _trigger_61_interact               trigger_61_interact

ASxxxx Linker V03.00/V05.40 + sdld,  page 80.
Hexadecimal  [32-Bits]

Area                                    Addr        Size        Decimal Bytes (Attributes)
--------------------------------        ----        ----        ------- ----- ------------
_CODE_22                            00164000    00004000 =       16384. bytes (REL,CON)

      Value  Global                              Global Defined In Module
      -----  --------------------------------   ------------------------
     00164000  _events_init                       events
     00164040  _timers_init                       events
     00164080  _restore_sram_bank                 flasher
     001640B6  _restore_sram                      flasher
     001640CC  _save_sram                         flasher
     001640F8  _music_init_driver                 music_manager
     00164154  _music_init_events                 music_manager
     00164190  _music_events_poll                 music_manager
     001641B8  _music_pause                       music_manager
     001641DA  _palette_init                      palette
     00164211  _CGBZeroPalette                    palette
     00164226  _SGBTransferPalettes               palette
     0016429E  _scroll_rect                       
     001642DB  ___func_VM_GBPRINTER               vm_gbprinter
     001642DB  _vm_print_detect                   vm_gbprinter
     0016432A  _vm_print_overlay                  vm_gbprinter
     0016437F  ___func_VM_LOAD_SAVE               vm_load_save
     0016437F  _vm_save_clear                     vm_load_save
     0016438E  _vm_save_peek                      vm_load_save
     00164410  ___func_VM_RTC                     vm_rtc
     00164410  _vm_rtc_latch                      vm_rtc
     00164418  _vm_rtc_get                        vm_rtc
     0016447F  _vm_rtc_set                        vm_rtc
     001644DD  _vm_rtc_start                      vm_rtc
     00164500  ___func_VM_SCENE                   vm_scene
     00164500  _vm_scene_push                     vm_scene
     00164576  _vm_scene_pop                      vm_scene
     00164584  _vm_scene_pop_all                  vm_scene
     0016458F  _vm_scene_stack_reset              vm_scene
     00164598  _itoa_fmt                          vm_ui_a
     001645D1  .utoa_fmt                          vm_ui_a
     0016467B  _actor_16_interact                 actor_16_interact
     00164729  _actor_18_interact                 actor_18_interact
     001647CA  _actor_21_interact                 actor_21_interact
     0016484F  _actor_33_interact                 actor_33_interact
     001648E3  _actor_34_interact                 actor_34_interact
     00164977  _actor_38_interact                 actor_38_interact
     00164A07  _actor_39_interact                 actor_39_interact
     00164A9B  _actor_41_interact                 actor_41_interact
     00164B2F  _actor_42_interact                 actor_42_interact
     00164BA9  ___func_bg_cave_ladder_copy_0_ti   bg_cave_ladder_copy_0_tilese
     00164BA9  _bg_cave_ladder_copy_0_tileset     bg_cave_ladder_copy_0_tilese
     00164C7B  ___func_bg_fieldlazy_tileset       bg_fieldlazy_tileset
     00164C7B  _bg_fieldlazy_tileset              bg_fieldlazy_tileset
     00164D6D  ___func_bg_init_copy_0_tileset     bg_init_copy_0_tileset
     00164D6D  _bg_init_copy_0_tileset            bg_init_copy_0_tileset
     00164DBF  ___func_bg_intro_scenary_copy__t   bg_intro_scenary_copy__tiles
     00164DBF  _bg_intro_scenary_copy__tileset    bg_intro_scenary_copy__tiles
     00164E01  ___func_bg_intro_weather_copy__t   bg_intro_weather_copy__tiles
     00164E01  _bg_intro_weather_copy__tileset    bg_intro_weather_copy__tiles
ASxxxx Linker V03.00/V05.40 + sdld,  page 81.
Hexadecimal  [32-Bits]

Area                                    Addr        Size        Decimal Bytes (Attributes)
--------------------------------        ----        ----        ------- ----- ------------
_CODE_22                            00164000    00004000 =       16384. bytes (REL,CON)

      Value  Global                              Global Defined In Module
      -----  --------------------------------   ------------------------
     00164E53  ___func_bg_lair_left_2_copy__til   bg_lair_left_2_copy__tileset
     00164E53  _bg_lair_left_2_copy__tileset      bg_lair_left_2_copy__tileset
     00164F35  ___func_bg_lair_right_2_copy__ti   bg_lair_right_2_copy__tilese
     00164F35  _bg_lair_right_2_copy__tileset     bg_lair_right_2_copy__tilese
     00164F77  ___func_bg_lair_right_2_tileset    bg_lair_right_2_tileset
     00164F77  _bg_lair_right_2_tileset           bg_lair_right_2_tileset
     00164FE9  ___func_bg_lair_right_4_copy__ti   bg_lair_right_4_copy__tilese
     00164FE9  _bg_lair_right_4_copy__tileset     bg_lair_right_4_copy__tilese
     0016506B  ___func_emote_shock                emote_shock
     0016506B  _emote_shock                       emote_shock
     001650AB  ___func_frame_image                frame_image
     001650AB  _frame_image                       frame_image
     0016513B  ___func_palette_0                  palette_0
     0016513B  _palette_0                         palette_0
     0016517E  ___func_palette_1                  palette_1
     0016517E  _palette_1                         palette_1
     001651C1  ___func_palette_10                 palette_10
     001651C1  _palette_10                        palette_10
     00165204  ___func_palette_11                 palette_11
     00165204  _palette_11                        palette_11
     00165247  ___func_palette_12                 palette_12
     00165247  _palette_12                        palette_12
     0016528A  ___func_palette_13                 palette_13
     0016528A  _palette_13                        palette_13
     001652CD  ___func_palette_14                 palette_14
     001652CD  _palette_14                        palette_14
     00165310  ___func_palette_15                 palette_15
     00165310  _palette_15                        palette_15
     00165353  ___func_palette_16                 palette_16
     00165353  _palette_16                        palette_16
     00165396  ___func_palette_17                 palette_17
     00165396  _palette_17                        palette_17
     001653D9  ___func_palette_18                 palette_18
     001653D9  _palette_18                        palette_18
     0016541C  ___func_palette_19                 palette_19
     0016541C  _palette_19                        palette_19
     0016545F  ___func_palette_2                  palette_2
     0016545F  _palette_2                         palette_2
     001654A2  ___func_palette_20                 palette_20
     001654A2  _palette_20                        palette_20
     001654E5  ___func_palette_21                 palette_21
     001654E5  _palette_21                        palette_21
     00165528  ___func_palette_22                 palette_22
     00165528  _palette_22                        palette_22
     0016556B  ___func_palette_23                 palette_23
     0016556B  _palette_23                        palette_23
     001655AE  ___func_palette_24                 palette_24
     001655AE  _palette_24                        palette_24
     001655F1  ___func_palette_25                 palette_25
     001655F1  _palette_25                        palette_25
     00165634  ___func_palette_26                 palette_26
ASxxxx Linker V03.00/V05.40 + sdld,  page 82.
Hexadecimal  [32-Bits]

Area                                    Addr        Size        Decimal Bytes (Attributes)
--------------------------------        ----        ----        ------- ----- ------------
_CODE_22                            00164000    00004000 =       16384. bytes (REL,CON)

      Value  Global                              Global Defined In Module
      -----  --------------------------------   ------------------------
     00165634  _palette_26                        palette_26
     00165677  ___func_palette_27                 palette_27
     00165677  _palette_27                        palette_27
     001656BA  ___func_palette_28                 palette_28
     001656BA  _palette_28                        palette_28
     001656FD  ___func_palette_29                 palette_29
     001656FD  _palette_29                        palette_29
     00165740  ___func_palette_3                  palette_3
     00165740  _palette_3                         palette_3
     00165783  ___func_palette_30                 palette_30
     00165783  _palette_30                        palette_30
     001657C6  ___func_palette_31                 palette_31
     001657C6  _palette_31                        palette_31
     00165809  ___func_palette_32                 palette_32
     00165809  _palette_32                        palette_32
     0016584C  ___func_palette_33                 palette_33
     0016584C  _palette_33                        palette_33
     0016588F  ___func_palette_34                 palette_34
     0016588F  _palette_34                        palette_34
     001658D2  ___func_palette_35                 palette_35
     001658D2  _palette_35                        palette_35
     00165915  ___func_palette_36                 palette_36
     00165915  _palette_36                        palette_36
     00165958  ___func_palette_37                 palette_37
     00165958  _palette_37                        palette_37
     0016599B  ___func_palette_38                 palette_38
     0016599B  _palette_38                        palette_38
     001659DE  ___func_palette_39                 palette_39
     001659DE  _palette_39                        palette_39
     00165A21  ___func_palette_4                  palette_4
     00165A21  _palette_4                         palette_4
     00165A64  ___func_palette_40                 palette_40
     00165A64  _palette_40                        palette_40
     00165AA7  ___func_palette_41                 palette_41
     00165AA7  _palette_41                        palette_41
     00165AEA  ___func_palette_42                 palette_42
     00165AEA  _palette_42                        palette_42
     00165B2D  ___func_palette_43                 palette_43
     00165B2D  _palette_43                        palette_43
     00165B70  ___func_palette_44                 palette_44
     00165B70  _palette_44                        palette_44
     00165BB3  ___func_palette_45                 palette_45
     00165BB3  _palette_45                        palette_45
     00165BF6  ___func_palette_46                 palette_46
     00165BF6  _palette_46                        palette_46
     00165C39  ___func_palette_47                 palette_47
     00165C39  _palette_47                        palette_47
     00165C7C  ___func_palette_48                 palette_48
     00165C7C  _palette_48                        palette_48
     00165CBF  ___func_palette_49                 palette_49
     00165CBF  _palette_49                        palette_49
ASxxxx Linker V03.00/V05.40 + sdld,  page 83.
Hexadecimal  [32-Bits]

Area                                    Addr        Size        Decimal Bytes (Attributes)
--------------------------------        ----        ----        ------- ----- ------------
_CODE_22                            00164000    00004000 =       16384. bytes (REL,CON)

      Value  Global                              Global Defined In Module
      -----  --------------------------------   ------------------------
     00165D02  ___func_palette_5                  palette_5
     00165D02  _palette_5                         palette_5
     00165D45  ___func_palette_50                 palette_50
     00165D45  _palette_50                        palette_50
     00165D88  ___func_palette_51                 palette_51
     00165D88  _palette_51                        palette_51
     00165DCB  ___func_palette_52                 palette_52
     00165DCB  _palette_52                        palette_52
     00165E0E  ___func_palette_53                 palette_53
     00165E0E  _palette_53                        palette_53
     00165E51  ___func_palette_54                 palette_54
     00165E51  _palette_54                        palette_54
     00165E94  ___func_palette_55                 palette_55
     00165E94  _palette_55                        palette_55
     00165ED7  ___func_palette_6                  palette_6
     00165ED7  _palette_6                         palette_6
     00165F1A  ___func_palette_7                  palette_7
     00165F1A  _palette_7                         palette_7
     00165F5D  ___func_palette_8                  palette_8
     00165F5D  _palette_8                         palette_8
     00165FA0  ___func_palette_9                  palette_9
     00165FA0  _palette_9                         palette_9
     00165FE3  ___func_scene_0                    scene_0
     00165FE3  _scene_0                           scene_0
     0016601E  _scene_1_init                      scene_1_init
     00166061  ___func_scene_1                    scene_1
     00166061  _scene_1                           scene_1
     0016609C  ___func_scene_10                   scene_10
     0016609C  _scene_10                          scene_10
     001660D7  _scene_11_init                     scene_11_init
     0016611A  ___func_scene_11                   scene_11
     0016611A  _scene_11                          scene_11
     00166155  _scene_12_init                     scene_12_init
     00166162  ___func_scene_12                   scene_12
     00166162  _scene_12                          scene_12
     0016619D  ___func_scene_13                   scene_13
     0016619D  _scene_13                          scene_13
     001661D8  ___func_scene_14                   scene_14
     001661D8  _scene_14                          scene_14
     00166213  ___func_scene_15                   scene_15
     00166213  _scene_15                          scene_15
     0016624E  ___func_scene_16                   scene_16
     0016624E  _scene_16                          scene_16
     00166289  ___func_scene_17                   scene_17
     00166289  _scene_17                          scene_17
     001662C4  ___func_scene_18_actors            scene_18_actors
     001662C4  _scene_18_actors                   scene_18_actors
     0016632C  _scene_18_init                     scene_18_init
     00166371  ___func_scene_18                   scene_18
     00166371  _scene_18                          scene_18
     001663AC  _scene_19_init                     scene_19_init
ASxxxx Linker V03.00/V05.40 + sdld,  page 84.
Hexadecimal  [32-Bits]

Area                                    Addr        Size        Decimal Bytes (Attributes)
--------------------------------        ----        ----        ------- ----- ------------
_CODE_22                            00164000    00004000 =       16384. bytes (REL,CON)

      Value  Global                              Global Defined In Module
      -----  --------------------------------   ------------------------
     001663FD  ___func_scene_19                   scene_19
     001663FD  _scene_19                          scene_19
     00166438  ___func_scene_2_actors             scene_2_actors
     00166438  _scene_2_actors                    scene_2_actors
     001664D4  _scene_2_init                      scene_2_init
     00166514  ___func_scene_2                    scene_2
     00166514  _scene_2                           scene_2
     0016654F  ___func_scene_20                   scene_20
     0016654F  _scene_20                          scene_20
     0016658A  ___func_scene_22_actors            scene_22_actors
     0016658A  _scene_22_actors                   scene_22_actors
     001665F2  ___func_scene_22                   scene_22
     001665F2  _scene_22                          scene_22
     0016662D  _scene_23_init                     scene_23_init
     001666D0  ___func_scene_23                   scene_23
     001666D0  _scene_23                          scene_23
     0016670B  _scene_24_init                     scene_24_init
     0016674E  ___func_scene_24                   scene_24
     0016674E  _scene_24                          scene_24
     00166789  _scene_25_init                     scene_25_init
     001667CC  ___func_scene_25                   scene_25
     001667CC  _scene_25                          scene_25
     00166807  _scene_26_init                     scene_26_init
     001668A4  ___func_scene_26                   scene_26
     001668A4  _scene_26                          scene_26
     001668DF  ___func_scene_27                   scene_27
     001668DF  _scene_27                          scene_27
     0016691A  ___func_scene_28                   scene_28
     0016691A  _scene_28                          scene_28
     00166955  ___func_scene_29                   scene_29
     00166955  _scene_29                          scene_29
     00166990  _scene_3_init                      scene_3_init
     001669CF  ___func_scene_3                    scene_3
     001669CF  _scene_3                           scene_3
     00166A0A  ___func_scene_30                   scene_30
     00166A0A  _scene_30                          scene_30
     00166A45  ___func_scene_31                   scene_31
     00166A45  _scene_31                          scene_31
     00166A80  ___func_scene_33_actors            scene_33_actors
     00166A80  _scene_33_actors                   scene_33_actors
     00166AE8  ___func_scene_37_actors            scene_37_actors
     00166AE8  _scene_37_actors                   scene_37_actors
     00166B84  _scene_38_init                     scene_38_init
     00166BF2  ___func_scene_39_actors            scene_39_actors
     00166BF2  _scene_39_actors                   scene_39_actors
     00166CC2  _scene_4_init                      scene_4_init
     00166D0A  ___func_scene_45_actors            scene_45_actors
     00166D0A  _scene_45_actors                   scene_45_actors
     00166D72  _scene_45_init                     scene_45_init
     00166E43  ___func_scene_46_actors            scene_46_actors
     00166E43  _scene_46_actors                   scene_46_actors
ASxxxx Linker V03.00/V05.40 + sdld,  page 85.
Hexadecimal  [32-Bits]

Area                                    Addr        Size        Decimal Bytes (Attributes)
--------------------------------        ----        ----        ------- ----- ------------
_CODE_22                            00164000    00004000 =       16384. bytes (REL,CON)

      Value  Global                              Global Defined In Module
      -----  --------------------------------   ------------------------
     00166EAB  _scene_46_p_hit1                   scene_46_p_hit1
     00166EF2  _scene_48_p_hit1                   scene_48_p_hit1
     00166F39  _scene_49_p_hit1                   scene_49_p_hit1
     00166F80  ___func_scene_49_triggers          scene_49_triggers
     00166F80  _scene_49_triggers                 scene_49_triggers
     00166FC0  _scene_5_init                      scene_5_init
     00167003  _scene_6_init                      scene_6_init
     00167046  _scene_64_init                     scene_64_init
     0016708C  _scene_69_init                     scene_69_init
     0016711E  ___func_scene_73_actors            scene_73_actors
     0016711E  _scene_73_actors                   scene_73_actors
     00167186  _scene_74_init                     scene_74_init
     00167215  _scene_8_init                      scene_8_init
     00167258  _scene_9_init                      scene_9_init
     0016729B  _script_engine_init                
     0016731B  _script_input_1                    script_input_1
     00167375  _script_input_2                    script_input_2
     001673D8  _script_input_4                    script_input_4
     0016744E  _script_input_5                    script_input_5
     001674C4  ___func_sprite_blank_interactabl   sprite_blank_interactable_c_
     001674C4  _sprite_blank_interactable_c_0_t   sprite_blank_interactable_c_
     00167546  ___func_sprite_blank_interactabl   sprite_blank_interactable_c_
     00167546  _sprite_blank_interactable_c_0_m   sprite_blank_interactable_c_
     00167562  _sprite_blank_interactable_c_0_m   sprite_blank_interactable_c_
     00167564  _sprite_blank_interactable_c_0_a   sprite_blank_interactable_c_
     00167574  _sprite_blank_interactable_c_0_a   sprite_blank_interactable_c_
     00167576  _sprite_blank_interactable_c_0     sprite_blank_interactable_c_
     00167589  ___func_sprite_blank_interactabl   sprite_blank_interactable_c_
     00167589  _sprite_blank_interactable_c_til   sprite_blank_interactable_c_
     001675CB  ___func_sprite_car_tileset         sprite_car_tileset
     001675CB  _sprite_car_tileset                sprite_car_tileset
     0016760D  ___func_sprite_cataa_tileset       sprite_cataa_tileset
     0016760D  _sprite_cataa_tileset              sprite_cataa_tileset
     0016764F  ___func_sprite_dhilly_5_level_co   sprite_dhilly_5_level_copy__
     0016764F  _sprite_dhilly_5_level_copy__til   sprite_dhilly_5_level_copy__
     00167711  ___func_sprite_dhilly_5_level_co   sprite_dhilly_5_level_copy_
     00167711  _sprite_dhilly_5_level_copy__met   sprite_dhilly_5_level_copy_
     0016772D  _sprite_dhilly_5_level_copy__met   sprite_dhilly_5_level_copy_
     0016772F  _sprite_dhilly_5_level_copy__ani   sprite_dhilly_5_level_copy_
     0016773F  _sprite_dhilly_5_level_copy__ani   sprite_dhilly_5_level_copy_
     00167741  _sprite_dhilly_5_level_copy_       sprite_dhilly_5_level_copy_
     00167754  ___func_sprite_dhilly_saveselect   sprite_dhilly_saveselect
     00167754  _sprite_dhilly_saveselect_metasp   sprite_dhilly_saveselect
     00167760  _sprite_dhilly_saveselect_metasp   sprite_dhilly_saveselect
     0016776C  _sprite_dhilly_saveselect_metasp   sprite_dhilly_saveselect
     00167778  _sprite_dhilly_saveselect_metasp   sprite_dhilly_saveselect
     00167784  _sprite_dhilly_saveselect_metasp   sprite_dhilly_saveselect
     00167790  _sprite_dhilly_saveselect_metasp   sprite_dhilly_saveselect
     001677A0  _sprite_dhilly_saveselect_animat   sprite_dhilly_saveselect
     001677B0  _sprite_dhilly_saveselect_animat   sprite_dhilly_saveselect
     001677B2  _sprite_dhilly_saveselect          sprite_dhilly_saveselect
ASxxxx Linker V03.00/V05.40 + sdld,  page 86.
Hexadecimal  [32-Bits]

Area                                    Addr        Size        Decimal Bytes (Attributes)
--------------------------------        ----        ----        ------- ----- ------------
_CODE_22                            00164000    00004000 =       16384. bytes (REL,CON)

      Value  Global                              Global Defined In Module
      -----  --------------------------------   ------------------------
     001677C5  ___func_sprite_highlight_options   sprite_highlight_options_co_
     001677C5  _sprite_highlight_options_co_til   sprite_highlight_options_co_
     001678A7  ___func_sprite_highlight_options   sprite_highlight_options_co
     001678A7  _sprite_highlight_options_co_met   sprite_highlight_options_co
     001678AB  _sprite_highlight_options_co_met   sprite_highlight_options_co
     001678CF  _sprite_highlight_options_co_met   sprite_highlight_options_co
     001678EB  _sprite_highlight_options_co_met   sprite_highlight_options_co
     001678F1  _sprite_highlight_options_co_ani   sprite_highlight_options_co
     00167901  _sprite_highlight_options_co_ani   sprite_highlight_options_co
     00167903  _sprite_highlight_options_co       sprite_highlight_options_co
     00167916  ___func_sprite_iceosapp_ctf_copy   sprite_iceosapp_ctf_copy_0_t
     00167916  _sprite_iceosapp_ctf_copy_0_tile   sprite_iceosapp_ctf_copy_0_t
     00167958  ___func_sprite_iceosapp_wveruner   sprite_iceosapp_wveruner_co_
     00167958  _sprite_iceosapp_wveruner_co_til   sprite_iceosapp_wveruner_co_
     0016799A  ___func_sprite_knife_down_copy__   sprite_knife_down_copy__tile
     0016799A  _sprite_knife_down_copy__tileset   sprite_knife_down_copy__tile
     001679DC  ___func_sprite_mzdesigns_tileset   sprite_mzdesigns_tileset
     001679DC  _sprite_mzdesigns_tileset          sprite_mzdesigns_tileset
     00167A1E  ___func_sprite_shapiro_tileset     sprite_shapiro_tileset
     00167A1E  _sprite_shapiro_tileset            sprite_shapiro_tileset
     00167A60  ___func_sprite_square_cart_copy_   sprite_square_cart_copy__til
     00167A60  _sprite_square_cart_copy__tilese   sprite_square_cart_copy__til
     00167AC2  ___func_sprite_square_cart_copy_   sprite_square_cart_copy_
     00167AC2  _sprite_square_cart_copy__metasp   sprite_square_cart_copy_
     00167ADE  _sprite_square_cart_copy__metasp   sprite_square_cart_copy_
     00167AE0  _sprite_square_cart_copy__animat   sprite_square_cart_copy_
     00167AF0  _sprite_square_cart_copy__animat   sprite_square_cart_copy_
     00167AF2  _sprite_square_cart_copy_          sprite_square_cart_copy_
     00167B05  ___func_sprite_square_full_hitbo   sprite_square_full_hitbox_c_
     00167B05  _sprite_square_full_hitbox_c_2_t   sprite_square_full_hitbox_c_
     00167B67  ___func_sprite_square_full_hitbo   sprite_square_full_hitbox_c_
     00167B67  _sprite_square_full_hitbox_c_2_m   sprite_square_full_hitbox_c_
     00167B8B  _sprite_square_full_hitbox_c_2_m   sprite_square_full_hitbox_c_
     00167B8D  _sprite_square_full_hitbox_c_2_a   sprite_square_full_hitbox_c_
     00167B9D  _sprite_square_full_hitbox_c_2_a   sprite_square_full_hitbox_c_
     00167B9F  _sprite_square_full_hitbox_c_2     sprite_square_full_hitbox_c_
     00167BB2  ___func_sprite_square_full_hitbo   sprite_square_full_hitbox_c_
     00167BB2  _sprite_square_full_hitbox_c_3_t   sprite_square_full_hitbox_c_
     00167BF4  ___func_sprite_square_full_hitbo   sprite_square_full_hitbox_c_
     00167BF4  _sprite_square_full_hitbox_c_3_m   sprite_square_full_hitbox_c_
     00167C18  _sprite_square_full_hitbox_c_3_m   sprite_square_full_hitbox_c_
     00167C1A  _sprite_square_full_hitbox_c_3_a   sprite_square_full_hitbox_c_
     00167C2A  _sprite_square_full_hitbox_c_3_a   sprite_square_full_hitbox_c_
     00167C2C  _sprite_square_full_hitbox_c_3     sprite_square_full_hitbox_c_
     00167C3F  ___func_sprite_square_full_hitbo   sprite_square_full_hitbox_c_
     00167C3F  _sprite_square_full_hitbox_c_4_t   sprite_square_full_hitbox_c_
     00167CA1  ___func_sprite_static_copy_tiles   sprite_static_copy_tileset
     00167CA1  _sprite_static_copy_tileset        sprite_static_copy_tileset
     00167CE3  _trigger_52_interact               trigger_52_interact
     00167DDB  _trigger_69_interact               trigger_69_interact
     00167E1D  _trigger_77_interact               trigger_77_interact
ASxxxx Linker V03.00/V05.40 + sdld,  page 87.
Hexadecimal  [32-Bits]

Area                                    Addr        Size        Decimal Bytes (Attributes)
--------------------------------        ----        ----        ------- ----- ------------
_CODE_22                            00164000    00004000 =       16384. bytes (REL,CON)

      Value  Global                              Global Defined In Module
      -----  --------------------------------   ------------------------
     00167E76  _trigger_86_interact               trigger_86_interact
     00167ECF  _trigger_89_interact               trigger_89_interact
     00167F8C  _trigger_90_interact               trigger_90_interact

ASxxxx Linker V03.00/V05.40 + sdld,  page 88.
Hexadecimal  [32-Bits]

Area                                    Addr        Size        Decimal Bytes (Attributes)
--------------------------------        ----        ----        ------- ----- ------------
_CODE_21                            00154000    00004000 =       16384. bytes (REL,CON)

      Value  Global                              Global Defined In Module
      -----  --------------------------------   ------------------------
     00154068  _save_sram_banks                   
     001540F0  _erase_flash                       
     00154106  ___func_VM_MATH                    vm_math
     00154106  _vm_sin_scale                      vm_math
     001541A2  _vm_cos_scale                      vm_math
     00154240  ___func_VM_MUSIC                   vm_music
     00154240  _vm_music_play                     vm_music
     0015428D  _vm_music_stop                     vm_music
     001542AF  _vm_music_mute                     vm_music
     001542ED  _vm_music_routine                  vm_music
     00154314  _vm_music_setpos                   vm_music
     0015431A  _vm_sound_mastervol                vm_music
     00154320  _vm_sfx_play                       vm_music
     00154393  ___func_bg_cave_ladder_copy__til   bg_cave_ladder_copy__tileset
     00154393  _bg_cave_ladder_copy__tileset      bg_cave_ladder_copy__tileset
     001544D5  ___func_bg_cinema_tileset          bg_cinema_tileset
     001544D5  _bg_cinema_tileset                 bg_cinema_tileset
     00154617  ___func_bg_controls_gb_copy_0_ti   bg_controls_gb_copy_0_tilese
     00154617  _bg_controls_gb_copy_0_tileset     bg_controls_gb_copy_0_tilese
     00154739  ___func_bg_elevator_tileset        bg_elevator_tileset
     00154739  _bg_elevator_tileset               bg_elevator_tileset
     0015484B  ___func_bg_iceos_platformer2_cop   bg_iceos_platformer2_copy__t
     0015484B  _bg_iceos_platformer2_copy__tile   bg_iceos_platformer2_copy__t
     0015499D  ___func_bg_iceos_platformer3_cop   bg_iceos_platformer3_copy__t
     0015499D  _bg_iceos_platformer3_copy__tile   bg_iceos_platformer3_copy__t
     00154AFF  ___func_bg_lair_hub_tileset        bg_lair_hub_tileset
     00154AFF  _bg_lair_hub_tileset               bg_lair_hub_tileset
     00154C11  ___func_bg_lair_left_2_tileset     bg_lair_left_2_tileset
     00154C11  _bg_lair_left_2_tileset            bg_lair_left_2_tileset
     00154D23  ___func_bg_lencity_dhillybuildin   bg_lencity_dhillybuilding_c_
     00154D23  _bg_lencity_dhillybuilding_c_til   bg_lencity_dhillybuilding_c_
     00154E45  ___func_bg_lencity_dhillybuildin   bg_lencity_dhillybuilding_f_
     00154E45  _bg_lencity_dhillybuilding_f_til   bg_lencity_dhillybuilding_f_
     00154F77  ___func_bg_lencity_trainstation_   bg_lencity_trainstation_tile
     00154F77  _bg_lencity_trainstation_tileset   bg_lencity_trainstation_tile
     001550C9  ___func_bg_lencityopen_copy_0_ti   bg_lencityopen_copy_0_tilese
     001550C9  _bg_lencityopen_copy_0_tileset     bg_lencityopen_copy_0_tilese
     0015522B  ___func_scene_33_collisions        scene_33_collisions
     0015522B  _scene_33_collisions               scene_33_collisions
     00155393  ___func_scene_36_collisions        scene_36_collisions
     00155393  _scene_36_collisions               scene_36_collisions
     001554FB  ___func_scene_37_collisions        scene_37_collisions
     001554FB  _scene_37_collisions               scene_37_collisions
     00155663  ___func_scene_38_collisions        scene_38_collisions
     00155663  _scene_38_collisions               scene_38_collisions
     001557CB  ___func_scene_39_collisions        scene_39_collisions
     001557CB  _scene_39_collisions               scene_39_collisions
     00155933  ___func_scene_4_collisions         scene_4_collisions
     00155933  _scene_4_collisions                scene_4_collisions
     00155A9B  ___func_scene_40_collisions        scene_40_collisions
ASxxxx Linker V03.00/V05.40 + sdld,  page 89.
Hexadecimal  [32-Bits]

Area                                    Addr        Size        Decimal Bytes (Attributes)
--------------------------------        ----        ----        ------- ----- ------------
_CODE_21                            00154000    00004000 =       16384. bytes (REL,CON)

      Value  Global                              Global Defined In Module
      -----  --------------------------------   ------------------------
     00155A9B  _scene_40_collisions               scene_40_collisions
     00155C03  ___func_scene_41_collisions        scene_41_collisions
     00155C03  _scene_41_collisions               scene_41_collisions
     00155D6B  ___func_scene_42_collisions        scene_42_collisions
     00155D6B  _scene_42_collisions               scene_42_collisions
     00155ED3  ___func_scene_43_collisions        scene_43_collisions
     00155ED3  _scene_43_collisions               scene_43_collisions
     0015603B  ___func_scene_44_collisions        scene_44_collisions
     0015603B  _scene_44_collisions               scene_44_collisions
     001561A3  ___func_scene_5_collisions         scene_5_collisions
     001561A3  _scene_5_collisions                scene_5_collisions
     0015630B  ___func_scene_52_actors            scene_52_actors
     0015630B  _scene_52_actors                   scene_52_actors
     0015640F  ___func_scene_53_actors            scene_53_actors
     0015640F  _scene_53_actors                   scene_53_actors
     00156513  ___func_scene_54_collisions        scene_54_collisions
     00156513  _scene_54_collisions               scene_54_collisions
     0015667B  ___func_scene_59_collisions        scene_59_collisions
     0015667B  _scene_59_collisions               scene_59_collisions
     001567E3  ___func_scene_6_collisions         scene_6_collisions
     001567E3  _scene_6_collisions                scene_6_collisions
     0015694B  ___func_scene_60_collisions        scene_60_collisions
     0015694B  _scene_60_collisions               scene_60_collisions
     00156AB3  ___func_scene_61_collisions        scene_61_collisions
     00156AB3  _scene_61_collisions               scene_61_collisions
     00156C1B  ___func_scene_64_collisions        scene_64_collisions
     00156C1B  _scene_64_collisions               scene_64_collisions
     00156D83  ___func_scene_66_collisions        scene_66_collisions
     00156D83  _scene_66_collisions               scene_66_collisions
     00156EEB  ___func_scene_67_collisions        scene_67_collisions
     00156EEB  _scene_67_collisions               scene_67_collisions
     00157053  ___func_scene_68_collisions        scene_68_collisions
     00157053  _scene_68_collisions               scene_68_collisions
     001571BB  ___func_scene_69_collisions        scene_69_collisions
     001571BB  _scene_69_collisions               scene_69_collisions
     00157323  ___func_scene_7_collisions         scene_7_collisions
     00157323  _scene_7_collisions                scene_7_collisions
     0015748B  ___func_scene_70_collisions        scene_70_collisions
     0015748B  _scene_70_collisions               scene_70_collisions
     001575F3  ___func_scene_71_collisions        scene_71_collisions
     001575F3  _scene_71_collisions               scene_71_collisions
     0015775B  ___func_scene_72_collisions        scene_72_collisions
     0015775B  _scene_72_collisions               scene_72_collisions
     001578C3  ___func_scene_73_collisions        scene_73_collisions
     001578C3  _scene_73_collisions               scene_73_collisions
     00157A2B  ___func_scene_74_collisions        scene_74_collisions
     00157A2B  _scene_74_collisions               scene_74_collisions
     00157B93  ___func_scene_75_collisions        scene_75_collisions
     00157B93  _scene_75_collisions               scene_75_collisions
     00157CFB  ___func_scene_8_collisions         scene_8_collisions
     00157CFB  _scene_8_collisions                scene_8_collisions
ASxxxx Linker V03.00/V05.40 + sdld,  page 90.
Hexadecimal  [32-Bits]

Area                                    Addr        Size        Decimal Bytes (Attributes)
--------------------------------        ----        ----        ------- ----- ------------
_CODE_21                            00154000    00004000 =       16384. bytes (REL,CON)

      Value  Global                              Global Defined In Module
      -----  --------------------------------   ------------------------
     00157E63  ___func_scene_9_collisions         scene_9_collisions
     00157E63  _scene_9_collisions                scene_9_collisions
     00157FCB  _script_input_0                    script_input_0

ASxxxx Linker V03.00/V05.40 + sdld,  page 91.
Hexadecimal  [32-Bits]

Area                                    Addr        Size        Decimal Bytes (Attributes)
--------------------------------        ----        ----        ------- ----- ------------
_HEADER_SIO0                        00000000    00000004 =           4. bytes (ABS,CON)

      Value  Global                              Global Defined In Module
      -----  --------------------------------   ------------------------
ASxxxx Linker V03.00/V05.40 + sdld,  page 92.
Hexadecimal  [32-Bits]

Area                                    Addr        Size        Decimal Bytes (Attributes)
--------------------------------        ----        ----        ------- ----- ------------
_HEADER_TIMER0                      00000000    00000004 =           4. bytes (ABS,CON)

      Value  Global                              Global Defined In Module
      -----  --------------------------------   ------------------------
ASxxxx Linker V03.00/V05.40 + sdld,  page 93.
Hexadecimal  [32-Bits]

Area                                    Addr        Size        Decimal Bytes (Attributes)
--------------------------------        ----        ----        ------- ----- ------------
_CODE_8                             00084000    00004000 =       16384. bytes (REL,CON)

      Value  Global                              Global Defined In Module
      -----  --------------------------------   ------------------------
     00084000  _remove_LCD_ISRs                   interrupts
     0008401B  ___func_VM_MAIN                    vm
     0008401B  _vm_call                           vm
     0008405D  _vm_ret                            vm
     000840BD  _vm_call_far                       vm
     0008413C  _vm_ret_far                        vm
     000841B4  _vm_push                           vm
     000841DF  _vm_pop                            vm
     0008421A  _vm_loop                           vm
     000842A5  _vm_jump                           vm
     000842B1  _wait_frames                       vm
     00084327  _vm_invoke                         vm
     00084454  _vm_join                           vm
     000844B6  _vm_terminate                      vm
     000844E3  _vm_if                             vm
     00084628  _vm_if_const                       vm
     0008473D  _vm_push_value                     vm
     0008478F  _vm_push_value_ind                 vm
     00084804  _vm_push_reference                 vm
     0008485B  _vm_reserve                        vm
     00084889  _vm_set                            vm
     000848EA  _vm_set_const                      vm
     00084916  _vm_get_tlocal                     vm
     000849A3  _vm_test_terminate                 vm
     000849AE  _vm_idle                           vm
     000849BA  _vm_init_rng                       vm
     000849E6  _vm_rand                           vm
     00084A28  _vm_lock                           vm
     00084A37  _vm_unlock                         vm
     00084A4A  _vm_raise                          vm
     00084A8C  _vm_set_indirect                   vm
     00084B07  _vm_get_indirect                   vm
     00084B82  _vm_poll_loaded                    vm
     00084BB2  _vm_memset                         vm
     00084BEC  _vm_memcpy                         vm
     00084C69  _script_runner_init                vm
     00084D20  _script_execute                    vm
     00084E86  _script_terminate                  vm
     00084EEB  _script_detach_hthread             vm
     00084F27  _actor_6_interact                  actor_6_interact
     000852FC  ___func_bg_options_copy__tileset   bg_options_copy__tileset
     000852FC  _bg_options_copy__tileset          bg_options_copy__tileset
     0008697E  ___func_bg_title_tileset           bg_title_tileset
     0008697E  _bg_title_tileset                  bg_title_tileset

ASxxxx Linker V03.00/V05.40 + sdld,  page 94.
Hexadecimal  [32-Bits]

Area                                    Addr        Size        Decimal Bytes (Attributes)
--------------------------------        ----        ----        ------- ----- ------------
_CODE_15                            000F4000    00003FFF =       16383. bytes (REL,CON)

      Value  Global                              Global Defined In Module
      -----  --------------------------------   ------------------------
     000F4000  _projectiles_init                  projectiles
     000F402F  _projectile_launch                 projectiles
     000F4446  _actor_11_interact                 actor_11_interact
     000F4869  ___func_bg_cave_ladder_copy__til   bg_cave_ladder_copy__tilemap
     000F4869  _bg_cave_ladder_copy__tilemap_at   bg_cave_ladder_copy__tilemap
     000F4D19  ___func_bg_cave_ladder_copy__til   bg_cave_ladder_copy__tilemap
     000F4D19  _bg_cave_ladder_copy__tilemap      bg_cave_ladder_copy__tilemap
     000F51C9  ___func_bg_init_copy_0_tilemap_a   bg_init_copy_0_tilemap_attr
     000F51C9  _bg_init_copy_0_tilemap_attr       bg_init_copy_0_tilemap_attr
     000F5679  ___func_bg_init_copy_0_tilemap     bg_init_copy_0_tilemap
     000F5679  _bg_init_copy_0_tilemap            bg_init_copy_0_tilemap
     000F5B29  ___func_bg_lencityopen_tileset     bg_lencityopen_tileset
     000F5B29  _bg_lencityopen_tileset            bg_lencityopen_tileset
     000F601B  ___func_bg_pixil_frame_0_33_tile   bg_pixil_frame_0_33_tilemap
     000F601B  _bg_pixil_frame_0_33_tilemap       bg_pixil_frame_0_33_tilemap
     000F6561  ___func_bg_shillycityopen_copy__   bg_shillycityopen_copy__tile
     000F6561  _bg_shillycityopen_copy__tileset   bg_shillycityopen_copy__tile
     000F6763  ___func_scene_32_collisions        scene_32_collisions
     000F6763  _scene_32_collisions               scene_32_collisions
     000F6C13  ___func_scene_50_collisions        scene_50_collisions
     000F6C13  _scene_50_collisions               scene_50_collisions
     000F7159  ___func_scene_51_collisions        scene_51_collisions
     000F7159  _scene_51_collisions               scene_51_collisions
     000F7609  ___func_scene_56_collisions        scene_56_collisions
     000F7609  _scene_56_collisions               scene_56_collisions
     000F7AB9  ___func_scene_57_collisions        scene_57_collisions
     000F7AB9  _scene_57_collisions               scene_57_collisions
ASxxxx Linker V03.00/V05.40 + sdld,  page 95.
Hexadecimal  [32-Bits]

Area                                    Addr        Size        Decimal Bytes (Attributes)
--------------------------------        ----        ----        ------- ----- ------------
_CODE_13                            000D4000    00003FFF =       16383. bytes (REL,CON)

      Value  Global                              Global Defined In Module
      -----  --------------------------------   ------------------------
     000D4000  _scroll_init                       scroll
     000D402A  _scroll_reset                      scroll
     000D404A  _scroll_update                     scroll
     000D4181  _scroll_viewport                   scroll
     000D461A  _scroll_repaint                    scroll
     000D462A  _scroll_render_rows                scroll
     000D46C0  _scroll_queue_row                  scroll
     000D46E2  _scroll_queue_col                  scroll
     000D472D  ___func_bg_fieldlazy_tilemap       bg_fieldlazy_tilemap
     000D472D  _bg_fieldlazy_tilemap              bg_fieldlazy_tilemap
     000D4E6B  ___func_bg_pixil_frame_23_0_tile   bg_pixil_frame_23_0_tilemap_
     000D4E6B  _bg_pixil_frame_23_0_tilemap_att   bg_pixil_frame_23_0_tilemap_
     000D5573  ___func_bg_pixil_frame_23_0_tile   bg_pixil_frame_23_0_tilemap
     000D5573  _bg_pixil_frame_23_0_tilemap       bg_pixil_frame_23_0_tilemap
     000D5C7B  ___func_scene_20_sprites           scene_20_sprites
     000D5C7B  _scene_20_sprites                  scene_20_sprites
     000D5C7E  _scene_22_init                     scene_22_init
     000D6377  ___func_scene_28_collisions        scene_28_collisions
     000D6377  _scene_28_collisions               scene_28_collisions
     000D6A7F  ___func_scene_49_collisions        scene_49_collisions
     000D6A7F  _scene_49_collisions               scene_49_collisions
     000D71BD  _trigger_40_interact               trigger_40_interact
     000D7272  _adventure_init                    adventure
     000D7287  _adventure_update                  adventure
     000D793E  _topdown_init                      topdown
     000D79D5  _topdown_update                    topdown

ASxxxx Linker V03.00/V05.40 + sdld,  page 96.
Hexadecimal  [32-Bits]

Area                                    Addr        Size        Decimal Bytes (Attributes)
--------------------------------        ----        ----        ------- ----- ------------
_CODE_1                             00014000    00004000 =       16384. bytes (REL,CON)

      Value  Global                              Global Defined In Module
      -----  --------------------------------   ------------------------
     00014000  _ui_swap_tiles                     
     0001404A  _ui_print_make_mask_lr             
     00014066  _ui_print_make_mask_rl             
     00014082  _ui_init                           ui
     00014153  _ui_load_tiles                     ui
     000141AA  _ui_draw_frame                     ui
     00014244  _ui_print_reset                    ui
     00014295  _ui_set_start_tile                 ui
     000142C1  _ui_print_render                   ui
     00014557  _ui_draw_text_buffer_char          ui
     00014A51  _ui_run_menu                       ui
     00014C28  _ui_run_modal                      ui
     00014CE2  ___func_VM_SGB                     vm_sgb
     00014CE2  ___func_bg_lencityopen_copy_0_ti   bg_lencityopen_copy_0_tilema
     00014CE2  _bg_lencityopen_copy_0_tilemap_a   bg_lencityopen_copy_0_tilema
     00015804  ___func_bg_lencityopen_tilemap_a   bg_lencityopen_tilemap_attr
     00015804  _bg_lencityopen_tilemap_attr       bg_lencityopen_tilemap_attr
     00017F14  ___func_scene_17_sprites           scene_17_sprites
     00017F14  _scene_17_sprites                  scene_17_sprites
     00017F17  ___func_sprite_pixelperfectvoti    sprite_pixelperfectvoti
     00017F17  _sprite_pixelperfectvoti_metaspr   sprite_pixelperfectvoti
     00017F23  _sprite_pixelperfectvoti_metaspr   sprite_pixelperfectvoti
     00017F2F  _sprite_pixelperfectvoti_metaspr   sprite_pixelperfectvoti
     00017F3B  _sprite_pixelperfectvoti_metaspr   sprite_pixelperfectvoti
     00017F47  _sprite_pixelperfectvoti_metaspr   sprite_pixelperfectvoti
     00017F53  _sprite_pixelperfectvoti_metaspr   sprite_pixelperfectvoti
     00017F5F  _sprite_pixelperfectvoti_metaspr   sprite_pixelperfectvoti
     00017F6B  _sprite_pixelperfectvoti_metaspr   sprite_pixelperfectvoti
     00017F77  _sprite_pixelperfectvoti_metaspr   sprite_pixelperfectvoti
     00017F83  _sprite_pixelperfectvoti_metaspr   sprite_pixelperfectvoti
     00017F8F  _sprite_pixelperfectvoti_metaspr   sprite_pixelperfectvoti
     00017F9B  _sprite_pixelperfectvoti_metaspr   sprite_pixelperfectvoti
     00017FA7  _sprite_pixelperfectvoti_metaspr   sprite_pixelperfectvoti
     00017FB3  _sprite_pixelperfectvoti_metaspr   sprite_pixelperfectvoti
     00017FBF  _sprite_pixelperfectvoti_metaspr   sprite_pixelperfectvoti
     00017FDB  _sprite_pixelperfectvoti_animati   sprite_pixelperfectvoti
     00017FEB  _sprite_pixelperfectvoti_animati   sprite_pixelperfectvoti
     00017FED  _sprite_pixelperfectvoti           sprite_pixelperfectvoti

ASxxxx Linker V03.00/V05.40 + sdld,  page 97.
Hexadecimal  [32-Bits]

Area                                    Addr        Size        Decimal Bytes (Attributes)
--------------------------------        ----        ----        ------- ----- ------------
_CODE_18                            00124000    00003FFF =       16383. bytes (REL,CON)

      Value  Global                              Global Defined In Module
      -----  --------------------------------   ------------------------
     00124000  _set_sgb_border                    sgb_border
     001241EA  ___func_VM_PALETTE                 vm_palette
     001241EA  _vm_load_palette                   vm_palette
     001243E1  _actor_25_interact                 actor_25_interact
     00124595  ___func_bg_cinema_tilemap_attr     bg_cinema_tilemap_attr
     00124595  _bg_cinema_tilemap_attr            bg_cinema_tilemap_attr
     00124775  ___func_bg_cinema_tilemap          bg_cinema_tilemap
     00124775  _bg_cinema_tilemap                 bg_cinema_tilemap
     00124955  ___func_bg_controls_gb_copy__til   bg_controls_gb_copy__tilemap
     00124955  _bg_controls_gb_copy__tilemap      bg_controls_gb_copy__tilemap
     00124ABD  ___func_bg_controls_gba_copy__ti   bg_controls_gba_copy__tilema
     00124ABD  _bg_controls_gba_copy__tilemap_a   bg_controls_gba_copy__tilema
     00124C25  ___func_bg_controls_gba_copy__ti   bg_controls_gba_copy__tilema
     00124C25  _bg_controls_gba_copy__tilemap     bg_controls_gba_copy__tilema
     00124D8D  ___func_bg_controls_gba_copy_0_t   bg_controls_gba_copy_0_tilem
     00124D8D  _bg_controls_gba_copy_0_tilemap_   bg_controls_gba_copy_0_tilem
     00124EF5  ___func_bg_controls_gba_copy_0_t   bg_controls_gba_copy_0_tilem
     00124EF5  _bg_controls_gba_copy_0_tilemap    bg_controls_gba_copy_0_tilem
     0012505D  ___func_bg_iceos_desktop_copy__t   bg_iceos_desktop_copy__tiles
     0012505D  _bg_iceos_desktop_copy__tileset    bg_iceos_desktop_copy__tiles
     0012523F  ___func_bg_init_copy_1_tileset     bg_init_copy_1_tileset
     0012523F  _bg_init_copy_1_tileset            bg_init_copy_1_tileset
     00125491  ___func_bg_lair_right_3_tileset    bg_lair_right_3_tileset
     00125491  _bg_lair_right_3_tileset           bg_lair_right_3_tileset
     00125623  ___func_bg_lair_right_tileset      bg_lair_right_tileset
     00125623  _bg_lair_right_tileset             bg_lair_right_tileset
     00125805  ___func_bg_lencity_trainstation_   bg_lencity_trainstation_cop_
     00125805  _bg_lencity_trainstation_cop_til   bg_lencity_trainstation_cop_
     001259B7  ___func_bg_lencity_trainstation_   bg_lencity_trainstation_tile
     001259B7  _bg_lencity_trainstation_tilemap   bg_lencity_trainstation_tile
     00125B43  ___func_bg_lencity_trainstation_   bg_lencity_trainstation_tile
     00125B43  _bg_lencity_trainstation_tilemap   bg_lencity_trainstation_tile
     00125CCF  ___func_bg_lencity_yua_building_   bg_lencity_yua_building_tile
     00125CCF  _bg_lencity_yua_building_tileset   bg_lencity_yua_building_tile
     00125F11  ___func_bg_lencityopen_copy__til   bg_lencityopen_copy__tileset
     00125F11  _bg_lencityopen_copy__tileset      bg_lencityopen_copy__tileset
     00126163  ___func_bg_pixil_frame_0_30_tile   bg_pixil_frame_0_30_tileset
     00126163  _bg_pixil_frame_0_30_tileset       bg_pixil_frame_0_30_tileset
     00126305  ___func_bg_shillycity_sara_house   bg_shillycity_sara_house_co_
     00126305  _bg_shillycity_sara_house_co_til   bg_shillycity_sara_house_co_
     00126547  ___func_bg_shillycityopen_copy_0   bg_shillycityopen_copy_0_til
     00126547  _bg_shillycityopen_copy_0_tilema   bg_shillycityopen_copy_0_til
     0012673B  ___func_bg_shillycityopen_copy_0   bg_shillycityopen_copy_0_til
     0012673B  _bg_shillycityopen_copy_0_tilema   bg_shillycityopen_copy_0_til
     0012692F  ___func_bg_shillycityopen_copy_0   bg_shillycityopen_copy_0_til
     0012692F  _bg_shillycityopen_copy_0_tilese   bg_shillycityopen_copy_0_til
     00126B01  ___func_bg_square_frozen_future_   bg_square_frozen_future_tile
     00126B01  _bg_square_frozen_future_tilemap   bg_square_frozen_future_tile
     00126C8D  ___func_bg_square_frozen_future_   bg_square_frozen_future_tile
     00126C8D  _bg_square_frozen_future_tilemap   bg_square_frozen_future_tile
ASxxxx Linker V03.00/V05.40 + sdld,  page 98.
Hexadecimal  [32-Bits]

Area                                    Addr        Size        Decimal Bytes (Attributes)
--------------------------------        ----        ----        ------- ----- ------------
_CODE_18                            00124000    00003FFF =       16383. bytes (REL,CON)

      Value  Global                              Global Defined In Module
      -----  --------------------------------   ------------------------
     00126E19  ___func_bg_theatre_tilemap_attr    bg_theatre_tilemap_attr
     00126E19  _bg_theatre_tilemap_attr           bg_theatre_tilemap_attr
     0012700D  ___func_bg_theatre_tilemap         bg_theatre_tilemap
     0012700D  _bg_theatre_tilemap                bg_theatre_tilemap
     00127201  ___func_scene_19_collisions        scene_19_collisions
     00127201  _scene_19_collisions               scene_19_collisions
     0012738D  ___func_scene_20_collisions        scene_20_collisions
     0012738D  _scene_20_collisions               scene_20_collisions
     00127519  ___func_scene_27_collisions        scene_27_collisions
     00127519  _scene_27_collisions               scene_27_collisions
     001276A5  ___func_scene_35_collisions        scene_35_collisions
     001276A5  _scene_35_collisions               scene_35_collisions
     00127831  ___func_scene_45_collisions        scene_45_collisions
     00127831  _scene_45_collisions               scene_45_collisions
     00127A11  ___func_scene_46_collisions        scene_46_collisions
     00127A11  _scene_46_collisions               scene_46_collisions
     00127C05  ___func_scene_48_collisions        scene_48_collisions
     00127C05  _scene_48_collisions               scene_48_collisions
     00127DF9  ___func_scene_63_collisions        scene_63_collisions
     00127DF9  _scene_63_collisions               scene_63_collisions
     00127FED  _scene_70_init                     scene_70_init

ASxxxx Linker V03.00/V05.40 + sdld,  page 99.
Hexadecimal  [32-Bits]

Area                                    Addr        Size        Decimal Bytes (Attributes)
--------------------------------        ----        ----        ------- ----- ------------
_CODE_14                            000E4000    00003FFF =       16383. bytes (REL,CON)

      Value  Global                              Global Defined In Module
      -----  --------------------------------   ------------------------
     000E4000  ___func_VM_GAMEBOY                 vm_gameboy
     000E4000  _vm_set_sprites_visible            vm_gameboy
     000E4017  _vm_input_wait                     vm_gameboy
     000E4040  _vm_context_prepare                vm_gameboy
     000E406B  _vm_input_attach                   vm_gameboy
     000E4081  _vm_input_detach                   vm_gameboy
     000E4095  _vm_input_get                      vm_gameboy
     000E40C9  _vm_fade                           vm_gameboy
     000E40F9  _vm_timer_prepare                  vm_gameboy
     000E4124  _vm_timer_set                      vm_gameboy
     000E413F  _vm_timer_stop                     vm_gameboy
     000E4153  _vm_timer_reset                    vm_gameboy
     000E416A  _vm_get_tile_xy                    vm_gameboy
     000E4240  _vm_replace_tile                   vm_gameboy
     000E42EB  _vm_poll                           vm_gameboy
     000E43BD  _vm_set_sprite_mode                vm_gameboy
     000E43D1  _vm_replace_tile_xy                vm_gameboy
     000E45B1  _vm_rumble                         vm_gameboy
     000E45D1  _vm_load_tileset                   vm_gameboy
     000E46A2  _actor_31_interact                 actor_31_interact
     000E46D2  _actor_43_interact                 actor_43_interact
     000E4C62  ___func_bg_cave_ladder_copy_0_ti   bg_cave_ladder_copy_0_tilema
     000E4C62  _bg_cave_ladder_copy_0_tilemap_a   bg_cave_ladder_copy_0_tilema
     000E51F3  ___func_bg_cave_ladder_copy_0_ti   bg_cave_ladder_copy_0_tilema
     000E51F3  _bg_cave_ladder_copy_0_tilemap     bg_cave_ladder_copy_0_tilema
     000E5784  ___func_bg_intro_scenary_copy__t   bg_intro_scenary_copy__tilem
     000E5784  _bg_intro_scenary_copy__tilemap_   bg_intro_scenary_copy__tilem
     000E5D60  ___func_bg_intro_scenary_copy__t   bg_intro_scenary_copy__tilem
     000E5D60  _bg_intro_scenary_copy__tilemap    bg_intro_scenary_copy__tilem
     000E633C  ___func_bg_lair_left_3_tileset     bg_lair_left_3_tileset
     000E633C  _bg_lair_left_3_tileset            bg_lair_left_3_tileset
     000E68AE  ___func_bg_pixil_frame_0_24_tile   bg_pixil_frame_0_24_tileset
     000E68AE  _bg_pixil_frame_0_24_tileset       bg_pixil_frame_0_24_tileset
     000E6E60  ___func_bg_title_copy_2_tileset    bg_title_copy_2_tileset
     000E6E60  _bg_title_copy_2_tileset           bg_title_copy_2_tileset
     000E7492  ___func_scene_17_collisions        scene_17_collisions
     000E7492  _scene_17_collisions               scene_17_collisions
     000E7A6E  ___func_scene_55_collisions        scene_55_collisions
     000E7A6E  _scene_55_collisions               scene_55_collisions
ASxxxx Linker V03.00/V05.40 + sdld,  page 100.
Hexadecimal  [32-Bits]

Area                                    Addr        Size        Decimal Bytes (Attributes)
--------------------------------        ----        ----        ------- ----- ------------
_CODE_7                             00074000    00003FFF =       16383. bytes (REL,CON)

      Value  Global                              Global Defined In Module
      -----  --------------------------------   ------------------------
     00074000  ___func_VM_PROJECTILE              vm_projectiles
     00074000  _vm_projectile_launch              vm_projectiles
     00074041  _vm_projectile_load_type           vm_projectiles
     000740D3  ___func_bg_controls_mobile_copy_   bg_controls_mobile_copy_0_ti
     000740D3  _bg_controls_mobile_copy_0_tiles   bg_controls_mobile_copy_0_ti
     00075755  ___func_bg_lencityopen_copy__til   bg_lencityopen_copy__tilemap
     00075755  _bg_lencityopen_copy__tilemap_at   bg_lencityopen_copy__tilemap
     00076079  _SGB_border_chr                    border
     00076079  ___func_SGB_border_chr             border
     00076079  ___func_SGB_border_map             border
     00076079  ___func_SGB_border_pal             border
     00077879  _SGB_border_map                    border
     00077F79  _SGB_border_pal                    border
     00077FF9  ___func_scene_22_sprites           scene_22_sprites
     00077FF9  _scene_22_sprites                  scene_22_sprites
ASxxxx Linker V03.00/V05.40 + sdld,  page 101.
Hexadecimal  [32-Bits]

Area                                    Addr        Size        Decimal Bytes (Attributes)
--------------------------------        ----        ----        ------- ----- ------------
_CODE_12                            000C4000    00003FFE =       16382. bytes (REL,CON)

      Value  Global                              Global Defined In Module
      -----  --------------------------------   ------------------------
     000C4000  ___func_VM_UI                      vm_ui
     000C4000  _vm_display_text                   vm_ui
     000C406E  _vm_switch_text_layer              vm_ui
     000C4088  _vm_overlay_setpos                 vm_ui
     000C40A2  _vm_overlay_wait                   vm_ui
     000C4132  _vm_overlay_move_to                vm_ui
     000C4176  _vm_overlay_set_scroll             vm_ui
     000C41AF  _vm_overlay_clear                  vm_ui
     000C4281  _vm_overlay_show                   vm_ui
     000C42CF  _vm_choice                         vm_ui
     000C43EA  _vm_set_font                       vm_ui
     000C4419  _vm_overlay_scroll                 vm_ui
     000C447A  _vm_overlay_set_submap             vm_ui
     000C44E6  _vm_overlay_set_submap_ex          vm_ui
     000C45E7  _vm_overlay_set_map                vm_ui
     000C4746  _vm_set_text_sound                 vm_ui
     000C475F  ___func_bg_controls_gb_copy__til   bg_controls_gb_copy__tilemap
     000C475F  _bg_controls_gb_copy__tilemap_at   bg_controls_gb_copy__tilemap
     000C48C7  ___func_bg_dhilly_game_1_tileset   bg_dhilly_game_1_tileset
     000C48C7  _bg_dhilly_game_1_tileset          bg_dhilly_game_1_tileset
     000C50F9  ___func_bg_fieldlazy_tilemap_att   bg_fieldlazy_tilemap_attr
     000C50F9  _bg_fieldlazy_tilemap_attr         bg_fieldlazy_tilemap_attr
     000C5837  ___func_bg_pixil_frame_0_31_tile   bg_pixil_frame_0_31_tileset
     000C5837  _bg_pixil_frame_0_31_tileset       bg_pixil_frame_0_31_tileset
     000C6019  ___func_bg_title_copy_1_tileset    bg_title_copy_1_tileset
     000C6019  _bg_title_copy_1_tileset           bg_title_copy_1_tileset
     000C602B  _scene_46_init                     scene_46_init
     000C6893  _scene_52_init                     scene_52_init
     000C70B9  _trigger_1_interact                trigger_1_interact
     000C7836  _shmup_init                        shmup
     000C78D3  _shmup_update                      shmup

ASxxxx Linker V03.00/V05.40 + sdld,  page 102.
Hexadecimal  [32-Bits]

Area                                    Addr        Size        Decimal Bytes (Attributes)
--------------------------------        ----        ----        ------- ----- ------------
_CODE_2                             00024000    00003FFF =       16383. bytes (REL,CON)

      Value  Global                              Global Defined In Module
      -----  --------------------------------   ------------------------
     00024000  ___func_avatar_font_0              avatar_font_0
     00024264  _avatar_font_0                     avatar_font_0
     0002426C  ___func_bg_controls_gb_copy__til   bg_controls_gb_copy__tileset
     0002426C  _bg_controls_gb_copy__tileset      bg_controls_gb_copy__tileset
     000258EE  ___func_bg_lencityopen_tilemap     bg_lencityopen_tilemap
     000258EE  _bg_lencityopen_tilemap            bg_lencityopen_tilemap
     00027FFE  _script_input_7                    script_input_7

ASxxxx Linker V03.00/V05.40 + sdld,  page 103.
Hexadecimal  [32-Bits]

Area                                    Addr        Size        Decimal Bytes (Attributes)
--------------------------------        ----        ----        ------- ----- ------------
_CODE_10                            000A4000    00003FFF =       16383. bytes (REL,CON)

      Value  Global                              Global Defined In Module
      -----  --------------------------------   ------------------------
     000A4000  ___func_bg_cave_ladder_copy_       bg_cave_ladder_copy_
     000A4000  _bg_cave_ladder_copy_              bg_cave_ladder_copy_
     000A400E  ___func_bg_lencityopen_copy_0_ti   bg_lencityopen_copy_0_tilema
     000A400E  _bg_lencityopen_copy_0_tilemap     bg_lencityopen_copy_0_tilema
     000A4B30  ___func_bg_pixil_frame_0_31_tile   bg_pixil_frame_0_31_tilemap_
     000A4B30  _bg_pixil_frame_0_31_tilemap_att   bg_pixil_frame_0_31_tilemap_
     000A5616  ___func_bg_title_copy__tileset     bg_title_copy__tileset
     000A5616  _bg_title_copy__tileset            bg_title_copy__tileset
     000A5B38  ___func_font_gbs_variable_width    font_gbs_variable_width
     000A69B3  _font_gbs_variable_width           font_gbs_variable_width
     000A69BB  ___func_scene_52_collisions        scene_52_collisions
     000A69BB  _scene_52_collisions               scene_52_collisions
     000A74DD  ___func_scene_53_collisions        scene_53_collisions
     000A74DD  _scene_53_collisions               scene_53_collisions

ASxxxx Linker V03.00/V05.40 + sdld,  page 104.
Hexadecimal  [32-Bits]

Area                                    Addr        Size        Decimal Bytes (Attributes)
--------------------------------        ----        ----        ------- ----- ------------
_CODE_3                             00034000    00003FFF =       16383. bytes (REL,CON)

      Value  Global                              Global Defined In Module
      -----  --------------------------------   ------------------------
     00034000  ___func_bg_controls_gba_copy__ti   bg_controls_gba_copy__tilese
     00034000  _bg_controls_gba_copy__tileset     bg_controls_gba_copy__tilese
     00035682  _scene_14_init                     scene_14_init
     000358E9  ___func_scene_18_collisions        scene_18_collisions
     000358E9  _scene_18_collisions               scene_18_collisions
     00037FF9  ___func_scene_18_sprites           scene_18_sprites
     00037FF9  _scene_18_sprites                  scene_18_sprites

ASxxxx Linker V03.00/V05.40 + sdld,  page 105.
Hexadecimal  [32-Bits]

Area                                    Addr        Size        Decimal Bytes (Attributes)
--------------------------------        ----        ----        ------- ----- ------------
_CODE_4                             00044000    00003FFF =       16383. bytes (REL,CON)

      Value  Global                              Global Defined In Module
      -----  --------------------------------   ------------------------
     00044000  ___func_bg_controls_gba_copy_0_t   bg_controls_gba_copy_0_tiles
     00044000  _bg_controls_gba_copy_0_tileset    bg_controls_gba_copy_0_tiles
     00045682  ___func_bg_lair_right_tilemap_at   bg_lair_right_tilemap_attr
     00045682  _bg_lair_right_tilemap_attr        bg_lair_right_tilemap_attr
     000458E6  ___func_scene_34_collisions        scene_34_collisions
     000458E6  _scene_34_collisions               scene_34_collisions
     00047FF6  ___func_scene_46_sprites           scene_46_sprites
     00047FF6  _scene_46_sprites                  scene_46_sprites

ASxxxx Linker V03.00/V05.40 + sdld,  page 106.
Hexadecimal  [32-Bits]

Area                                    Addr        Size        Decimal Bytes (Attributes)
--------------------------------        ----        ----        ------- ----- ------------
_CODE_19                            00134000    00004000 =       16384. bytes (REL,CON)

      Value  Global                              Global Defined In Module
      -----  --------------------------------   ------------------------
     00134000  ___func_bg_controls_gbc_copy__ti   bg_controls_gbc_copy__tilema
     00134000  _bg_controls_gbc_copy__tilemap_a   bg_controls_gbc_copy__tilema
     00134168  ___func_bg_controls_gbc_copy__ti   bg_controls_gbc_copy__tilema
     00134168  _bg_controls_gbc_copy__tilemap     bg_controls_gbc_copy__tilema
     001342D0  ___func_bg_controls_mobile_copy_   bg_controls_mobile_copy__til
     001342D0  _bg_controls_mobile_copy__tilema   bg_controls_mobile_copy__til
     00134438  ___func_bg_controls_mobile_copy_   bg_controls_mobile_copy__til
     00134438  _bg_controls_mobile_copy__tilema   bg_controls_mobile_copy__til
     001345A0  ___func_bg_controls_mobile_copy_   bg_controls_mobile_copy_0_ti
     001345A0  _bg_controls_mobile_copy_0_tilem   bg_controls_mobile_copy_0_ti
     00134708  ___func_bg_controls_mobile_copy_   bg_controls_mobile_copy_0_ti
     00134708  _bg_controls_mobile_copy_0_tilem   bg_controls_mobile_copy_0_ti
     00134870  ___func_bg_dhilly_game_1_tilemap   bg_dhilly_game_1_tilemap_att
     00134870  _bg_dhilly_game_1_tilemap_attr     bg_dhilly_game_1_tilemap_att
     001349D8  ___func_bg_dhilly_game_1_tilemap   bg_dhilly_game_1_tilemap
     001349D8  _bg_dhilly_game_1_tilemap          bg_dhilly_game_1_tilemap
     00134B40  ___func_bg_elevator_tilemap_attr   bg_elevator_tilemap_attr
     00134B40  _bg_elevator_tilemap_attr          bg_elevator_tilemap_attr
     00134CA8  ___func_bg_elevator_tilemap        bg_elevator_tilemap
     00134CA8  _bg_elevator_tilemap               bg_elevator_tilemap
     00134E10  ___func_bg_iceos_desktop_copy__t   bg_iceos_desktop_copy__tilem
     00134E10  _bg_iceos_desktop_copy__tilemap_   bg_iceos_desktop_copy__tilem
     00134F78  ___func_bg_iceos_desktop_copy__t   bg_iceos_desktop_copy__tilem
     00134F78  _bg_iceos_desktop_copy__tilemap    bg_iceos_desktop_copy__tilem
     001350E0  ___func_bg_iceos_login_2_copy__t   bg_iceos_login_2_copy__tilem
     001350E0  _bg_iceos_login_2_copy__tilemap_   bg_iceos_login_2_copy__tilem
     00135248  ___func_bg_iceos_login_2_copy__t   bg_iceos_login_2_copy__tilem
     00135248  _bg_iceos_login_2_copy__tilemap    bg_iceos_login_2_copy__tilem
     001353B0  ___func_bg_iceos_login_copy__til   bg_iceos_login_copy__tilemap
     001353B0  _bg_iceos_login_copy__tilemap_at   bg_iceos_login_copy__tilemap
     00135518  ___func_bg_iceos_login_copy__til   bg_iceos_login_copy__tilemap
     00135518  _bg_iceos_login_copy__tilemap      bg_iceos_login_copy__tilemap
     00135680  ___func_bg_iceos_platformer2_cop   bg_iceos_platformer2_copy__t
     00135680  _bg_iceos_platformer2_copy__tile   bg_iceos_platformer2_copy__t
     001357E8  ___func_bg_iceos_platformer2_cop   bg_iceos_platformer2_copy__t
     001357E8  _bg_iceos_platformer2_copy__tile   bg_iceos_platformer2_copy__t
     00135950  ___func_bg_iceos_platformer3_cop   bg_iceos_platformer3_copy__t
     00135950  _bg_iceos_platformer3_copy__tile   bg_iceos_platformer3_copy__t
     00135AB8  ___func_bg_iceos_platformer3_cop   bg_iceos_platformer3_copy__t
     00135AB8  _bg_iceos_platformer3_copy__tile   bg_iceos_platformer3_copy__t
     00135C20  ___func_bg_iceos_platformer4_til   bg_iceos_platformer4_tilemap
     00135C20  _bg_iceos_platformer4_tilemap_at   bg_iceos_platformer4_tilemap
     00135D88  ___func_bg_iceos_platformer4_til   bg_iceos_platformer4_tilemap
     00135D88  _bg_iceos_platformer4_tilemap      bg_iceos_platformer4_tilemap
     00135EF0  ___func_bg_iceos_platformer4_til   bg_iceos_platformer4_tileset
     00135EF0  _bg_iceos_platformer4_tileset      bg_iceos_platformer4_tileset
     00135FA2  ___func_bg_init_copy_1_tilemap_a   bg_init_copy_1_tilemap_attr
     00135FA2  _bg_init_copy_1_tilemap_attr       bg_init_copy_1_tilemap_attr
     0013610A  ___func_bg_init_copy_1_tilemap     bg_init_copy_1_tilemap
     0013610A  _bg_init_copy_1_tilemap            bg_init_copy_1_tilemap
ASxxxx Linker V03.00/V05.40 + sdld,  page 107.
Hexadecimal  [32-Bits]

Area                                    Addr        Size        Decimal Bytes (Attributes)
--------------------------------        ----        ----        ------- ----- ------------
_CODE_19                            00134000    00004000 =       16384. bytes (REL,CON)

      Value  Global                              Global Defined In Module
      -----  --------------------------------   ------------------------
     00136272  ___func_bg_intro_weather_copy__t   bg_intro_weather_copy__tilem
     00136272  _bg_intro_weather_copy__tilemap_   bg_intro_weather_copy__tilem
     001363DA  ___func_bg_intro_weather_copy__t   bg_intro_weather_copy__tilem
     001363DA  _bg_intro_weather_copy__tilemap    bg_intro_weather_copy__tilem
     00136542  ___func_bg_lair_hub_tilemap_attr   bg_lair_hub_tilemap_attr
     00136542  _bg_lair_hub_tilemap_attr          bg_lair_hub_tilemap_attr
     001366AA  ___func_bg_lair_hub_tilemap        bg_lair_hub_tilemap
     001366AA  _bg_lair_hub_tilemap               bg_lair_hub_tilemap
     00136812  ___func_bg_lair_left_2_copy__til   bg_lair_left_2_copy__tilemap
     00136812  _bg_lair_left_2_copy__tilemap_at   bg_lair_left_2_copy__tilemap
     0013697A  ___func_bg_lair_left_2_copy__til   bg_lair_left_2_copy__tilemap
     0013697A  _bg_lair_left_2_copy__tilemap      bg_lair_left_2_copy__tilemap
     00136AE2  ___func_bg_lair_left_2_tilemap_a   bg_lair_left_2_tilemap_attr
     00136AE2  _bg_lair_left_2_tilemap_attr       bg_lair_left_2_tilemap_attr
     00136C4A  ___func_bg_lair_left_2_tilemap     bg_lair_left_2_tilemap
     00136C4A  _bg_lair_left_2_tilemap            bg_lair_left_2_tilemap
     00136DB2  ___func_bg_lair_left_3_tilemap_a   bg_lair_left_3_tilemap_attr
     00136DB2  _bg_lair_left_3_tilemap_attr       bg_lair_left_3_tilemap_attr
     00136F1A  ___func_bg_lair_left_3_tilemap     bg_lair_left_3_tilemap
     00136F1A  _bg_lair_left_3_tilemap            bg_lair_left_3_tilemap
     00137082  ___func_bg_lair_right_2_copy__ti   bg_lair_right_2_copy__tilema
     00137082  _bg_lair_right_2_copy__tilemap_a   bg_lair_right_2_copy__tilema
     001371EA  ___func_bg_lair_right_2_copy__ti   bg_lair_right_2_copy__tilema
     001371EA  _bg_lair_right_2_copy__tilemap     bg_lair_right_2_copy__tilema
     00137352  ___func_bg_lair_right_2_tilemap_   bg_lair_right_2_tilemap_attr
     00137352  _bg_lair_right_2_tilemap_attr      bg_lair_right_2_tilemap_attr
     001374BA  ___func_bg_lair_right_2_tilemap    bg_lair_right_2_tilemap
     001374BA  _bg_lair_right_2_tilemap           bg_lair_right_2_tilemap
     00137622  ___func_bg_lair_right_3_copy__ti   bg_lair_right_3_copy__tilema
     00137622  _bg_lair_right_3_copy__tilemap_a   bg_lair_right_3_copy__tilema
     0013778A  ___func_bg_lair_right_3_copy__ti   bg_lair_right_3_copy__tilema
     0013778A  _bg_lair_right_3_copy__tilemap     bg_lair_right_3_copy__tilema
     001378F2  ___func_bg_lair_right_3_tilemap_   bg_lair_right_3_tilemap_attr
     001378F2  _bg_lair_right_3_tilemap_attr      bg_lair_right_3_tilemap_attr
     00137A5A  ___func_bg_lair_right_3_tilemap    bg_lair_right_3_tilemap
     00137A5A  _bg_lair_right_3_tilemap           bg_lair_right_3_tilemap
     00137BC2  ___func_bg_lair_right_4_copy__ti   bg_lair_right_4_copy__tilema
     00137BC2  _bg_lair_right_4_copy__tilemap_a   bg_lair_right_4_copy__tilema
     00137D2A  ___func_bg_lair_right_4_copy__ti   bg_lair_right_4_copy__tilema
     00137D2A  _bg_lair_right_4_copy__tilemap     bg_lair_right_4_copy__tilema
     00137E92  ___func_bg_lair_right_5_tilemap_   bg_lair_right_5_tilemap_attr
     00137E92  _bg_lair_right_5_tilemap_attr      bg_lair_right_5_tilemap_attr
     00137FFA  ___func_scene_45_sprites           scene_45_sprites
     00137FFA  _scene_45_sprites                  scene_45_sprites

ASxxxx Linker V03.00/V05.40 + sdld,  page 108.
Hexadecimal  [32-Bits]

Area                                    Addr        Size        Decimal Bytes (Attributes)
--------------------------------        ----        ----        ------- ----- ------------
_CODE_5                             00054000    00003FFE =       16382. bytes (REL,CON)

      Value  Global                              Global Defined In Module
      -----  --------------------------------   ------------------------
     00054000  ___func_bg_controls_gbc_copy__ti   bg_controls_gbc_copy__tilese
     00054000  _bg_controls_gbc_copy__tileset     bg_controls_gbc_copy__tilese
     00055682  ___func_bg_lair_right_tilemap      bg_lair_right_tilemap
     00055682  _bg_lair_right_tilemap             bg_lair_right_tilemap
     000558E6  ___func_scene_15_triggers          scene_15_triggers
     000558E6  _scene_15_triggers                 scene_15_triggers
     000558EE  ___func_scene_58_collisions        scene_58_collisions
     000558EE  _scene_58_collisions               scene_58_collisions

ASxxxx Linker V03.00/V05.40 + sdld,  page 109.
Hexadecimal  [32-Bits]

Area                                    Addr        Size        Decimal Bytes (Attributes)
--------------------------------        ----        ----        ------- ----- ------------
_CODE_6                             00064000    00003FFE =       16382. bytes (REL,CON)

      Value  Global                              Global Defined In Module
      -----  --------------------------------   ------------------------
     00064000  ___func_bg_controls_mobile_copy_   bg_controls_mobile_copy__til
     00064000  _bg_controls_mobile_copy__tilese   bg_controls_mobile_copy__til
     00065682  ___func_scene_19_triggers          scene_19_triggers
     00065682  _scene_19_triggers                 scene_19_triggers
     0006568A  ___func_scene_62_collisions        scene_62_collisions
     0006568A  _scene_62_collisions               scene_62_collisions
     00067D9A  ___func_scene_65_collisions        scene_65_collisions
     00067D9A  _scene_65_collisions               scene_65_collisions

ASxxxx Linker V03.00/V05.40 + sdld,  page 110.
Hexadecimal  [32-Bits]

Area                                    Addr        Size        Decimal Bytes (Attributes)
--------------------------------        ----        ----        ------- ----- ------------
_CODE_20                            00144000    00004000 =       16384. bytes (REL,CON)

      Value  Global                              Global Defined In Module
      -----  --------------------------------   ------------------------
     00144000  ___func_bg_lair_right_3_copy__ti   bg_lair_right_3_copy__tilese
     00144000  _bg_lair_right_3_copy__tileset     bg_lair_right_3_copy__tilese
     001440B2  ___func_bg_lair_right_5_tilemap    bg_lair_right_5_tilemap
     001440B2  _bg_lair_right_5_tilemap           bg_lair_right_5_tilemap
     0014421A  ___func_bg_lencity_dhillybuildin   bg_lencity_dhillybuilding_c_
     0014421A  _bg_lencity_dhillybuilding_c_til   bg_lencity_dhillybuilding_c_
     00144382  ___func_bg_lencity_dhillybuildin   bg_lencity_dhillybuilding_c_
     00144382  _bg_lencity_dhillybuilding_c_til   bg_lencity_dhillybuilding_c_
     001444EA  ___func_bg_lencity_dhillybuildin   bg_lencity_dhillybuilding_f_
     001444EA  _bg_lencity_dhillybuilding_f_til   bg_lencity_dhillybuilding_f_
     00144652  ___func_bg_lencity_dhillybuildin   bg_lencity_dhillybuilding_f_
     00144652  _bg_lencity_dhillybuilding_f_til   bg_lencity_dhillybuilding_f_
     001447BA  ___func_bg_lencity_trainstation_   bg_lencity_trainstation_cop_
     001447BA  _bg_lencity_trainstation_cop_til   bg_lencity_trainstation_cop_
     00144922  ___func_bg_lencity_trainstation_   bg_lencity_trainstation_cop_
     00144922  _bg_lencity_trainstation_cop_til   bg_lencity_trainstation_cop_
     00144A8A  ___func_bg_lencity_yua_building_   bg_lencity_yua_building_tile
     00144A8A  _bg_lencity_yua_building_tilemap   bg_lencity_yua_building_tile
     00144BF2  ___func_bg_lencity_yua_building_   bg_lencity_yua_building_tile
     00144BF2  _bg_lencity_yua_building_tilemap   bg_lencity_yua_building_tile
     00144D5A  ___func_bg_options_copy__tilemap   bg_options_copy__tilemap_att
     00144D5A  _bg_options_copy__tilemap_attr     bg_options_copy__tilemap_att
     00144EC2  ___func_bg_options_copy__tilemap   bg_options_copy__tilemap
     00144EC2  _bg_options_copy__tilemap          bg_options_copy__tilemap
     0014502A  ___func_bg_pixil_frame_0_23_tile   bg_pixil_frame_0_23_tilemap_
     0014502A  _bg_pixil_frame_0_23_tilemap_att   bg_pixil_frame_0_23_tilemap_
     00145192  ___func_bg_pixil_frame_0_23_tile   bg_pixil_frame_0_23_tilemap
     00145192  _bg_pixil_frame_0_23_tilemap       bg_pixil_frame_0_23_tilemap
     001452FA  ___func_bg_pixil_frame_0_copy_co   bg_pixil_frame_0_copy_copy__
     001452FA  _bg_pixil_frame_0_copy_copy__til   bg_pixil_frame_0_copy_copy__
     00145462  ___func_bg_pixil_frame_0_copy_co   bg_pixil_frame_0_copy_copy__
     00145462  _bg_pixil_frame_0_copy_copy__til   bg_pixil_frame_0_copy_copy__
     001455CA  ___func_bg_samsam_copy_tilemap_a   bg_samsam_copy_tilemap_attr
     001455CA  _bg_samsam_copy_tilemap_attr       bg_samsam_copy_tilemap_attr
     00145732  ___func_bg_samsam_copy_tilemap     bg_samsam_copy_tilemap
     00145732  _bg_samsam_copy_tilemap            bg_samsam_copy_tilemap
     0014589A  ___func_bg_shillycity_sara_house   bg_shillycity_sara_house_co_
     0014589A  _bg_shillycity_sara_house_co_til   bg_shillycity_sara_house_co_
     00145A02  ___func_bg_shillycity_sara_house   bg_shillycity_sara_house_co_
     00145A02  _bg_shillycity_sara_house_co_til   bg_shillycity_sara_house_co_
     00145B6A  ___func_bg_shillycityopen_copy__   bg_shillycityopen_copy__tile
     00145B6A  _bg_shillycityopen_copy__tilemap   bg_shillycityopen_copy__tile
     00145CD2  ___func_bg_shillycityopen_copy__   bg_shillycityopen_copy__tile
     00145CD2  _bg_shillycityopen_copy__tilemap   bg_shillycityopen_copy__tile
     00145E3A  ___func_bg_title_copy__tilemap_a   bg_title_copy__tilemap_attr
     00145E3A  _bg_title_copy__tilemap_attr       bg_title_copy__tilemap_attr
     00145FA2  ___func_bg_title_copy__tilemap     bg_title_copy__tilemap
     00145FA2  _bg_title_copy__tilemap            bg_title_copy__tilemap
     0014610A  ___func_bg_title_copy_0_tilemap_   bg_title_copy_0_tilemap_attr
     0014610A  _bg_title_copy_0_tilemap_attr      bg_title_copy_0_tilemap_attr
ASxxxx Linker V03.00/V05.40 + sdld,  page 111.
Hexadecimal  [32-Bits]

Area                                    Addr        Size        Decimal Bytes (Attributes)
--------------------------------        ----        ----        ------- ----- ------------
_CODE_20                            00144000    00004000 =       16384. bytes (REL,CON)

      Value  Global                              Global Defined In Module
      -----  --------------------------------   ------------------------
     00146272  ___func_bg_title_copy_0_tilemap    bg_title_copy_0_tilemap
     00146272  _bg_title_copy_0_tilemap           bg_title_copy_0_tilemap
     001463DA  ___func_bg_title_copy_1_tilemap_   bg_title_copy_1_tilemap_attr
     001463DA  _bg_title_copy_1_tilemap_attr      bg_title_copy_1_tilemap_attr
     00146542  ___func_bg_title_copy_1_tilemap    bg_title_copy_1_tilemap
     00146542  _bg_title_copy_1_tilemap           bg_title_copy_1_tilemap
     001466AA  ___func_bg_title_copy_2_tilemap_   bg_title_copy_2_tilemap_attr
     001466AA  _bg_title_copy_2_tilemap_attr      bg_title_copy_2_tilemap_attr
     00146812  ___func_bg_title_copy_2_tilemap    bg_title_copy_2_tilemap
     00146812  _bg_title_copy_2_tilemap           bg_title_copy_2_tilemap
     0014697A  ___func_bg_title_tilemap_attr      bg_title_tilemap_attr
     0014697A  _bg_title_tilemap_attr             bg_title_tilemap_attr
     00146AE2  ___func_bg_title_tilemap           bg_title_tilemap
     00146AE2  _bg_title_tilemap                  bg_title_tilemap
     00146C4A  ___func_scene_1_collisions         scene_1_collisions
     00146C4A  _scene_1_collisions                scene_1_collisions
     00146DB2  ___func_scene_10_collisions        scene_10_collisions
     00146DB2  _scene_10_collisions               scene_10_collisions
     00146F1A  ___func_scene_11_collisions        scene_11_collisions
     00146F1A  _scene_11_collisions               scene_11_collisions
     00147082  ___func_scene_12_collisions        scene_12_collisions
     00147082  _scene_12_collisions               scene_12_collisions
     001471EA  ___func_scene_13_collisions        scene_13_collisions
     001471EA  _scene_13_collisions               scene_13_collisions
     00147352  ___func_scene_14_collisions        scene_14_collisions
     00147352  _scene_14_collisions               scene_14_collisions
     001474BA  ___func_scene_16_collisions        scene_16_collisions
     001474BA  _scene_16_collisions               scene_16_collisions
     00147622  ___func_scene_2_collisions         scene_2_collisions
     00147622  _scene_2_collisions                scene_2_collisions
     0014778A  ___func_scene_22_collisions        scene_22_collisions
     0014778A  _scene_22_collisions               scene_22_collisions
     001478F2  ___func_scene_23_collisions        scene_23_collisions
     001478F2  _scene_23_collisions               scene_23_collisions
     00147A5A  ___func_scene_24_collisions        scene_24_collisions
     00147A5A  _scene_24_collisions               scene_24_collisions
     00147BC2  ___func_scene_25_collisions        scene_25_collisions
     00147BC2  _scene_25_collisions               scene_25_collisions
     00147D2A  ___func_scene_26_collisions        scene_26_collisions
     00147D2A  _scene_26_collisions               scene_26_collisions
     00147E92  ___func_scene_3_collisions         scene_3_collisions
     00147E92  _scene_3_collisions                scene_3_collisions
     00147FFA  ___func_scene_48_sprites           scene_48_sprites
     00147FFA  _scene_48_sprites                  scene_48_sprites

ASxxxx Linker V03.00/V05.40 + sdld,  page 112.
Hexadecimal  [32-Bits]

Area                                    Addr        Size        Decimal Bytes (Attributes)
--------------------------------        ----        ----        ------- ----- ------------
_HEADER_LCD0                        00000000    00000003 =           3. bytes (ABS,CON)

      Value  Global                              Global Defined In Module
      -----  --------------------------------   ------------------------
ASxxxx Linker V03.00/V05.40 + sdld,  page 113.

Files Linked                              [ module(s) ]

/tmp/_gbstools/gbdk/lib/gb/crt0.o         [ Runtime ]
/tmp/_gbsbuild/obj/absolute.rel           [ absolute ]
/tmp/_gbsbuild/obj/actor.rel              [ actor ]
/tmp/_gbsbuild/obj/bankdata.rel           [ bankdata ]
/tmp/_gbsbuild/obj/bootstrap.rel          [  ]
/tmp/_gbsbuild/obj/camera.rel             [ camera ]
/tmp/_gbsbuild/obj/core.rel               [ core ]
/tmp/_gbsbuild/obj/crash_handler.rel      [  ]
/tmp/_gbsbuild/obj/data_manager.rel       [ data_manager ]
/tmp/_gbsbuild/obj/events.rel             [ events ]
/tmp/_gbsbuild/obj/fade_manager.rel       [ fade_manager ]
/tmp/_gbsbuild/obj/flasher_s.rel          [  ]
/tmp/_gbsbuild/obj/flasher.rel            [ flasher ]
/tmp/_gbsbuild/obj/game_time.rel          [ game_time ]
/tmp/_gbsbuild/obj/gbprinter.rel          [ gbprinter ]
/tmp/_gbsbuild/obj/input.rel              [ input ]
/tmp/_gbsbuild/obj/interrupt_sio.rel      [  ]
/tmp/_gbsbuild/obj/interrupt_timer.rel    [  ]
/tmp/_gbsbuild/obj/interrupts.rel         [ interrupts ]
/tmp/_gbsbuild/obj/load_save.rel          [ load_save ]
/tmp/_gbsbuild/obj/math_atan2.rel         [ math_atan2 ]
/tmp/_gbsbuild/obj/math.rel               [ math ]
/tmp/_gbsbuild/obj/music_manager.rel      [ music_manager ]
/tmp/_gbsbuild/obj/palette.rel            [ palette ]
/tmp/_gbsbuild/obj/parallax.rel           [ parallax ]
/tmp/_gbsbuild/obj/projectiles.rel        [ projectiles ]
/tmp/_gbsbuild/obj/scroll_a.rel           [  ]
/tmp/_gbsbuild/obj/scroll.rel             [ scroll ]
/tmp/_gbsbuild/obj/set_tile_submap.rel    [  ]
/tmp/_gbsbuild/obj/sfx_player.rel         [ sfx_player ]
/tmp/_gbsbuild/obj/sgb_border.rel         [ sgb_border ]
/tmp/_gbsbuild/obj/sio.rel                [ sio ]
/tmp/_gbsbuild/obj/states_caller.rel      [  ]
/tmp/_gbsbuild/obj/system.rel             [ system ]
/tmp/_gbsbuild/obj/trigger.rel            [ trigger ]
/tmp/_gbsbuild/obj/ui_a.rel               [  ]
/tmp/_gbsbuild/obj/ui.rel                 [ ui ]
/tmp/_gbsbuild/obj/vm_actor.rel           [ vm_actor ]
/tmp/_gbsbuild/obj/vm_camera.rel          [ vm_camera ]
/tmp/_gbsbuild/obj/vm_gameboy.rel         [ vm_gameboy ]
/tmp/_gbsbuild/obj/vm_gbprinter.rel       [ vm_gbprinter ]
/tmp/_gbsbuild/obj/vm_instructions.rel    [ vm_instructions ]
/tmp/_gbsbuild/obj/vm_load_save.rel       [ vm_load_save ]
/tmp/_gbsbuild/obj/vm_math.rel            [ vm_math ]
/tmp/_gbsbuild/obj/vm_music.rel           [ vm_music ]
/tmp/_gbsbuild/obj/vm_palette.rel         [ vm_palette ]
/tmp/_gbsbuild/obj/vm_projectiles.rel     [ vm_projectiles ]
/tmp/_gbsbuild/obj/vm_rtc.rel             [ vm_rtc ]
/tmp/_gbsbuild/obj/vm_scene.rel           [ vm_scene ]
/tmp/_gbsbuild/obj/vm_sgb.rel             [ vm_sgb ]
/tmp/_gbsbuild/obj/vm_sio.rel             [ vm_sio ]
/tmp/_gbsbuild/obj/vm_ui_a.rel            [ vm_ui_a ]
/tmp/_gbsbuild/obj/vm_ui.rel              [ vm_ui ]
/tmp/_gbsbuild/obj/vm.rel                 [ vm ]
/tmp/_gbsbuild/obj/actor_11_interact.rel  [ actor_11_interact ]
/tmp/_gbsbuild/obj/actor_14_interact.rel  [ actor_14_interact ]
/tmp/_gbsbuild/obj/actor_16_interact.rel  [ actor_16_interact ]
/tmp/_gbsbuild/obj/actor_17_interact.rel  [ actor_17_interact ]
/tmp/_gbsbuild/obj/actor_18_interact.rel  [ actor_18_interact ]
/tmp/_gbsbuild/obj/actor_19_interact.rel  [ actor_19_interact ]
/tmp/_gbsbuild/obj/actor_21_interact.rel  [ actor_21_interact ]
/tmp/_gbsbuild/obj/actor_25_interact.rel  [ actor_25_interact ]
/tmp/_gbsbuild/obj/actor_31_interact.rel  [ actor_31_interact ]
/tmp/_gbsbuild/obj/actor_32_interact.rel  [ actor_32_interact ]
/tmp/_gbsbuild/obj/actor_33_interact.rel  [ actor_33_interact ]
/tmp/_gbsbuild/obj/actor_34_interact.rel  [ actor_34_interact ]
/tmp/_gbsbuild/obj/actor_36_interact.rel  [ actor_36_interact ]
/tmp/_gbsbuild/obj/actor_37_interact.rel  [ actor_37_interact ]
/tmp/_gbsbuild/obj/actor_38_interact.rel  [ actor_38_interact ]
/tmp/_gbsbuild/obj/actor_39_interact.rel  [ actor_39_interact ]
/tmp/_gbsbuild/obj/actor_41_interact.rel  [ actor_41_interact ]
/tmp/_gbsbuild/obj/actor_42_interact.rel  [ actor_42_interact ]
/tmp/_gbsbuild/obj/actor_43_interact.rel  [ actor_43_interact ]
/tmp/_gbsbuild/obj/actor_46_interact.rel  [ actor_46_interact ]
/tmp/_gbsbuild/obj/actor_47_interact.rel  [ actor_47_interact ]
/tmp/_gbsbuild/obj/actor_6_interact.rel   [ actor_6_interact ]
/tmp/_gbsbuild/obj/avatar_font_0.rel      [ avatar_font_0 ]
/tmp/_gbsbuild/obj/bg_cave_ladder_copy__tilemap_attr.rel
                                          [ bg_cave_ladder_copy__tilemap_att ]
/tmp/_gbsbuild/obj/bg_cave_ladder_copy__tilemap.rel
                                          [ bg_cave_ladder_copy__tilemap ]
/tmp/_gbsbuild/obj/bg_cave_ladder_copy__tileset.rel
                                          [ bg_cave_ladder_copy__tileset ]
/tmp/_gbsbuild/obj/bg_cave_ladder_copy_.rel
                                          [ bg_cave_ladder_copy_ ]
/tmp/_gbsbuild/obj/bg_cave_ladder_copy_0_tilemap_attr.rel
                                          [ bg_cave_ladder_copy_0_tilemap_at ]
/tmp/_gbsbuild/obj/bg_cave_ladder_copy_0_tilemap.rel
                                          [ bg_cave_ladder_copy_0_tilemap ]
/tmp/_gbsbuild/obj/bg_cave_ladder_copy_0_tileset.rel
                                          [ bg_cave_ladder_copy_0_tileset ]
/tmp/_gbsbuild/obj/bg_cave_ladder_copy_0.rel
                                          [ bg_cave_ladder_copy_0 ]
/tmp/_gbsbuild/obj/bg_cinema_tilemap_attr.rel
                                          [ bg_cinema_tilemap_attr ]
/tmp/_gbsbuild/obj/bg_cinema_tilemap.rel  [ bg_cinema_tilemap ]
/tmp/_gbsbuild/obj/bg_cinema_tileset.rel  [ bg_cinema_tileset ]
/tmp/_gbsbuild/obj/bg_cinema.rel          [ bg_cinema ]
/tmp/_gbsbuild/obj/bg_controls_gb_copy__tilemap_attr.rel
                                          [ bg_controls_gb_copy__tilemap_att ]
/tmp/_gbsbuild/obj/bg_controls_gb_copy__tilemap.rel
                                          [ bg_controls_gb_copy__tilemap ]
/tmp/_gbsbuild/obj/bg_controls_gb_copy__tileset.rel
                                          [ bg_controls_gb_copy__tileset ]
/tmp/_gbsbuild/obj/bg_controls_gb_copy_.rel
                                          [ bg_controls_gb_copy_ ]
/tmp/_gbsbuild/obj/bg_controls_gb_copy_0_tilemap_attr.rel
                                          [ bg_controls_gb_copy_0_tilemap_at ]
/tmp/_gbsbuild/obj/bg_controls_gb_copy_0_tilemap.rel
                                          [ bg_controls_gb_copy_0_tilemap ]
/tmp/_gbsbuild/obj/bg_controls_gb_copy_0_tileset.rel
                                          [ bg_controls_gb_copy_0_tileset ]
/tmp/_gbsbuild/obj/bg_controls_gb_copy_0.rel
                                          [ bg_controls_gb_copy_0 ]
/tmp/_gbsbuild/obj/bg_controls_gba_copy__tilemap_attr.rel
                                          [ bg_controls_gba_copy__tilemap_at ]
/tmp/_gbsbuild/obj/bg_controls_gba_copy__tilemap.rel
                                          [ bg_controls_gba_copy__tilemap ]
/tmp/_gbsbuild/obj/bg_controls_gba_copy__tileset.rel
                                          [ bg_controls_gba_copy__tileset ]
/tmp/_gbsbuild/obj/bg_controls_gba_copy_.rel
                                          [ bg_controls_gba_copy_ ]
/tmp/_gbsbuild/obj/bg_controls_gba_copy_0_tilemap_attr.rel
                                          [ bg_controls_gba_copy_0_tilemap_a ]
/tmp/_gbsbuild/obj/bg_controls_gba_copy_0_tilemap.rel
                                          [ bg_controls_gba_copy_0_tilemap ]
/tmp/_gbsbuild/obj/bg_controls_gba_copy_0_tileset.rel
                                          [ bg_controls_gba_copy_0_tileset ]
/tmp/_gbsbuild/obj/bg_controls_gba_copy_0.rel
                                          [ bg_controls_gba_copy_0 ]
/tmp/_gbsbuild/obj/bg_controls_gbc_copy__tilemap_attr.rel
                                          [ bg_controls_gbc_copy__tilemap_at ]
/tmp/_gbsbuild/obj/bg_controls_gbc_copy__tilemap.rel
                                          [ bg_controls_gbc_copy__tilemap ]
/tmp/_gbsbuild/obj/bg_controls_gbc_copy__tileset.rel
                                          [ bg_controls_gbc_copy__tileset ]
/tmp/_gbsbuild/obj/bg_controls_gbc_copy_.rel
                                          [ bg_controls_gbc_copy_ ]
/tmp/_gbsbuild/obj/bg_controls_mobile_copy__tilemap_attr.rel
                                          [ bg_controls_mobile_copy__tilemap ]
/tmp/_gbsbuild/obj/bg_controls_mobile_copy__tilemap.rel
                                          [ bg_controls_mobile_copy__tilemap ]
/tmp/_gbsbuild/obj/bg_controls_mobile_copy__tileset.rel
                                          [ bg_controls_mobile_copy__tileset ]
/tmp/_gbsbuild/obj/bg_controls_mobile_copy_.rel
                                          [ bg_controls_mobile_copy_ ]
/tmp/_gbsbuild/obj/bg_controls_mobile_copy_0_tilemap_attr.rel
                                          [ bg_controls_mobile_copy_0_tilema ]
/tmp/_gbsbuild/obj/bg_controls_mobile_copy_0_tilemap.rel
                                          [ bg_controls_mobile_copy_0_tilema ]
/tmp/_gbsbuild/obj/bg_controls_mobile_copy_0_tileset.rel
                                          [ bg_controls_mobile_copy_0_tilese ]
/tmp/_gbsbuild/obj/bg_controls_mobile_copy_0.rel
                                          [ bg_controls_mobile_copy_0 ]
/tmp/_gbsbuild/obj/bg_dhilly_game_1_tilemap_attr.rel
                                          [ bg_dhilly_game_1_tilemap_attr ]
/tmp/_gbsbuild/obj/bg_dhilly_game_1_tilemap.rel
                                          [ bg_dhilly_game_1_tilemap ]
/tmp/_gbsbuild/obj/bg_dhilly_game_1_tileset.rel
                                          [ bg_dhilly_game_1_tileset ]
/tmp/_gbsbuild/obj/bg_dhilly_game_1.rel   [ bg_dhilly_game_1 ]
/tmp/_gbsbuild/obj/bg_elevator_tilemap_attr.rel
                                          [ bg_elevator_tilemap_attr ]
/tmp/_gbsbuild/obj/bg_elevator_tilemap.rel
                                          [ bg_elevator_tilemap ]
/tmp/_gbsbuild/obj/bg_elevator_tileset.rel
                                          [ bg_elevator_tileset ]
/tmp/_gbsbuild/obj/bg_elevator.rel        [ bg_elevator ]
/tmp/_gbsbuild/obj/bg_fieldlazy_tilemap_attr.rel
                                          [ bg_fieldlazy_tilemap_attr ]
/tmp/_gbsbuild/obj/bg_fieldlazy_tilemap.rel
                                          [ bg_fieldlazy_tilemap ]
/tmp/_gbsbuild/obj/bg_fieldlazy_tileset.rel
                                          [ bg_fieldlazy_tileset ]
/tmp/_gbsbuild/obj/bg_fieldlazy.rel       [ bg_fieldlazy ]
/tmp/_gbsbuild/obj/bg_iceos_desktop_copy__tilemap_attr.rel
                                          [ bg_iceos_desktop_copy__tilemap_a ]
/tmp/_gbsbuild/obj/bg_iceos_desktop_copy__tilemap.rel
                                          [ bg_iceos_desktop_copy__tilemap ]
/tmp/_gbsbuild/obj/bg_iceos_desktop_copy__tileset.rel
                                          [ bg_iceos_desktop_copy__tileset ]
/tmp/_gbsbuild/obj/bg_iceos_desktop_copy_.rel
                                          [ bg_iceos_desktop_copy_ ]
/tmp/_gbsbuild/obj/bg_iceos_login_2_copy__tilemap_attr.rel
                                          [ bg_iceos_login_2_copy__tilemap_a ]
/tmp/_gbsbuild/obj/bg_iceos_login_2_copy__tilemap.rel
                                          [ bg_iceos_login_2_copy__tilemap ]
/tmp/_gbsbuild/obj/bg_iceos_login_2_copy__tileset.rel
                                          [ bg_iceos_login_2_copy__tileset ]
/tmp/_gbsbuild/obj/bg_iceos_login_2_copy_.rel
                                          [ bg_iceos_login_2_copy_ ]
/tmp/_gbsbuild/obj/bg_iceos_login_copy__tilemap_attr.rel
                                          [ bg_iceos_login_copy__tilemap_att ]
/tmp/_gbsbuild/obj/bg_iceos_login_copy__tilemap.rel
                                          [ bg_iceos_login_copy__tilemap ]
/tmp/_gbsbuild/obj/bg_iceos_login_copy__tileset.rel
                                          [ bg_iceos_login_copy__tileset ]
/tmp/_gbsbuild/obj/bg_iceos_login_copy_.rel
                                          [ bg_iceos_login_copy_ ]
/tmp/_gbsbuild/obj/bg_iceos_platformer2_copy__tilemap_attr.rel
                                          [ bg_iceos_platformer2_copy__tilem ]
/tmp/_gbsbuild/obj/bg_iceos_platformer2_copy__tilemap.rel
                                          [ bg_iceos_platformer2_copy__tilem ]
/tmp/_gbsbuild/obj/bg_iceos_platformer2_copy__tileset.rel
                                          [ bg_iceos_platformer2_copy__tiles ]
/tmp/_gbsbuild/obj/bg_iceos_platformer2_copy_.rel
                                          [ bg_iceos_platformer2_copy_ ]
/tmp/_gbsbuild/obj/bg_iceos_platformer3_copy__tilemap_attr.rel
                                          [ bg_iceos_platformer3_copy__tilem ]
/tmp/_gbsbuild/obj/bg_iceos_platformer3_copy__tilemap.rel
                                          [ bg_iceos_platformer3_copy__tilem ]
/tmp/_gbsbuild/obj/bg_iceos_platformer3_copy__tileset.rel
                                          [ bg_iceos_platformer3_copy__tiles ]
/tmp/_gbsbuild/obj/bg_iceos_platformer3_copy_.rel
                                          [ bg_iceos_platformer3_copy_ ]
/tmp/_gbsbuild/obj/bg_iceos_platformer4_tilemap_attr.rel
                                          [ bg_iceos_platformer4_tilemap_att ]
/tmp/_gbsbuild/obj/bg_iceos_platformer4_tilemap.rel
                                          [ bg_iceos_platformer4_tilemap ]
/tmp/_gbsbuild/obj/bg_iceos_platformer4_tileset.rel
                                          [ bg_iceos_platformer4_tileset ]
/tmp/_gbsbuild/obj/bg_iceos_platformer4.rel
                                          [ bg_iceos_platformer4 ]
/tmp/_gbsbuild/obj/bg_init_copy__tilemap_attr.rel
                                          [ bg_init_copy__tilemap_attr ]
/tmp/_gbsbuild/obj/bg_init_copy__tilemap.rel
                                          [ bg_init_copy__tilemap ]
/tmp/_gbsbuild/obj/bg_init_copy__tileset.rel
                                          [ bg_init_copy__tileset ]
/tmp/_gbsbuild/obj/bg_init_copy_.rel      [ bg_init_copy_ ]
/tmp/_gbsbuild/obj/bg_init_copy_0_tilemap_attr.rel
                                          [ bg_init_copy_0_tilemap_attr ]
/tmp/_gbsbuild/obj/bg_init_copy_0_tilemap.rel
                                          [ bg_init_copy_0_tilemap ]
/tmp/_gbsbuild/obj/bg_init_copy_0_tileset.rel
                                          [ bg_init_copy_0_tileset ]
/tmp/_gbsbuild/obj/bg_init_copy_0.rel     [ bg_init_copy_0 ]
/tmp/_gbsbuild/obj/bg_init_copy_1_tilemap_attr.rel
                                          [ bg_init_copy_1_tilemap_attr ]
/tmp/_gbsbuild/obj/bg_init_copy_1_tilemap.rel
                                          [ bg_init_copy_1_tilemap ]
/tmp/_gbsbuild/obj/bg_init_copy_1_tileset.rel
                                          [ bg_init_copy_1_tileset ]
/tmp/_gbsbuild/obj/bg_init_copy_1.rel     [ bg_init_copy_1 ]
/tmp/_gbsbuild/obj/bg_intro_scenary_copy__tilemap_attr.rel
                                          [ bg_intro_scenary_copy__tilemap_a ]
/tmp/_gbsbuild/obj/bg_intro_scenary_copy__tilemap.rel
                                          [ bg_intro_scenary_copy__tilemap ]
/tmp/_gbsbuild/obj/bg_intro_scenary_copy__tileset.rel
                                          [ bg_intro_scenary_copy__tileset ]
/tmp/_gbsbuild/obj/bg_intro_scenary_copy_.rel
                                          [ bg_intro_scenary_copy_ ]
/tmp/_gbsbuild/obj/bg_intro_weather_copy__tilemap_attr.rel
                                          [ bg_intro_weather_copy__tilemap_a ]
/tmp/_gbsbuild/obj/bg_intro_weather_copy__tilemap.rel
                                          [ bg_intro_weather_copy__tilemap ]
/tmp/_gbsbuild/obj/bg_intro_weather_copy__tileset.rel
                                          [ bg_intro_weather_copy__tileset ]
/tmp/_gbsbuild/obj/bg_intro_weather_copy_.rel
                                          [ bg_intro_weather_copy_ ]
/tmp/_gbsbuild/obj/bg_lair_hub_tilemap_attr.rel
                                          [ bg_lair_hub_tilemap_attr ]
/tmp/_gbsbuild/obj/bg_lair_hub_tilemap.rel
                                          [ bg_lair_hub_tilemap ]
/tmp/_gbsbuild/obj/bg_lair_hub_tileset.rel
                                          [ bg_lair_hub_tileset ]
/tmp/_gbsbuild/obj/bg_lair_hub.rel        [ bg_lair_hub ]
/tmp/_gbsbuild/obj/bg_lair_left_2_copy__tilemap_attr.rel
                                          [ bg_lair_left_2_copy__tilemap_att ]
/tmp/_gbsbuild/obj/bg_lair_left_2_copy__tilemap.rel
                                          [ bg_lair_left_2_copy__tilemap ]
/tmp/_gbsbuild/obj/bg_lair_left_2_copy__tileset.rel
                                          [ bg_lair_left_2_copy__tileset ]
/tmp/_gbsbuild/obj/bg_lair_left_2_copy_.rel
                                          [ bg_lair_left_2_copy_ ]
/tmp/_gbsbuild/obj/bg_lair_left_2_tilemap_attr.rel
                                          [ bg_lair_left_2_tilemap_attr ]
/tmp/_gbsbuild/obj/bg_lair_left_2_tilemap.rel
                                          [ bg_lair_left_2_tilemap ]
/tmp/_gbsbuild/obj/bg_lair_left_2_tileset.rel
                                          [ bg_lair_left_2_tileset ]
/tmp/_gbsbuild/obj/bg_lair_left_2.rel     [ bg_lair_left_2 ]
/tmp/_gbsbuild/obj/bg_lair_left_3_tilemap_attr.rel
                                          [ bg_lair_left_3_tilemap_attr ]
/tmp/_gbsbuild/obj/bg_lair_left_3_tilemap.rel
                                          [ bg_lair_left_3_tilemap ]
/tmp/_gbsbuild/obj/bg_lair_left_3_tileset.rel
                                          [ bg_lair_left_3_tileset ]
/tmp/_gbsbuild/obj/bg_lair_left_3.rel     [ bg_lair_left_3 ]
/tmp/_gbsbuild/obj/bg_lair_right_2_copy__tilemap_attr.rel
                                          [ bg_lair_right_2_copy__tilemap_at ]
/tmp/_gbsbuild/obj/bg_lair_right_2_copy__tilemap.rel
                                          [ bg_lair_right_2_copy__tilemap ]
/tmp/_gbsbuild/obj/bg_lair_right_2_copy__tileset.rel
                                          [ bg_lair_right_2_copy__tileset ]
/tmp/_gbsbuild/obj/bg_lair_right_2_copy_.rel
                                          [ bg_lair_right_2_copy_ ]
/tmp/_gbsbuild/obj/bg_lair_right_2_tilemap_attr.rel
                                          [ bg_lair_right_2_tilemap_attr ]
/tmp/_gbsbuild/obj/bg_lair_right_2_tilemap.rel
                                          [ bg_lair_right_2_tilemap ]
/tmp/_gbsbuild/obj/bg_lair_right_2_tileset.rel
                                          [ bg_lair_right_2_tileset ]
/tmp/_gbsbuild/obj/bg_lair_right_2.rel    [ bg_lair_right_2 ]
/tmp/_gbsbuild/obj/bg_lair_right_3_copy__tilemap_attr.rel
                                          [ bg_lair_right_3_copy__tilemap_at ]
/tmp/_gbsbuild/obj/bg_lair_right_3_copy__tilemap.rel
                                          [ bg_lair_right_3_copy__tilemap ]
/tmp/_gbsbuild/obj/bg_lair_right_3_copy__tileset.rel
                                          [ bg_lair_right_3_copy__tileset ]
/tmp/_gbsbuild/obj/bg_lair_right_3_copy_.rel
                                          [ bg_lair_right_3_copy_ ]
/tmp/_gbsbuild/obj/bg_lair_right_3_tilemap_attr.rel
                                          [ bg_lair_right_3_tilemap_attr ]
/tmp/_gbsbuild/obj/bg_lair_right_3_tilemap.rel
                                          [ bg_lair_right_3_tilemap ]
/tmp/_gbsbuild/obj/bg_lair_right_3_tileset.rel
                                          [ bg_lair_right_3_tileset ]
/tmp/_gbsbuild/obj/bg_lair_right_3.rel    [ bg_lair_right_3 ]
/tmp/_gbsbuild/obj/bg_lair_right_4_copy__tilemap_attr.rel
                                          [ bg_lair_right_4_copy__tilemap_at ]
/tmp/_gbsbuild/obj/bg_lair_right_4_copy__tilemap.rel
                                          [ bg_lair_right_4_copy__tilemap ]
/tmp/_gbsbuild/obj/bg_lair_right_4_copy__tileset.rel
                                          [ bg_lair_right_4_copy__tileset ]
/tmp/_gbsbuild/obj/bg_lair_right_4_copy_.rel
                                          [ bg_lair_right_4_copy_ ]
/tmp/_gbsbuild/obj/bg_lair_right_5_tilemap_attr.rel
                                          [ bg_lair_right_5_tilemap_attr ]
/tmp/_gbsbuild/obj/bg_lair_right_5_tilemap.rel
                                          [ bg_lair_right_5_tilemap ]
/tmp/_gbsbuild/obj/bg_lair_right_5_tileset.rel
                                          [ bg_lair_right_5_tileset ]
/tmp/_gbsbuild/obj/bg_lair_right_5.rel    [ bg_lair_right_5 ]
/tmp/_gbsbuild/obj/bg_lair_right_tilemap_attr.rel
                                          [ bg_lair_right_tilemap_attr ]
/tmp/_gbsbuild/obj/bg_lair_right_tilemap.rel
                                          [ bg_lair_right_tilemap ]
/tmp/_gbsbuild/obj/bg_lair_right_tileset.rel
                                          [ bg_lair_right_tileset ]
/tmp/_gbsbuild/obj/bg_lair_right.rel      [ bg_lair_right ]
/tmp/_gbsbuild/obj/bg_lencity_dhillybuilding_c_tilemap_attr.rel
                                          [ bg_lencity_dhillybuilding_c_tile ]
/tmp/_gbsbuild/obj/bg_lencity_dhillybuilding_c_tilemap.rel
                                          [ bg_lencity_dhillybuilding_c_tile ]
/tmp/_gbsbuild/obj/bg_lencity_dhillybuilding_c_tileset.rel
                                          [ bg_lencity_dhillybuilding_c_tile ]
/tmp/_gbsbuild/obj/bg_lencity_dhillybuilding_c.rel
                                          [ bg_lencity_dhillybuilding_c ]
/tmp/_gbsbuild/obj/bg_lencity_dhillybuilding_f_tilemap_attr.rel
                                          [ bg_lencity_dhillybuilding_f_tile ]
/tmp/_gbsbuild/obj/bg_lencity_dhillybuilding_f_tilemap.rel
                                          [ bg_lencity_dhillybuilding_f_tile ]
/tmp/_gbsbuild/obj/bg_lencity_dhillybuilding_f_tileset.rel
                                          [ bg_lencity_dhillybuilding_f_tile ]
/tmp/_gbsbuild/obj/bg_lencity_dhillybuilding_f.rel
                                          [ bg_lencity_dhillybuilding_f ]
/tmp/_gbsbuild/obj/bg_lencity_trainstation_cop_tilemap_attr.rel
                                          [ bg_lencity_trainstation_cop_tile ]
/tmp/_gbsbuild/obj/bg_lencity_trainstation_cop_tilemap.rel
                                          [ bg_lencity_trainstation_cop_tile ]
/tmp/_gbsbuild/obj/bg_lencity_trainstation_cop_tileset.rel
                                          [ bg_lencity_trainstation_cop_tile ]
/tmp/_gbsbuild/obj/bg_lencity_trainstation_cop.rel
                                          [ bg_lencity_trainstation_cop ]
/tmp/_gbsbuild/obj/bg_lencity_trainstation_tilemap_attr.rel
                                          [ bg_lencity_trainstation_tilemap_ ]
/tmp/_gbsbuild/obj/bg_lencity_trainstation_tilemap.rel
                                          [ bg_lencity_trainstation_tilemap ]
/tmp/_gbsbuild/obj/bg_lencity_trainstation_tileset.rel
                                          [ bg_lencity_trainstation_tileset ]
/tmp/_gbsbuild/obj/bg_lencity_trainstation.rel
                                          [ bg_lencity_trainstation ]
/tmp/_gbsbuild/obj/bg_lencity_yua_building_tilemap_attr.rel
                                          [ bg_lencity_yua_building_tilemap_ ]
/tmp/_gbsbuild/obj/bg_lencity_yua_building_tilemap.rel
                                          [ bg_lencity_yua_building_tilemap ]
/tmp/_gbsbuild/obj/bg_lencity_yua_building_tileset.rel
                                          [ bg_lencity_yua_building_tileset ]
/tmp/_gbsbuild/obj/bg_lencity_yua_building.rel
                                          [ bg_lencity_yua_building ]
/tmp/_gbsbuild/obj/bg_lencityopen_copy__tilemap_attr.rel
                                          [ bg_lencityopen_copy__tilemap_att ]
/tmp/_gbsbuild/obj/bg_lencityopen_copy__tilemap.rel
                                          [ bg_lencityopen_copy__tilemap ]
/tmp/_gbsbuild/obj/bg_lencityopen_copy__tileset.rel
                                          [ bg_lencityopen_copy__tileset ]
/tmp/_gbsbuild/obj/bg_lencityopen_copy_.rel
                                          [ bg_lencityopen_copy_ ]
/tmp/_gbsbuild/obj/bg_lencityopen_copy_0_tilemap_attr.rel
                                          [ bg_lencityopen_copy_0_tilemap_at ]
/tmp/_gbsbuild/obj/bg_lencityopen_copy_0_tilemap.rel
                                          [ bg_lencityopen_copy_0_tilemap ]
/tmp/_gbsbuild/obj/bg_lencityopen_copy_0_tileset.rel
                                          [ bg_lencityopen_copy_0_tileset ]
/tmp/_gbsbuild/obj/bg_lencityopen_copy_0.rel
                                          [ bg_lencityopen_copy_0 ]
/tmp/_gbsbuild/obj/bg_lencityopen_tilemap_attr.rel
                                          [ bg_lencityopen_tilemap_attr ]
/tmp/_gbsbuild/obj/bg_lencityopen_tilemap.rel
                                          [ bg_lencityopen_tilemap ]
/tmp/_gbsbuild/obj/bg_lencityopen_tileset.rel
                                          [ bg_lencityopen_tileset ]
/tmp/_gbsbuild/obj/bg_lencityopen.rel     [ bg_lencityopen ]
/tmp/_gbsbuild/obj/bg_options_copy__tilemap_attr.rel
                                          [ bg_options_copy__tilemap_attr ]
/tmp/_gbsbuild/obj/bg_options_copy__tilemap.rel
                                          [ bg_options_copy__tilemap ]
/tmp/_gbsbuild/obj/bg_options_copy__tileset.rel
                                          [ bg_options_copy__tileset ]
/tmp/_gbsbuild/obj/bg_options_copy_.rel   [ bg_options_copy_ ]
/tmp/_gbsbuild/obj/bg_pixil_frame_0_23_tilemap_attr.rel
                                          [ bg_pixil_frame_0_23_tilemap_attr ]
/tmp/_gbsbuild/obj/bg_pixil_frame_0_23_tilemap.rel
                                          [ bg_pixil_frame_0_23_tilemap ]
/tmp/_gbsbuild/obj/bg_pixil_frame_0_23_tileset.rel
                                          [ bg_pixil_frame_0_23_tileset ]
/tmp/_gbsbuild/obj/bg_pixil_frame_0_23.rel
                                          [ bg_pixil_frame_0_23 ]
/tmp/_gbsbuild/obj/bg_pixil_frame_0_24_tilemap_attr.rel
                                          [ bg_pixil_frame_0_24_tilemap_attr ]
/tmp/_gbsbuild/obj/bg_pixil_frame_0_24_tilemap.rel
                                          [ bg_pixil_frame_0_24_tilemap ]
/tmp/_gbsbuild/obj/bg_pixil_frame_0_24_tileset.rel
                                          [ bg_pixil_frame_0_24_tileset ]
/tmp/_gbsbuild/obj/bg_pixil_frame_0_24.rel
                                          [ bg_pixil_frame_0_24 ]
/tmp/_gbsbuild/obj/bg_pixil_frame_0_30_tilemap_attr.rel
                                          [ bg_pixil_frame_0_30_tilemap_attr ]
/tmp/_gbsbuild/obj/bg_pixil_frame_0_30_tilemap.rel
                                          [ bg_pixil_frame_0_30_tilemap ]
/tmp/_gbsbuild/obj/bg_pixil_frame_0_30_tileset.rel
                                          [ bg_pixil_frame_0_30_tileset ]
/tmp/_gbsbuild/obj/bg_pixil_frame_0_30.rel
                                          [ bg_pixil_frame_0_30 ]
/tmp/_gbsbuild/obj/bg_pixil_frame_0_31_tilemap_attr.rel
                                          [ bg_pixil_frame_0_31_tilemap_attr ]
/tmp/_gbsbuild/obj/bg_pixil_frame_0_31_tilemap.rel
                                          [ bg_pixil_frame_0_31_tilemap ]
/tmp/_gbsbuild/obj/bg_pixil_frame_0_31_tileset.rel
                                          [ bg_pixil_frame_0_31_tileset ]
/tmp/_gbsbuild/obj/bg_pixil_frame_0_31.rel
                                          [ bg_pixil_frame_0_31 ]
/tmp/_gbsbuild/obj/bg_pixil_frame_0_33_tilemap_attr.rel
                                          [ bg_pixil_frame_0_33_tilemap_attr ]
/tmp/_gbsbuild/obj/bg_pixil_frame_0_33_tilemap.rel
                                          [ bg_pixil_frame_0_33_tilemap ]
/tmp/_gbsbuild/obj/bg_pixil_frame_0_33_tileset.rel
                                          [ bg_pixil_frame_0_33_tileset ]
/tmp/_gbsbuild/obj/bg_pixil_frame_0_33.rel
                                          [ bg_pixil_frame_0_33 ]
/tmp/_gbsbuild/obj/bg_pixil_frame_0_copy_copy__tilemap_attr.rel
                                          [ bg_pixil_frame_0_copy_copy__tile ]
/tmp/_gbsbuild/obj/bg_pixil_frame_0_copy_copy__tilemap.rel
                                          [ bg_pixil_frame_0_copy_copy__tile ]
/tmp/_gbsbuild/obj/bg_pixil_frame_0_copy_copy__tileset.rel
                                          [ bg_pixil_frame_0_copy_copy__tile ]
/tmp/_gbsbuild/obj/bg_pixil_frame_0_copy_copy_.rel
                                          [ bg_pixil_frame_0_copy_copy_ ]
/tmp/_gbsbuild/obj/bg_pixil_frame_23_0_tilemap_attr.rel
                                          [ bg_pixil_frame_23_0_tilemap_attr ]
/tmp/_gbsbuild/obj/bg_pixil_frame_23_0_tilemap.rel
                                          [ bg_pixil_frame_23_0_tilemap ]
/tmp/_gbsbuild/obj/bg_pixil_frame_23_0_tileset.rel
                                          [ bg_pixil_frame_23_0_tileset ]
/tmp/_gbsbuild/obj/bg_pixil_frame_23_0.rel
                                          [ bg_pixil_frame_23_0 ]
/tmp/_gbsbuild/obj/bg_samsam_copy_tilemap_attr.rel
                                          [ bg_samsam_copy_tilemap_attr ]
/tmp/_gbsbuild/obj/bg_samsam_copy_tilemap.rel
                                          [ bg_samsam_copy_tilemap ]
/tmp/_gbsbuild/obj/bg_samsam_copy_tileset.rel
                                          [ bg_samsam_copy_tileset ]
/tmp/_gbsbuild/obj/bg_samsam_copy.rel     [ bg_samsam_copy ]
/tmp/_gbsbuild/obj/bg_shillycity_sara_house_co_tilemap_attr.rel
                                          [ bg_shillycity_sara_house_co_tile ]
/tmp/_gbsbuild/obj/bg_shillycity_sara_house_co_tilemap.rel
                                          [ bg_shillycity_sara_house_co_tile ]
/tmp/_gbsbuild/obj/bg_shillycity_sara_house_co_tileset.rel
                                          [ bg_shillycity_sara_house_co_tile ]
/tmp/_gbsbuild/obj/bg_shillycity_sara_house_co.rel
                                          [ bg_shillycity_sara_house_co ]
/tmp/_gbsbuild/obj/bg_shillycityopen_copy__tilemap_attr.rel
                                          [ bg_shillycityopen_copy__tilemap_ ]
/tmp/_gbsbuild/obj/bg_shillycityopen_copy__tilemap.rel
                                          [ bg_shillycityopen_copy__tilemap ]
/tmp/_gbsbuild/obj/bg_shillycityopen_copy__tileset.rel
                                          [ bg_shillycityopen_copy__tileset ]
/tmp/_gbsbuild/obj/bg_shillycityopen_copy_.rel
                                          [ bg_shillycityopen_copy_ ]
/tmp/_gbsbuild/obj/bg_shillycityopen_copy_0_tilemap_attr.rel
                                          [ bg_shillycityopen_copy_0_tilemap ]
/tmp/_gbsbuild/obj/bg_shillycityopen_copy_0_tilemap.rel
                                          [ bg_shillycityopen_copy_0_tilemap ]
/tmp/_gbsbuild/obj/bg_shillycityopen_copy_0_tileset.rel
                                          [ bg_shillycityopen_copy_0_tileset ]
/tmp/_gbsbuild/obj/bg_shillycityopen_copy_0.rel
                                          [ bg_shillycityopen_copy_0 ]
/tmp/_gbsbuild/obj/bg_square_frozen_future_tilemap_attr.rel
                                          [ bg_square_frozen_future_tilemap_ ]
/tmp/_gbsbuild/obj/bg_square_frozen_future_tilemap.rel
                                          [ bg_square_frozen_future_tilemap ]
/tmp/_gbsbuild/obj/bg_square_frozen_future_tileset.rel
                                          [ bg_square_frozen_future_tileset ]
/tmp/_gbsbuild/obj/bg_square_frozen_future.rel
                                          [ bg_square_frozen_future ]
/tmp/_gbsbuild/obj/bg_theatre_tilemap_attr.rel
                                          [ bg_theatre_tilemap_attr ]
/tmp/_gbsbuild/obj/bg_theatre_tilemap.rel
                                          [ bg_theatre_tilemap ]
/tmp/_gbsbuild/obj/bg_theatre_tileset.rel
                                          [ bg_theatre_tileset ]
/tmp/_gbsbuild/obj/bg_theatre.rel         [ bg_theatre ]
/tmp/_gbsbuild/obj/bg_title_copy__tilemap_attr.rel
                                          [ bg_title_copy__tilemap_attr ]
/tmp/_gbsbuild/obj/bg_title_copy__tilemap.rel
                                          [ bg_title_copy__tilemap ]
/tmp/_gbsbuild/obj/bg_title_copy__tileset.rel
                                          [ bg_title_copy__tileset ]
/tmp/_gbsbuild/obj/bg_title_copy_.rel     [ bg_title_copy_ ]
/tmp/_gbsbuild/obj/bg_title_copy_0_tilemap_attr.rel
                                          [ bg_title_copy_0_tilemap_attr ]
/tmp/_gbsbuild/obj/bg_title_copy_0_tilemap.rel
                                          [ bg_title_copy_0_tilemap ]
/tmp/_gbsbuild/obj/bg_title_copy_0_tileset.rel
                                          [ bg_title_copy_0_tileset ]
/tmp/_gbsbuild/obj/bg_title_copy_0.rel    [ bg_title_copy_0 ]
/tmp/_gbsbuild/obj/bg_title_copy_1_tilemap_attr.rel
                                          [ bg_title_copy_1_tilemap_attr ]
/tmp/_gbsbuild/obj/bg_title_copy_1_tilemap.rel
                                          [ bg_title_copy_1_tilemap ]
/tmp/_gbsbuild/obj/bg_title_copy_1_tileset.rel
                                          [ bg_title_copy_1_tileset ]
/tmp/_gbsbuild/obj/bg_title_copy_1.rel    [ bg_title_copy_1 ]
/tmp/_gbsbuild/obj/bg_title_copy_2_tilemap_attr.rel
                                          [ bg_title_copy_2_tilemap_attr ]
/tmp/_gbsbuild/obj/bg_title_copy_2_tilemap.rel
                                          [ bg_title_copy_2_tilemap ]
/tmp/_gbsbuild/obj/bg_title_copy_2_tileset.rel
                                          [ bg_title_copy_2_tileset ]
/tmp/_gbsbuild/obj/bg_title_copy_2.rel    [ bg_title_copy_2 ]
/tmp/_gbsbuild/obj/bg_title_tilemap_attr.rel
                                          [ bg_title_tilemap_attr ]
/tmp/_gbsbuild/obj/bg_title_tilemap.rel   [ bg_title_tilemap ]
/tmp/_gbsbuild/obj/bg_title_tileset.rel   [ bg_title_tileset ]
/tmp/_gbsbuild/obj/bg_title.rel           [ bg_title ]
/tmp/_gbsbuild/obj/border.rel             [ border ]
/tmp/_gbsbuild/obj/cursor_image.rel       [ cursor_image ]
/tmp/_gbsbuild/obj/emote_shock.rel        [ emote_shock ]
/tmp/_gbsbuild/obj/font_gbs_variable_width.rel
                                          [ font_gbs_variable_width ]
/tmp/_gbsbuild/obj/frame_image.rel        [ frame_image ]
/tmp/_gbsbuild/obj/game_signature.rel     [ game_signature ]
/tmp/_gbsbuild/obj/palette_0.rel          [ palette_0 ]
/tmp/_gbsbuild/obj/palette_1.rel          [ palette_1 ]
/tmp/_gbsbuild/obj/palette_10.rel         [ palette_10 ]
/tmp/_gbsbuild/obj/palette_11.rel         [ palette_11 ]
/tmp/_gbsbuild/obj/palette_12.rel         [ palette_12 ]
/tmp/_gbsbuild/obj/palette_13.rel         [ palette_13 ]
/tmp/_gbsbuild/obj/palette_14.rel         [ palette_14 ]
/tmp/_gbsbuild/obj/palette_15.rel         [ palette_15 ]
/tmp/_gbsbuild/obj/palette_16.rel         [ palette_16 ]
/tmp/_gbsbuild/obj/palette_17.rel         [ palette_17 ]
/tmp/_gbsbuild/obj/palette_18.rel         [ palette_18 ]
/tmp/_gbsbuild/obj/palette_19.rel         [ palette_19 ]
/tmp/_gbsbuild/obj/palette_2.rel          [ palette_2 ]
/tmp/_gbsbuild/obj/palette_20.rel         [ palette_20 ]
/tmp/_gbsbuild/obj/palette_21.rel         [ palette_21 ]
/tmp/_gbsbuild/obj/palette_22.rel         [ palette_22 ]
/tmp/_gbsbuild/obj/palette_23.rel         [ palette_23 ]
/tmp/_gbsbuild/obj/palette_24.rel         [ palette_24 ]
/tmp/_gbsbuild/obj/palette_25.rel         [ palette_25 ]
/tmp/_gbsbuild/obj/palette_26.rel         [ palette_26 ]
/tmp/_gbsbuild/obj/palette_27.rel         [ palette_27 ]
/tmp/_gbsbuild/obj/palette_28.rel         [ palette_28 ]
/tmp/_gbsbuild/obj/palette_29.rel         [ palette_29 ]
/tmp/_gbsbuild/obj/palette_3.rel          [ palette_3 ]
/tmp/_gbsbuild/obj/palette_30.rel         [ palette_30 ]
/tmp/_gbsbuild/obj/palette_31.rel         [ palette_31 ]
/tmp/_gbsbuild/obj/palette_32.rel         [ palette_32 ]
/tmp/_gbsbuild/obj/palette_33.rel         [ palette_33 ]
/tmp/_gbsbuild/obj/palette_34.rel         [ palette_34 ]
/tmp/_gbsbuild/obj/palette_35.rel         [ palette_35 ]
/tmp/_gbsbuild/obj/palette_36.rel         [ palette_36 ]
/tmp/_gbsbuild/obj/palette_37.rel         [ palette_37 ]
/tmp/_gbsbuild/obj/palette_38.rel         [ palette_38 ]
/tmp/_gbsbuild/obj/palette_39.rel         [ palette_39 ]
/tmp/_gbsbuild/obj/palette_4.rel          [ palette_4 ]
/tmp/_gbsbuild/obj/palette_40.rel         [ palette_40 ]
/tmp/_gbsbuild/obj/palette_41.rel         [ palette_41 ]
/tmp/_gbsbuild/obj/palette_42.rel         [ palette_42 ]
/tmp/_gbsbuild/obj/palette_43.rel         [ palette_43 ]
/tmp/_gbsbuild/obj/palette_44.rel         [ palette_44 ]
/tmp/_gbsbuild/obj/palette_45.rel         [ palette_45 ]
/tmp/_gbsbuild/obj/palette_46.rel         [ palette_46 ]
/tmp/_gbsbuild/obj/palette_47.rel         [ palette_47 ]
/tmp/_gbsbuild/obj/palette_48.rel         [ palette_48 ]
/tmp/_gbsbuild/obj/palette_49.rel         [ palette_49 ]
/tmp/_gbsbuild/obj/palette_5.rel          [ palette_5 ]
/tmp/_gbsbuild/obj/palette_50.rel         [ palette_50 ]
/tmp/_gbsbuild/obj/palette_51.rel         [ palette_51 ]
/tmp/_gbsbuild/obj/palette_52.rel         [ palette_52 ]
/tmp/_gbsbuild/obj/palette_53.rel         [ palette_53 ]
/tmp/_gbsbuild/obj/palette_54.rel         [ palette_54 ]
/tmp/_gbsbuild/obj/palette_55.rel         [ palette_55 ]
/tmp/_gbsbuild/obj/palette_6.rel          [ palette_6 ]
/tmp/_gbsbuild/obj/palette_7.rel          [ palette_7 ]
/tmp/_gbsbuild/obj/palette_8.rel          [ palette_8 ]
/tmp/_gbsbuild/obj/palette_9.rel          [ palette_9 ]
/tmp/_gbsbuild/obj/scene_0_collisions.rel
                                          [ scene_0_collisions ]
/tmp/_gbsbuild/obj/scene_0_init.rel       [ scene_0_init ]
/tmp/_gbsbuild/obj/scene_0_triggers.rel   [ scene_0_triggers ]
/tmp/_gbsbuild/obj/scene_0.rel            [ scene_0 ]
/tmp/_gbsbuild/obj/scene_1_collisions.rel
                                          [ scene_1_collisions ]
/tmp/_gbsbuild/obj/scene_1_init.rel       [ scene_1_init ]
/tmp/_gbsbuild/obj/scene_1.rel            [ scene_1 ]
/tmp/_gbsbuild/obj/scene_10_collisions.rel
                                          [ scene_10_collisions ]
/tmp/_gbsbuild/obj/scene_10_init.rel      [ scene_10_init ]
/tmp/_gbsbuild/obj/scene_10.rel           [ scene_10 ]
/tmp/_gbsbuild/obj/scene_11_collisions.rel
                                          [ scene_11_collisions ]
/tmp/_gbsbuild/obj/scene_11_init.rel      [ scene_11_init ]
/tmp/_gbsbuild/obj/scene_11.rel           [ scene_11 ]
/tmp/_gbsbuild/obj/scene_12_collisions.rel
                                          [ scene_12_collisions ]
/tmp/_gbsbuild/obj/scene_12_init.rel      [ scene_12_init ]
/tmp/_gbsbuild/obj/scene_12.rel           [ scene_12 ]
/tmp/_gbsbuild/obj/scene_13_collisions.rel
                                          [ scene_13_collisions ]
/tmp/_gbsbuild/obj/scene_13_init.rel      [ scene_13_init ]
/tmp/_gbsbuild/obj/scene_13.rel           [ scene_13 ]
/tmp/_gbsbuild/obj/scene_14_collisions.rel
                                          [ scene_14_collisions ]
/tmp/_gbsbuild/obj/scene_14_init.rel      [ scene_14_init ]
/tmp/_gbsbuild/obj/scene_14.rel           [ scene_14 ]
/tmp/_gbsbuild/obj/scene_15_collisions.rel
                                          [ scene_15_collisions ]
/tmp/_gbsbuild/obj/scene_15_init.rel      [ scene_15_init ]
/tmp/_gbsbuild/obj/scene_15_triggers.rel  [ scene_15_triggers ]
/tmp/_gbsbuild/obj/scene_15.rel           [ scene_15 ]
/tmp/_gbsbuild/obj/scene_16_collisions.rel
                                          [ scene_16_collisions ]
/tmp/_gbsbuild/obj/scene_16_init.rel      [ scene_16_init ]
/tmp/_gbsbuild/obj/scene_16.rel           [ scene_16 ]
/tmp/_gbsbuild/obj/scene_17_actors.rel    [ scene_17_actors ]
/tmp/_gbsbuild/obj/scene_17_collisions.rel
                                          [ scene_17_collisions ]
/tmp/_gbsbuild/obj/scene_17_init.rel      [ scene_17_init ]
/tmp/_gbsbuild/obj/scene_17_sprites.rel   [ scene_17_sprites ]
/tmp/_gbsbuild/obj/scene_17_triggers.rel  [ scene_17_triggers ]
/tmp/_gbsbuild/obj/scene_17.rel           [ scene_17 ]
/tmp/_gbsbuild/obj/scene_18_actors.rel    [ scene_18_actors ]
/tmp/_gbsbuild/obj/scene_18_collisions.rel
                                          [ scene_18_collisions ]
/tmp/_gbsbuild/obj/scene_18_init.rel      [ scene_18_init ]
/tmp/_gbsbuild/obj/scene_18_sprites.rel   [ scene_18_sprites ]
/tmp/_gbsbuild/obj/scene_18_triggers.rel  [ scene_18_triggers ]
/tmp/_gbsbuild/obj/scene_18.rel           [ scene_18 ]
/tmp/_gbsbuild/obj/scene_19_actors.rel    [ scene_19_actors ]
/tmp/_gbsbuild/obj/scene_19_collisions.rel
                                          [ scene_19_collisions ]
/tmp/_gbsbuild/obj/scene_19_init.rel      [ scene_19_init ]
/tmp/_gbsbuild/obj/scene_19_triggers.rel  [ scene_19_triggers ]
/tmp/_gbsbuild/obj/scene_19.rel           [ scene_19 ]
/tmp/_gbsbuild/obj/scene_2_actors.rel     [ scene_2_actors ]
/tmp/_gbsbuild/obj/scene_2_collisions.rel
                                          [ scene_2_collisions ]
/tmp/_gbsbuild/obj/scene_2_init.rel       [ scene_2_init ]
/tmp/_gbsbuild/obj/scene_2.rel            [ scene_2 ]
/tmp/_gbsbuild/obj/scene_20_actors.rel    [ scene_20_actors ]
/tmp/_gbsbuild/obj/scene_20_collisions.rel
                                          [ scene_20_collisions ]
/tmp/_gbsbuild/obj/scene_20_init.rel      [ scene_20_init ]
/tmp/_gbsbuild/obj/scene_20_sprites.rel   [ scene_20_sprites ]
/tmp/_gbsbuild/obj/scene_20_triggers.rel  [ scene_20_triggers ]
/tmp/_gbsbuild/obj/scene_20.rel           [ scene_20 ]
/tmp/_gbsbuild/obj/scene_22_actors.rel    [ scene_22_actors ]
/tmp/_gbsbuild/obj/scene_22_collisions.rel
                                          [ scene_22_collisions ]
/tmp/_gbsbuild/obj/scene_22_init.rel      [ scene_22_init ]
/tmp/_gbsbuild/obj/scene_22_sprites.rel   [ scene_22_sprites ]
/tmp/_gbsbuild/obj/scene_22.rel           [ scene_22 ]
/tmp/_gbsbuild/obj/scene_23_collisions.rel
                                          [ scene_23_collisions ]
/tmp/_gbsbuild/obj/scene_23_init.rel      [ scene_23_init ]
/tmp/_gbsbuild/obj/scene_23.rel           [ scene_23 ]
/tmp/_gbsbuild/obj/scene_24_collisions.rel
                                          [ scene_24_collisions ]
/tmp/_gbsbuild/obj/scene_24_init.rel      [ scene_24_init ]
/tmp/_gbsbuild/obj/scene_24.rel           [ scene_24 ]
/tmp/_gbsbuild/obj/scene_25_collisions.rel
                                          [ scene_25_collisions ]
/tmp/_gbsbuild/obj/scene_25_init.rel      [ scene_25_init ]
/tmp/_gbsbuild/obj/scene_25.rel           [ scene_25 ]
/tmp/_gbsbuild/obj/scene_26_collisions.rel
                                          [ scene_26_collisions ]
/tmp/_gbsbuild/obj/scene_26_init.rel      [ scene_26_init ]
/tmp/_gbsbuild/obj/scene_26.rel           [ scene_26 ]
/tmp/_gbsbuild/obj/scene_27_collisions.rel
                                          [ scene_27_collisions ]
/tmp/_gbsbuild/obj/scene_27_init.rel      [ scene_27_init ]
/tmp/_gbsbuild/obj/scene_27_triggers.rel  [ scene_27_triggers ]
/tmp/_gbsbuild/obj/scene_27.rel           [ scene_27 ]
/tmp/_gbsbuild/obj/scene_28_collisions.rel
                                          [ scene_28_collisions ]
/tmp/_gbsbuild/obj/scene_28_init.rel      [ scene_28_init ]
/tmp/_gbsbuild/obj/scene_28_triggers.rel  [ scene_28_triggers ]
/tmp/_gbsbuild/obj/scene_28.rel           [ scene_28 ]
/tmp/_gbsbuild/obj/scene_29_collisions.rel
                                          [ scene_29_collisions ]
/tmp/_gbsbuild/obj/scene_29_init.rel      [ scene_29_init ]
/tmp/_gbsbuild/obj/scene_29_triggers.rel  [ scene_29_triggers ]
/tmp/_gbsbuild/obj/scene_29.rel           [ scene_29 ]
/tmp/_gbsbuild/obj/scene_3_actors.rel     [ scene_3_actors ]
/tmp/_gbsbuild/obj/scene_3_collisions.rel
                                          [ scene_3_collisions ]
/tmp/_gbsbuild/obj/scene_3_init.rel       [ scene_3_init ]
/tmp/_gbsbuild/obj/scene_3_sprites.rel    [ scene_3_sprites ]
/tmp/_gbsbuild/obj/scene_3.rel            [ scene_3 ]
/tmp/_gbsbuild/obj/scene_30_collisions.rel
                                          [ scene_30_collisions ]
/tmp/_gbsbuild/obj/scene_30_init.rel      [ scene_30_init ]
/tmp/_gbsbuild/obj/scene_30_triggers.rel  [ scene_30_triggers ]
/tmp/_gbsbuild/obj/scene_30.rel           [ scene_30 ]
/tmp/_gbsbuild/obj/scene_31_collisions.rel
                                          [ scene_31_collisions ]
/tmp/_gbsbuild/obj/scene_31_init.rel      [ scene_31_init ]
/tmp/_gbsbuild/obj/scene_31_triggers.rel  [ scene_31_triggers ]
/tmp/_gbsbuild/obj/scene_31.rel           [ scene_31 ]
/tmp/_gbsbuild/obj/scene_32_collisions.rel
                                          [ scene_32_collisions ]
/tmp/_gbsbuild/obj/scene_32_init.rel      [ scene_32_init ]
/tmp/_gbsbuild/obj/scene_32_triggers.rel  [ scene_32_triggers ]
/tmp/_gbsbuild/obj/scene_32.rel           [ scene_32 ]
/tmp/_gbsbuild/obj/scene_33_actors.rel    [ scene_33_actors ]
/tmp/_gbsbuild/obj/scene_33_collisions.rel
                                          [ scene_33_collisions ]
/tmp/_gbsbuild/obj/scene_33_init.rel      [ scene_33_init ]
/tmp/_gbsbuild/obj/scene_33_sprites.rel   [ scene_33_sprites ]
/tmp/_gbsbuild/obj/scene_33_triggers.rel  [ scene_33_triggers ]
/tmp/_gbsbuild/obj/scene_33.rel           [ scene_33 ]
/tmp/_gbsbuild/obj/scene_34_actors.rel    [ scene_34_actors ]
/tmp/_gbsbuild/obj/scene_34_collisions.rel
                                          [ scene_34_collisions ]
/tmp/_gbsbuild/obj/scene_34_init.rel      [ scene_34_init ]
/tmp/_gbsbuild/obj/scene_34_sprites.rel   [ scene_34_sprites ]
/tmp/_gbsbuild/obj/scene_34_triggers.rel  [ scene_34_triggers ]
/tmp/_gbsbuild/obj/scene_34.rel           [ scene_34 ]
/tmp/_gbsbuild/obj/scene_35_collisions.rel
                                          [ scene_35_collisions ]
/tmp/_gbsbuild/obj/scene_35_init.rel      [ scene_35_init ]
/tmp/_gbsbuild/obj/scene_35_triggers.rel  [ scene_35_triggers ]
/tmp/_gbsbuild/obj/scene_35.rel           [ scene_35 ]
/tmp/_gbsbuild/obj/scene_36_actors.rel    [ scene_36_actors ]
/tmp/_gbsbuild/obj/scene_36_collisions.rel
                                          [ scene_36_collisions ]
/tmp/_gbsbuild/obj/scene_36_init.rel      [ scene_36_init ]
/tmp/_gbsbuild/obj/scene_36_sprites.rel   [ scene_36_sprites ]
/tmp/_gbsbuild/obj/scene_36.rel           [ scene_36 ]
/tmp/_gbsbuild/obj/scene_37_actors.rel    [ scene_37_actors ]
/tmp/_gbsbuild/obj/scene_37_collisions.rel
                                          [ scene_37_collisions ]
/tmp/_gbsbuild/obj/scene_37_init.rel      [ scene_37_init ]
/tmp/_gbsbuild/obj/scene_37_sprites.rel   [ scene_37_sprites ]
/tmp/_gbsbuild/obj/scene_37.rel           [ scene_37 ]
/tmp/_gbsbuild/obj/scene_38_collisions.rel
                                          [ scene_38_collisions ]
/tmp/_gbsbuild/obj/scene_38_init.rel      [ scene_38_init ]
/tmp/_gbsbuild/obj/scene_38.rel           [ scene_38 ]
/tmp/_gbsbuild/obj/scene_39_actors.rel    [ scene_39_actors ]
/tmp/_gbsbuild/obj/scene_39_collisions.rel
                                          [ scene_39_collisions ]
/tmp/_gbsbuild/obj/scene_39_init.rel      [ scene_39_init ]
/tmp/_gbsbuild/obj/scene_39_sprites.rel   [ scene_39_sprites ]
/tmp/_gbsbuild/obj/scene_39.rel           [ scene_39 ]
/tmp/_gbsbuild/obj/scene_4_collisions.rel
                                          [ scene_4_collisions ]
/tmp/_gbsbuild/obj/scene_4_init.rel       [ scene_4_init ]
/tmp/_gbsbuild/obj/scene_4.rel            [ scene_4 ]
/tmp/_gbsbuild/obj/scene_40_collisions.rel
                                          [ scene_40_collisions ]
/tmp/_gbsbuild/obj/scene_40_init.rel      [ scene_40_init ]
/tmp/_gbsbuild/obj/scene_40_triggers.rel  [ scene_40_triggers ]
/tmp/_gbsbuild/obj/scene_40.rel           [ scene_40 ]
/tmp/_gbsbuild/obj/scene_41_collisions.rel
                                          [ scene_41_collisions ]
/tmp/_gbsbuild/obj/scene_41_init.rel      [ scene_41_init ]
/tmp/_gbsbuild/obj/scene_41_triggers.rel  [ scene_41_triggers ]
/tmp/_gbsbuild/obj/scene_41.rel           [ scene_41 ]
/tmp/_gbsbuild/obj/scene_42_collisions.rel
                                          [ scene_42_collisions ]
/tmp/_gbsbuild/obj/scene_42_init.rel      [ scene_42_init ]
/tmp/_gbsbuild/obj/scene_42_triggers.rel  [ scene_42_triggers ]
/tmp/_gbsbuild/obj/scene_42.rel           [ scene_42 ]
/tmp/_gbsbuild/obj/scene_43_collisions.rel
                                          [ scene_43_collisions ]
/tmp/_gbsbuild/obj/scene_43_init.rel      [ scene_43_init ]
/tmp/_gbsbuild/obj/scene_43_triggers.rel  [ scene_43_triggers ]
/tmp/_gbsbuild/obj/scene_43.rel           [ scene_43 ]
/tmp/_gbsbuild/obj/scene_44_collisions.rel
                                          [ scene_44_collisions ]
/tmp/_gbsbuild/obj/scene_44_init.rel      [ scene_44_init ]
/tmp/_gbsbuild/obj/scene_44_triggers.rel  [ scene_44_triggers ]
/tmp/_gbsbuild/obj/scene_44.rel           [ scene_44 ]
/tmp/_gbsbuild/obj/scene_45_actors.rel    [ scene_45_actors ]
/tmp/_gbsbuild/obj/scene_45_collisions.rel
                                          [ scene_45_collisions ]
/tmp/_gbsbuild/obj/scene_45_init.rel      [ scene_45_init ]
/tmp/_gbsbuild/obj/scene_45_sprites.rel   [ scene_45_sprites ]
/tmp/_gbsbuild/obj/scene_45_triggers.rel  [ scene_45_triggers ]
/tmp/_gbsbuild/obj/scene_45.rel           [ scene_45 ]
/tmp/_gbsbuild/obj/scene_46_actors.rel    [ scene_46_actors ]
/tmp/_gbsbuild/obj/scene_46_collisions.rel
                                          [ scene_46_collisions ]
/tmp/_gbsbuild/obj/scene_46_init.rel      [ scene_46_init ]
/tmp/_gbsbuild/obj/scene_46_p_hit1.rel    [ scene_46_p_hit1 ]
/tmp/_gbsbuild/obj/scene_46_projectiles.rel
                                          [ scene_46_projectiles ]
/tmp/_gbsbuild/obj/scene_46_sprites.rel   [ scene_46_sprites ]
/tmp/_gbsbuild/obj/scene_46_triggers.rel  [ scene_46_triggers ]
/tmp/_gbsbuild/obj/scene_46.rel           [ scene_46 ]
/tmp/_gbsbuild/obj/scene_47_collisions.rel
                                          [ scene_47_collisions ]
/tmp/_gbsbuild/obj/scene_47_init.rel      [ scene_47_init ]
/tmp/_gbsbuild/obj/scene_47.rel           [ scene_47 ]
/tmp/_gbsbuild/obj/scene_48_actors.rel    [ scene_48_actors ]
/tmp/_gbsbuild/obj/scene_48_collisions.rel
                                          [ scene_48_collisions ]
/tmp/_gbsbuild/obj/scene_48_init.rel      [ scene_48_init ]
/tmp/_gbsbuild/obj/scene_48_p_hit1.rel    [ scene_48_p_hit1 ]
/tmp/_gbsbuild/obj/scene_48_projectiles.rel
                                          [ scene_48_projectiles ]
/tmp/_gbsbuild/obj/scene_48_sprites.rel   [ scene_48_sprites ]
/tmp/_gbsbuild/obj/scene_48_triggers.rel  [ scene_48_triggers ]
/tmp/_gbsbuild/obj/scene_48.rel           [ scene_48 ]
/tmp/_gbsbuild/obj/scene_49_actors.rel    [ scene_49_actors ]
/tmp/_gbsbuild/obj/scene_49_collisions.rel
                                          [ scene_49_collisions ]
/tmp/_gbsbuild/obj/scene_49_init.rel      [ scene_49_init ]
/tmp/_gbsbuild/obj/scene_49_p_hit1.rel    [ scene_49_p_hit1 ]
/tmp/_gbsbuild/obj/scene_49_projectiles.rel
                                          [ scene_49_projectiles ]
/tmp/_gbsbuild/obj/scene_49_sprites.rel   [ scene_49_sprites ]
/tmp/_gbsbuild/obj/scene_49_triggers.rel  [ scene_49_triggers ]
/tmp/_gbsbuild/obj/scene_49.rel           [ scene_49 ]
/tmp/_gbsbuild/obj/scene_5_collisions.rel
                                          [ scene_5_collisions ]
/tmp/_gbsbuild/obj/scene_5_init.rel       [ scene_5_init ]
/tmp/_gbsbuild/obj/scene_5.rel            [ scene_5 ]
/tmp/_gbsbuild/obj/scene_50_actors.rel    [ scene_50_actors ]
/tmp/_gbsbuild/obj/scene_50_collisions.rel
                                          [ scene_50_collisions ]
/tmp/_gbsbuild/obj/scene_50_init.rel      [ scene_50_init ]
/tmp/_gbsbuild/obj/scene_50_projectiles.rel
                                          [ scene_50_projectiles ]
/tmp/_gbsbuild/obj/scene_50_sprites.rel   [ scene_50_sprites ]
/tmp/_gbsbuild/obj/scene_50_triggers.rel  [ scene_50_triggers ]
/tmp/_gbsbuild/obj/scene_50.rel           [ scene_50 ]
/tmp/_gbsbuild/obj/scene_51_actors.rel    [ scene_51_actors ]
/tmp/_gbsbuild/obj/scene_51_collisions.rel
                                          [ scene_51_collisions ]
/tmp/_gbsbuild/obj/scene_51_init.rel      [ scene_51_init ]
/tmp/_gbsbuild/obj/scene_51_sprites.rel   [ scene_51_sprites ]
/tmp/_gbsbuild/obj/scene_51_triggers.rel  [ scene_51_triggers ]
/tmp/_gbsbuild/obj/scene_51.rel           [ scene_51 ]
/tmp/_gbsbuild/obj/scene_52_actors.rel    [ scene_52_actors ]
/tmp/_gbsbuild/obj/scene_52_collisions.rel
                                          [ scene_52_collisions ]
/tmp/_gbsbuild/obj/scene_52_init.rel      [ scene_52_init ]
/tmp/_gbsbuild/obj/scene_52_sprites.rel   [ scene_52_sprites ]
/tmp/_gbsbuild/obj/scene_52.rel           [ scene_52 ]
/tmp/_gbsbuild/obj/scene_53_actors.rel    [ scene_53_actors ]
/tmp/_gbsbuild/obj/scene_53_collisions.rel
                                          [ scene_53_collisions ]
/tmp/_gbsbuild/obj/scene_53_init.rel      [ scene_53_init ]
/tmp/_gbsbuild/obj/scene_53_sprites.rel   [ scene_53_sprites ]
/tmp/_gbsbuild/obj/scene_53_triggers.rel  [ scene_53_triggers ]
/tmp/_gbsbuild/obj/scene_53.rel           [ scene_53 ]
/tmp/_gbsbuild/obj/scene_54_actors.rel    [ scene_54_actors ]
/tmp/_gbsbuild/obj/scene_54_collisions.rel
                                          [ scene_54_collisions ]
/tmp/_gbsbuild/obj/scene_54_init.rel      [ scene_54_init ]
/tmp/_gbsbuild/obj/scene_54_sprites.rel   [ scene_54_sprites ]
/tmp/_gbsbuild/obj/scene_54_triggers.rel  [ scene_54_triggers ]
/tmp/_gbsbuild/obj/scene_54.rel           [ scene_54 ]
/tmp/_gbsbuild/obj/scene_55_collisions.rel
                                          [ scene_55_collisions ]
/tmp/_gbsbuild/obj/scene_55_init.rel      [ scene_55_init ]
/tmp/_gbsbuild/obj/scene_55_triggers.rel  [ scene_55_triggers ]
/tmp/_gbsbuild/obj/scene_55.rel           [ scene_55 ]
/tmp/_gbsbuild/obj/scene_56_collisions.rel
                                          [ scene_56_collisions ]
/tmp/_gbsbuild/obj/scene_56_init.rel      [ scene_56_init ]
/tmp/_gbsbuild/obj/scene_56_triggers.rel  [ scene_56_triggers ]
/tmp/_gbsbuild/obj/scene_56.rel           [ scene_56 ]
/tmp/_gbsbuild/obj/scene_57_collisions.rel
                                          [ scene_57_collisions ]
/tmp/_gbsbuild/obj/scene_57_init.rel      [ scene_57_init ]
/tmp/_gbsbuild/obj/scene_57_triggers.rel  [ scene_57_triggers ]
/tmp/_gbsbuild/obj/scene_57.rel           [ scene_57 ]
/tmp/_gbsbuild/obj/scene_58_actors.rel    [ scene_58_actors ]
/tmp/_gbsbuild/obj/scene_58_collisions.rel
                                          [ scene_58_collisions ]
/tmp/_gbsbuild/obj/scene_58_init.rel      [ scene_58_init ]
/tmp/_gbsbuild/obj/scene_58_sprites.rel   [ scene_58_sprites ]
/tmp/_gbsbuild/obj/scene_58_triggers.rel  [ scene_58_triggers ]
/tmp/_gbsbuild/obj/scene_58.rel           [ scene_58 ]
/tmp/_gbsbuild/obj/scene_59_collisions.rel
                                          [ scene_59_collisions ]
/tmp/_gbsbuild/obj/scene_59_init.rel      [ scene_59_init ]
/tmp/_gbsbuild/obj/scene_59_triggers.rel  [ scene_59_triggers ]
/tmp/_gbsbuild/obj/scene_59.rel           [ scene_59 ]
/tmp/_gbsbuild/obj/scene_6_collisions.rel
                                          [ scene_6_collisions ]
/tmp/_gbsbuild/obj/scene_6_init.rel       [ scene_6_init ]
/tmp/_gbsbuild/obj/scene_6.rel            [ scene_6 ]
/tmp/_gbsbuild/obj/scene_60_actors.rel    [ scene_60_actors ]
/tmp/_gbsbuild/obj/scene_60_collisions.rel
                                          [ scene_60_collisions ]
/tmp/_gbsbuild/obj/scene_60_init.rel      [ scene_60_init ]
/tmp/_gbsbuild/obj/scene_60_sprites.rel   [ scene_60_sprites ]
/tmp/_gbsbuild/obj/scene_60_triggers.rel  [ scene_60_triggers ]
/tmp/_gbsbuild/obj/scene_60.rel           [ scene_60 ]
/tmp/_gbsbuild/obj/scene_61_actors.rel    [ scene_61_actors ]
/tmp/_gbsbuild/obj/scene_61_collisions.rel
                                          [ scene_61_collisions ]
/tmp/_gbsbuild/obj/scene_61_init.rel      [ scene_61_init ]
/tmp/_gbsbuild/obj/scene_61_sprites.rel   [ scene_61_sprites ]
/tmp/_gbsbuild/obj/scene_61_triggers.rel  [ scene_61_triggers ]
/tmp/_gbsbuild/obj/scene_61.rel           [ scene_61 ]
/tmp/_gbsbuild/obj/scene_62_collisions.rel
                                          [ scene_62_collisions ]
/tmp/_gbsbuild/obj/scene_62_init.rel      [ scene_62_init ]
/tmp/_gbsbuild/obj/scene_62_triggers.rel  [ scene_62_triggers ]
/tmp/_gbsbuild/obj/scene_62.rel           [ scene_62 ]
/tmp/_gbsbuild/obj/scene_63_collisions.rel
                                          [ scene_63_collisions ]
/tmp/_gbsbuild/obj/scene_63_init.rel      [ scene_63_init ]
/tmp/_gbsbuild/obj/scene_63_triggers.rel  [ scene_63_triggers ]
/tmp/_gbsbuild/obj/scene_63.rel           [ scene_63 ]
/tmp/_gbsbuild/obj/scene_64_actors.rel    [ scene_64_actors ]
/tmp/_gbsbuild/obj/scene_64_collisions.rel
                                          [ scene_64_collisions ]
/tmp/_gbsbuild/obj/scene_64_init.rel      [ scene_64_init ]
/tmp/_gbsbuild/obj/scene_64_sprites.rel   [ scene_64_sprites ]
/tmp/_gbsbuild/obj/scene_64_triggers.rel  [ scene_64_triggers ]
/tmp/_gbsbuild/obj/scene_64.rel           [ scene_64 ]
/tmp/_gbsbuild/obj/scene_65_collisions.rel
                                          [ scene_65_collisions ]
/tmp/_gbsbuild/obj/scene_65_init.rel      [ scene_65_init ]
/tmp/_gbsbuild/obj/scene_65_triggers.rel  [ scene_65_triggers ]
/tmp/_gbsbuild/obj/scene_65.rel           [ scene_65 ]
/tmp/_gbsbuild/obj/scene_66_collisions.rel
                                          [ scene_66_collisions ]
/tmp/_gbsbuild/obj/scene_66_init.rel      [ scene_66_init ]
/tmp/_gbsbuild/obj/scene_66_triggers.rel  [ scene_66_triggers ]
/tmp/_gbsbuild/obj/scene_66.rel           [ scene_66 ]
/tmp/_gbsbuild/obj/scene_67_collisions.rel
                                          [ scene_67_collisions ]
/tmp/_gbsbuild/obj/scene_67_init.rel      [ scene_67_init ]
/tmp/_gbsbuild/obj/scene_67_triggers.rel  [ scene_67_triggers ]
/tmp/_gbsbuild/obj/scene_67.rel           [ scene_67 ]
/tmp/_gbsbuild/obj/scene_68_collisions.rel
                                          [ scene_68_collisions ]
/tmp/_gbsbuild/obj/scene_68_init.rel      [ scene_68_init ]
/tmp/_gbsbuild/obj/scene_68_triggers.rel  [ scene_68_triggers ]
/tmp/_gbsbuild/obj/scene_68.rel           [ scene_68 ]
/tmp/_gbsbuild/obj/scene_69_collisions.rel
                                          [ scene_69_collisions ]
/tmp/_gbsbuild/obj/scene_69_init.rel      [ scene_69_init ]
/tmp/_gbsbuild/obj/scene_69.rel           [ scene_69 ]
/tmp/_gbsbuild/obj/scene_7_collisions.rel
                                          [ scene_7_collisions ]
/tmp/_gbsbuild/obj/scene_7_init.rel       [ scene_7_init ]
/tmp/_gbsbuild/obj/scene_7.rel            [ scene_7 ]
/tmp/_gbsbuild/obj/scene_70_collisions.rel
                                          [ scene_70_collisions ]
/tmp/_gbsbuild/obj/scene_70_init.rel      [ scene_70_init ]
/tmp/_gbsbuild/obj/scene_70_triggers.rel  [ scene_70_triggers ]
/tmp/_gbsbuild/obj/scene_70.rel           [ scene_70 ]
/tmp/_gbsbuild/obj/scene_71_actors.rel    [ scene_71_actors ]
/tmp/_gbsbuild/obj/scene_71_collisions.rel
                                          [ scene_71_collisions ]
/tmp/_gbsbuild/obj/scene_71_init.rel      [ scene_71_init ]
/tmp/_gbsbuild/obj/scene_71_sprites.rel   [ scene_71_sprites ]
/tmp/_gbsbuild/obj/scene_71_triggers.rel  [ scene_71_triggers ]
/tmp/_gbsbuild/obj/scene_71.rel           [ scene_71 ]
/tmp/_gbsbuild/obj/scene_72_collisions.rel
                                          [ scene_72_collisions ]
/tmp/_gbsbuild/obj/scene_72_init.rel      [ scene_72_init ]
/tmp/_gbsbuild/obj/scene_72_triggers.rel  [ scene_72_triggers ]
/tmp/_gbsbuild/obj/scene_72.rel           [ scene_72 ]
/tmp/_gbsbuild/obj/scene_73_actors.rel    [ scene_73_actors ]
/tmp/_gbsbuild/obj/scene_73_collisions.rel
                                          [ scene_73_collisions ]
/tmp/_gbsbuild/obj/scene_73_init.rel      [ scene_73_init ]
/tmp/_gbsbuild/obj/scene_73_sprites.rel   [ scene_73_sprites ]
/tmp/_gbsbuild/obj/scene_73.rel           [ scene_73 ]
/tmp/_gbsbuild/obj/scene_74_collisions.rel
                                          [ scene_74_collisions ]
/tmp/_gbsbuild/obj/scene_74_init.rel      [ scene_74_init ]
/tmp/_gbsbuild/obj/scene_74.rel           [ scene_74 ]
/tmp/_gbsbuild/obj/scene_75_collisions.rel
                                          [ scene_75_collisions ]
/tmp/_gbsbuild/obj/scene_75_init.rel      [ scene_75_init ]
/tmp/_gbsbuild/obj/scene_75_triggers.rel  [ scene_75_triggers ]
/tmp/_gbsbuild/obj/scene_75.rel           [ scene_75 ]
/tmp/_gbsbuild/obj/scene_8_collisions.rel
                                          [ scene_8_collisions ]
/tmp/_gbsbuild/obj/scene_8_init.rel       [ scene_8_init ]
/tmp/_gbsbuild/obj/scene_8.rel            [ scene_8 ]
/tmp/_gbsbuild/obj/scene_9_collisions.rel
                                          [ scene_9_collisions ]
/tmp/_gbsbuild/obj/scene_9_init.rel       [ scene_9_init ]
/tmp/_gbsbuild/obj/scene_9.rel            [ scene_9 ]
/tmp/_gbsbuild/obj/script_engine_init.rel
                                          [  ]
/tmp/_gbsbuild/obj/script_input_0.rel     [ script_input_0 ]
/tmp/_gbsbuild/obj/script_input_1.rel     [ script_input_1 ]
/tmp/_gbsbuild/obj/script_input_10.rel    [ script_input_10 ]
/tmp/_gbsbuild/obj/script_input_11.rel    [ script_input_11 ]
/tmp/_gbsbuild/obj/script_input_12.rel    [ script_input_12 ]
/tmp/_gbsbuild/obj/script_input_2.rel     [ script_input_2 ]
/tmp/_gbsbuild/obj/script_input_3.rel     [ script_input_3 ]
/tmp/_gbsbuild/obj/script_input_4.rel     [ script_input_4 ]
/tmp/_gbsbuild/obj/script_input_5.rel     [ script_input_5 ]
/tmp/_gbsbuild/obj/script_input_6.rel     [ script_input_6 ]
/tmp/_gbsbuild/obj/script_input_7.rel     [ script_input_7 ]
/tmp/_gbsbuild/obj/script_input_8.rel     [ script_input_8 ]
/tmp/_gbsbuild/obj/script_input_9.rel     [ script_input_9 ]
/tmp/_gbsbuild/obj/script_timer_0.rel     [ script_timer_0 ]
/tmp/_gbsbuild/obj/script_timer_1.rel     [ script_timer_1 ]
/tmp/_gbsbuild/obj/script_timer_2.rel     [ script_timer_2 ]
/tmp/_gbsbuild/obj/script_timer_3.rel     [ script_timer_3 ]
/tmp/_gbsbuild/obj/script_timer_4.rel     [ script_timer_4 ]
/tmp/_gbsbuild/obj/script_timer_5.rel     [ script_timer_5 ]
/tmp/_gbsbuild/obj/script_timer_6.rel     [ script_timer_6 ]
/tmp/_gbsbuild/obj/script_timer_7.rel     [ script_timer_7 ]
/tmp/_gbsbuild/obj/script_timer_8.rel     [ script_timer_8 ]
/tmp/_gbsbuild/obj/script_timer_9.rel     [ script_timer_9 ]
/tmp/_gbsbuild/obj/sprite_blank_interactable_c_0_tileset.rel
                                          [ sprite_blank_interactable_c_0_ti ]
/tmp/_gbsbuild/obj/sprite_blank_interactable_c_0.rel
                                          [ sprite_blank_interactable_c_0 ]
/tmp/_gbsbuild/obj/sprite_blank_interactable_c_tileset.rel
                                          [ sprite_blank_interactable_c_tile ]
/tmp/_gbsbuild/obj/sprite_blank_interactable_c.rel
                                          [ sprite_blank_interactable_c ]
/tmp/_gbsbuild/obj/sprite_car_tileset.rel
                                          [ sprite_car_tileset ]
/tmp/_gbsbuild/obj/sprite_car.rel         [ sprite_car ]
/tmp/_gbsbuild/obj/sprite_cataa_tileset.rel
                                          [ sprite_cataa_tileset ]
/tmp/_gbsbuild/obj/sprite_cataa.rel       [ sprite_cataa ]
/tmp/_gbsbuild/obj/sprite_dhilly_5_level_copy__tileset.rel
                                          [ sprite_dhilly_5_level_copy__tile ]
/tmp/_gbsbuild/obj/sprite_dhilly_5_level_copy_.rel
                                          [ sprite_dhilly_5_level_copy_ ]
/tmp/_gbsbuild/obj/sprite_dhilly_saveselect_co_0_tileset.rel
                                          [ sprite_dhilly_saveselect_co_0_ti ]
/tmp/_gbsbuild/obj/sprite_dhilly_saveselect_co_0.rel
                                          [ sprite_dhilly_saveselect_co_0 ]
/tmp/_gbsbuild/obj/sprite_dhilly_saveselect_co_tileset.rel
                                          [ sprite_dhilly_saveselect_co_tile ]
/tmp/_gbsbuild/obj/sprite_dhilly_saveselect_co.rel
                                          [ sprite_dhilly_saveselect_co ]
/tmp/_gbsbuild/obj/sprite_dhilly_saveselect_tileset.rel
                                          [ sprite_dhilly_saveselect_tileset ]
/tmp/_gbsbuild/obj/sprite_dhilly_saveselect.rel
                                          [ sprite_dhilly_saveselect ]
/tmp/_gbsbuild/obj/sprite_highlight_options_co_tileset.rel
                                          [ sprite_highlight_options_co_tile ]
/tmp/_gbsbuild/obj/sprite_highlight_options_co.rel
                                          [ sprite_highlight_options_co ]
/tmp/_gbsbuild/obj/sprite_iceos_cursor_copy_.rel
                                          [ sprite_iceos_cursor_copy_ ]
/tmp/_gbsbuild/obj/sprite_iceosapp_ctf_copy_0_tileset.rel
                                          [ sprite_iceosapp_ctf_copy_0_tiles ]
/tmp/_gbsbuild/obj/sprite_iceosapp_ctf_copy_0.rel
                                          [ sprite_iceosapp_ctf_copy_0 ]
/tmp/_gbsbuild/obj/sprite_iceosapp_pltfrmr_cop_tileset.rel
                                          [ sprite_iceosapp_pltfrmr_cop_tile ]
/tmp/_gbsbuild/obj/sprite_iceosapp_pltfrmr_cop.rel
                                          [ sprite_iceosapp_pltfrmr_cop ]
/tmp/_gbsbuild/obj/sprite_iceosapp_settings_co_tileset.rel
                                          [ sprite_iceosapp_settings_co_tile ]
/tmp/_gbsbuild/obj/sprite_iceosapp_settings_co.rel
                                          [ sprite_iceosapp_settings_co ]
/tmp/_gbsbuild/obj/sprite_iceosapp_wveruner_co_tileset.rel
                                          [ sprite_iceosapp_wveruner_co_tile ]
/tmp/_gbsbuild/obj/sprite_iceosapp_wveruner_co.rel
                                          [ sprite_iceosapp_wveruner_co ]
/tmp/_gbsbuild/obj/sprite_knife_down_copy__tileset.rel
                                          [ sprite_knife_down_copy__tileset ]
/tmp/_gbsbuild/obj/sprite_knife_down_copy_.rel
                                          [ sprite_knife_down_copy_ ]
/tmp/_gbsbuild/obj/sprite_len_city_dhilly_hous.rel
                                          [ sprite_len_city_dhilly_hous ]
/tmp/_gbsbuild/obj/sprite_mzdesigns_tileset.rel
                                          [ sprite_mzdesigns_tileset ]
/tmp/_gbsbuild/obj/sprite_mzdesigns.rel   [ sprite_mzdesigns ]
/tmp/_gbsbuild/obj/sprite_pixelperfectvoti_tileset.rel
                                          [ sprite_pixelperfectvoti_tileset ]
/tmp/_gbsbuild/obj/sprite_pixelperfectvoti.rel
                                          [ sprite_pixelperfectvoti ]
/tmp/_gbsbuild/obj/sprite_shapiro_tileset.rel
                                          [ sprite_shapiro_tileset ]
/tmp/_gbsbuild/obj/sprite_shapiro.rel     [ sprite_shapiro ]
/tmp/_gbsbuild/obj/sprite_square_cart_copy__tileset.rel
                                          [ sprite_square_cart_copy__tileset ]
/tmp/_gbsbuild/obj/sprite_square_cart_copy_.rel
                                          [ sprite_square_cart_copy_ ]
/tmp/_gbsbuild/obj/sprite_square_full_hitbox_c_1_tileset.rel
                                          [ sprite_square_full_hitbox_c_1_ti ]
/tmp/_gbsbuild/obj/sprite_square_full_hitbox_c_1.rel
                                          [ sprite_square_full_hitbox_c_1 ]
/tmp/_gbsbuild/obj/sprite_square_full_hitbox_c_2_tileset.rel
                                          [ sprite_square_full_hitbox_c_2_ti ]
/tmp/_gbsbuild/obj/sprite_square_full_hitbox_c_2.rel
                                          [ sprite_square_full_hitbox_c_2 ]
/tmp/_gbsbuild/obj/sprite_square_full_hitbox_c_3_tileset.rel
                                          [ sprite_square_full_hitbox_c_3_ti ]
/tmp/_gbsbuild/obj/sprite_square_full_hitbox_c_3.rel
                                          [ sprite_square_full_hitbox_c_3 ]
/tmp/_gbsbuild/obj/sprite_square_full_hitbox_c_4_tileset.rel
                                          [ sprite_square_full_hitbox_c_4_ti ]
/tmp/_gbsbuild/obj/sprite_square_full_hitbox_c_4.rel
                                          [ sprite_square_full_hitbox_c_4 ]
/tmp/_gbsbuild/obj/sprite_square_full_hitbox_c_tileset.rel
                                          [ sprite_square_full_hitbox_c_tile ]
/tmp/_gbsbuild/obj/sprite_square_full_hitbox_c.rel
                                          [ sprite_square_full_hitbox_c ]
/tmp/_gbsbuild/obj/sprite_square_platforming_c_tileset.rel
                                          [ sprite_square_platforming_c_tile ]
/tmp/_gbsbuild/obj/sprite_square_platforming_c.rel
                                          [ sprite_square_platforming_c ]
/tmp/_gbsbuild/obj/sprite_static_copy_tileset.rel
                                          [ sprite_static_copy_tileset ]
/tmp/_gbsbuild/obj/sprite_static_copy.rel
                                          [ sprite_static_copy ]
/tmp/_gbsbuild/obj/spritesheet_none.rel   [ spritesheet_none ]
/tmp/_gbsbuild/obj/trigger_0_interact.rel
                                          [ trigger_0_interact ]
/tmp/_gbsbuild/obj/trigger_1_interact.rel
                                          [ trigger_1_interact ]
/tmp/_gbsbuild/obj/trigger_10_interact.rel
                                          [ trigger_10_interact ]
/tmp/_gbsbuild/obj/trigger_11_interact.rel
                                          [ trigger_11_interact ]
/tmp/_gbsbuild/obj/trigger_12_interact.rel
                                          [ trigger_12_interact ]
/tmp/_gbsbuild/obj/trigger_13_interact.rel
                                          [ trigger_13_interact ]
/tmp/_gbsbuild/obj/trigger_14_interact.rel
                                          [ trigger_14_interact ]
/tmp/_gbsbuild/obj/trigger_15_interact.rel
                                          [ trigger_15_interact ]
/tmp/_gbsbuild/obj/trigger_16_interact.rel
                                          [ trigger_16_interact ]
/tmp/_gbsbuild/obj/trigger_17_interact.rel
                                          [ trigger_17_interact ]
/tmp/_gbsbuild/obj/trigger_18_interact.rel
                                          [ trigger_18_interact ]
/tmp/_gbsbuild/obj/trigger_19_interact.rel
                                          [ trigger_19_interact ]
/tmp/_gbsbuild/obj/trigger_2_interact.rel
                                          [ trigger_2_interact ]
/tmp/_gbsbuild/obj/trigger_20_interact.rel
                                          [ trigger_20_interact ]
/tmp/_gbsbuild/obj/trigger_21_interact.rel
                                          [ trigger_21_interact ]
/tmp/_gbsbuild/obj/trigger_22_interact.rel
                                          [ trigger_22_interact ]
/tmp/_gbsbuild/obj/trigger_23_interact.rel
                                          [ trigger_23_interact ]
/tmp/_gbsbuild/obj/trigger_24_interact.rel
                                          [ trigger_24_interact ]
/tmp/_gbsbuild/obj/trigger_25_interact.rel
                                          [ trigger_25_interact ]
/tmp/_gbsbuild/obj/trigger_26_interact.rel
                                          [ trigger_26_interact ]
/tmp/_gbsbuild/obj/trigger_27_interact.rel
                                          [ trigger_27_interact ]
/tmp/_gbsbuild/obj/trigger_28_interact.rel
                                          [ trigger_28_interact ]
/tmp/_gbsbuild/obj/trigger_29_interact.rel
                                          [ trigger_29_interact ]
/tmp/_gbsbuild/obj/trigger_30_interact.rel
                                          [ trigger_30_interact ]
/tmp/_gbsbuild/obj/trigger_31_interact.rel
                                          [ trigger_31_interact ]
/tmp/_gbsbuild/obj/trigger_32_interact.rel
                                          [ trigger_32_interact ]
/tmp/_gbsbuild/obj/trigger_33_interact.rel
                                          [ trigger_33_interact ]
/tmp/_gbsbuild/obj/trigger_34_interact.rel
                                          [ trigger_34_interact ]
/tmp/_gbsbuild/obj/trigger_35_interact.rel
                                          [ trigger_35_interact ]
/tmp/_gbsbuild/obj/trigger_36_interact.rel
                                          [ trigger_36_interact ]
/tmp/_gbsbuild/obj/trigger_37_interact.rel
                                          [ trigger_37_interact ]
/tmp/_gbsbuild/obj/trigger_38_interact.rel
                                          [ trigger_38_interact ]
/tmp/_gbsbuild/obj/trigger_39_interact.rel
                                          [ trigger_39_interact ]
/tmp/_gbsbuild/obj/trigger_4_interact.rel
                                          [ trigger_4_interact ]
/tmp/_gbsbuild/obj/trigger_40_interact.rel
                                          [ trigger_40_interact ]
/tmp/_gbsbuild/obj/trigger_41_interact.rel
                                          [ trigger_41_interact ]
/tmp/_gbsbuild/obj/trigger_42_interact.rel
                                          [ trigger_42_interact ]
/tmp/_gbsbuild/obj/trigger_43_interact.rel
                                          [ trigger_43_interact ]
/tmp/_gbsbuild/obj/trigger_44_interact.rel
                                          [ trigger_44_interact ]
/tmp/_gbsbuild/obj/trigger_45_interact.rel
                                          [ trigger_45_interact ]
/tmp/_gbsbuild/obj/trigger_46_interact.rel
                                          [ trigger_46_interact ]
/tmp/_gbsbuild/obj/trigger_47_interact.rel
                                          [ trigger_47_interact ]
/tmp/_gbsbuild/obj/trigger_48_interact.rel
                                          [ trigger_48_interact ]
/tmp/_gbsbuild/obj/trigger_5_interact.rel
                                          [ trigger_5_interact ]
/tmp/_gbsbuild/obj/trigger_50_interact.rel
                                          [ trigger_50_interact ]
/tmp/_gbsbuild/obj/trigger_51_interact.rel
                                          [ trigger_51_interact ]
/tmp/_gbsbuild/obj/trigger_52_interact.rel
                                          [ trigger_52_interact ]
/tmp/_gbsbuild/obj/trigger_53_interact.rel
                                          [ trigger_53_interact ]
/tmp/_gbsbuild/obj/trigger_54_interact.rel
                                          [ trigger_54_interact ]
/tmp/_gbsbuild/obj/trigger_55_interact.rel
                                          [ trigger_55_interact ]
/tmp/_gbsbuild/obj/trigger_56_interact.rel
                                          [ trigger_56_interact ]
/tmp/_gbsbuild/obj/trigger_57_interact.rel
                                          [ trigger_57_interact ]
/tmp/_gbsbuild/obj/trigger_58_interact.rel
                                          [ trigger_58_interact ]
/tmp/_gbsbuild/obj/trigger_59_interact.rel
                                          [ trigger_59_interact ]
/tmp/_gbsbuild/obj/trigger_6_interact.rel
                                          [ trigger_6_interact ]
/tmp/_gbsbuild/obj/trigger_60_interact.rel
                                          [ trigger_60_interact ]
/tmp/_gbsbuild/obj/trigger_61_interact.rel
                                          [ trigger_61_interact ]
/tmp/_gbsbuild/obj/trigger_62_interact.rel
                                          [ trigger_62_interact ]
/tmp/_gbsbuild/obj/trigger_63_interact.rel
                                          [ trigger_63_interact ]
/tmp/_gbsbuild/obj/trigger_64_interact.rel
                                          [ trigger_64_interact ]
/tmp/_gbsbuild/obj/trigger_65_interact.rel
                                          [ trigger_65_interact ]
/tmp/_gbsbuild/obj/trigger_66_interact.rel
                                          [ trigger_66_interact ]
/tmp/_gbsbuild/obj/trigger_67_interact.rel
                                          [ trigger_67_interact ]
/tmp/_gbsbuild/obj/trigger_68_interact.rel
                                          [ trigger_68_interact ]
/tmp/_gbsbuild/obj/trigger_69_interact.rel
                                          [ trigger_69_interact ]
/tmp/_gbsbuild/obj/trigger_7_interact.rel
                                          [ trigger_7_interact ]
/tmp/_gbsbuild/obj/trigger_70_interact.rel
                                          [ trigger_70_interact ]
/tmp/_gbsbuild/obj/trigger_71_interact.rel
                                          [ trigger_71_interact ]
/tmp/_gbsbuild/obj/trigger_72_interact.rel
                                          [ trigger_72_interact ]
/tmp/_gbsbuild/obj/trigger_73_interact.rel
                                          [ trigger_73_interact ]
/tmp/_gbsbuild/obj/trigger_74_interact.rel
                                          [ trigger_74_interact ]
/tmp/_gbsbuild/obj/trigger_75_interact.rel
                                          [ trigger_75_interact ]
/tmp/_gbsbuild/obj/trigger_76_interact.rel
                                          [ trigger_76_interact ]
/tmp/_gbsbuild/obj/trigger_77_interact.rel
                                          [ trigger_77_interact ]
/tmp/_gbsbuild/obj/trigger_78_interact.rel
                                          [ trigger_78_interact ]
/tmp/_gbsbuild/obj/trigger_79_interact.rel
                                          [ trigger_79_interact ]
/tmp/_gbsbuild/obj/trigger_8_interact.rel
                                          [ trigger_8_interact ]
/tmp/_gbsbuild/obj/trigger_80_interact.rel
                                          [ trigger_80_interact ]
/tmp/_gbsbuild/obj/trigger_81_interact.rel
                                          [ trigger_81_interact ]
/tmp/_gbsbuild/obj/trigger_82_interact.rel
                                          [ trigger_82_interact ]
/tmp/_gbsbuild/obj/trigger_83_interact.rel
                                          [ trigger_83_interact ]
/tmp/_gbsbuild/obj/trigger_84_interact.rel
                                          [ trigger_84_interact ]
/tmp/_gbsbuild/obj/trigger_85_interact.rel
                                          [ trigger_85_interact ]
/tmp/_gbsbuild/obj/trigger_86_interact.rel
                                          [ trigger_86_interact ]
/tmp/_gbsbuild/obj/trigger_87_interact.rel
                                          [ trigger_87_interact ]
/tmp/_gbsbuild/obj/trigger_88_interact.rel
                                          [ trigger_88_interact ]
/tmp/_gbsbuild/obj/trigger_89_interact.rel
                                          [ trigger_89_interact ]
/tmp/_gbsbuild/obj/trigger_9_interact.rel
                                          [ trigger_9_interact ]
/tmp/_gbsbuild/obj/trigger_90_interact.rel
                                          [ trigger_90_interact ]
/tmp/_gbsbuild/obj/trigger_91_interact.rel
                                          [ trigger_91_interact ]
/tmp/_gbsbuild/obj/trigger_92_interact.rel
                                          [ trigger_92_interact ]
/tmp/_gbsbuild/obj/trigger_93_interact.rel
                                          [ trigger_93_interact ]
/tmp/_gbsbuild/obj/main.rel               [ main ]
/tmp/_gbsbuild/obj/adventure.rel          [ adventure ]
/tmp/_gbsbuild/obj/logo.rel               [ logo ]
/tmp/_gbsbuild/obj/platform.rel           [ platform ]
/tmp/_gbsbuild/obj/pointnclick.rel        [ pointnclick ]
/tmp/_gbsbuild/obj/shmup.rel              [ shmup ]
/tmp/_gbsbuild/obj/states_ptrs.rel        [  ]
/tmp/_gbsbuild/obj/topdown.rel            [ topdown ]


Libraries Linked                          [ object file ]

/tmp/_gbstools/gbdk/lib/gb/gb.lib         [ fill_rect_wi.o ]
/tmp/_gbstools/gbdk/lib/sm83/sm83.lib     [ rand.o ]
lib/hUGEDriver.lib                        [ hUGEDriver.o ]
/tmp/_gbstools/gbdk/lib/gb/gb.lib         [ sfr.o ]
/tmp/_gbstools/gbdk/lib/gb/gb.lib         [ get_data.o ]
/tmp/_gbstools/gbdk/lib/gb/gb.lib         [ get_tile.o ]
/tmp/_gbstools/gbdk/lib/gb/gb.lib         [ cgb_palettes.o ]
/tmp/_gbstools/gbdk/lib/gb/gb.lib         [ metasprites_hide_spr.o ]
/tmp/_gbstools/gbdk/lib/sm83/sm83.lib     [ mul.o ]
/tmp/_gbstools/gbdk/lib/gb/gb.lib         [ set_tile.o ]
/tmp/_gbstools/gbdk/lib/sm83/sm83.lib     [ abs.o ]
/tmp/_gbstools/gbdk/lib/gb/gb.lib         [ set_wi_t.o ]
/tmp/_gbstools/gbdk/lib/gb/gb.lib         [ set_data.o ]
/tmp/_gbstools/gbdk/lib/sm83/sm83.lib     [ reverse.o ]
/tmp/_gbstools/gbdk/lib/gb/gb.lib         [ far_ptr.o ]
/tmp/_gbstools/gbdk/lib/gb/gb.lib         [ sgb.o ]
/tmp/_gbstools/gbdk/lib/gb/gb.lib         [ lcd.o ]
/tmp/_gbstools/gbdk/lib/gb/gb.lib         [ fill_rect.o ]
/tmp/_gbstools/gbdk/lib/gb/gb.lib         [ pad_ex.o ]
/tmp/_gbstools/gbdk/lib/gb/gb.lib         [ cpy_data.o ]
/tmp/_gbstools/gbdk/lib/gb/gb.lib         [ fill_rect_bk.o ]
/tmp/_gbstools/gbdk/lib/gb/gb.lib         [ metasprites.o ]
/tmp/_gbstools/gbdk/lib/sm83/sm83.lib     [ __sdcc_call_hl.o ]
/tmp/_gbstools/gbdk/lib/sm83/sm83.lib     [ memcpy.o ]
/tmp/_gbstools/gbdk/lib/sm83/sm83.lib     [ _memset.o ]
/tmp/_gbstools/gbdk/lib/gb/gb.lib         [ set_xy_t.o ]
/tmp/_gbstools/gbdk/lib/gb/gb.lib         [ ___sdcc_bcall_ehl.o ]
/tmp/_gbstools/gbdk/lib/gb/gb.lib         [ cgb.o ]
/tmp/_gbstools/gbdk/lib/sm83/sm83.lib     [ div.o ]
/tmp/_gbstools/gbdk/lib/gb/gb.lib         [ set_bk_t.o ]

ASxxxx Linker V03.00/V05.40 + sdld,  page 114.

User Base Address Definitions

_DATA=0xC0A0
_CODE=0x0200
ASxxxx Linker V03.00/V05.40 + sdld,  page 115.

User Global Definitions

.STACK=0xDF00
_shadow_OAM=0xC000
.refresh_OAM=0xFF80
__start_save=28

