ASxxxx Linker V03.00/V05.40 + sdld,  page 1.
Hexadecimal  [32-Bits]

Area                                    Addr        Size        Decimal Bytes (Attributes)
--------------------------------        ----        ----        ------- ----- ------------
.  .ABS.                            00000000    00000000 =           0. bytes (ABS,CON)

      Value  Global                              Global Defined In Module
      -----  --------------------------------   ------------------------
     00000000  .__.ABS.                           
     00000000  _rRAMG                             
     00000000  l__BASE                         
     00000000  l__BSS                          
     00000000  l__CABS                         
     00000000  l__CODE_0                       
     00000000  l__CRASH_HEADER                 
     00000000  l__CRASH_SCRATCH                
     00000000  l__DABS                         
     00000000  l__HEADER                       
     00000000  l__HEADER_LCD                   
     00000000  l__HEADER_SIO                   
     00000000  l__HEADER_TIMER                 
     00000000  l__HEAP                         
     00000000  l__HEAP_END                     
     00000000  l__HRAM                         
     00000000  l__LIT                          
     00000000  s__CABS                         
     00000000  s__CRASH_HEADER                 
     00000000  s__CRASH_HEADER0                
     00000000  s__CRASH_HEADER1                
     00000000  s__CRASH_SCRATCH                
     00000000  s__CRASH_SCRATCH2               
     00000000  s__DABS                         
     00000000  s__HEADER                       
     00000000  s__HEADER0                      
     00000000  s__HEADER1                      
     00000000  s__HEADER10                     
     00000000  s__HEADER11                     
     00000000  s__HEADER2                      
     00000000  s__HEADER3                      
     00000000  s__HEADER4                      
     00000000  s__HEADER5                      
     00000000  s__HEADER6                      
     00000000  s__HEADER7                      
     00000000  s__HEADER8                      
     00000000  s__HEADER9                      
     00000000  s__HEADER_LCD                   
     00000000  s__HEADER_LCD0                  
     00000000  s__HEADER_SIO                   
     00000000  s__HEADER_SIO0                  
     00000000  s__HEADER_TIMER                 
     00000000  s__HEADER_TIMER0                
     00000000  s__HEADERa                      
     00000000  s__HEADERb                      
     00000000  s__HEADERc                      
     00000000  s__HEADERd                      
     00000000  s__HEADERe                      
     00000000  s__HEADERf                      
     00000000  s__HRAM                         
ASxxxx Linker V03.00/V05.40 + sdld,  page 2.
Hexadecimal  [32-Bits]

Area                                    Addr        Size        Decimal Bytes (Attributes)
--------------------------------        ----        ----        ------- ----- ------------
.  .ABS.                            00000000    00000000 =           0. bytes (ABS,CON)

      Value  Global                              Global Defined In Module
      -----  --------------------------------   ------------------------
     00000000  s__HRAM12                       
     00000001  ___bank_VM_SGB                     vm_sgb
     00000001  ___bank_bg_elevator_tileset        bg_elevator_tileset
     00000001  ___bank_bg_lencityopen_copy_0_ti   bg_lencityopen_copy_0_tilema
     00000001  ___bank_bg_lencityopen_tilemap_a   bg_lencityopen_tilemap_attr
     00000001  b_ui_draw_frame                    ui
     00000001  b_ui_draw_text_buffer_char         ui
     00000001  b_ui_init                          ui
     00000001  b_ui_load_tiles                    ui
     00000001  b_ui_run_menu                      ui
     00000001  b_ui_run_modal                     ui
     00000001  b_ui_set_start_tile                ui
     00000001  l__GSFINAL                      
     00000001  l__HEADER0                      
     00000001  l__HEADER5                      
     00000001  l__HEADERa                      
     00000001  l__HEADERb                      
     00000001  l__HEADERc                      
     00000001  l__HEADERe                      
     00000001  l__HEADERf                      
     00000002  ___bank_bg_controls_gb_copy__til   bg_controls_gb_copy__tileset
     00000002  ___bank_bg_lair_right_tilemap_at   bg_lair_right_tilemap_attr
     00000002  ___bank_bg_lencityopen_tilemap     bg_lencityopen_tilemap
     00000002  ___bank_scene_101_sprites          scene_101_sprites
     00000002  ___bank_script_input_7             script_input_7
     00000002  l__HEADER10                     
     00000002  l__HEADER6                      
     00000002  l__HEADERd                      
     00000003  ___bank_bg_controls_gba_copy__ti   bg_controls_gba_copy__tilese
     00000003  ___bank_bg_lair_right_tilemap      bg_lair_right_tilemap
     00000003  ___bank_scene_101_collisions       scene_101_collisions
     00000003  ___bank_scene_93_sprites           scene_93_sprites
     00000003  l__HEADER9                      
     00000003  l__HEADER_LCD0                  
     00000003  l__HRAM12                       
     00000004  ___bank_bg_controls_gba_copy_0_t   bg_controls_gba_copy_0_tiles
     00000004  ___bank_scene_18_collisions        scene_18_collisions
     00000004  ___bank_scene_65_collisions        scene_65_collisions
     00000004  ___bank_scene_94_sprites           scene_94_sprites
     00000004  l__CRASH_HEADER1                
     00000004  l__HEADER_SIO0                  
     00000004  l__HEADER_TIMER0                
     00000005  ___bank_bg_controls_gbc_copy__ti   bg_controls_gbc_copy__tilese
     00000005  ___bank_bg_init_copy_1_tileset     bg_init_copy_1_tileset
     00000005  ___bank_scene_34_collisions        scene_34_collisions
     00000005  ___bank_scene_75_init              scene_75_init
     00000005  l__CRASH_HEADER0                
     00000005  l__HEADER1                      
     00000006  ___bank_bg_controls_mobile_copy_   bg_controls_mobile_copy__til
     00000006  ___bank_bg_lencityopen_copy__til   bg_lencityopen_copy__tileset
     00000006  ___bank_scene_58_collisions        scene_58_collisions
ASxxxx Linker V03.00/V05.40 + sdld,  page 3.
Hexadecimal  [32-Bits]

Area                                    Addr        Size        Decimal Bytes (Attributes)
--------------------------------        ----        ----        ------- ----- ------------
.  .ABS.                            00000000    00000000 =           0. bytes (ABS,CON)

      Value  Global                              Global Defined In Module
      -----  --------------------------------   ------------------------
     00000006  ___bank_scene_86_init              scene_86_init
     00000006  l__HEADER8                      
     00000007  ___bank_bg_controls_mobile_copy_   bg_controls_mobile_copy_0_ti
     00000007  ___bank_scene_50_init              scene_50_init
     00000007  ___bank_scene_62_collisions        scene_62_collisions
     00000007  ___bank_scene_7_init               scene_7_init
     00000007  l__HEADER2                      
     00000008  ___bank_SGB_border_chr             border
     00000008  ___bank_SGB_border_map             border
     00000008  ___bank_SGB_border_pal             border
     00000008  ___bank_bg_options_copy__tileset   bg_options_copy__tileset
     00000008  ___bank_bg_placeholder_copy_copy   bg_placeholder_copy_copy_co_
     00000008  ___bank_script_timer_4             script_timer_4
     00000008  l__HEADER3                      
     00000009  ___bank_bg_announcer_tilemap_att   bg_announcer_tilemap_attr
     00000009  ___bank_bg_shillycityopen_copy_1   bg_shillycityopen_copy_1_til
     00000009  ___bank_bg_title_tileset           bg_title_tileset
     00000009  ___bank_cursor_image               cursor_image
     00000009  b_platform_init                    platform
     00000009  b_platform_update                  platform
     0000000A  ___bank_ACTOR                      actor
     0000000A  ___bank_VM_ACTOR                   vm_actor
     0000000A  ___bank_bg_shillycityopen_copy_1   bg_shillycityopen_copy_1_til
     0000000A  ___bank_bg_title_copy__tileset     bg_title_copy__tileset
     0000000A  ___bank_scene_18_sprites           scene_18_sprites
     0000000A  b_activate_actor                   actor
     0000000A  b_activate_actors_in_col           actor
     0000000A  b_activate_actors_in_row           actor
     0000000A  b_actor_at_tile                    actor
     0000000A  b_actor_get_frame_offset           actor
     0000000A  b_actor_in_front_of_player         actor
     0000000A  b_actor_overlapping_bb             actor
     0000000A  b_actor_overlapping_player         actor
     0000000A  b_actor_set_anim_idle              actor
     0000000A  b_actor_set_anim_moving            actor
     0000000A  b_actor_set_dir                    actor
     0000000A  b_actor_set_frame_offset           actor
     0000000A  b_actor_set_frames                 actor
     0000000A  b_actors_handle_player_collision   actor
     0000000A  b_actors_init                      actor
     0000000A  b_check_collision_in_direction     actor
     0000000A  b_deactivate_actor                 actor
     0000000A  b_player_init                      actor
     0000000A  b_vm_actor_activate                vm_actor
     0000000A  b_vm_actor_begin_update            vm_actor
     0000000A  b_vm_actor_deactivate              vm_actor
     0000000A  b_vm_actor_emote                   vm_actor
     0000000A  b_vm_actor_get_angle               vm_actor
     0000000A  b_vm_actor_get_anim_frame          vm_actor
     0000000A  b_vm_actor_get_dir                 vm_actor
     0000000A  b_vm_actor_get_pos                 vm_actor
ASxxxx Linker V03.00/V05.40 + sdld,  page 4.
Hexadecimal  [32-Bits]

Area                                    Addr        Size        Decimal Bytes (Attributes)
--------------------------------        ----        ----        ------- ----- ------------
.  .ABS.                            00000000    00000000 =           0. bytes (ABS,CON)

      Value  Global                              Global Defined In Module
      -----  --------------------------------   ------------------------
     0000000A  b_vm_actor_move_cancel             vm_actor
     0000000A  b_vm_actor_move_to                 vm_actor
     0000000A  b_vm_actor_replace_tile            vm_actor
     0000000A  b_vm_actor_set_anim                vm_actor
     0000000A  b_vm_actor_set_anim_frame          vm_actor
     0000000A  b_vm_actor_set_anim_set            vm_actor
     0000000A  b_vm_actor_set_anim_tick           vm_actor
     0000000A  b_vm_actor_set_bounds              vm_actor
     0000000A  b_vm_actor_set_dir                 vm_actor
     0000000A  b_vm_actor_set_flags               vm_actor
     0000000A  b_vm_actor_set_move_speed          vm_actor
     0000000A  b_vm_actor_set_pos                 vm_actor
     0000000A  b_vm_actor_set_spritesheet         vm_actor
     0000000A  b_vm_actor_set_spritesheet_by_re   vm_actor
     0000000A  b_vm_actor_terminate_update        vm_actor
     0000000B  ___bank_VM_MAIN                    vm
     0000000B  ___bank_bg_lencityopen_copy_0_ti   bg_lencityopen_copy_0_tilema
     0000000B  ___bank_bg_pixil_frame_0_24_tile   bg_pixil_frame_0_24_tileset
     0000000B  ___bank_font_gbs_variable_width    font_gbs_variable_width
     0000000B  ___bank_scene_15_triggers          scene_15_triggers
     0000000B  ___bank_scene_99_collisions        scene_99_collisions
     0000000B  b_script_detach_hthread            vm
     0000000B  b_script_execute                   vm
     0000000B  b_script_runner_init               vm
     0000000B  b_script_terminate                 vm
     0000000B  b_vm_call                          vm
     0000000B  b_vm_call_far                      vm
     0000000B  b_vm_get_indirect                  vm
     0000000B  b_vm_get_tlocal                    vm
     0000000B  b_vm_idle                          vm
     0000000B  b_vm_if                            vm
     0000000B  b_vm_if_const                      vm
     0000000B  b_vm_init_rng                      vm
     0000000B  b_vm_invoke                        vm
     0000000B  b_vm_join                          vm
     0000000B  b_vm_jump                          vm
     0000000B  b_vm_lock                          vm
     0000000B  b_vm_loop                          vm
     0000000B  b_vm_memcpy                        vm
     0000000B  b_vm_memset                        vm
     0000000B  b_vm_poll_loaded                   vm
     0000000B  b_vm_pop                           vm
     0000000B  b_vm_push                          vm
     0000000B  b_vm_push_reference                vm
     0000000B  b_vm_push_value                    vm
     0000000B  b_vm_push_value_ind                vm
     0000000B  b_vm_raise                         vm
     0000000B  b_vm_rand                          vm
     0000000B  b_vm_reserve                       vm
     0000000B  b_vm_ret                           vm
     0000000B  b_vm_ret_far                       vm
ASxxxx Linker V03.00/V05.40 + sdld,  page 5.
Hexadecimal  [32-Bits]

Area                                    Addr        Size        Decimal Bytes (Attributes)
--------------------------------        ----        ----        ------- ----- ------------
.  .ABS.                            00000000    00000000 =           0. bytes (ABS,CON)

      Value  Global                              Global Defined In Module
      -----  --------------------------------   ------------------------
     0000000B  b_vm_set                           vm
     0000000B  b_vm_set_const                     vm
     0000000B  b_vm_set_indirect                  vm
     0000000B  b_vm_terminate                     vm
     0000000B  b_vm_test_terminate                vm
     0000000B  b_vm_unlock                        vm
     0000000B  b_wait_frames                      vm
     0000000C  ___bank_bg_endingscene2_tileset    bg_endingscene2_tileset
     0000000C  ___bank_bg_pixil_frame_0_31_tile   bg_pixil_frame_0_31_tilemap
     0000000C  ___bank_bg_pixil_frame_0_31_tile   bg_pixil_frame_0_31_tilemap_
     0000000C  ___bank_scene_31_collisions        scene_31_collisions
     0000000C  ___bank_scene_46_p_hit1            scene_46_p_hit1
     0000000C  ___bank_scene_52_collisions        scene_52_collisions
     0000000C  ___bank_scene_53_collisions        scene_53_collisions
     0000000D  ___bank_bg_lencityopen_copy__til   bg_lencityopen_copy__tilemap
     0000000D  ___bank_bg_lencityopen_copy__til   bg_lencityopen_copy__tilemap
     0000000D  ___bank_bg_placeholder_copy_copy   bg_placeholder_copy_copy_co_
     0000000D  ___bank_scene_47_collisions        scene_47_collisions
     0000000D  ___bank_scene_70_init              scene_70_init
     0000000D  ___bank_scene_86_collisions        scene_86_collisions
     0000000D  b_adventure_init                   adventure
     0000000D  b_adventure_update                 adventure
     0000000D  b_do_load_palette                  data_manager
     0000000D  b_load_background                  data_manager
     0000000D  b_load_bkg_tileset                 data_manager
     0000000D  b_load_bounds                      data_manager
     0000000D  b_load_emote                       data_manager
     0000000D  b_load_init                        data_manager
     0000000D  b_load_player                      data_manager
     0000000D  b_load_scene                       data_manager
     0000000D  b_load_sprite                      data_manager
     0000000E  ___bank_VM_UI                      vm_ui
     0000000E  ___bank_bg_dhilly_game_1_tileset   bg_dhilly_game_1_tileset
     0000000E  ___bank_bg_endingscene_tileset     bg_endingscene_tileset
     0000000E  ___bank_bg_pixil_frame_0_31_tile   bg_pixil_frame_0_31_tileset
     0000000E  ___bank_scene_17_sprites           scene_17_sprites
     0000000E  ___bank_scene_46_init              scene_46_init
     0000000E  ___bank_scene_52_init              scene_52_init
     0000000E  ___bank_trigger_61_interact        trigger_61_interact
     0000000E  b_shmup_init                       shmup
     0000000E  b_shmup_update                     shmup
     0000000E  b_vm_choice                        vm_ui
     0000000E  b_vm_display_text                  vm_ui
     0000000E  b_vm_overlay_clear                 vm_ui
     0000000E  b_vm_overlay_move_to               vm_ui
     0000000E  b_vm_overlay_scroll                vm_ui
     0000000E  b_vm_overlay_set_map               vm_ui
     0000000E  b_vm_overlay_set_scroll            vm_ui
     0000000E  b_vm_overlay_set_submap            vm_ui
     0000000E  b_vm_overlay_set_submap_ex         vm_ui
     0000000E  b_vm_overlay_setpos                vm_ui
ASxxxx Linker V03.00/V05.40 + sdld,  page 6.
Hexadecimal  [32-Bits]

Area                                    Addr        Size        Decimal Bytes (Attributes)
--------------------------------        ----        ----        ------- ----- ------------
.  .ABS.                            00000000    00000000 =           0. bytes (ABS,CON)

      Value  Global                              Global Defined In Module
      -----  --------------------------------   ------------------------
     0000000E  b_vm_overlay_show                  vm_ui
     0000000E  b_vm_overlay_wait                  vm_ui
     0000000E  b_vm_set_font                      vm_ui
     0000000E  b_vm_set_text_sound                vm_ui
     0000000E  b_vm_switch_text_layer             vm_ui
     0000000F  ___bank_bg_dhilly_game_11_tilese   bg_dhilly_game_11_tileset
     0000000F  ___bank_bg_dhilly_game_8_tileset   bg_dhilly_game_8_tileset
     0000000F  ___bank_bg_fieldlazy_tilemap       bg_fieldlazy_tilemap
     0000000F  ___bank_bg_fieldlazy_tilemap_att   bg_fieldlazy_tilemap_attr
     0000000F  ___bank_bg_pixil_frame_23_0_tile   bg_pixil_frame_23_0_tilemap_
     0000000F  ___bank_scene_48_p_hit1            scene_48_p_hit1
     0000000F  ___bank_scene_49_collisions        scene_49_collisions
     0000000F  ___bank_scene_61_init              scene_61_init
     0000000F  ___bank_trigger_1_interact         trigger_1_interact
     0000000F  b_scroll_init                      scroll
     0000000F  b_scroll_repaint                   scroll
     0000000F  b_scroll_reset                     scroll
     0000000F  b_scroll_update                    scroll
     00000010  ___bank_VM_GAMEBOY                 vm_gameboy
     00000010  ___bank_bg_cave_ladder_copy__til   bg_cave_ladder_copy__tilemap
     00000010  ___bank_bg_dhillyhubdown_tileset   bg_dhillyhubdown_tileset
     00000010  ___bank_bg_endingscene_0_tileset   bg_endingscene_0_tileset
     00000010  ___bank_bg_intro_scenary_copy__t   bg_intro_scenary_copy__tilem
     00000010  ___bank_bg_pixil_frame_23_0_tile   bg_pixil_frame_23_0_tilemap
     00000010  ___bank_bg_title_copy_2_tileset    bg_title_copy_2_tileset
     00000010  ___bank_scene_22_init              scene_22_init
     00000010  ___bank_scene_28_collisions        scene_28_collisions
     00000010  ___bank_scene_34_init              scene_34_init
     00000010  b_topdown_init                     topdown
     00000010  b_topdown_update                   topdown
     00000010  b_vm_context_prepare               vm_gameboy
     00000010  b_vm_fade                          vm_gameboy
     00000010  b_vm_get_tile_xy                   vm_gameboy
     00000010  b_vm_input_attach                  vm_gameboy
     00000010  b_vm_input_detach                  vm_gameboy
     00000010  b_vm_input_get                     vm_gameboy
     00000010  b_vm_input_wait                    vm_gameboy
     00000010  b_vm_load_tileset                  vm_gameboy
     00000010  b_vm_poll                          vm_gameboy
     00000010  b_vm_replace_tile                  vm_gameboy
     00000010  b_vm_replace_tile_xy               vm_gameboy
     00000010  b_vm_rumble                        vm_gameboy
     00000010  b_vm_set_sprite_mode               vm_gameboy
     00000010  b_vm_set_sprites_visible           vm_gameboy
     00000010  b_vm_timer_prepare                 vm_gameboy
     00000010  b_vm_timer_reset                   vm_gameboy
     00000010  b_vm_timer_set                     vm_gameboy
     00000010  b_vm_timer_stop                    vm_gameboy
     00000011  ___bank_bg_announcer               bg_announcer
     00000011  ___bank_bg_cave_ladder_copy_0_ti   bg_cave_ladder_copy_0_tilema
     00000011  ___bank_bg_cave_ladder_copy_0_ti   bg_cave_ladder_copy_0_tilema
ASxxxx Linker V03.00/V05.40 + sdld,  page 7.
Hexadecimal  [32-Bits]

Area                                    Addr        Size        Decimal Bytes (Attributes)
--------------------------------        ----        ----        ------- ----- ------------
.  .ABS.                            00000000    00000000 =           0. bytes (ABS,CON)

      Value  Global                              Global Defined In Module
      -----  --------------------------------   ------------------------
     00000011  ___bank_bg_chase_shilly_tilemap    bg_chase_shilly_tilemap
     00000011  ___bank_bg_chase_shilly_tilemap_   bg_chase_shilly_tilemap_attr
     00000011  ___bank_bg_intro_scenary_copy__t   bg_intro_scenary_copy__tilem
     00000011  ___bank_bg_lair_left_3_tileset     bg_lair_left_3_tileset
     00000011  ___bank_bg_pixil_frame_0_33_tile   bg_pixil_frame_0_33_tilemap_
     00000011  ___bank_scene_17_collisions        scene_17_collisions
     00000011  ___bank_scene_55_collisions        scene_55_collisions
     00000011  ___bank_scene_88_collisions        scene_88_collisions
     00000011  ___bank_scene_90_collisions        scene_90_collisions
     00000011  ___bank_scene_99_init              scene_99_init
     00000012  ___bank_bg_cave_ladder_copy__til   bg_cave_ladder_copy__tilemap
     00000012  ___bank_bg_fall_to_shilly_area_c   bg_fall_to_shilly_area_copy_
     00000012  ___bank_bg_fall_to_shilly_area_c   bg_fall_to_shilly_area_copy_
     00000012  ___bank_bg_init_copy_0_tilemap     bg_init_copy_0_tilemap
     00000012  ___bank_bg_init_copy_0_tilemap_a   bg_init_copy_0_tilemap_attr
     00000012  ___bank_bg_lencityopen_tileset     bg_lencityopen_tileset
     00000012  ___bank_bg_pixil_frame_0_33_tile   bg_pixil_frame_0_33_tilemap
     00000012  ___bank_scene_22_sprites           scene_22_sprites
     00000012  ___bank_scene_32_collisions        scene_32_collisions
     00000012  ___bank_scene_50_collisions        scene_50_collisions
     00000012  ___bank_scene_51_collisions        scene_51_collisions
     00000012  ___bank_scene_56_collisions        scene_56_collisions
     00000012  ___bank_scene_57_collisions        scene_57_collisions
     00000012  ___bank_scene_77_collisions        scene_77_collisions
     00000012  b_erase_flash                      
     00000012  b_save_sram_banks                  
     00000013  ___bank_actor_11_interact          actor_11_interact
     00000013  ___bank_actor_19_interact          actor_19_interact
     00000013  ___bank_actor_64_interact          actor_64_interact
     00000013  ___bank_bg_announcer_tileset       bg_announcer_tileset
     00000013  ___bank_bg_dhilly_bridge_tilemap   bg_dhilly_bridge_tilemap_att
     00000013  ___bank_bg_init_copy_2_tilemap     bg_init_copy_2_tilemap
     00000013  ___bank_bg_init_copy_2_tilemap_a   bg_init_copy_2_tilemap_attr
     00000013  ___bank_bg_init_copy__tileset      bg_init_copy__tileset
     00000013  ___bank_bg_placeholder_copy_copy   bg_placeholder_copy_copy_co_
     00000013  ___bank_bg_placeholder_copy_copy   bg_placeholder_copy_copy_co_
     00000013  ___bank_scene_91_collisions        scene_91_collisions
     00000013  ___bank_scene_91_init              scene_91_init
     00000013  ___bank_scene_93_collisions        scene_93_collisions
     00000013  ___bank_scene_94_collisions        scene_94_collisions
     00000013  b_core_reset                       core
     00000013  b_core_run                         core
     00000013  b_projectile_launch                projectiles
     00000013  b_projectiles_init                 projectiles
     00000014  ___bank_VM_CAMERA                  vm_camera
     00000014  ___bank_actor_16_interact          actor_16_interact
     00000014  ___bank_actor_6_interact           actor_6_interact
     00000014  ___bank_bg_controls_gb_copy_0_ti   bg_controls_gb_copy_0_tilema
     00000014  ___bank_bg_controls_gb_copy_0_ti   bg_controls_gb_copy_0_tilema
     00000014  ___bank_bg_dhilly_bridge_tilemap   bg_dhilly_bridge_tilemap
     00000014  ___bank_bg_dhilly_game_10_tilese   bg_dhilly_game_10_tileset
ASxxxx Linker V03.00/V05.40 + sdld,  page 8.
Hexadecimal  [32-Bits]

Area                                    Addr        Size        Decimal Bytes (Attributes)
--------------------------------        ----        ----        ------- ----- ------------
.  .ABS.                            00000000    00000000 =           0. bytes (ABS,CON)

      Value  Global                              Global Defined In Module
      -----  --------------------------------   ------------------------
     00000014  ___bank_bg_endingscene3_tileset    bg_endingscene3_tileset
     00000014  ___bank_bg_init_copy__tilemap      bg_init_copy__tilemap
     00000014  ___bank_bg_init_copy__tilemap_at   bg_init_copy__tilemap_attr
     00000014  ___bank_bg_pixil_frame_0_33_tile   bg_pixil_frame_0_33_tileset
     00000014  ___bank_scene_0_collisions         scene_0_collisions
     00000014  ___bank_scene_15_collisions        scene_15_collisions
     00000014  ___bank_scene_20_sprites           scene_20_sprites
     00000014  ___bank_scene_76_collisions        scene_76_collisions
     00000014  ___bank_scene_89_collisions        scene_89_collisions
     00000014  ___bank_script_input_6             script_input_6
     00000014  b_camera_shake_frames              vm_camera
     00000014  b_data_clear                       load_save
     00000014  b_data_init                        load_save
     00000014  b_data_load                        load_save
     00000014  b_data_peek                        load_save
     00000014  b_data_save                        load_save
     00000014  b_itoa_fmt                         vm_ui_a
     00000014  b_vm_camera_move_to                vm_camera
     00000014  b_vm_camera_set_pos                vm_camera
     00000015  ___bank_VM_SIO                     vm_sio
     00000015  ___bank_bg_cave_ladder_copy_       bg_cave_ladder_copy_
     00000015  ___bank_bg_chase_shilly_tileset    bg_chase_shilly_tileset
     00000015  ___bank_bg_dhilly_game_9_tileset   bg_dhilly_game_9_tileset
     00000015  ___bank_bg_lair_right_5_tileset    bg_lair_right_5_tileset
     00000015  ___bank_bg_pixil_frame_0_24_tile   bg_pixil_frame_0_24_tilemap
     00000015  ___bank_bg_pixil_frame_0_24_tile   bg_pixil_frame_0_24_tilemap_
     00000015  ___bank_bg_pixil_frame_0_30_tile   bg_pixil_frame_0_30_tilemap
     00000015  ___bank_bg_pixil_frame_0_30_tile   bg_pixil_frame_0_30_tilemap_
     00000015  ___bank_bg_pixil_frame_0_copy_co   bg_pixil_frame_0_copy_copy__
     00000015  ___bank_bg_pixil_frame_23_0_tile   bg_pixil_frame_23_0_tileset
     00000015  ___bank_bg_shillycityopen_copy__   bg_shillycityopen_copy__tile
     00000015  ___bank_scene_27_init              scene_27_init
     00000015  ___bank_scene_29_collisions        scene_29_collisions
     00000015  ___bank_scene_30_collisions        scene_30_collisions
     00000015  ___bank_script_input_3             script_input_3
     00000015  b___HandleCrash_banked             
     00000015  b_atan2                            math_atan2
     00000015  b_gbprinter_detect                 gbprinter
     00000015  b_gbprinter_print_overlay          gbprinter
     00000015  b_pointnclick_init                 pointnclick
     00000015  b_pointnclick_update               pointnclick
     00000015  b_trigger_activate_at              trigger
     00000015  b_trigger_activate_at_intersecti   trigger
     00000015  b_trigger_at_intersection          trigger
     00000015  b_trigger_at_tile                  trigger
     00000015  b_trigger_interact                 trigger
     00000015  b_trigger_reset                    trigger
     00000015  b_vm_sio_exchange                  vm_sio
     00000015  b_vm_sio_set_mode                  vm_sio
     00000016  ___bank_VM_PALETTE                 vm_palette
     00000016  ___bank_avatar_font_0              avatar_font_0
ASxxxx Linker V03.00/V05.40 + sdld,  page 9.
Hexadecimal  [32-Bits]

Area                                    Addr        Size        Decimal Bytes (Attributes)
--------------------------------        ----        ----        ------- ----- ------------
.  .ABS.                            00000000    00000000 =           0. bytes (ABS,CON)

      Value  Global                              Global Defined In Module
      -----  --------------------------------   ------------------------
     00000016  ___bank_bg_cave_ladder_copy_0      bg_cave_ladder_copy_0
     00000016  ___bank_bg_cinema_tilemap          bg_cinema_tilemap
     00000016  ___bank_bg_cinema_tilemap_attr     bg_cinema_tilemap_attr
     00000016  ___bank_bg_fieldlazy_tileset       bg_fieldlazy_tileset
     00000016  ___bank_bg_iceos_desktop_copy__t   bg_iceos_desktop_copy__tiles
     00000016  ___bank_bg_iceos_login_2_copy__t   bg_iceos_login_2_copy__tiles
     00000016  ___bank_bg_lair_right_tileset      bg_lair_right_tileset
     00000016  ___bank_bg_pixil_frame_0_23_tile   bg_pixil_frame_0_23_tileset
     00000016  ___bank_bg_samsam_copy_tileset     bg_samsam_copy_tileset
     00000016  ___bank_bg_shillycity_sara_house   bg_shillycity_sara_house_co_
     00000016  ___bank_bg_shillycityopen_copy_0   bg_shillycityopen_copy_0_til
     00000016  ___bank_bg_shillycityopen_copy_0   bg_shillycityopen_copy_0_til
     00000016  ___bank_bg_shillycityopen_copy_1   bg_shillycityopen_copy_1_til
     00000016  ___bank_bg_square_frozen_future_   bg_square_frozen_future_tile
     00000016  ___bank_bg_theatre_tilemap         bg_theatre_tilemap
     00000016  ___bank_bg_theatre_tilemap_attr    bg_theatre_tilemap_attr
     00000016  ___bank_bg_theatre_tileset         bg_theatre_tileset
     00000016  ___bank_bg_title_copy_0_tileset    bg_title_copy_0_tileset
     00000016  ___bank_scene_14_init              scene_14_init
     00000016  ___bank_scene_46_collisions        scene_46_collisions
     00000016  ___bank_scene_48_collisions        scene_48_collisions
     00000016  ___bank_scene_63_collisions        scene_63_collisions
     00000016  ___bank_sprite_pixelperfectvoti_   sprite_pixelperfectvoti_cop_
     00000016  ___bank_sprite_pixelperfectvoti_   sprite_pixelperfectvoti_tile
     00000016  ___bank_trigger_81_interact        trigger_81_interact
     00000016  ___bank_trigger_95_interact        trigger_95_interact
     00000016  b_fade_applypalettechange          fade_manager
     00000016  b_fade_in                          fade_manager
     00000016  b_fade_in_modal                    fade_manager
     00000016  b_fade_init                        fade_manager
     00000016  b_fade_out                         fade_manager
     00000016  b_fade_out_modal                   fade_manager
     00000016  b_fade_setspeed                    fade_manager
     00000016  b_fade_update                      fade_manager
     00000016  b_set_sgb_border                   sgb_border
     00000016  b_vm_load_palette                  vm_palette
     00000017  ___bank_actor_25_interact          actor_25_interact
     00000017  ___bank_bg_announcer_tilemap       bg_announcer_tilemap
     00000017  ___bank_bg_controls_gb_copy__til   bg_controls_gb_copy__tilemap
     00000017  ___bank_bg_controls_gb_copy__til   bg_controls_gb_copy__tilemap
     00000017  ___bank_bg_controls_gba_copy_0_t   bg_controls_gba_copy_0_tilem
     00000017  ___bank_bg_controls_gba_copy_0_t   bg_controls_gba_copy_0_tilem
     00000017  ___bank_bg_controls_gba_copy__ti   bg_controls_gba_copy__tilema
     00000017  ___bank_bg_controls_gba_copy__ti   bg_controls_gba_copy__tilema
     00000017  ___bank_bg_controls_gbc_copy__ti   bg_controls_gbc_copy__tilema
     00000017  ___bank_bg_controls_gbc_copy__ti   bg_controls_gbc_copy__tilema
     00000017  ___bank_bg_controls_mobile_copy_   bg_controls_mobile_copy_0_ti
     00000017  ___bank_bg_controls_mobile_copy_   bg_controls_mobile_copy_0_ti
     00000017  ___bank_bg_controls_mobile_copy_   bg_controls_mobile_copy__til
     00000017  ___bank_bg_controls_mobile_copy_   bg_controls_mobile_copy__til
     00000017  ___bank_bg_dhilly_game_10_tilema   bg_dhilly_game_10_tilemap
ASxxxx Linker V03.00/V05.40 + sdld,  page 10.
Hexadecimal  [32-Bits]

Area                                    Addr        Size        Decimal Bytes (Attributes)
--------------------------------        ----        ----        ------- ----- ------------
.  .ABS.                            00000000    00000000 =           0. bytes (ABS,CON)

      Value  Global                              Global Defined In Module
      -----  --------------------------------   ------------------------
     00000017  ___bank_bg_dhilly_game_10_tilema   bg_dhilly_game_10_tilemap_at
     00000017  ___bank_bg_dhilly_game_11_tilema   bg_dhilly_game_11_tilemap
     00000017  ___bank_bg_dhilly_game_11_tilema   bg_dhilly_game_11_tilemap_at
     00000017  ___bank_bg_dhilly_game_1_tilemap   bg_dhilly_game_1_tilemap
     00000017  ___bank_bg_dhilly_game_1_tilemap   bg_dhilly_game_1_tilemap_att
     00000017  ___bank_bg_dhilly_game_4_tilemap   bg_dhilly_game_4_tilemap
     00000017  ___bank_bg_dhilly_game_4_tilemap   bg_dhilly_game_4_tilemap_att
     00000017  ___bank_bg_dhilly_game_5_tilemap   bg_dhilly_game_5_tilemap
     00000017  ___bank_bg_dhilly_game_5_tilemap   bg_dhilly_game_5_tilemap_att
     00000017  ___bank_bg_dhilly_game_5_tileset   bg_dhilly_game_5_tileset
     00000017  ___bank_bg_dhilly_game_8_tilemap   bg_dhilly_game_8_tilemap_att
     00000017  ___bank_bg_lair_right_3_tileset    bg_lair_right_3_tileset
     00000017  ___bank_bg_lencity_trainstation_   bg_lencity_trainstation_cop_
     00000017  ___bank_bg_lencity_trainstation_   bg_lencity_trainstation_tile
     00000017  ___bank_bg_lencity_trainstation_   bg_lencity_trainstation_tile
     00000017  ___bank_bg_pixil_frame_0_30_tile   bg_pixil_frame_0_30_tileset
     00000017  ___bank_bg_shillycityopen_copy_0   bg_shillycityopen_copy_0_til
     00000017  ___bank_bg_square_frozen_future_   bg_square_frozen_future_tile
     00000017  ___bank_bg_square_frozen_future_   bg_square_frozen_future_tile
     00000017  ___bank_scene_19_collisions        scene_19_collisions
     00000017  ___bank_scene_20_collisions        scene_20_collisions
     00000017  ___bank_scene_27_collisions        scene_27_collisions
     00000017  ___bank_scene_35_collisions        scene_35_collisions
     00000017  ___bank_scene_45_collisions        scene_45_collisions
     00000017  ___bank_scene_54_init              scene_54_init
     00000017  ___bank_scene_94_init              scene_94_init
     00000017  ___bank_scene_97_init              scene_97_init
     00000017  ___bank_trigger_121_interact       trigger_121_interact
     00000018  ___bank_bg_dhilly_game_8_tilemap   bg_dhilly_game_8_tilemap
     00000018  ___bank_bg_dhilly_game_9_tilemap   bg_dhilly_game_9_tilemap
     00000018  ___bank_bg_dhilly_game_9_tilemap   bg_dhilly_game_9_tilemap_att
     00000018  ___bank_bg_dhillyhubdown_tilemap   bg_dhillyhubdown_tilemap
     00000018  ___bank_bg_dhillyhubdown_tilemap   bg_dhillyhubdown_tilemap_att
     00000018  ___bank_bg_elevator_tilemap        bg_elevator_tilemap
     00000018  ___bank_bg_elevator_tilemap_attr   bg_elevator_tilemap_attr
     00000018  ___bank_bg_endingscene2_tilemap    bg_endingscene2_tilemap
     00000018  ___bank_bg_endingscene2_tilemap_   bg_endingscene2_tilemap_attr
     00000018  ___bank_bg_endingscene3_tilemap    bg_endingscene3_tilemap
     00000018  ___bank_bg_endingscene3_tilemap_   bg_endingscene3_tilemap_attr
     00000018  ___bank_bg_endingscene_0_tilemap   bg_endingscene_0_tilemap
     00000018  ___bank_bg_endingscene_0_tilemap   bg_endingscene_0_tilemap_att
     00000018  ___bank_bg_endingscene_tilemap     bg_endingscene_tilemap
     00000018  ___bank_bg_endingscene_tilemap_a   bg_endingscene_tilemap_attr
     00000018  ___bank_bg_iceos_desktop_copy__t   bg_iceos_desktop_copy__tilem
     00000018  ___bank_bg_iceos_desktop_copy__t   bg_iceos_desktop_copy__tilem
     00000018  ___bank_bg_iceos_login_2_copy__t   bg_iceos_login_2_copy__tilem
     00000018  ___bank_bg_iceos_login_2_copy__t   bg_iceos_login_2_copy__tilem
     00000018  ___bank_bg_iceos_login_copy__til   bg_iceos_login_copy__tilemap
     00000018  ___bank_bg_iceos_login_copy__til   bg_iceos_login_copy__tilemap
     00000018  ___bank_bg_iceos_platformer2_cop   bg_iceos_platformer2_copy__t
     00000018  ___bank_bg_iceos_platformer2_cop   bg_iceos_platformer2_copy__t
ASxxxx Linker V03.00/V05.40 + sdld,  page 11.
Hexadecimal  [32-Bits]

Area                                    Addr        Size        Decimal Bytes (Attributes)
--------------------------------        ----        ----        ------- ----- ------------
.  .ABS.                            00000000    00000000 =           0. bytes (ABS,CON)

      Value  Global                              Global Defined In Module
      -----  --------------------------------   ------------------------
     00000018  ___bank_bg_iceos_platformer3_cop   bg_iceos_platformer3_copy__t
     00000018  ___bank_bg_iceos_platformer3_cop   bg_iceos_platformer3_copy__t
     00000018  ___bank_bg_iceos_platformer4_til   bg_iceos_platformer4_tilemap
     00000018  ___bank_bg_iceos_platformer4_til   bg_iceos_platformer4_tilemap
     00000018  ___bank_bg_iceos_platformer4_til   bg_iceos_platformer4_tileset
     00000018  ___bank_bg_init_copy_1_tilemap     bg_init_copy_1_tilemap
     00000018  ___bank_bg_init_copy_1_tilemap_a   bg_init_copy_1_tilemap_attr
     00000018  ___bank_bg_intro_weather_copy__t   bg_intro_weather_copy__tilem
     00000018  ___bank_bg_intro_weather_copy__t   bg_intro_weather_copy__tilem
     00000018  ___bank_bg_lair_hub_tilemap        bg_lair_hub_tilemap
     00000018  ___bank_bg_lair_hub_tilemap_attr   bg_lair_hub_tilemap_attr
     00000018  ___bank_bg_lair_left_2_copy__til   bg_lair_left_2_copy__tilemap
     00000018  ___bank_bg_lair_left_2_copy__til   bg_lair_left_2_copy__tilemap
     00000018  ___bank_bg_lair_left_2_tilemap     bg_lair_left_2_tilemap
     00000018  ___bank_bg_lair_left_2_tilemap_a   bg_lair_left_2_tilemap_attr
     00000018  ___bank_bg_lair_left_3_tilemap     bg_lair_left_3_tilemap
     00000018  ___bank_bg_lair_left_3_tilemap_a   bg_lair_left_3_tilemap_attr
     00000018  ___bank_bg_lair_right_2_copy__ti   bg_lair_right_2_copy__tilema
     00000018  ___bank_bg_lair_right_2_copy__ti   bg_lair_right_2_copy__tilema
     00000018  ___bank_bg_lair_right_2_tilemap    bg_lair_right_2_tilemap
     00000018  ___bank_bg_lair_right_2_tilemap_   bg_lair_right_2_tilemap_attr
     00000018  ___bank_bg_lair_right_3_copy__ti   bg_lair_right_3_copy__tilema
     00000018  ___bank_bg_lair_right_3_copy__ti   bg_lair_right_3_copy__tilema
     00000018  ___bank_scene_45_sprites           scene_45_sprites
     00000019  ___bank_bg_lair_right_3_copy__ti   bg_lair_right_3_copy__tilese
     00000019  ___bank_bg_lair_right_3_tilemap    bg_lair_right_3_tilemap
     00000019  ___bank_bg_lair_right_3_tilemap_   bg_lair_right_3_tilemap_attr
     00000019  ___bank_bg_lair_right_4_copy__ti   bg_lair_right_4_copy__tilema
     00000019  ___bank_bg_lair_right_4_copy__ti   bg_lair_right_4_copy__tilema
     00000019  ___bank_bg_lair_right_5_tilemap    bg_lair_right_5_tilemap
     00000019  ___bank_bg_lair_right_5_tilemap_   bg_lair_right_5_tilemap_attr
     00000019  ___bank_bg_lencity_dhillybuildin   bg_lencity_dhillybuilding_c_
     00000019  ___bank_bg_lencity_dhillybuildin   bg_lencity_dhillybuilding_c_
     00000019  ___bank_bg_lencity_dhillybuildin   bg_lencity_dhillybuilding_f_
     00000019  ___bank_bg_lencity_dhillybuildin   bg_lencity_dhillybuilding_f_
     00000019  ___bank_bg_lencity_trainstation_   bg_lencity_trainstation_cop_
     00000019  ___bank_bg_lencity_trainstation_   bg_lencity_trainstation_cop_
     00000019  ___bank_bg_options_copy__tilemap   bg_options_copy__tilemap
     00000019  ___bank_bg_options_copy__tilemap   bg_options_copy__tilemap_att
     00000019  ___bank_bg_pixil_frame_0_23_tile   bg_pixil_frame_0_23_tilemap
     00000019  ___bank_bg_pixil_frame_0_23_tile   bg_pixil_frame_0_23_tilemap_
     00000019  ___bank_bg_pixil_frame_0_copy_co   bg_pixil_frame_0_copy_copy__
     00000019  ___bank_bg_pixil_frame_0_copy_co   bg_pixil_frame_0_copy_copy__
     00000019  ___bank_bg_placeholder_copy_copy   bg_placeholder_copy_copy_co_
     00000019  ___bank_bg_placeholder_copy_copy   bg_placeholder_copy_copy_co_
     00000019  ___bank_bg_samsam_copy_tilemap     bg_samsam_copy_tilemap
     00000019  ___bank_bg_samsam_copy_tilemap_a   bg_samsam_copy_tilemap_attr
     00000019  ___bank_bg_shillycity_sara_house   bg_shillycity_sara_house_co_
     00000019  ___bank_bg_shillycity_sara_house   bg_shillycity_sara_house_co_
     00000019  ___bank_bg_shillycityopen_copy__   bg_shillycityopen_copy__tile
     00000019  ___bank_bg_shillycityopen_copy__   bg_shillycityopen_copy__tile
ASxxxx Linker V03.00/V05.40 + sdld,  page 12.
Hexadecimal  [32-Bits]

Area                                    Addr        Size        Decimal Bytes (Attributes)
--------------------------------        ----        ----        ------- ----- ------------
.  .ABS.                            00000000    00000000 =           0. bytes (ABS,CON)

      Value  Global                              Global Defined In Module
      -----  --------------------------------   ------------------------
     00000019  ___bank_bg_title_copy_0_tilemap    bg_title_copy_0_tilemap
     00000019  ___bank_bg_title_copy_0_tilemap_   bg_title_copy_0_tilemap_attr
     00000019  ___bank_bg_title_copy_1_tilemap    bg_title_copy_1_tilemap
     00000019  ___bank_bg_title_copy_1_tilemap_   bg_title_copy_1_tilemap_attr
     00000019  ___bank_bg_title_copy_2_tilemap    bg_title_copy_2_tilemap
     00000019  ___bank_bg_title_copy_2_tilemap_   bg_title_copy_2_tilemap_attr
     00000019  ___bank_bg_title_copy__tilemap     bg_title_copy__tilemap
     00000019  ___bank_bg_title_copy__tilemap_a   bg_title_copy__tilemap_attr
     00000019  ___bank_bg_title_tilemap           bg_title_tilemap
     00000019  ___bank_bg_title_tilemap_attr      bg_title_tilemap_attr
     00000019  ___bank_bg_wakeupsquare_1_tilema   bg_wakeupsquare_1_tilemap
     00000019  ___bank_bg_wakeupsquare_1_tilema   bg_wakeupsquare_1_tilemap_at
     00000019  ___bank_bg_wakeupsquare_3_copy__   bg_wakeupsquare_3_copy__tile
     00000019  ___bank_bg_wakeupsquare_3_copy__   bg_wakeupsquare_3_copy__tile
     00000019  ___bank_scene_100_collisions       scene_100_collisions
     00000019  ___bank_scene_10_collisions        scene_10_collisions
     00000019  ___bank_scene_11_collisions        scene_11_collisions
     00000019  ___bank_scene_12_collisions        scene_12_collisions
     00000019  ___bank_scene_1_collisions         scene_1_collisions
     00000019  ___bank_scene_46_sprites           scene_46_sprites
     0000001A  ___bank_scene_13_collisions        scene_13_collisions
     0000001A  ___bank_scene_14_collisions        scene_14_collisions
     0000001A  ___bank_scene_16_collisions        scene_16_collisions
     0000001A  ___bank_scene_19_triggers          scene_19_triggers
     0000001A  ___bank_scene_21_collisions        scene_21_collisions
     0000001A  ___bank_scene_22_collisions        scene_22_collisions
     0000001A  ___bank_scene_23_collisions        scene_23_collisions
     0000001A  ___bank_scene_23_init              scene_23_init
     0000001A  ___bank_scene_24_collisions        scene_24_collisions
     0000001A  ___bank_scene_25_collisions        scene_25_collisions
     0000001A  ___bank_scene_26_collisions        scene_26_collisions
     0000001A  ___bank_scene_2_collisions         scene_2_collisions
     0000001A  ___bank_scene_33_collisions        scene_33_collisions
     0000001A  ___bank_scene_37_collisions        scene_37_collisions
     0000001A  ___bank_scene_38_collisions        scene_38_collisions
     0000001A  ___bank_scene_39_collisions        scene_39_collisions
     0000001A  ___bank_scene_3_collisions         scene_3_collisions
     0000001A  ___bank_scene_40_collisions        scene_40_collisions
     0000001A  ___bank_scene_41_collisions        scene_41_collisions
     0000001A  ___bank_scene_42_collisions        scene_42_collisions
     0000001A  ___bank_scene_43_collisions        scene_43_collisions
     0000001A  ___bank_scene_44_collisions        scene_44_collisions
     0000001A  ___bank_scene_4_collisions         scene_4_collisions
     0000001A  ___bank_scene_54_collisions        scene_54_collisions
     0000001A  ___bank_scene_59_collisions        scene_59_collisions
     0000001A  ___bank_scene_5_collisions         scene_5_collisions
     0000001A  ___bank_scene_60_collisions        scene_60_collisions
     0000001A  ___bank_scene_61_collisions        scene_61_collisions
     0000001A  ___bank_scene_64_collisions        scene_64_collisions
     0000001A  ___bank_scene_66_collisions        scene_66_collisions
     0000001A  ___bank_scene_67_collisions        scene_67_collisions
ASxxxx Linker V03.00/V05.40 + sdld,  page 13.
Hexadecimal  [32-Bits]

Area                                    Addr        Size        Decimal Bytes (Attributes)
--------------------------------        ----        ----        ------- ----- ------------
.  .ABS.                            00000000    00000000 =           0. bytes (ABS,CON)

      Value  Global                              Global Defined In Module
      -----  --------------------------------   ------------------------
     0000001A  ___bank_scene_68_collisions        scene_68_collisions
     0000001A  ___bank_scene_69_collisions        scene_69_collisions
     0000001A  ___bank_scene_6_collisions         scene_6_collisions
     0000001A  ___bank_scene_70_collisions        scene_70_collisions
     0000001A  ___bank_scene_71_collisions        scene_71_collisions
     0000001A  ___bank_scene_72_collisions        scene_72_collisions
     0000001A  ___bank_scene_73_collisions        scene_73_collisions
     0000001A  ___bank_scene_74_collisions        scene_74_collisions
     0000001A  ___bank_scene_75_collisions        scene_75_collisions
     0000001A  ___bank_scene_78_collisions        scene_78_collisions
     0000001A  ___bank_scene_79_collisions        scene_79_collisions
     0000001A  ___bank_scene_7_collisions         scene_7_collisions
     0000001A  ___bank_scene_80_collisions        scene_80_collisions
     0000001A  ___bank_scene_81_collisions        scene_81_collisions
     0000001A  ___bank_scene_82_collisions        scene_82_collisions
     0000001A  ___bank_scene_8_collisions         scene_8_collisions
     0000001A  l__INITIALIZED                  
     0000001A  l__INITIALIZER                  
     0000001B  ___bank_VM_GBPRINTER               vm_gbprinter
     0000001B  ___bank_VM_MATH                    vm_math
     0000001B  ___bank_VM_MUSIC                   vm_music
     0000001B  ___bank_VM_PROJECTILE              vm_projectiles
     0000001B  ___bank_VM_RTC                     vm_rtc
     0000001B  ___bank_actor_18_interact          actor_18_interact
     0000001B  ___bank_actor_41_interact          actor_41_interact
     0000001B  ___bank_actor_60_interact          actor_60_interact
     0000001B  ___bank_actor_61_interact          actor_61_interact
     0000001B  ___bank_bg_cave_ladder_copy_0_ti   bg_cave_ladder_copy_0_tilese
     0000001B  ___bank_bg_cave_ladder_copy__til   bg_cave_ladder_copy__tileset
     0000001B  ___bank_bg_cinema_tileset          bg_cinema_tileset
     0000001B  ___bank_bg_controls_gb_copy_0_ti   bg_controls_gb_copy_0_tilese
     0000001B  ___bank_bg_dhilly_bridge_tileset   bg_dhilly_bridge_tileset
     0000001B  ___bank_bg_fall_to_shilly_area_c   bg_fall_to_shilly_area_copy_
     0000001B  ___bank_bg_iceos_platformer2_cop   bg_iceos_platformer2_copy__t
     0000001B  ___bank_bg_iceos_platformer3_cop   bg_iceos_platformer3_copy__t
     0000001B  ___bank_bg_init_copy_2_tileset     bg_init_copy_2_tileset
     0000001B  ___bank_bg_lair_hub_tileset        bg_lair_hub_tileset
     0000001B  ___bank_bg_lair_left_2_copy__til   bg_lair_left_2_copy__tileset
     0000001B  ___bank_bg_lair_left_2_tileset     bg_lair_left_2_tileset
     0000001B  ___bank_bg_lencity_dhillybuildin   bg_lencity_dhillybuilding_c_
     0000001B  ___bank_bg_lencity_dhillybuildin   bg_lencity_dhillybuilding_f_
     0000001B  ___bank_bg_lencity_trainstation_   bg_lencity_trainstation_tile
     0000001B  ___bank_bg_lencityopen_copy_0_ti   bg_lencityopen_copy_0_tilese
     0000001B  ___bank_scene_101_actors           scene_101_actors
     0000001B  ___bank_scene_21_init              scene_21_init
     0000001B  ___bank_scene_26_init              scene_26_init
     0000001B  ___bank_scene_2_actors             scene_2_actors
     0000001B  ___bank_scene_37_actors            scene_37_actors
     0000001B  ___bank_scene_39_actors            scene_39_actors
     0000001B  ___bank_scene_45_init              scene_45_init
     0000001B  ___bank_scene_52_actors            scene_52_actors
ASxxxx Linker V03.00/V05.40 + sdld,  page 14.
Hexadecimal  [32-Bits]

Area                                    Addr        Size        Decimal Bytes (Attributes)
--------------------------------        ----        ----        ------- ----- ------------
.  .ABS.                            00000000    00000000 =           0. bytes (ABS,CON)

      Value  Global                              Global Defined In Module
      -----  --------------------------------   ------------------------
     0000001B  ___bank_scene_53_actors            scene_53_actors
     0000001B  ___bank_scene_69_init              scene_69_init
     0000001B  ___bank_scene_74_init              scene_74_init
     0000001B  ___bank_scene_83_collisions        scene_83_collisions
     0000001B  ___bank_scene_84_collisions        scene_84_collisions
     0000001B  ___bank_scene_85_collisions        scene_85_collisions
     0000001B  ___bank_scene_87_collisions        scene_87_collisions
     0000001B  ___bank_scene_91_actors            scene_91_actors
     0000001B  ___bank_scene_92_collisions        scene_92_collisions
     0000001B  ___bank_scene_92_init              scene_92_init
     0000001B  ___bank_scene_93_p_hit1            scene_93_p_hit1
     0000001B  ___bank_scene_94_p_hit1            scene_94_p_hit1
     0000001B  ___bank_scene_95_collisions        scene_95_collisions
     0000001B  ___bank_scene_96_collisions        scene_96_collisions
     0000001B  ___bank_scene_97_collisions        scene_97_collisions
     0000001B  ___bank_scene_98_collisions        scene_98_collisions
     0000001B  ___bank_scene_9_collisions         scene_9_collisions
     0000001B  ___bank_sprite_dhilly_5_level_co   sprite_dhilly_5_level_copy__
     0000001B  ___bank_sprite_highlight_options   sprite_highlight_options_co_
     0000001B  ___bank_sprite_pixelperfectvoti    sprite_pixelperfectvoti
     0000001B  ___bank_sprite_pixelperfectvoti_   sprite_pixelperfectvoti_cop
     0000001B  ___bank_trigger_112_interact       trigger_112_interact
     0000001B  ___bank_trigger_113_interact       trigger_113_interact
     0000001B  ___bank_trigger_114_interact       trigger_114_interact
     0000001B  ___bank_trigger_120_interact       trigger_120_interact
     0000001B  ___bank_trigger_40_interact        trigger_40_interact
     0000001B  ___bank_trigger_52_interact        trigger_52_interact
     0000001B  ___bank_trigger_86_interact        trigger_86_interact
     0000001B  ___bank_trigger_89_interact        trigger_89_interact
     0000001B  b_CGBZeroPalette                   palette
     0000001B  b_SGBTransferPalettes              palette
     0000001B  b_input_init                       input
     0000001B  b_music_events_poll                music_manager
     0000001B  b_music_init_driver                music_manager
     0000001B  b_music_init_events                music_manager
     0000001B  b_palette_init                     palette
     0000001B  b_vm_cos_scale                     vm_math
     0000001B  b_vm_music_mute                    vm_music
     0000001B  b_vm_music_play                    vm_music
     0000001B  b_vm_music_routine                 vm_music
     0000001B  b_vm_music_setpos                  vm_music
     0000001B  b_vm_music_stop                    vm_music
     0000001B  b_vm_print_detect                  vm_gbprinter
     0000001B  b_vm_print_overlay                 vm_gbprinter
     0000001B  b_vm_projectile_launch             vm_projectiles
     0000001B  b_vm_projectile_load_type          vm_projectiles
     0000001B  b_vm_rtc_get                       vm_rtc
     0000001B  b_vm_rtc_latch                     vm_rtc
     0000001B  b_vm_rtc_set                       vm_rtc
     0000001B  b_vm_rtc_start                     vm_rtc
     0000001B  b_vm_sfx_play                      vm_music
ASxxxx Linker V03.00/V05.40 + sdld,  page 15.
Hexadecimal  [32-Bits]

Area                                    Addr        Size        Decimal Bytes (Attributes)
--------------------------------        ----        ----        ------- ----- ------------
.  .ABS.                            00000000    00000000 =           0. bytes (ABS,CON)

      Value  Global                              Global Defined In Module
      -----  --------------------------------   ------------------------
     0000001B  b_vm_sin_scale                     vm_math
     0000001B  b_vm_sound_mastervol               vm_music
     0000001C  ___bank_VM_LOAD_SAVE               vm_load_save
     0000001C  ___bank_VM_SCENE                   vm_scene
     0000001C  ___bank_actor_21_interact          actor_21_interact
     0000001C  ___bank_actor_33_interact          actor_33_interact
     0000001C  ___bank_actor_34_interact          actor_34_interact
     0000001C  ___bank_actor_35_interact          actor_35_interact
     0000001C  ___bank_actor_38_interact          actor_38_interact
     0000001C  ___bank_actor_39_interact          actor_39_interact
     0000001C  ___bank_actor_42_interact          actor_42_interact
     0000001C  ___bank_bg_dhilly_game_4_tileset   bg_dhilly_game_4_tileset
     0000001C  ___bank_bg_init_copy_0_tileset     bg_init_copy_0_tileset
     0000001C  ___bank_bg_intro_scenary_copy__t   bg_intro_scenary_copy__tiles
     0000001C  ___bank_bg_intro_weather_copy__t   bg_intro_weather_copy__tiles
     0000001C  ___bank_bg_lair_right_2_copy__ti   bg_lair_right_2_copy__tilese
     0000001C  ___bank_bg_lair_right_2_tileset    bg_lair_right_2_tileset
     0000001C  ___bank_bg_lair_right_4_copy__ti   bg_lair_right_4_copy__tilese
     0000001C  ___bank_bg_wakeupsquare_3_copy__   bg_wakeupsquare_3_copy__tile
     0000001C  ___bank_emote_shock                emote_shock
     0000001C  ___bank_frame_image                frame_image
     0000001C  ___bank_palette_0                  palette_0
     0000001C  ___bank_palette_1                  palette_1
     0000001C  ___bank_palette_10                 palette_10
     0000001C  ___bank_palette_11                 palette_11
     0000001C  ___bank_palette_12                 palette_12
     0000001C  ___bank_palette_13                 palette_13
     0000001C  ___bank_palette_14                 palette_14
     0000001C  ___bank_palette_15                 palette_15
     0000001C  ___bank_palette_16                 palette_16
     0000001C  ___bank_palette_17                 palette_17
     0000001C  ___bank_palette_18                 palette_18
     0000001C  ___bank_palette_19                 palette_19
     0000001C  ___bank_palette_2                  palette_2
     0000001C  ___bank_palette_20                 palette_20
     0000001C  ___bank_palette_21                 palette_21
     0000001C  ___bank_palette_22                 palette_22
     0000001C  ___bank_palette_23                 palette_23
     0000001C  ___bank_palette_24                 palette_24
     0000001C  ___bank_palette_25                 palette_25
     0000001C  ___bank_palette_26                 palette_26
     0000001C  ___bank_palette_27                 palette_27
     0000001C  ___bank_palette_28                 palette_28
     0000001C  ___bank_palette_29                 palette_29
     0000001C  ___bank_palette_3                  palette_3
     0000001C  ___bank_palette_30                 palette_30
     0000001C  ___bank_palette_31                 palette_31
     0000001C  ___bank_palette_32                 palette_32
     0000001C  ___bank_palette_33                 palette_33
     0000001C  ___bank_palette_34                 palette_34
     0000001C  ___bank_palette_35                 palette_35
ASxxxx Linker V03.00/V05.40 + sdld,  page 16.
Hexadecimal  [32-Bits]

Area                                    Addr        Size        Decimal Bytes (Attributes)
--------------------------------        ----        ----        ------- ----- ------------
.  .ABS.                            00000000    00000000 =           0. bytes (ABS,CON)

      Value  Global                              Global Defined In Module
      -----  --------------------------------   ------------------------
     0000001C  ___bank_palette_36                 palette_36
     0000001C  ___bank_palette_37                 palette_37
     0000001C  ___bank_palette_38                 palette_38
     0000001C  ___bank_palette_39                 palette_39
     0000001C  ___bank_palette_4                  palette_4
     0000001C  ___bank_palette_40                 palette_40
     0000001C  ___bank_palette_41                 palette_41
     0000001C  ___bank_palette_42                 palette_42
     0000001C  ___bank_palette_43                 palette_43
     0000001C  ___bank_palette_44                 palette_44
     0000001C  ___bank_palette_45                 palette_45
     0000001C  ___bank_palette_46                 palette_46
     0000001C  ___bank_palette_47                 palette_47
     0000001C  ___bank_palette_48                 palette_48
     0000001C  ___bank_palette_49                 palette_49
     0000001C  ___bank_palette_5                  palette_5
     0000001C  ___bank_palette_50                 palette_50
     0000001C  ___bank_palette_51                 palette_51
     0000001C  ___bank_palette_52                 palette_52
     0000001C  ___bank_palette_53                 palette_53
     0000001C  ___bank_palette_54                 palette_54
     0000001C  ___bank_palette_55                 palette_55
     0000001C  ___bank_palette_56                 palette_56
     0000001C  ___bank_palette_57                 palette_57
     0000001C  ___bank_palette_58                 palette_58
     0000001C  ___bank_palette_59                 palette_59
     0000001C  ___bank_palette_6                  palette_6
     0000001C  ___bank_palette_60                 palette_60
     0000001C  ___bank_palette_61                 palette_61
     0000001C  ___bank_palette_62                 palette_62
     0000001C  ___bank_palette_63                 palette_63
     0000001C  ___bank_palette_64                 palette_64
     0000001C  ___bank_palette_65                 palette_65
     0000001C  ___bank_palette_7                  palette_7
     0000001C  ___bank_palette_8                  palette_8
     0000001C  ___bank_palette_9                  palette_9
     0000001C  ___bank_scene_0                    scene_0
     0000001C  ___bank_scene_1                    scene_1
     0000001C  ___bank_scene_10                   scene_10
     0000001C  ___bank_scene_100                  scene_100
     0000001C  ___bank_scene_101                  scene_101
     0000001C  ___bank_scene_101_init             scene_101_init
     0000001C  ___bank_scene_10_init              scene_10_init
     0000001C  ___bank_scene_11                   scene_11
     0000001C  ___bank_scene_11_init              scene_11_init
     0000001C  ___bank_scene_12                   scene_12
     0000001C  ___bank_scene_13                   scene_13
     0000001C  ___bank_scene_14                   scene_14
     0000001C  ___bank_scene_15                   scene_15
     0000001C  ___bank_scene_16                   scene_16
     0000001C  ___bank_scene_17                   scene_17
ASxxxx Linker V03.00/V05.40 + sdld,  page 17.
Hexadecimal  [32-Bits]

Area                                    Addr        Size        Decimal Bytes (Attributes)
--------------------------------        ----        ----        ------- ----- ------------
.  .ABS.                            00000000    00000000 =           0. bytes (ABS,CON)

      Value  Global                              Global Defined In Module
      -----  --------------------------------   ------------------------
     0000001C  ___bank_scene_18                   scene_18
     0000001C  ___bank_scene_18_actors            scene_18_actors
     0000001C  ___bank_scene_18_init              scene_18_init
     0000001C  ___bank_scene_19                   scene_19
     0000001C  ___bank_scene_19_init              scene_19_init
     0000001C  ___bank_scene_1_init               scene_1_init
     0000001C  ___bank_scene_2                    scene_2
     0000001C  ___bank_scene_20                   scene_20
     0000001C  ___bank_scene_21                   scene_21
     0000001C  ___bank_scene_22                   scene_22
     0000001C  ___bank_scene_22_actors            scene_22_actors
     0000001C  ___bank_scene_23                   scene_23
     0000001C  ___bank_scene_24                   scene_24
     0000001C  ___bank_scene_24_init              scene_24_init
     0000001C  ___bank_scene_25                   scene_25
     0000001C  ___bank_scene_25_init              scene_25_init
     0000001C  ___bank_scene_26                   scene_26
     0000001C  ___bank_scene_27                   scene_27
     0000001C  ___bank_scene_28                   scene_28
     0000001C  ___bank_scene_29                   scene_29
     0000001C  ___bank_scene_2_init               scene_2_init
     0000001C  ___bank_scene_33_actors            scene_33_actors
     0000001C  ___bank_scene_38_init              scene_38_init
     0000001C  ___bank_scene_3_init               scene_3_init
     0000001C  ___bank_scene_45_actors            scene_45_actors
     0000001C  ___bank_scene_46_actors            scene_46_actors
     0000001C  ___bank_scene_46_projectiles       scene_46_projectiles
     0000001C  ___bank_scene_49_p_hit1            scene_49_p_hit1
     0000001C  ___bank_scene_49_triggers          scene_49_triggers
     0000001C  ___bank_scene_4_init               scene_4_init
     0000001C  ___bank_scene_5_init               scene_5_init
     0000001C  ___bank_scene_64_init              scene_64_init
     0000001C  ___bank_scene_6_init               scene_6_init
     0000001C  ___bank_scene_73_actors            scene_73_actors
     0000001C  ___bank_scene_85_init              scene_85_init
     0000001C  ___bank_scene_86_actors            scene_86_actors
     0000001C  ___bank_scene_87_init              scene_87_init
     0000001C  ___bank_scene_8_init               scene_8_init
     0000001C  ___bank_scene_92_actors            scene_92_actors
     0000001C  ___bank_scene_95_init              scene_95_init
     0000001C  ___bank_scene_96_init              scene_96_init
     0000001C  ___bank_scene_98_init              scene_98_init
     0000001C  ___bank_scene_99_actors            scene_99_actors
     0000001C  ___bank_scene_9_init               scene_9_init
     0000001C  ___bank_script_engine_init         
     0000001C  ___bank_script_input_1             script_input_1
     0000001C  ___bank_script_input_2             script_input_2
     0000001C  ___bank_script_input_4             script_input_4
     0000001C  ___bank_script_input_5             script_input_5
     0000001C  ___bank_script_timer_0             script_timer_0
     0000001C  ___bank_script_timer_1             script_timer_1
ASxxxx Linker V03.00/V05.40 + sdld,  page 18.
Hexadecimal  [32-Bits]

Area                                    Addr        Size        Decimal Bytes (Attributes)
--------------------------------        ----        ----        ------- ----- ------------
.  .ABS.                            00000000    00000000 =           0. bytes (ABS,CON)

      Value  Global                              Global Defined In Module
      -----  --------------------------------   ------------------------
     0000001C  ___bank_script_timer_10            script_timer_10
     0000001C  ___bank_script_timer_11            script_timer_11
     0000001C  ___bank_script_timer_12            script_timer_12
     0000001C  ___bank_script_timer_13            script_timer_13
     0000001C  ___bank_script_timer_14            script_timer_14
     0000001C  ___bank_sprite_blank_interactabl   sprite_blank_interactable_c_
     0000001C  ___bank_sprite_blank_interactabl   sprite_blank_interactable_c_
     0000001C  ___bank_sprite_blank_interactabl   sprite_blank_interactable_c_
     0000001C  ___bank_sprite_car_tileset         sprite_car_tileset
     0000001C  ___bank_sprite_cataa_tileset       sprite_cataa_tileset
     0000001C  ___bank_sprite_dhilly_5_level_co   sprite_dhilly_5_level_copy_
     0000001C  ___bank_sprite_dhilly_bridge_int   sprite_dhilly_bridge_intera_
     0000001C  ___bank_sprite_dhilly_saveselect   sprite_dhilly_saveselect
     0000001C  ___bank_sprite_dhilly_saveselect   sprite_dhilly_saveselect_co_
     0000001C  ___bank_sprite_highlight_options   sprite_highlight_options_co
     0000001C  ___bank_sprite_iceosapp_ctf_copy   sprite_iceosapp_ctf_copy_0_t
     0000001C  ___bank_sprite_iceosapp_wveruner   sprite_iceosapp_wveruner_co_
     0000001C  ___bank_sprite_knife_down_copy__   sprite_knife_down_copy__tile
     0000001C  ___bank_sprite_mzdesigns_tileset   sprite_mzdesigns_tileset
     0000001C  ___bank_sprite_shapiro_tileset     sprite_shapiro_tileset
     0000001C  ___bank_sprite_square_cart_copy_   sprite_square_cart_copy_
     0000001C  ___bank_sprite_square_cart_copy_   sprite_square_cart_copy__til
     0000001C  ___bank_sprite_square_full_hitbo   sprite_square_full_hitbox_c_
     0000001C  ___bank_sprite_square_full_hitbo   sprite_square_full_hitbox_c_
     0000001C  ___bank_sprite_square_full_hitbo   sprite_square_full_hitbox_c_
     0000001C  ___bank_sprite_square_full_hitbo   sprite_square_full_hitbox_c_
     0000001C  ___bank_sprite_square_full_hitbo   sprite_square_full_hitbox_c_
     0000001C  ___bank_sprite_static_copy_0_til   sprite_static_copy_0_tileset
     0000001C  ___bank_sprite_static_copy_tiles   sprite_static_copy_tileset
     0000001C  ___bank_trigger_101_interact       trigger_101_interact
     0000001C  ___bank_trigger_102_interact       trigger_102_interact
     0000001C  ___bank_trigger_103_interact       trigger_103_interact
     0000001C  ___bank_trigger_104_interact       trigger_104_interact
     0000001C  ___bank_trigger_105_interact       trigger_105_interact
     0000001C  ___bank_trigger_106_interact       trigger_106_interact
     0000001C  ___bank_trigger_108_interact       trigger_108_interact
     0000001C  ___bank_trigger_109_interact       trigger_109_interact
     0000001C  ___bank_trigger_110_interact       trigger_110_interact
     0000001C  ___bank_trigger_111_interact       trigger_111_interact
     0000001C  ___bank_trigger_115_interact       trigger_115_interact
     0000001C  ___bank_trigger_69_interact        trigger_69_interact
     0000001C  ___bank_trigger_77_interact        trigger_77_interact
     0000001C  ___bank_trigger_90_interact        trigger_90_interact
     0000001C  ___bank_trigger_96_interact        trigger_96_interact
     0000001C  ___bank_trigger_97_interact        trigger_97_interact
     0000001C  ___bank_trigger_99_interact        trigger_99_interact
     0000001C  __start_save                    
     0000001C  b_events_init                      events
     0000001C  b_restore_sram                     flasher
     0000001C  b_restore_sram_bank                flasher
     0000001C  b_save_sram                        flasher
ASxxxx Linker V03.00/V05.40 + sdld,  page 19.
Hexadecimal  [32-Bits]

Area                                    Addr        Size        Decimal Bytes (Attributes)
--------------------------------        ----        ----        ------- ----- ------------
.  .ABS.                            00000000    00000000 =           0. bytes (ABS,CON)

      Value  Global                              Global Defined In Module
      -----  --------------------------------   ------------------------
     0000001C  b_scroll_rect                      
     0000001C  b_timers_init                      events
     0000001C  b_vm_save_clear                    vm_load_save
     0000001C  b_vm_save_peek                     vm_load_save
     0000001C  b_vm_scene_pop                     vm_scene
     0000001C  b_vm_scene_pop_all                 vm_scene
     0000001C  b_vm_scene_push                    vm_scene
     0000001C  b_vm_scene_stack_reset             vm_scene
     0000001D  ___bank_actor_14_interact          actor_14_interact
     0000001D  ___bank_actor_17_interact          actor_17_interact
     0000001D  ___bank_actor_31_interact          actor_31_interact
     0000001D  ___bank_actor_32_interact          actor_32_interact
     0000001D  ___bank_actor_36_interact          actor_36_interact
     0000001D  ___bank_actor_37_interact          actor_37_interact
     0000001D  ___bank_actor_46_interact          actor_46_interact
     0000001D  ___bank_actor_47_interact          actor_47_interact
     0000001D  ___bank_bg_chase_shilly            bg_chase_shilly
     0000001D  ___bank_bg_cinema                  bg_cinema
     0000001D  ___bank_bg_controls_gb_copy_       bg_controls_gb_copy_
     0000001D  ___bank_bg_controls_gb_copy_0      bg_controls_gb_copy_0
     0000001D  ___bank_bg_controls_gba_copy_      bg_controls_gba_copy_
     0000001D  ___bank_bg_controls_gba_copy_0     bg_controls_gba_copy_0
     0000001D  ___bank_bg_controls_gbc_copy_      bg_controls_gbc_copy_
     0000001D  ___bank_bg_controls_mobile_copy_   bg_controls_mobile_copy_
     0000001D  ___bank_bg_controls_mobile_copy_   bg_controls_mobile_copy_0
     0000001D  ___bank_bg_dhilly_bridge           bg_dhilly_bridge
     0000001D  ___bank_bg_dhilly_game_1           bg_dhilly_game_1
     0000001D  ___bank_bg_dhilly_game_10          bg_dhilly_game_10
     0000001D  ___bank_bg_dhilly_game_11          bg_dhilly_game_11
     0000001D  ___bank_bg_dhilly_game_4           bg_dhilly_game_4
     0000001D  ___bank_bg_dhilly_game_5           bg_dhilly_game_5
     0000001D  ___bank_bg_dhilly_game_8           bg_dhilly_game_8
     0000001D  ___bank_bg_dhilly_game_9           bg_dhilly_game_9
     0000001D  ___bank_bg_dhillyhubdown           bg_dhillyhubdown
     0000001D  ___bank_bg_elevator                bg_elevator
     0000001D  ___bank_bg_endingscene             bg_endingscene
     0000001D  ___bank_bg_endingscene2            bg_endingscene2
     0000001D  ___bank_bg_endingscene3            bg_endingscene3
     0000001D  ___bank_bg_endingscene_0           bg_endingscene_0
     0000001D  ___bank_bg_fall_to_shilly_area_c   bg_fall_to_shilly_area_copy
     0000001D  ___bank_bg_fieldlazy               bg_fieldlazy
     0000001D  ___bank_bg_iceos_desktop_copy_     bg_iceos_desktop_copy_
     0000001D  ___bank_bg_iceos_login_2_copy_     bg_iceos_login_2_copy_
     0000001D  ___bank_bg_iceos_login_copy_       bg_iceos_login_copy_
     0000001D  ___bank_bg_iceos_login_copy__til   bg_iceos_login_copy__tileset
     0000001D  ___bank_bg_iceos_platformer2_cop   bg_iceos_platformer2_copy_
     0000001D  ___bank_bg_iceos_platformer3_cop   bg_iceos_platformer3_copy_
     0000001D  ___bank_bg_iceos_platformer4       bg_iceos_platformer4
     0000001D  ___bank_bg_init_copy_              bg_init_copy_
     0000001D  ___bank_bg_init_copy_0             bg_init_copy_0
     0000001D  ___bank_bg_init_copy_1             bg_init_copy_1
ASxxxx Linker V03.00/V05.40 + sdld,  page 20.
Hexadecimal  [32-Bits]

Area                                    Addr        Size        Decimal Bytes (Attributes)
--------------------------------        ----        ----        ------- ----- ------------
.  .ABS.                            00000000    00000000 =           0. bytes (ABS,CON)

      Value  Global                              Global Defined In Module
      -----  --------------------------------   ------------------------
     0000001D  ___bank_bg_init_copy_2             bg_init_copy_2
     0000001D  ___bank_bg_intro_scenary_copy_     bg_intro_scenary_copy_
     0000001D  ___bank_bg_intro_weather_copy_     bg_intro_weather_copy_
     0000001D  ___bank_bg_lair_hub                bg_lair_hub
     0000001D  ___bank_bg_lair_left_2             bg_lair_left_2
     0000001D  ___bank_bg_lair_left_2_copy_       bg_lair_left_2_copy_
     0000001D  ___bank_bg_lair_left_3             bg_lair_left_3
     0000001D  ___bank_bg_lair_right              bg_lair_right
     0000001D  ___bank_bg_lair_right_2            bg_lair_right_2
     0000001D  ___bank_bg_lair_right_2_copy_      bg_lair_right_2_copy_
     0000001D  ___bank_bg_lair_right_3            bg_lair_right_3
     0000001D  ___bank_bg_lair_right_3_copy_      bg_lair_right_3_copy_
     0000001D  ___bank_bg_lair_right_4_copy_      bg_lair_right_4_copy_
     0000001D  ___bank_bg_lair_right_5            bg_lair_right_5
     0000001D  ___bank_bg_lencity_dhillybuildin   bg_lencity_dhillybuilding_c
     0000001D  ___bank_bg_lencity_dhillybuildin   bg_lencity_dhillybuilding_f
     0000001D  ___bank_bg_lencity_trainstation_   bg_lencity_trainstation_cop
     0000001D  ___bank_bg_title_copy_1_tileset    bg_title_copy_1_tileset
     0000001D  ___bank_bg_wakeupsquare_1_tilese   bg_wakeupsquare_1_tileset
     0000001D  ___bank_scene_0_init               scene_0_init
     0000001D  ___bank_scene_0_triggers           scene_0_triggers
     0000001D  ___bank_scene_100_init             scene_100_init
     0000001D  ___bank_scene_101_triggers         scene_101_triggers
     0000001D  ___bank_scene_12_init              scene_12_init
     0000001D  ___bank_scene_13_init              scene_13_init
     0000001D  ___bank_scene_15_init              scene_15_init
     0000001D  ___bank_scene_16_init              scene_16_init
     0000001D  ___bank_scene_17_actors            scene_17_actors
     0000001D  ___bank_scene_17_init              scene_17_init
     0000001D  ___bank_scene_17_triggers          scene_17_triggers
     0000001D  ___bank_scene_18_triggers          scene_18_triggers
     0000001D  ___bank_scene_19_actors            scene_19_actors
     0000001D  ___bank_scene_20_actors            scene_20_actors
     0000001D  ___bank_scene_20_init              scene_20_init
     0000001D  ___bank_scene_20_triggers          scene_20_triggers
     0000001D  ___bank_scene_28_init              scene_28_init
     0000001D  ___bank_scene_28_triggers          scene_28_triggers
     0000001D  ___bank_scene_29_init              scene_29_init
     0000001D  ___bank_scene_3                    scene_3
     0000001D  ___bank_scene_30                   scene_30
     0000001D  ___bank_scene_30_init              scene_30_init
     0000001D  ___bank_scene_30_triggers          scene_30_triggers
     0000001D  ___bank_scene_31                   scene_31
     0000001D  ___bank_scene_31_init              scene_31_init
     0000001D  ___bank_scene_31_triggers          scene_31_triggers
     0000001D  ___bank_scene_32                   scene_32
     0000001D  ___bank_scene_32_init              scene_32_init
     0000001D  ___bank_scene_33                   scene_33
     0000001D  ___bank_scene_33_init              scene_33_init
     0000001D  ___bank_scene_34                   scene_34
     0000001D  ___bank_scene_34_actors            scene_34_actors
ASxxxx Linker V03.00/V05.40 + sdld,  page 21.
Hexadecimal  [32-Bits]

Area                                    Addr        Size        Decimal Bytes (Attributes)
--------------------------------        ----        ----        ------- ----- ------------
.  .ABS.                            00000000    00000000 =           0. bytes (ABS,CON)

      Value  Global                              Global Defined In Module
      -----  --------------------------------   ------------------------
     0000001D  ___bank_scene_34_triggers          scene_34_triggers
     0000001D  ___bank_scene_35                   scene_35
     0000001D  ___bank_scene_35_init              scene_35_init
     0000001D  ___bank_scene_37                   scene_37
     0000001D  ___bank_scene_37_init              scene_37_init
     0000001D  ___bank_scene_38                   scene_38
     0000001D  ___bank_scene_39                   scene_39
     0000001D  ___bank_scene_39_init              scene_39_init
     0000001D  ___bank_scene_3_actors             scene_3_actors
     0000001D  ___bank_scene_4                    scene_4
     0000001D  ___bank_scene_40                   scene_40
     0000001D  ___bank_scene_40_init              scene_40_init
     0000001D  ___bank_scene_40_triggers          scene_40_triggers
     0000001D  ___bank_scene_41                   scene_41
     0000001D  ___bank_scene_41_init              scene_41_init
     0000001D  ___bank_scene_41_triggers          scene_41_triggers
     0000001D  ___bank_scene_42                   scene_42
     0000001D  ___bank_scene_42_init              scene_42_init
     0000001D  ___bank_scene_43                   scene_43
     0000001D  ___bank_scene_43_init              scene_43_init
     0000001D  ___bank_scene_43_triggers          scene_43_triggers
     0000001D  ___bank_scene_44                   scene_44
     0000001D  ___bank_scene_44_init              scene_44_init
     0000001D  ___bank_scene_45                   scene_45
     0000001D  ___bank_scene_46                   scene_46
     0000001D  ___bank_scene_47                   scene_47
     0000001D  ___bank_scene_47_init              scene_47_init
     0000001D  ___bank_scene_48                   scene_48
     0000001D  ___bank_scene_48_actors            scene_48_actors
     0000001D  ___bank_scene_48_init              scene_48_init
     0000001D  ___bank_scene_48_projectiles       scene_48_projectiles
     0000001D  ___bank_scene_49                   scene_49
     0000001D  ___bank_scene_49_actors            scene_49_actors
     0000001D  ___bank_scene_49_init              scene_49_init
     0000001D  ___bank_scene_49_projectiles       scene_49_projectiles
     0000001D  ___bank_scene_5                    scene_5
     0000001D  ___bank_scene_50                   scene_50
     0000001D  ___bank_scene_50_actors            scene_50_actors
     0000001D  ___bank_scene_50_projectiles       scene_50_projectiles
     0000001D  ___bank_scene_50_triggers          scene_50_triggers
     0000001D  ___bank_scene_51                   scene_51
     0000001D  ___bank_scene_51_actors            scene_51_actors
     0000001D  ___bank_scene_51_init              scene_51_init
     0000001D  ___bank_scene_52                   scene_52
     0000001D  ___bank_scene_53                   scene_53
     0000001D  ___bank_scene_53_init              scene_53_init
     0000001D  ___bank_scene_54                   scene_54
     0000001D  ___bank_scene_54_actors            scene_54_actors
     0000001D  ___bank_scene_55                   scene_55
     0000001D  ___bank_scene_55_init              scene_55_init
     0000001D  ___bank_scene_56                   scene_56
ASxxxx Linker V03.00/V05.40 + sdld,  page 22.
Hexadecimal  [32-Bits]

Area                                    Addr        Size        Decimal Bytes (Attributes)
--------------------------------        ----        ----        ------- ----- ------------
.  .ABS.                            00000000    00000000 =           0. bytes (ABS,CON)

      Value  Global                              Global Defined In Module
      -----  --------------------------------   ------------------------
     0000001D  ___bank_scene_56_init              scene_56_init
     0000001D  ___bank_scene_57                   scene_57
     0000001D  ___bank_scene_57_init              scene_57_init
     0000001D  ___bank_scene_57_triggers          scene_57_triggers
     0000001D  ___bank_scene_58                   scene_58
     0000001D  ___bank_scene_58_actors            scene_58_actors
     0000001D  ___bank_scene_58_init              scene_58_init
     0000001D  ___bank_scene_58_triggers          scene_58_triggers
     0000001D  ___bank_scene_59                   scene_59
     0000001D  ___bank_scene_59_init              scene_59_init
     0000001D  ___bank_scene_6                    scene_6
     0000001D  ___bank_scene_60                   scene_60
     0000001D  ___bank_scene_60_actors            scene_60_actors
     0000001D  ___bank_scene_60_init              scene_60_init
     0000001D  ___bank_scene_61                   scene_61
     0000001D  ___bank_scene_61_actors            scene_61_actors
     0000001D  ___bank_scene_62                   scene_62
     0000001D  ___bank_scene_62_init              scene_62_init
     0000001D  ___bank_scene_62_triggers          scene_62_triggers
     0000001D  ___bank_scene_63                   scene_63
     0000001D  ___bank_scene_63_init              scene_63_init
     0000001D  ___bank_scene_64                   scene_64
     0000001D  ___bank_scene_64_actors            scene_64_actors
     0000001D  ___bank_scene_64_triggers          scene_64_triggers
     0000001D  ___bank_scene_65                   scene_65
     0000001D  ___bank_scene_65_init              scene_65_init
     0000001D  ___bank_scene_65_triggers          scene_65_triggers
     0000001D  ___bank_scene_66                   scene_66
     0000001D  ___bank_scene_66_init              scene_66_init
     0000001D  ___bank_scene_66_triggers          scene_66_triggers
     0000001D  ___bank_scene_67                   scene_67
     0000001D  ___bank_scene_67_init              scene_67_init
     0000001D  ___bank_scene_68                   scene_68
     0000001D  ___bank_scene_68_init              scene_68_init
     0000001D  ___bank_scene_69                   scene_69
     0000001D  ___bank_scene_7                    scene_7
     0000001D  ___bank_scene_70                   scene_70
     0000001D  ___bank_scene_71                   scene_71
     0000001D  ___bank_scene_71_actors            scene_71_actors
     0000001D  ___bank_scene_71_init              scene_71_init
     0000001D  ___bank_scene_71_triggers          scene_71_triggers
     0000001D  ___bank_scene_72                   scene_72
     0000001D  ___bank_scene_72_init              scene_72_init
     0000001D  ___bank_scene_72_triggers          scene_72_triggers
     0000001D  ___bank_scene_73                   scene_73
     0000001D  ___bank_scene_73_init              scene_73_init
     0000001D  ___bank_scene_74                   scene_74
     0000001D  ___bank_scene_75                   scene_75
     0000001D  ___bank_scene_76                   scene_76
     0000001D  ___bank_scene_76_actors            scene_76_actors
     0000001D  ___bank_scene_76_init              scene_76_init
ASxxxx Linker V03.00/V05.40 + sdld,  page 23.
Hexadecimal  [32-Bits]

Area                                    Addr        Size        Decimal Bytes (Attributes)
--------------------------------        ----        ----        ------- ----- ------------
.  .ABS.                            00000000    00000000 =           0. bytes (ABS,CON)

      Value  Global                              Global Defined In Module
      -----  --------------------------------   ------------------------
     0000001D  ___bank_scene_77                   scene_77
     0000001D  ___bank_scene_77_init              scene_77_init
     0000001D  ___bank_scene_78                   scene_78
     0000001D  ___bank_scene_78_init              scene_78_init
     0000001D  ___bank_scene_79                   scene_79
     0000001D  ___bank_scene_79_init              scene_79_init
     0000001D  ___bank_scene_8                    scene_8
     0000001D  ___bank_scene_80                   scene_80
     0000001D  ___bank_scene_80_init              scene_80_init
     0000001D  ___bank_scene_80_triggers          scene_80_triggers
     0000001D  ___bank_scene_81                   scene_81
     0000001D  ___bank_scene_81_init              scene_81_init
     0000001D  ___bank_scene_81_triggers          scene_81_triggers
     0000001D  ___bank_scene_82                   scene_82
     0000001D  ___bank_scene_82_init              scene_82_init
     0000001D  ___bank_scene_82_triggers          scene_82_triggers
     0000001D  ___bank_scene_83                   scene_83
     0000001D  ___bank_scene_83_init              scene_83_init
     0000001D  ___bank_scene_83_triggers          scene_83_triggers
     0000001D  ___bank_scene_84                   scene_84
     0000001D  ___bank_scene_84_init              scene_84_init
     0000001D  ___bank_scene_84_triggers          scene_84_triggers
     0000001D  ___bank_scene_85                   scene_85
     0000001D  ___bank_scene_86                   scene_86
     0000001D  ___bank_scene_86_triggers          scene_86_triggers
     0000001D  ___bank_scene_87                   scene_87
     0000001D  ___bank_scene_88                   scene_88
     0000001D  ___bank_scene_88_init              scene_88_init
     0000001D  ___bank_scene_88_triggers          scene_88_triggers
     0000001D  ___bank_scene_89                   scene_89
     0000001D  ___bank_scene_89_init              scene_89_init
     0000001D  ___bank_scene_9                    scene_9
     0000001D  ___bank_scene_90                   scene_90
     0000001D  ___bank_scene_90_actors            scene_90_actors
     0000001D  ___bank_scene_90_init              scene_90_init
     0000001D  ___bank_scene_90_triggers          scene_90_triggers
     0000001D  ___bank_scene_91                   scene_91
     0000001D  ___bank_scene_92                   scene_92
     0000001D  ___bank_scene_93                   scene_93
     0000001D  ___bank_scene_93_actors            scene_93_actors
     0000001D  ___bank_scene_93_init              scene_93_init
     0000001D  ___bank_scene_93_projectiles       scene_93_projectiles
     0000001D  ___bank_scene_94                   scene_94
     0000001D  ___bank_scene_94_actors            scene_94_actors
     0000001D  ___bank_scene_94_projectiles       scene_94_projectiles
     0000001D  ___bank_scene_95                   scene_95
     0000001D  ___bank_scene_96                   scene_96
     0000001D  ___bank_scene_97                   scene_97
     0000001D  ___bank_scene_98                   scene_98
     0000001D  ___bank_scene_99                   scene_99
     0000001D  ___bank_script_input_0             script_input_0
ASxxxx Linker V03.00/V05.40 + sdld,  page 24.
Hexadecimal  [32-Bits]

Area                                    Addr        Size        Decimal Bytes (Attributes)
--------------------------------        ----        ----        ------- ----- ------------
.  .ABS.                            00000000    00000000 =           0. bytes (ABS,CON)

      Value  Global                              Global Defined In Module
      -----  --------------------------------   ------------------------
     0000001D  ___bank_script_input_10            script_input_10
     0000001D  ___bank_script_input_11            script_input_11
     0000001D  ___bank_script_input_12            script_input_12
     0000001D  ___bank_script_input_13            script_input_13
     0000001D  ___bank_script_input_14            script_input_14
     0000001D  ___bank_script_input_8             script_input_8
     0000001D  ___bank_script_input_9             script_input_9
     0000001D  ___bank_script_timer_2             script_timer_2
     0000001D  ___bank_script_timer_3             script_timer_3
     0000001D  ___bank_script_timer_5             script_timer_5
     0000001D  ___bank_script_timer_6             script_timer_6
     0000001D  ___bank_script_timer_7             script_timer_7
     0000001D  ___bank_script_timer_8             script_timer_8
     0000001D  ___bank_script_timer_9             script_timer_9
     0000001D  ___bank_sprite_blank_interactabl   sprite_blank_interactable_c
     0000001D  ___bank_sprite_car                 sprite_car
     0000001D  ___bank_sprite_cataa               sprite_cataa
     0000001D  ___bank_sprite_dhilly_bridge_int   sprite_dhilly_bridge_intera
     0000001D  ___bank_sprite_dhilly_bridge_int   sprite_dhilly_bridge_intera_
     0000001D  ___bank_sprite_dhilly_bridge_int   sprite_dhilly_bridge_intera_
     0000001D  ___bank_sprite_dhilly_saveselect   sprite_dhilly_saveselect_co
     0000001D  ___bank_sprite_dhilly_saveselect   sprite_dhilly_saveselect_co_
     0000001D  ___bank_sprite_dhilly_saveselect   sprite_dhilly_saveselect_co_
     0000001D  ___bank_sprite_dhilly_saveselect   sprite_dhilly_saveselect_co_
     0000001D  ___bank_sprite_dhilly_saveselect   sprite_dhilly_saveselect_co_
     0000001D  ___bank_sprite_dhilly_saveselect   sprite_dhilly_saveselect_til
     0000001D  ___bank_sprite_iceos_cursor_copy   sprite_iceos_cursor_copy_
     0000001D  ___bank_sprite_iceosapp_ctf_copy   sprite_iceosapp_ctf_copy_0
     0000001D  ___bank_sprite_iceosapp_pltfrmr_   sprite_iceosapp_pltfrmr_cop
     0000001D  ___bank_sprite_iceosapp_pltfrmr_   sprite_iceosapp_pltfrmr_cop_
     0000001D  ___bank_sprite_iceosapp_settings   sprite_iceosapp_settings_co
     0000001D  ___bank_sprite_iceosapp_settings   sprite_iceosapp_settings_co_
     0000001D  ___bank_sprite_iceosapp_wveruner   sprite_iceosapp_wveruner_co
     0000001D  ___bank_sprite_knife_down_copy_    sprite_knife_down_copy_
     0000001D  ___bank_sprite_len_city_dhilly_h   sprite_len_city_dhilly_hous
     0000001D  ___bank_sprite_mzdesigns           sprite_mzdesigns
     0000001D  ___bank_sprite_piece_dhilly3_ver   sprite_piece_dhilly3_ver
     0000001D  ___bank_sprite_piece_dhilly3_ver   sprite_piece_dhilly3_ver_co
     0000001D  ___bank_sprite_piece_dhilly3_ver   sprite_piece_dhilly3_ver_co_
     0000001D  ___bank_sprite_piece_dhilly3_ver   sprite_piece_dhilly3_ver_til
     0000001D  ___bank_sprite_shapiro             sprite_shapiro
     0000001D  ___bank_sprite_square_full_hitbo   sprite_square_full_hitbox_c
     0000001D  ___bank_sprite_square_full_hitbo   sprite_square_full_hitbox_c_
     0000001D  ___bank_sprite_square_full_hitbo   sprite_square_full_hitbox_c_
     0000001D  ___bank_sprite_square_full_hitbo   sprite_square_full_hitbox_c_
     0000001D  ___bank_sprite_square_full_hitbo   sprite_square_full_hitbox_c_
     0000001D  ___bank_sprite_square_full_hitbo   sprite_square_full_hitbox_c_
     0000001D  ___bank_sprite_square_full_hitbo   sprite_square_full_hitbox_c_
     0000001D  ___bank_sprite_square_platformin   sprite_square_platforming_c
     0000001D  ___bank_sprite_square_platformin   sprite_square_platforming_c_
     0000001D  ___bank_sprite_static_copy         sprite_static_copy
ASxxxx Linker V03.00/V05.40 + sdld,  page 25.
Hexadecimal  [32-Bits]

Area                                    Addr        Size        Decimal Bytes (Attributes)
--------------------------------        ----        ----        ------- ----- ------------
.  .ABS.                            00000000    00000000 =           0. bytes (ABS,CON)

      Value  Global                              Global Defined In Module
      -----  --------------------------------   ------------------------
     0000001D  ___bank_sprite_static_copy_0       sprite_static_copy_0
     0000001D  ___bank_spritesheet_none           spritesheet_none
     0000001D  ___bank_trigger_0_interact         trigger_0_interact
     0000001D  ___bank_trigger_100_interact       trigger_100_interact
     0000001D  ___bank_trigger_107_interact       trigger_107_interact
     0000001D  ___bank_trigger_10_interact        trigger_10_interact
     0000001D  ___bank_trigger_116_interact       trigger_116_interact
     0000001D  ___bank_trigger_117_interact       trigger_117_interact
     0000001D  ___bank_trigger_118_interact       trigger_118_interact
     0000001D  ___bank_trigger_119_interact       trigger_119_interact
     0000001D  ___bank_trigger_11_interact        trigger_11_interact
     0000001D  ___bank_trigger_122_interact       trigger_122_interact
     0000001D  ___bank_trigger_123_interact       trigger_123_interact
     0000001D  ___bank_trigger_124_interact       trigger_124_interact
     0000001D  ___bank_trigger_12_interact        trigger_12_interact
     0000001D  ___bank_trigger_13_interact        trigger_13_interact
     0000001D  ___bank_trigger_14_interact        trigger_14_interact
     0000001D  ___bank_trigger_15_interact        trigger_15_interact
     0000001D  ___bank_trigger_16_interact        trigger_16_interact
     0000001D  ___bank_trigger_17_interact        trigger_17_interact
     0000001D  ___bank_trigger_18_interact        trigger_18_interact
     0000001D  ___bank_trigger_19_interact        trigger_19_interact
     0000001D  ___bank_trigger_20_interact        trigger_20_interact
     0000001D  ___bank_trigger_21_interact        trigger_21_interact
     0000001D  ___bank_trigger_22_interact        trigger_22_interact
     0000001D  ___bank_trigger_23_interact        trigger_23_interact
     0000001D  ___bank_trigger_24_interact        trigger_24_interact
     0000001D  ___bank_trigger_25_interact        trigger_25_interact
     0000001D  ___bank_trigger_26_interact        trigger_26_interact
     0000001D  ___bank_trigger_27_interact        trigger_27_interact
     0000001D  ___bank_trigger_28_interact        trigger_28_interact
     0000001D  ___bank_trigger_29_interact        trigger_29_interact
     0000001D  ___bank_trigger_2_interact         trigger_2_interact
     0000001D  ___bank_trigger_30_interact        trigger_30_interact
     0000001D  ___bank_trigger_31_interact        trigger_31_interact
     0000001D  ___bank_trigger_32_interact        trigger_32_interact
     0000001D  ___bank_trigger_33_interact        trigger_33_interact
     0000001D  ___bank_trigger_34_interact        trigger_34_interact
     0000001D  ___bank_trigger_35_interact        trigger_35_interact
     0000001D  ___bank_trigger_36_interact        trigger_36_interact
     0000001D  ___bank_trigger_37_interact        trigger_37_interact
     0000001D  ___bank_trigger_38_interact        trigger_38_interact
     0000001D  ___bank_trigger_39_interact        trigger_39_interact
     0000001D  ___bank_trigger_41_interact        trigger_41_interact
     0000001D  ___bank_trigger_42_interact        trigger_42_interact
     0000001D  ___bank_trigger_43_interact        trigger_43_interact
     0000001D  ___bank_trigger_44_interact        trigger_44_interact
     0000001D  ___bank_trigger_45_interact        trigger_45_interact
     0000001D  ___bank_trigger_46_interact        trigger_46_interact
     0000001D  ___bank_trigger_47_interact        trigger_47_interact
     0000001D  ___bank_trigger_48_interact        trigger_48_interact
ASxxxx Linker V03.00/V05.40 + sdld,  page 26.
Hexadecimal  [32-Bits]

Area                                    Addr        Size        Decimal Bytes (Attributes)
--------------------------------        ----        ----        ------- ----- ------------
.  .ABS.                            00000000    00000000 =           0. bytes (ABS,CON)

      Value  Global                              Global Defined In Module
      -----  --------------------------------   ------------------------
     0000001D  ___bank_trigger_4_interact         trigger_4_interact
     0000001D  ___bank_trigger_51_interact        trigger_51_interact
     0000001D  ___bank_trigger_53_interact        trigger_53_interact
     0000001D  ___bank_trigger_54_interact        trigger_54_interact
     0000001D  ___bank_trigger_55_interact        trigger_55_interact
     0000001D  ___bank_trigger_56_interact        trigger_56_interact
     0000001D  ___bank_trigger_57_interact        trigger_57_interact
     0000001D  ___bank_trigger_58_interact        trigger_58_interact
     0000001D  ___bank_trigger_59_interact        trigger_59_interact
     0000001D  ___bank_trigger_5_interact         trigger_5_interact
     0000001D  ___bank_trigger_60_interact        trigger_60_interact
     0000001D  ___bank_trigger_62_interact        trigger_62_interact
     0000001D  ___bank_trigger_63_interact        trigger_63_interact
     0000001D  ___bank_trigger_64_interact        trigger_64_interact
     0000001D  ___bank_trigger_65_interact        trigger_65_interact
     0000001D  ___bank_trigger_66_interact        trigger_66_interact
     0000001D  ___bank_trigger_67_interact        trigger_67_interact
     0000001D  ___bank_trigger_68_interact        trigger_68_interact
     0000001D  ___bank_trigger_6_interact         trigger_6_interact
     0000001D  ___bank_trigger_70_interact        trigger_70_interact
     0000001D  ___bank_trigger_71_interact        trigger_71_interact
     0000001D  ___bank_trigger_72_interact        trigger_72_interact
     0000001D  ___bank_trigger_73_interact        trigger_73_interact
     0000001D  ___bank_trigger_74_interact        trigger_74_interact
     0000001D  ___bank_trigger_75_interact        trigger_75_interact
     0000001D  ___bank_trigger_76_interact        trigger_76_interact
     0000001D  ___bank_trigger_78_interact        trigger_78_interact
     0000001D  ___bank_trigger_79_interact        trigger_79_interact
     0000001D  ___bank_trigger_7_interact         trigger_7_interact
     0000001D  ___bank_trigger_80_interact        trigger_80_interact
     0000001D  ___bank_trigger_82_interact        trigger_82_interact
     0000001D  ___bank_trigger_83_interact        trigger_83_interact
     0000001D  ___bank_trigger_84_interact        trigger_84_interact
     0000001D  ___bank_trigger_85_interact        trigger_85_interact
     0000001D  ___bank_trigger_87_interact        trigger_87_interact
     0000001D  ___bank_trigger_88_interact        trigger_88_interact
     0000001D  ___bank_trigger_8_interact         trigger_8_interact
     0000001D  ___bank_trigger_91_interact        trigger_91_interact
     0000001D  ___bank_trigger_92_interact        trigger_92_interact
     0000001D  ___bank_trigger_93_interact        trigger_93_interact
     0000001D  ___bank_trigger_94_interact        trigger_94_interact
     0000001D  ___bank_trigger_98_interact        trigger_98_interact
     0000001D  ___bank_trigger_9_interact         trigger_9_interact
     0000001D  b_SIO_init                         sio
     0000001D  b_camera_init                      camera
     0000001D  b_logo_init                        logo
     0000001D  b_logo_update                      logo
     0000001D  b_parallax_init                    parallax
     0000001D  b_remove_LCD_ISRs                  interrupts
     0000001E  ___bank_bg_lencity_trainstation    bg_lencity_trainstation
     0000001E  ___bank_bg_lencityopen             bg_lencityopen
ASxxxx Linker V03.00/V05.40 + sdld,  page 27.
Hexadecimal  [32-Bits]

Area                                    Addr        Size        Decimal Bytes (Attributes)
--------------------------------        ----        ----        ------- ----- ------------
.  .ABS.                            00000000    00000000 =           0. bytes (ABS,CON)

      Value  Global                              Global Defined In Module
      -----  --------------------------------   ------------------------
     0000001E  ___bank_bg_lencityopen_copy_       bg_lencityopen_copy_
     0000001E  ___bank_bg_lencityopen_copy_0      bg_lencityopen_copy_0
     0000001E  ___bank_bg_options_copy_           bg_options_copy_
     0000001E  ___bank_bg_pixil_frame_0_23        bg_pixil_frame_0_23
     0000001E  ___bank_bg_pixil_frame_0_24        bg_pixil_frame_0_24
     0000001E  ___bank_bg_pixil_frame_0_30        bg_pixil_frame_0_30
     0000001E  ___bank_bg_pixil_frame_0_31        bg_pixil_frame_0_31
     0000001E  ___bank_bg_pixil_frame_0_33        bg_pixil_frame_0_33
     0000001E  ___bank_bg_pixil_frame_0_copy_co   bg_pixil_frame_0_copy_copy_
     0000001E  ___bank_bg_pixil_frame_23_0        bg_pixil_frame_23_0
     0000001E  ___bank_bg_placeholder_copy_copy   bg_placeholder_copy_copy_co
     0000001E  ___bank_bg_placeholder_copy_copy   bg_placeholder_copy_copy_co_
     0000001E  ___bank_bg_samsam_copy             bg_samsam_copy
     0000001E  ___bank_bg_shillycity_sara_house   bg_shillycity_sara_house_co
     0000001E  ___bank_bg_shillycityopen_copy_    bg_shillycityopen_copy_
     0000001E  ___bank_bg_shillycityopen_copy_0   bg_shillycityopen_copy_0
     0000001E  ___bank_bg_shillycityopen_copy_1   bg_shillycityopen_copy_1
     0000001E  ___bank_bg_square_frozen_future    bg_square_frozen_future
     0000001E  ___bank_bg_theatre                 bg_theatre
     0000001E  ___bank_bg_title                   bg_title
     0000001E  ___bank_bg_title_copy_             bg_title_copy_
     0000001E  ___bank_bg_title_copy_0            bg_title_copy_0
     0000001E  ___bank_bg_title_copy_1            bg_title_copy_1
     0000001E  ___bank_bg_title_copy_2            bg_title_copy_2
     0000001E  ___bank_bg_wakeupsquare_1          bg_wakeupsquare_1
     0000001E  ___bank_bg_wakeupsquare_3_copy_    bg_wakeupsquare_3_copy_
     0000001E  ___bank_bootstrap_script           
     0000001E  ___bank_scene_27_triggers          scene_27_triggers
     0000001E  ___bank_scene_29_triggers          scene_29_triggers
     0000001E  ___bank_scene_32_triggers          scene_32_triggers
     0000001E  ___bank_scene_33_sprites           scene_33_sprites
     0000001E  ___bank_scene_33_triggers          scene_33_triggers
     0000001E  ___bank_scene_34_sprites           scene_34_sprites
     0000001E  ___bank_scene_35_triggers          scene_35_triggers
     0000001E  ___bank_scene_37_sprites           scene_37_sprites
     0000001E  ___bank_scene_39_sprites           scene_39_sprites
     0000001E  ___bank_scene_3_sprites            scene_3_sprites
     0000001E  ___bank_scene_42_triggers          scene_42_triggers
     0000001E  ___bank_scene_44_triggers          scene_44_triggers
     0000001E  ___bank_scene_45_triggers          scene_45_triggers
     0000001E  ___bank_scene_46_triggers          scene_46_triggers
     0000001E  ___bank_scene_48_sprites           scene_48_sprites
     0000001E  ___bank_scene_48_triggers          scene_48_triggers
     0000001E  ___bank_scene_49_sprites           scene_49_sprites
     0000001E  ___bank_scene_50_sprites           scene_50_sprites
     0000001E  ___bank_scene_51_sprites           scene_51_sprites
     0000001E  ___bank_scene_51_triggers          scene_51_triggers
     0000001E  ___bank_scene_52_sprites           scene_52_sprites
     0000001E  ___bank_scene_53_sprites           scene_53_sprites
     0000001E  ___bank_scene_53_triggers          scene_53_triggers
     0000001E  ___bank_scene_54_sprites           scene_54_sprites
ASxxxx Linker V03.00/V05.40 + sdld,  page 28.
Hexadecimal  [32-Bits]

Area                                    Addr        Size        Decimal Bytes (Attributes)
--------------------------------        ----        ----        ------- ----- ------------
.  .ABS.                            00000000    00000000 =           0. bytes (ABS,CON)

      Value  Global                              Global Defined In Module
      -----  --------------------------------   ------------------------
     0000001E  ___bank_scene_54_triggers          scene_54_triggers
     0000001E  ___bank_scene_55_triggers          scene_55_triggers
     0000001E  ___bank_scene_56_triggers          scene_56_triggers
     0000001E  ___bank_scene_58_sprites           scene_58_sprites
     0000001E  ___bank_scene_59_triggers          scene_59_triggers
     0000001E  ___bank_scene_60_sprites           scene_60_sprites
     0000001E  ___bank_scene_60_triggers          scene_60_triggers
     0000001E  ___bank_scene_61_sprites           scene_61_sprites
     0000001E  ___bank_scene_61_triggers          scene_61_triggers
     0000001E  ___bank_scene_63_triggers          scene_63_triggers
     0000001E  ___bank_scene_64_sprites           scene_64_sprites
     0000001E  ___bank_scene_67_triggers          scene_67_triggers
     0000001E  ___bank_scene_68_triggers          scene_68_triggers
     0000001E  ___bank_scene_70_triggers          scene_70_triggers
     0000001E  ___bank_scene_71_sprites           scene_71_sprites
     0000001E  ___bank_scene_73_sprites           scene_73_sprites
     0000001E  ___bank_scene_75_triggers          scene_75_triggers
     0000001E  ___bank_scene_76_sprites           scene_76_sprites
     0000001E  ___bank_scene_76_triggers          scene_76_triggers
     0000001E  ___bank_scene_77_triggers          scene_77_triggers
     0000001E  ___bank_scene_78_triggers          scene_78_triggers
     0000001E  ___bank_scene_79_triggers          scene_79_triggers
     0000001E  ___bank_scene_86_sprites           scene_86_sprites
     0000001E  ___bank_scene_89_triggers          scene_89_triggers
     0000001E  ___bank_scene_90_sprites           scene_90_sprites
     0000001E  ___bank_scene_91_sprites           scene_91_sprites
     0000001E  ___bank_scene_91_triggers          scene_91_triggers
     0000001E  ___bank_scene_92_sprites           scene_92_sprites
     0000001E  ___bank_scene_93_triggers          scene_93_triggers
     0000001E  ___bank_scene_99_sprites           scene_99_sprites
     0000001E  ___bank_trigger_50_interact        trigger_50_interact
     00000027  l__GSINIT                       
     00000030  l__HEADER7                      
     00000060  l__HEADER4                      
     00000080  ___size_SGB_border_pal             border
     000000AB  l__HEADER11                     
     000001CB  l__CRASH_SCRATCH2               
     00000200  s__CODE                         
     000002F7  l__CODE_30                      
     00000700  ___size_SGB_border_map             border
     00000ED4  l__CODE                         
     000010D4  s__HOME                         
     00001800  ___size_SGB_border_chr             border
     00001994  l__DATA                         
     00002000  _rROMB0                            
     00002DAF  l__HOME                         
     00003000  _rROMB1                            
     00003E83  s__BASE                         
     00003E83  s__CODE_0                       
     00003E83  s__INITIALIZER                  
     00003E83  s__LIT                          
ASxxxx Linker V03.00/V05.40 + sdld,  page 29.
Hexadecimal  [32-Bits]

Area                                    Addr        Size        Decimal Bytes (Attributes)
--------------------------------        ----        ----        ------- ----- ------------
.  .ABS.                            00000000    00000000 =           0. bytes (ABS,CON)

      Value  Global                              Global Defined In Module
      -----  --------------------------------   ------------------------
     00003E9D  s__GSINIT                       
     00003EC4  s__GSFINAL                      
     00003FFE  l__CODE_20                      
     00003FFE  l__CODE_26                      
     00003FFF  l__CODE_11                      
     00003FFF  l__CODE_12                      
     00003FFF  l__CODE_17                      
     00003FFF  l__CODE_19                      
     00003FFF  l__CODE_23                      
     00003FFF  l__CODE_29                      
     00003FFF  l__CODE_3                       
     00003FFF  l__CODE_4                       
     00004000  _RTC_SELECT_REG                    vm_rtc
     00004000  _rRAMB                             
     00004000  l__CODE_1                       
     00004000  l__CODE_10                      
     00004000  l__CODE_13                      
     00004000  l__CODE_14                      
     00004000  l__CODE_15                      
     00004000  l__CODE_16                      
     00004000  l__CODE_18                      
     00004000  l__CODE_2                       
     00004000  l__CODE_21                      
     00004000  l__CODE_22                      
     00004000  l__CODE_24                      
     00004000  l__CODE_25                      
     00004000  l__CODE_27                      
     00004000  l__CODE_28                      
     00004000  l__CODE_5                       
     00004000  l__CODE_6                       
     00004000  l__CODE_7                       
     00004000  l__CODE_8                       
     00004000  l__CODE_9                       
     00006000  _RTC_LATCH_REG                     vm_rtc
     00008000  __VRAM                             
     00008000  __VRAM8000                         
     00008800  __VRAM8800                         
     00009000  __VRAM9000                         
     00009800  __SCRN0                            
     00009C00  __SCRN1                            
     0000A000  _RTC_VALUE_REG                     vm_rtc
     0000A000  __SRAM                             
     0000C000  __RAM                              
     0000C000  _shadow_OAM                     
     0000C0A0  s__DATA                         
     0000D000  __RAMBANK                          
     0000DA34  s__BSS                          
     0000DA34  s__INITIALIZED                  
     0000DA4E  s__HEAP                         
     0000DA4E  s__HEAP_END                     
     0000DF00  .STACK                          
ASxxxx Linker V03.00/V05.40 + sdld,  page 30.
Hexadecimal  [32-Bits]

Area                                    Addr        Size        Decimal Bytes (Attributes)
--------------------------------        ----        ----        ------- ----- ------------
.  .ABS.                            00000000    00000000 =           0. bytes (ABS,CON)

      Value  Global                              Global Defined In Module
      -----  --------------------------------   ------------------------
     0000DF00  _shadow_OAM2                       absolute
     0000DFA0  _BkgPalette                        absolute
     0000DFE0  _vwf_tile_data                     absolute
     0000FE00  __OAMRAM                           
     0000FF00  _P1_REG                            
     0000FF00  __IO                               
     0000FF01  _SB_REG                            
     0000FF02  _SC_REG                            
     0000FF04  _DIV_REG                           
     0000FF05  _TIMA_REG                          
     0000FF06  _TMA_REG                           
     0000FF07  _TAC_REG                           
     0000FF0F  _IF_REG                            
     0000FF10  _NR10_REG                          
     0000FF11  _NR11_REG                          
     0000FF12  _NR12_REG                          
     0000FF13  _NR13_REG                          
     0000FF14  _NR14_REG                          
     0000FF16  _NR21_REG                          
     0000FF17  _NR22_REG                          
     0000FF18  _NR23_REG                          
     0000FF19  _NR24_REG                          
     0000FF1A  _NR30_REG                          
     0000FF1B  _NR31_REG                          
     0000FF1C  _NR32_REG                          
     0000FF1D  _NR33_REG                          
     0000FF1E  _NR34_REG                          
     0000FF20  _NR41_REG                          
     0000FF21  _NR42_REG                          
     0000FF22  _NR43_REG                          
     0000FF23  _NR44_REG                          
     0000FF24  _NR50_REG                          
     0000FF25  _NR51_REG                          
     0000FF26  _NR52_REG                          
     0000FF30  _AUD3WAVE                          
     0000FF30  _PCM_SAMPLE                        
     0000FF30  __AUD3WAVERAM                      
     0000FF40  _LCDC_REG                          
     0000FF41  _STAT_REG                          
     0000FF42  _SCY_REG                           
     0000FF43  _SCX_REG                           
     0000FF44  _LY_REG                            
     0000FF45  _LYC_REG                           
     0000FF46  _DMA_REG                           
     0000FF47  _BGP_REG                           
     0000FF48  _OBP0_REG                          
     0000FF49  _OBP1_REG                          
     0000FF4A  _WY_REG                            
     0000FF4B  _WX_REG                            
     0000FF4D  _KEY1_REG                          
     0000FF4F  _VBK_REG                           
ASxxxx Linker V03.00/V05.40 + sdld,  page 31.
Hexadecimal  [32-Bits]

Area                                    Addr        Size        Decimal Bytes (Attributes)
--------------------------------        ----        ----        ------- ----- ------------
.  .ABS.                            00000000    00000000 =           0. bytes (ABS,CON)

      Value  Global                              Global Defined In Module
      -----  --------------------------------   ------------------------
     0000FF51  _HDMA1_REG                         
     0000FF52  _HDMA2_REG                         
     0000FF53  _HDMA3_REG                         
     0000FF54  _HDMA4_REG                         
     0000FF55  _HDMA5_REG                         
     0000FF56  _RP_REG                            
     0000FF68  _BCPS_REG                          
     0000FF69  _BCPD_REG                          
     0000FF6A  _OCPS_REG                          
     0000FF6B  _OCPD_REG                          
     0000FF70  _SVBK_REG                          
     0000FF76  _PCM12_REG                         
     0000FF77  _PCM34_REG                         
     0000FF80  .refresh_OAM                    
     0000FF80  __HRAM                             
     0000FFFF  _IE_REG                            
     00014000  s__CODE_1                       
     00024000  s__CODE_2                       
     00034000  s__CODE_3                       
     00044000  s__CODE_4                       
     00054000  s__CODE_5                       
     00064000  s__CODE_6                       
     00074000  s__CODE_7                       
     00084000  s__CODE_8                       
     00094000  s__CODE_9                       
     000A4000  s__CODE_10                      
     000B4000  s__CODE_11                      
     000C4000  s__CODE_12                      
     000D4000  s__CODE_13                      
     000E4000  s__CODE_14                      
     000F4000  s__CODE_15                      
     00104000  s__CODE_16                      
     00114000  s__CODE_17                      
     00124000  s__CODE_18                      
     00134000  s__CODE_19                      
     00144000  s__CODE_20                      
     00154000  s__CODE_21                      
     00164000  s__CODE_22                      
     00174000  s__CODE_23                      
     00184000  s__CODE_24                      
     00194000  s__CODE_25                      
     001A4000  s__CODE_26                      
     001B4000  s__CODE_27                      
     001C4000  s__CODE_28                      
     001D4000  s__CODE_29                      
     001E4000  s__CODE_30                      
ASxxxx Linker V03.00/V05.40 + sdld,  page 32.
Hexadecimal  [32-Bits]

Area                                    Addr        Size        Decimal Bytes (Attributes)
--------------------------------        ----        ----        ------- ----- ------------
_CODE                               00000200    00000ED4 =        3796. bytes (REL,CON)

      Value  Global                              Global Defined In Module
      -----  --------------------------------   ------------------------
     00000200  ___HandleCrash                     
     0000020A  _SIO_send_byte                     
     0000021D  _SIO_receive                       
     0000022E  _GetWinAddr                        
     00000236  _GetBkgAddr                        
     00000244  _state_init                        
     00000249  _state_update                      
     0000026B  _ui_time_masks                     
     00000273  _ui_print_shift_char               
     000002F6  _ui_draw_frame_row                 
     000002FF  .ui_draw_frame_row                 
     00000328  _script_cmds                       vm_instructions
     00000560  _save_signature                    game_signature
     00000564  _start_scene_x                     
     00000566  _start_scene_y                     
     00000568  _start_scene_dir                   
     00000569  _start_scene                       
     0000056C  _start_player_move_speed           
     0000056D  _start_player_anim_tick            
     0000056E  _ui_fonts                          
     00000574  _core_reset_hook                   main
     0000057C  _main                              main
     00000584  _state_start_fns                   
     00000596  _state_update_fns                  
     000005A8  _hUGE_init                         hUGEDriver_obj
     000005AA  hUGE_init                          hUGEDriver_obj
     00000600  _hUGE_mute_channel                 hUGEDriver_obj
     00000602  hUGE_mute_channel                  hUGEDriver_obj
     00000850  _hUGE_set_position                 hUGEDriver_obj
     00000852  hUGE_set_position                  hUGEDriver_obj
     00000A17  _hUGE_dosound                      hUGEDriver_obj
     00000A17  hUGE_dosound                       hUGEDriver_obj
     00000D43  _get_vram_byte                     
     00000D4B  _get_win_tile_xy                   
     00000D53  _get_bkg_tile_xy                   
     00000D7A  _set_sprite_palette                CGB
     00000D7F  _set_bkg_palette                   CGB
     00000D82  .set_palette                       CGB
     00000DA1  _set_sprite_palette_entry          CGB
     00000DA6  _set_bkg_palette_entry             CGB
     00000DA9  .set_palette_entry                 CGB
     00000DC5  _hide_sprites_range                Metasprites
     00000DF4  __mulsuchar                        mul
     00000DF7  __muluschar                        mul
     00000E00  __mulschar                         mul
     00000E08  __mulint                           mul
     00000E27  __muluchar                         mul
     00000E39  _set_vram_byte                     
     00000E42  _set_win_tile_xy                   
     00000E4B  _set_bkg_tile_xy                   
ASxxxx Linker V03.00/V05.40 + sdld,  page 33.
Hexadecimal  [32-Bits]

Area                                    Addr        Size        Decimal Bytes (Attributes)
--------------------------------        ----        ----        ------- ----- ------------
_CODE                               00000200    00000ED4 =        3796. bytes (REL,CON)

      Value  Global                              Global Defined In Module
      -----  --------------------------------   ------------------------
     00000E7A  .sgb_check                         
     00000E7A  _sgb_check                         
     00000EC2  _sgb_transfer                      
     00000EC7  .sgb_transfer                      
     00000F08  .copy_vram                         
     00000F0E  _get_data                          
     00000F0E  _set_data                          
     00000F0E  _vmemcpy                           
     00000F5C  ___move_metasprite                 Metasprites
     00000F99  ___memcpy                          
     00000F99  _memcpy                            
     00000FCB  _cpu_slow                          CGB
     00000FE6  _cpu_fast                          CGB
     00000FED  __divsuchar                        divmod
     00000FF3  __modsuchar                        divmod
     00000FFC  __divuschar                        divmod
     00001005  __moduschar                        divmod
     00001011  __divschar                         divmod
     00001016  __modschar                         divmod
     0000101D  __divsint                          divmod
     00001026  __modsint                          divmod
     00001032  __divuchar                         divmod
     00001037  __moduchar                         divmod
     0000103E  __divuint                          divmod
     00001047  __moduint                          divmod
     00001053  .div8                              divmod
     00001053  .mod8                              divmod
     0000105B  .div16                             divmod
     0000105B  .mod16                             divmod
     00001091  .divu8                             divmod
     00001091  .modu8                             divmod
     00001094  .divu16                            divmod
     00001094  .modu16                            divmod

ASxxxx Linker V03.00/V05.40 + sdld,  page 34.
Hexadecimal  [32-Bits]

Area                                    Addr        Size        Decimal Bytes (Attributes)
--------------------------------        ----        ----        ------- ----- ------------
_HEADER0                            00000000    00000001 =           1. bytes (ABS,CON)

      Value  Global                              Global Defined In Module
      -----  --------------------------------   ------------------------
     00000020  .call_hl                           Runtime

ASxxxx Linker V03.00/V05.40 + sdld,  page 35.
Hexadecimal  [32-Bits]

Area                                    Addr        Size        Decimal Bytes (Attributes)
--------------------------------        ----        ----        ------- ----- ------------
_HEADER1                            00000000    00000005 =           5. bytes (ABS,CON)

      Value  Global                              Global Defined In Module
      -----  --------------------------------   ------------------------
     00000028  .MemsetSmall                       Runtime

ASxxxx Linker V03.00/V05.40 + sdld,  page 36.
Hexadecimal  [32-Bits]

Area                                    Addr        Size        Decimal Bytes (Attributes)
--------------------------------        ----        ----        ------- ----- ------------
_HEADER2                            00000000    00000007 =           7. bytes (ABS,CON)

      Value  Global                              Global Defined In Module
      -----  --------------------------------   ------------------------
     00000030  .MemcpySmall                       Runtime

ASxxxx Linker V03.00/V05.40 + sdld,  page 37.
Hexadecimal  [32-Bits]

Area                                    Addr        Size        Decimal Bytes (Attributes)
--------------------------------        ----        ----        ------- ----- ------------
_HEADER3                            00000000    00000008 =           8. bytes (ABS,CON)

      Value  Global                              Global Defined In Module
      -----  --------------------------------   ------------------------
ASxxxx Linker V03.00/V05.40 + sdld,  page 38.
Hexadecimal  [32-Bits]

Area                                    Addr        Size        Decimal Bytes (Attributes)
--------------------------------        ----        ----        ------- ----- ------------
_HEADER4                            00000000    00000060 =          96. bytes (ABS,CON)

      Value  Global                              Global Defined In Module
      -----  --------------------------------   ------------------------
     00000080  .int                               Runtime
     0000008F  _wait_int_handler                  Runtime
     0000009C  __standard_VBL_handler             Runtime
     000000AB  _refresh_OAM                       Runtime
     000000CC  _set_interrupts                    Runtime

ASxxxx Linker V03.00/V05.40 + sdld,  page 39.
Hexadecimal  [32-Bits]

Area                                    Addr        Size        Decimal Bytes (Attributes)
--------------------------------        ----        ----        ------- ----- ------------
_HEADER5                            00000000    00000001 =           1. bytes (ABS,CON)

      Value  Global                              Global Defined In Module
      -----  --------------------------------   ------------------------
ASxxxx Linker V03.00/V05.40 + sdld,  page 40.
Hexadecimal  [32-Bits]

Area                                    Addr        Size        Decimal Bytes (Attributes)
--------------------------------        ----        ----        ------- ----- ------------
_HEADER6                            00000000    00000002 =           2. bytes (ABS,CON)

      Value  Global                              Global Defined In Module
      -----  --------------------------------   ------------------------
ASxxxx Linker V03.00/V05.40 + sdld,  page 41.
Hexadecimal  [32-Bits]

Area                                    Addr        Size        Decimal Bytes (Attributes)
--------------------------------        ----        ----        ------- ----- ------------
_HEADER7                            00000000    00000030 =          48. bytes (ABS,CON)

      Value  Global                              Global Defined In Module
      -----  --------------------------------   ------------------------
ASxxxx Linker V03.00/V05.40 + sdld,  page 42.
Hexadecimal  [32-Bits]

Area                                    Addr        Size        Decimal Bytes (Attributes)
--------------------------------        ----        ----        ------- ----- ------------
_HEADER8                            00000000    00000006 =           6. bytes (ABS,CON)

      Value  Global                              Global Defined In Module
      -----  --------------------------------   ------------------------
ASxxxx Linker V03.00/V05.40 + sdld,  page 43.
Hexadecimal  [32-Bits]

Area                                    Addr        Size        Decimal Bytes (Attributes)
--------------------------------        ----        ----        ------- ----- ------------
_HEADER9                            00000000    00000003 =           3. bytes (ABS,CON)

      Value  Global                              Global Defined In Module
      -----  --------------------------------   ------------------------
ASxxxx Linker V03.00/V05.40 + sdld,  page 44.
Hexadecimal  [32-Bits]

Area                                    Addr        Size        Decimal Bytes (Attributes)
--------------------------------        ----        ----        ------- ----- ------------
_HEADERa                            00000000    00000001 =           1. bytes (ABS,CON)

      Value  Global                              Global Defined In Module
      -----  --------------------------------   ------------------------
ASxxxx Linker V03.00/V05.40 + sdld,  page 45.
Hexadecimal  [32-Bits]

Area                                    Addr        Size        Decimal Bytes (Attributes)
--------------------------------        ----        ----        ------- ----- ------------
_HEADERb                            00000000    00000001 =           1. bytes (ABS,CON)

      Value  Global                              Global Defined In Module
      -----  --------------------------------   ------------------------
ASxxxx Linker V03.00/V05.40 + sdld,  page 46.
Hexadecimal  [32-Bits]

Area                                    Addr        Size        Decimal Bytes (Attributes)
--------------------------------        ----        ----        ------- ----- ------------
_HEADERc                            00000000    00000001 =           1. bytes (ABS,CON)

      Value  Global                              Global Defined In Module
      -----  --------------------------------   ------------------------
ASxxxx Linker V03.00/V05.40 + sdld,  page 47.
Hexadecimal  [32-Bits]

Area                                    Addr        Size        Decimal Bytes (Attributes)
--------------------------------        ----        ----        ------- ----- ------------
_HEADERd                            00000000    00000002 =           2. bytes (ABS,CON)

      Value  Global                              Global Defined In Module
      -----  --------------------------------   ------------------------
ASxxxx Linker V03.00/V05.40 + sdld,  page 48.
Hexadecimal  [32-Bits]

Area                                    Addr        Size        Decimal Bytes (Attributes)
--------------------------------        ----        ----        ------- ----- ------------
_HEADERe                            00000000    00000001 =           1. bytes (ABS,CON)

      Value  Global                              Global Defined In Module
      -----  --------------------------------   ------------------------
ASxxxx Linker V03.00/V05.40 + sdld,  page 49.
Hexadecimal  [32-Bits]

Area                                    Addr        Size        Decimal Bytes (Attributes)
--------------------------------        ----        ----        ------- ----- ------------
_HEADERf                            00000000    00000001 =           1. bytes (ABS,CON)

      Value  Global                              Global Defined In Module
      -----  --------------------------------   ------------------------
ASxxxx Linker V03.00/V05.40 + sdld,  page 50.
Hexadecimal  [32-Bits]

Area                                    Addr        Size        Decimal Bytes (Attributes)
--------------------------------        ----        ----        ------- ----- ------------
_HEADER10                           00000000    00000002 =           2. bytes (ABS,CON)

      Value  Global                              Global Defined In Module
      -----  --------------------------------   ------------------------
ASxxxx Linker V03.00/V05.40 + sdld,  page 51.
Hexadecimal  [32-Bits]

Area                                    Addr        Size        Decimal Bytes (Attributes)
--------------------------------        ----        ----        ------- ----- ------------
_HEADER11                           00000000    000000AB =         171. bytes (ABS,CON)

      Value  Global                              Global Defined In Module
      -----  --------------------------------   ------------------------
     00000150  .reset                             Runtime
     00000150  _reset                             Runtime
     00000157  .code_start                        Runtime
     000001B9  _exit                              Runtime
     000001BD  .wait_vbl_done                     Runtime
     000001BD  _vsync                             Runtime
     000001BD  _wait_vbl_done                     Runtime
     000001CD  .remove_VBL                        Runtime
     000001CD  _remove_VBL                        Runtime
     000001D0  .remove_int                        Runtime
     000001ED  .add_VBL                           Runtime
     000001ED  _add_VBL                           Runtime
     000001F0  .add_int                           Runtime

ASxxxx Linker V03.00/V05.40 + sdld,  page 52.
Hexadecimal  [32-Bits]

Area                                    Addr        Size        Decimal Bytes (Attributes)
--------------------------------        ----        ----        ------- ----- ------------
_HOME                               000010D4    00002DAF =       11695. bytes (REL,CON)

      Value  Global                              Global Defined In Module
      -----  --------------------------------   ------------------------
     000010D4  .memset_simple                     Runtime
     000010DD  .memcpy_simple                     Runtime
     000010FA  .display_off                       Runtime
     000010FA  _display_off                       Runtime
     00001112  _actors_update                     actor
     0000157A  _SetBankedBkgData                  bankdata
     00001596  _SetBankedSpriteData               bankdata
     000015B2  _SetBankedBkgTiles                 bankdata
     000015CE  _SetBankedWinTiles                 bankdata
     000015EA  _ReadBankedFarPtr                  bankdata
     0000160C  _ReadBankedUWORD                   bankdata
     00001626  _MemcpyBanked                      bankdata
     00001648  _MemcpyVRAMBanked                  bankdata
     00001677  _IndexOfFarPtr                     bankdata
     000016FC  _camera_update                     camera
     0000182F  _load_animations                   data_manager
     00001888  _events_update                     events
     0000195B  _timers_update                     events
     000019E4  _input_update                      input
     00001A0A  .sio_ISR                           
     00001A64  .timer_ISR                         
     00001A79  _simple_LCD_isr                    interrupts
     00001AF8  _fullscreen_LCD_isr                interrupts
     00001B24  _VBL_isr                           interrupts
     00001B6E  _isqrt                             math
     00001BCB  _sine_wave                         math
     00001CCB  _dir_lookup                        math
     00001CD3  _dir_angle_lookup                  math
     00001CD7  _hUGETrackerRoutine                music_manager
     00001CFE  _music_events_update               music_manager
     00001D80  _music_play_isr                    music_manager
     00001E21  _parallax_LCD_isr                  parallax
     00001E5E  _projectiles_update                projectiles
     000022DF  _projectiles_render                projectiles
     00002434  _scroll_load_pending_row           scroll
     000024BA  _scroll_load_row                   scroll
     0000252F  _scroll_load_col                   scroll
     00002598  _scroll_load_pending_col           scroll
     00002620  _set_bkg_submap                    
     00002663  _set_xy_win_submap                 
     00002690  .set_xy_win_submap                 
     00002699  .set_xy_bkg_submap                 
     000026A8  .set_xy_submap                     
     000026F2  _sfx_play_isr                      sfx_player
     000027CB  _on_SIO_receive                    sio
     0000280C  _SIO_update                        sio
     00002873  _ui_update                         ui
     000029AB  _vm_sgb_transfer                   vm_sgb
     000029F8  _vm_load_text                      vm_ui
     00002C4E  _vm_switch                         vm
ASxxxx Linker V03.00/V05.40 + sdld,  page 53.
Hexadecimal  [32-Bits]

Area                                    Addr        Size        Decimal Bytes (Attributes)
--------------------------------        ----        ----        ------- ----- ------------
_HOME                               000010D4    00002DAF =       11695. bytes (REL,CON)

      Value  Global                              Global Defined In Module
      -----  --------------------------------   ------------------------
     00002D7F  _vm_beginthread                    vm
     00002EA3  _vm_rpn                            vm
     000038BB  _vm_get_far                        vm
     00003929  _vm_call_native                    vm
     0000393C  _VM_STEP                           vm
     000039A6  _script_runner_update              vm
     00003B0B  _fill_win_rect                     
     00003B1D  _rand                              
     00003B1D  _randw                             
     00003B48  _initrand                          
     00003B4A  .initrand                          
     00003B53  _get_bkg_data                      
     00003B53  _get_win_data                      
     00003BA0  _get_sprite_data                   
     00003BD3  _abs                               abs
     00003BE0  _set_win_tiles                     
     00003BF4  _set_tile_data                     
     00003BF9  _set_bkg_data                      
     00003BF9  _set_win_data                      
     00003C01  _set_sprite_data                   
     00003C31  _reverse                           reverse
     00003C65  ___call__banked                    far_ptr
     00003C82  _to_far_ptr                        far_ptr
     00003CB8  .add_LCD                           
     00003CB8  _add_LCD                           
     00003CBE  .remove_LCD                        
     00003CBE  _remove_LCD                        
     00003CC4  .fill_rect_wtt                     
     00003CCD  .fill_rect_btt                     
     00003D1A  _joypad_init                       
     00003D68  .joypad_ex                         
     00003D68  _joypad_ex                         
     00003DB3  _fill_bkg_rect                     
     00003DC5  ___sdcc_call_hl                    call_hl
     00003DC6  _memset                            memset
     00003DF9  .set_xy_wtt                        SetTileMap
     00003E02  .set_xy_btt                        SetTileMap
     00003E11  .set_xy_tt                         SetTileMap
     00003E55  ___sdcc_bcall_ehl                  
     00003E6F  _set_bkg_tiles                     
ASxxxx Linker V03.00/V05.40 + sdld,  page 54.
Hexadecimal  [32-Bits]

Area                                    Addr        Size        Decimal Bytes (Attributes)
--------------------------------        ----        ----        ------- ----- ------------
_INITIALIZER                        00003E83    0000001A =          26. bytes (REL,CON)

      Value  Global                              Global Defined In Module
      -----  --------------------------------   ------------------------
ASxxxx Linker V03.00/V05.40 + sdld,  page 55.
Hexadecimal  [32-Bits]

Area                                    Addr        Size        Decimal Bytes (Attributes)
--------------------------------        ----        ----        ------- ----- ------------
_GSINIT                             00003E9D    00000027 =          39. bytes (REL,CON)

      Value  Global                              Global Defined In Module
      -----  --------------------------------   ------------------------
     00003E9D  gsinit                             Runtime

ASxxxx Linker V03.00/V05.40 + sdld,  page 56.
Hexadecimal  [32-Bits]

Area                                    Addr        Size        Decimal Bytes (Attributes)
--------------------------------        ----        ----        ------- ----- ------------
_GSFINAL                            00003EC4    00000001 =           1. bytes (REL,CON)

      Value  Global                              Global Defined In Module
      -----  --------------------------------   ------------------------
ASxxxx Linker V03.00/V05.40 + sdld,  page 57.
Hexadecimal  [32-Bits]

Area                                    Addr        Size        Decimal Bytes (Attributes)
--------------------------------        ----        ----        ------- ----- ------------
_DATA                               0000C0A0    00001994 =        6548. bytes (REL,CON)

      Value  Global                              Global Defined In Module
      -----  --------------------------------   ------------------------
     0000C0A0  __cpu                              Runtime
     0000C0A1  __is_GBA                           Runtime
     0000C0A2  .mode                              Runtime
     0000C0A3  .sys_time                          Runtime
     0000C0A3  _sys_time                          Runtime
     0000C0A5  .int_0x40                          Runtime
     0000C0B1  _actors                            actor
     0000C4F5  _actors_active_head                actor
     0000C4F7  _actors_active_tail                actor
     0000C4F9  _actors_inactive_head              actor
     0000C4FB  _screen_x                          actor
     0000C4FC  _screen_y                          actor
     0000C4FD  _invalid                           actor
     0000C4FF  _player_moving                     actor
     0000C500  _player_iframes                    actor
     0000C501  _player_collision_actor            actor
     0000C503  _emote_actor                       actor
     0000C505  _emote_timer                       actor
     0000C506  _allocated_sprite_tiles            actor
     0000C507  _allocated_hardware_sprites        actor
     0000C514  _camera_x                          camera
     0000C516  _camera_y                          camera
     0000C518  _camera_offset_x                   camera
     0000C519  _camera_offset_y                   camera
     0000C51A  _camera_deadzone_x                 camera
     0000C51B  _camera_deadzone_y                 camera
     0000C51C  _camera_settings                   camera
     0000C520  _current_scene                     data_manager
     0000C523  _image_bank                        data_manager
     0000C524  _image_ptr                         data_manager
     0000C526  _image_attr_bank                   data_manager
     0000C527  _image_attr_ptr                    data_manager
     0000C529  _collision_bank                    data_manager
     0000C52A  _collision_ptr                     data_manager
     0000C52C  _image_tile_width                  data_manager
     0000C52D  _image_tile_height                 data_manager
     0000C52E  _image_width                       data_manager
     0000C530  _image_height                      data_manager
     0000C532  _sprites_len                       data_manager
     0000C533  _actors_len                        data_manager
     0000C534  _projectiles_len                   data_manager
     0000C535  _player_sprite_len                 data_manager
     0000C536  _scene_type                        data_manager
     0000C537  _scene_LCD_type                    data_manager
     0000C538  _scene_stack                       data_manager
     0000C578  _scene_stack_ptr                   data_manager
     0000C57A  _scene_sprites_base_tiles          data_manager
     0000C5BA  _input_events                      events
     0000C5E2  _input_slots                       events
     0000C5EA  _timer_events                      events
ASxxxx Linker V03.00/V05.40 + sdld,  page 58.
Hexadecimal  [32-Bits]

Area                                    Addr        Size        Decimal Bytes (Attributes)
--------------------------------        ----        ----        ------- ----- ------------
_DATA                               0000C0A0    00001994 =        6548. bytes (REL,CON)

      Value  Global                              Global Defined In Module
      -----  --------------------------------   ------------------------
     0000C5FE  _timer_values                      events
     0000C606  _fade_running                      fade_manager
     0000C607  _fade_frames_per_step              fade_manager
     0000C608  _fade_timer                        fade_manager
     0000C610  _joypads                           input
     0000C615  _frame_joy                         input
     0000C616  _last_joy                          input
     0000C617  _recent_joy                        input
     0000C618  _SIO_status                        
     0000C619  _link_byte_sent                    
     0000C61A  _link_next_mode                    
     0000C61B  _save_blob_size                    load_save
     0000C61D  _routine_queue                     music_manager
     0000C621  _routine_queue_head                music_manager
     0000C622  _routine_queue_tail                music_manager
     0000C623  _music_events                      music_manager
     0000C637  _music_current_track_bank          music_manager
     0000C638  _music_mute_mask                   music_manager
     0000C639  _music_effective_mute              music_manager
     0000C63A  _music_next_track                  music_manager
     0000C63C  _music_current_track               music_manager
     0000C63E  _music_play_isr_counter            music_manager
     0000C63F  _music_play_isr_pause              music_manager
     0000C640  _music_global_mute_mask            music_manager
     0000C641  _music_sfx_priority                music_manager
     0000C642  _DMG_palette                       palette
     0000C645  _SprPalette                        palette
     0000C685  _parallax_rows                     parallax
     0000C697  _parallax_row                      parallax
     0000C699  _projectiles                       projectiles
     0000C752  _projectile_defs                   projectiles
     0000C7C5  _projectiles_active_head           projectiles
     0000C7C7  _projectiles_inactive_head         projectiles
     0000C7CE  _scroll_x                          scroll
     0000C7D0  _scroll_y                          scroll
     0000C7D2  _draw_scroll_x                     scroll
     0000C7D4  _draw_scroll_y                     scroll
     0000C7D6  _scroll_x_max                      scroll
     0000C7D8  _scroll_y_max                      scroll
     0000C7DA  _scroll_offset_x                   scroll
     0000C7DB  _scroll_offset_y                   scroll
     0000C7DC  _pending_h_x                       scroll
     0000C7DD  _pending_h_y                       scroll
     0000C7DE  _pending_h_i                       scroll
     0000C7DF  _pending_w_x                       scroll
     0000C7E0  _pending_w_y                       scroll
     0000C7E1  _pending_w_i                       scroll
     0000C7E2  _current_row                       scroll
     0000C7E4  _new_row                           scroll
     0000C7E6  _current_col                       scroll
     0000C7E8  _new_col                           scroll
ASxxxx Linker V03.00/V05.40 + sdld,  page 59.
Hexadecimal  [32-Bits]

Area                                    Addr        Size        Decimal Bytes (Attributes)
--------------------------------        ----        ----        ------- ----- ------------
_DATA                               0000C0A0    00001994 =        6548. bytes (REL,CON)

      Value  Global                              Global Defined In Module
      -----  --------------------------------   ------------------------
     0000C7EA  .image_tile_width                  
     0000C7EB  _sfx_play_bank                     sfx_player
     0000C7EC  _sfx_play_sample                   sfx_player
     0000C7EE  _sfx_frame_skip                    sfx_player
     0000C7EF  _link_operation_mode               sio
     0000C7F0  _link_packet                       sio
     0000C810  _link_packet_len                   sio
     0000C811  _link_packet_ptr                   sio
     0000C813  _link_packet_received              sio
     0000C814  _link_packet_snd_len               sio
     0000C815  _link_packet_snd_ptr               sio
     0000C817  _link_packet_sent                  sio
     0000C818  __is_CGB                           system
     0000C819  __is_SGB                           system
     0000C81A  __current_ram_bank                 system
     0000C81B  _triggers                          trigger
     0000C913  _last_trigger_tx                   trigger
     0000C914  _last_trigger_ty                   trigger
     0000C915  _last_trigger                      trigger
     0000C916  _win_pos_x                         ui
     0000C917  _win_dest_pos_x                    ui
     0000C918  _win_pos_y                         ui
     0000C919  _win_dest_pos_y                    ui
     0000C91A  _win_speed                         ui
     0000C91B  _text_drawn                        ui
     0000C91C  _current_text_speed                ui
     0000C91D  _text_wait                         ui
     0000C91E  _text_options                      ui
     0000C91F  _text_in_speed                     ui
     0000C920  _text_out_speed                    ui
     0000C921  _text_draw_speed                   ui
     0000C922  _text_ff_joypad                    ui
     0000C923  _text_ff                           ui
     0000C924  _text_bkg_fill                     ui
     0000C925  _ui_text_data                      ui
     0000CA2F  _vwf_current_mask                  ui
     0000CA30  _vwf_current_rotate                ui
     0000CA31  _vwf_inverse_map                   ui
     0000CA32  _vwf_direction                     ui
     0000CA33  _vwf_current_font_desc             ui
     0000CA3B  _vwf_current_font_bank             ui
     0000CA3C  _vwf_current_font_idx              ui
     0000CA3D  _text_render_base_addr             ui
     0000CA3F  _text_scroll_addr                  ui
     0000CA41  _text_scroll_width                 ui
     0000CA42  _text_scroll_height                ui
     0000CA43  _text_scroll_fill                  ui
     0000CA44  _text_sound_mask                   ui
     0000CA45  _text_sound_bank                   ui
     0000CA46  _text_sound_data                   ui
     0000CA48  _overlay_priority                  ui
ASxxxx Linker V03.00/V05.40 + sdld,  page 60.
Hexadecimal  [32-Bits]

Area                                    Addr        Size        Decimal Bytes (Attributes)
--------------------------------        ----        ----        ------- ----- ------------
_DATA                               0000C0A0    00001994 =        6548. bytes (REL,CON)

      Value  Global                              Global Defined In Module
      -----  --------------------------------   ------------------------
     0000CA49  _text_palette                      ui
     0000CA50  __itoa_fmt_len                     vm_ui_a
     0000CA51  .itoa_fmt_buf                      vm_ui_a
     0000CA54  _CTXS                              vm
     0000CB84  _first_ctx                         vm
     0000CB86  _free_ctxs                         vm
     0000CB88  _old_executing_ctx                 vm
     0000CB8A  _executing_ctx                     vm
     0000CB8C  _vm_lock_state                     vm
     0000CB8D  _vm_loaded_state                   vm
     0000CB8E  _vm_exception_code                 vm
     0000CB8F  _vm_exception_params_length        vm
     0000CB90  _vm_exception_params_bank          vm
     0000CB91  _vm_exception_params_offset        vm
     0000CB95  _script_memory                     vm
     0000D99B  _grounded                          platform
     0000D99C  _on_slope                          platform
     0000D99D  _slope_y                           platform
     0000D99E  _on_ladder                         platform
     0000D99F  _pl_vel_x                          platform
     0000D9A1  _pl_vel_y                          platform
     0000D9A3  _plat_min_vel                      platform
     0000D9A5  _plat_walk_vel                     platform
     0000D9A7  _plat_climb_vel                    platform
     0000D9A9  _plat_run_vel                      platform
     0000D9AB  _plat_walk_acc                     platform
     0000D9AD  _plat_run_acc                      platform
     0000D9AF  _plat_dec                          platform
     0000D9B1  _plat_jump_vel                     platform
     0000D9B3  _plat_grav                         platform
     0000D9B5  _plat_hold_grav                    platform
     0000D9B7  _plat_max_fall_vel                 platform
     0000D9B9  _shooter_reached_end               shmup
     0000D9BA  _shooter_dest                      shmup
     0000D9BC  _shooter_direction                 shmup
     0000D9BD  _topdown_grid                      topdown
     0000D9BE  ___rand_seed                       
     0000D9DC  _hUGE_current_wave                 hUGEDriver_obj
     0000D9DC  hUGE_current_wave                  hUGEDriver_obj
     0000D9DD  _hUGE_mute_mask                    hUGEDriver_obj
     0000DA24  ___call_banked_addr                far_ptr
     0000DA24  ___call_banked_ptr                 far_ptr
     0000DA26  ___call_banked_bank                far_ptr
     0000DA28  .int_0x48                          
     0000DA30  ___current_metasprite              Metasprites
     0000DA32  ___current_base_tile               Metasprites
     0000DA33  ___current_base_prop               Metasprites

ASxxxx Linker V03.00/V05.40 + sdld,  page 61.
Hexadecimal  [32-Bits]

Area                                    Addr        Size        Decimal Bytes (Attributes)
--------------------------------        ----        ----        ------- ----- ------------
_INITIALIZED                        0000DA34    0000001A =          26. bytes (REL,CON)

      Value  Global                              Global Defined In Module
      -----  --------------------------------   ------------------------
     0000DA34  _fade_style                        fade_manager
     0000DA35  _game_time                         game_time
     0000DA36  _PRN_PKT_START                     gbprinter
     0000DA44  _hide_sprites                      interrupts
     0000DA45  _show_actors_on_overlay            interrupts
     0000DA46  _overlay_cut_scanline              interrupts
     0000DA47  __submap_tile_offset               
     0000DA48  _triggers_len                      trigger
     0000DA49  _exchange_state                    vm_sio
     0000DA4A  _last_hit_trigger                  pointnclick
     0000DA4B  _shooter_scroll_speed              shmup
     0000DA4C  ___render_shadow_OAM               Metasprites
     0000DA4D  __map_tile_offset                  SetTileMap

ASxxxx Linker V03.00/V05.40 + sdld,  page 62.
Hexadecimal  [32-Bits]

Area                                    Addr        Size        Decimal Bytes (Attributes)
--------------------------------        ----        ----        ------- ----- ------------
_HRAM12                             00000000    00000003 =           3. bytes (ABS,CON)

      Value  Global                              Global Defined In Module
      -----  --------------------------------   ------------------------
     0000FF90  __current_bank                     Runtime
     0000FF92  __shadow_OAM_base                  Runtime

ASxxxx Linker V03.00/V05.40 + sdld,  page 63.
Hexadecimal  [32-Bits]

Area                                    Addr        Size        Decimal Bytes (Attributes)
--------------------------------        ----        ----        ------- ----- ------------
_CODE_10                            000A4000    00004000 =       16384. bytes (REL,CON)

      Value  Global                              Global Defined In Module
      -----  --------------------------------   ------------------------
     000A4000  ___func_ACTOR                      actor
     000A4000  _actors_init                       actor
     000A403A  _emote_offsets                     actor
     000A4049  _emote_metasprite                  actor
     000A4055  _player_init                       actor
     000A406A  _deactivate_actor                  actor
     000A41CB  _activate_actor                    actor
     000A430A  _activate_actors_in_row            actor
     000A4401  _activate_actors_in_col            actor
     000A4552  _actor_set_frames                  actor
     000A45A8  _actor_set_frame_offset            actor
     000A45E3  _actor_get_frame_offset            actor
     000A45F5  _actor_set_anim_idle               actor
     000A4623  _actor_set_anim_moving             actor
     000A4654  _actor_set_dir                     actor
     000A46B9  _actor_at_tile                     actor
     000A478D  _actor_in_front_of_player          actor
     000A4841  _actor_overlapping_player          actor
     000A4ADA  _actor_overlapping_bb              actor
     000A4CF9  _actors_handle_player_collision    actor
     000A4D85  _check_collision_in_direction      actor
     000A55A3  ___func_VM_ACTOR                   vm_actor
     000A55A3  _vm_actor_move_to                  vm_actor
     000A5F3F  _vm_actor_move_cancel              vm_actor
     000A5F75  _vm_actor_activate                 vm_actor
     000A5FC6  _vm_actor_deactivate               vm_actor
     000A6017  _vm_actor_begin_update             vm_actor
     000A609E  _vm_actor_terminate_update         vm_actor
     000A60E5  _vm_actor_set_dir                  vm_actor
     000A612E  _vm_actor_set_anim                 vm_actor
     000A61BC  _vm_actor_set_pos                  vm_actor
     000A6236  _vm_actor_get_pos                  vm_actor
     000A62A5  _vm_actor_get_dir                  vm_actor
     000A631F  _vm_actor_get_angle                vm_actor
     000A63A0  _vm_actor_emote                    vm_actor
     000A6464  _vm_actor_set_bounds               vm_actor
     000A64C2  _vm_actor_set_spritesheet          vm_actor
     000A658C  _vm_actor_replace_tile             vm_actor
     000A65F7  _vm_actor_set_anim_tick            vm_actor
     000A6635  _vm_actor_set_move_speed           vm_actor
     000A6673  _vm_actor_set_anim_frame           vm_actor
     000A66B7  _vm_actor_get_anim_frame           vm_actor
     000A6701  _vm_actor_set_anim_set             vm_actor
     000A6789  _vm_actor_set_spritesheet_by_ref   vm_actor
     000A6896  _vm_actor_set_flags                vm_actor
     000A6944  ___func_bg_shillycityopen_copy_1   bg_shillycityopen_copy_1_til
     000A6944  _bg_shillycityopen_copy_1_tilema   bg_shillycityopen_copy_1_til
     000A7AD8  ___func_bg_title_copy__tileset     bg_title_copy__tileset
     000A7AD8  _bg_title_copy__tileset            bg_title_copy__tileset
     000A7FFA  ___func_scene_18_sprites           scene_18_sprites
ASxxxx Linker V03.00/V05.40 + sdld,  page 64.
Hexadecimal  [32-Bits]

Area                                    Addr        Size        Decimal Bytes (Attributes)
--------------------------------        ----        ----        ------- ----- ------------
_CODE_10                            000A4000    00004000 =       16384. bytes (REL,CON)

      Value  Global                              Global Defined In Module
      -----  --------------------------------   ------------------------
     000A7FFA  _scene_18_sprites                  scene_18_sprites
ASxxxx Linker V03.00/V05.40 + sdld,  page 65.
Hexadecimal  [32-Bits]

Area                                    Addr        Size        Decimal Bytes (Attributes)
--------------------------------        ----        ----        ------- ----- ------------
_CODE_30                            001E4000    000002F7 =         759. bytes (REL,CON)

      Value  Global                              Global Defined In Module
      -----  --------------------------------   ------------------------
     001E4000  _bootstrap_script                  
     001E400B  ___func_bg_lencity_trainstation    bg_lencity_trainstation
     001E400B  _bg_lencity_trainstation           bg_lencity_trainstation
     001E4019  ___func_bg_lencityopen_copy_       bg_lencityopen_copy_
     001E4019  _bg_lencityopen_copy_              bg_lencityopen_copy_
     001E4027  ___func_bg_lencityopen_copy_0      bg_lencityopen_copy_0
     001E4027  _bg_lencityopen_copy_0             bg_lencityopen_copy_0
     001E4035  ___func_bg_lencityopen             bg_lencityopen
     001E4035  _bg_lencityopen                    bg_lencityopen
     001E4043  ___func_bg_options_copy_           bg_options_copy_
     001E4043  _bg_options_copy_                  bg_options_copy_
     001E4051  ___func_bg_pixil_frame_0_23        bg_pixil_frame_0_23
     001E4051  _bg_pixil_frame_0_23               bg_pixil_frame_0_23
     001E405F  ___func_bg_pixil_frame_0_24        bg_pixil_frame_0_24
     001E405F  _bg_pixil_frame_0_24               bg_pixil_frame_0_24
     001E406D  ___func_bg_pixil_frame_0_30        bg_pixil_frame_0_30
     001E406D  _bg_pixil_frame_0_30               bg_pixil_frame_0_30
     001E407B  ___func_bg_pixil_frame_0_31        bg_pixil_frame_0_31
     001E407B  _bg_pixil_frame_0_31               bg_pixil_frame_0_31
     001E4089  ___func_bg_pixil_frame_0_33        bg_pixil_frame_0_33
     001E4089  _bg_pixil_frame_0_33               bg_pixil_frame_0_33
     001E4097  ___func_bg_pixil_frame_0_copy_co   bg_pixil_frame_0_copy_copy_
     001E4097  _bg_pixil_frame_0_copy_copy_       bg_pixil_frame_0_copy_copy_
     001E40A5  ___func_bg_pixil_frame_23_0        bg_pixil_frame_23_0
     001E40A5  _bg_pixil_frame_23_0               bg_pixil_frame_23_0
     001E40B3  ___func_bg_placeholder_copy_copy   bg_placeholder_copy_copy_co_
     001E40B3  _bg_placeholder_copy_copy_co_0     bg_placeholder_copy_copy_co_
     001E40C1  ___func_bg_placeholder_copy_copy   bg_placeholder_copy_copy_co
     001E40C1  _bg_placeholder_copy_copy_co       bg_placeholder_copy_copy_co
     001E40CF  ___func_bg_samsam_copy             bg_samsam_copy
     001E40CF  _bg_samsam_copy                    bg_samsam_copy
     001E40DD  ___func_bg_shillycity_sara_house   bg_shillycity_sara_house_co
     001E40DD  _bg_shillycity_sara_house_co       bg_shillycity_sara_house_co
     001E40EB  ___func_bg_shillycityopen_copy_    bg_shillycityopen_copy_
     001E40EB  _bg_shillycityopen_copy_           bg_shillycityopen_copy_
     001E40F9  ___func_bg_shillycityopen_copy_0   bg_shillycityopen_copy_0
     001E40F9  _bg_shillycityopen_copy_0          bg_shillycityopen_copy_0
     001E4107  ___func_bg_shillycityopen_copy_1   bg_shillycityopen_copy_1
     001E4107  _bg_shillycityopen_copy_1          bg_shillycityopen_copy_1
     001E4115  ___func_bg_square_frozen_future    bg_square_frozen_future
     001E4115  _bg_square_frozen_future           bg_square_frozen_future
     001E4123  ___func_bg_theatre                 bg_theatre
     001E4123  _bg_theatre                        bg_theatre
     001E4131  ___func_bg_title_copy_             bg_title_copy_
     001E4131  _bg_title_copy_                    bg_title_copy_
     001E413F  ___func_bg_title_copy_0            bg_title_copy_0
     001E413F  _bg_title_copy_0                   bg_title_copy_0
     001E414D  ___func_bg_title_copy_1            bg_title_copy_1
     001E414D  _bg_title_copy_1                   bg_title_copy_1
     001E415B  ___func_bg_title_copy_2            bg_title_copy_2
ASxxxx Linker V03.00/V05.40 + sdld,  page 66.
Hexadecimal  [32-Bits]

Area                                    Addr        Size        Decimal Bytes (Attributes)
--------------------------------        ----        ----        ------- ----- ------------
_CODE_30                            001E4000    000002F7 =         759. bytes (REL,CON)

      Value  Global                              Global Defined In Module
      -----  --------------------------------   ------------------------
     001E415B  _bg_title_copy_2                   bg_title_copy_2
     001E4169  ___func_bg_title                   bg_title
     001E4169  _bg_title                          bg_title
     001E4177  ___func_bg_wakeupsquare_1          bg_wakeupsquare_1
     001E4177  _bg_wakeupsquare_1                 bg_wakeupsquare_1
     001E4185  ___func_bg_wakeupsquare_3_copy_    bg_wakeupsquare_3_copy_
     001E4185  _bg_wakeupsquare_3_copy_           bg_wakeupsquare_3_copy_
     001E4193  ___func_scene_27_triggers          scene_27_triggers
     001E4193  _scene_27_triggers                 scene_27_triggers
     001E419B  ___func_scene_29_triggers          scene_29_triggers
     001E419B  _scene_29_triggers                 scene_29_triggers
     001E41A3  ___func_scene_3_sprites            scene_3_sprites
     001E41A3  _scene_3_sprites                   scene_3_sprites
     001E41A6  ___func_scene_32_triggers          scene_32_triggers
     001E41A6  _scene_32_triggers                 scene_32_triggers
     001E41AE  ___func_scene_33_sprites           scene_33_sprites
     001E41AE  _scene_33_sprites                  scene_33_sprites
     001E41B1  ___func_scene_33_triggers          scene_33_triggers
     001E41B1  _scene_33_triggers                 scene_33_triggers
     001E41B9  ___func_scene_34_sprites           scene_34_sprites
     001E41B9  _scene_34_sprites                  scene_34_sprites
     001E41BC  ___func_scene_35_triggers          scene_35_triggers
     001E41BC  _scene_35_triggers                 scene_35_triggers
     001E41C4  ___func_scene_37_sprites           scene_37_sprites
     001E41C4  _scene_37_sprites                  scene_37_sprites
     001E41C7  ___func_scene_39_sprites           scene_39_sprites
     001E41C7  _scene_39_sprites                  scene_39_sprites
     001E41D3  ___func_scene_42_triggers          scene_42_triggers
     001E41D3  _scene_42_triggers                 scene_42_triggers
     001E41DB  ___func_scene_44_triggers          scene_44_triggers
     001E41DB  _scene_44_triggers                 scene_44_triggers
     001E41E3  ___func_scene_45_triggers          scene_45_triggers
     001E41E3  _scene_45_triggers                 scene_45_triggers
     001E41EB  ___func_scene_46_triggers          scene_46_triggers
     001E41EB  _scene_46_triggers                 scene_46_triggers
     001E41F3  ___func_scene_48_sprites           scene_48_sprites
     001E41F3  _scene_48_sprites                  scene_48_sprites
     001E41F9  ___func_scene_48_triggers          scene_48_triggers
     001E41F9  _scene_48_triggers                 scene_48_triggers
     001E4201  ___func_scene_49_sprites           scene_49_sprites
     001E4201  _scene_49_sprites                  scene_49_sprites
     001E4207  ___func_scene_50_sprites           scene_50_sprites
     001E4207  _scene_50_sprites                  scene_50_sprites
     001E420D  ___func_scene_51_sprites           scene_51_sprites
     001E420D  _scene_51_sprites                  scene_51_sprites
     001E4210  ___func_scene_51_triggers          scene_51_triggers
     001E4210  _scene_51_triggers                 scene_51_triggers
     001E4218  ___func_scene_52_sprites           scene_52_sprites
     001E4218  _scene_52_sprites                  scene_52_sprites
     001E421E  ___func_scene_53_sprites           scene_53_sprites
     001E421E  _scene_53_sprites                  scene_53_sprites
ASxxxx Linker V03.00/V05.40 + sdld,  page 67.
Hexadecimal  [32-Bits]

Area                                    Addr        Size        Decimal Bytes (Attributes)
--------------------------------        ----        ----        ------- ----- ------------
_CODE_30                            001E4000    000002F7 =         759. bytes (REL,CON)

      Value  Global                              Global Defined In Module
      -----  --------------------------------   ------------------------
     001E4224  ___func_scene_53_triggers          scene_53_triggers
     001E4224  _scene_53_triggers                 scene_53_triggers
     001E422C  ___func_scene_54_sprites           scene_54_sprites
     001E422C  _scene_54_sprites                  scene_54_sprites
     001E422F  ___func_scene_54_triggers          scene_54_triggers
     001E422F  _scene_54_triggers                 scene_54_triggers
     001E4237  ___func_scene_55_triggers          scene_55_triggers
     001E4237  _scene_55_triggers                 scene_55_triggers
     001E423F  ___func_scene_56_triggers          scene_56_triggers
     001E423F  _scene_56_triggers                 scene_56_triggers
     001E4247  ___func_scene_58_sprites           scene_58_sprites
     001E4247  _scene_58_sprites                  scene_58_sprites
     001E424A  ___func_scene_59_triggers          scene_59_triggers
     001E424A  _scene_59_triggers                 scene_59_triggers
     001E4252  ___func_scene_60_sprites           scene_60_sprites
     001E4252  _scene_60_sprites                  scene_60_sprites
     001E4255  ___func_scene_60_triggers          scene_60_triggers
     001E4255  _scene_60_triggers                 scene_60_triggers
     001E425D  ___func_scene_61_sprites           scene_61_sprites
     001E425D  _scene_61_sprites                  scene_61_sprites
     001E4260  ___func_scene_61_triggers          scene_61_triggers
     001E4260  _scene_61_triggers                 scene_61_triggers
     001E4268  ___func_scene_63_triggers          scene_63_triggers
     001E4268  _scene_63_triggers                 scene_63_triggers
     001E4270  ___func_scene_64_sprites           scene_64_sprites
     001E4270  _scene_64_sprites                  scene_64_sprites
     001E4273  ___func_scene_67_triggers          scene_67_triggers
     001E4273  _scene_67_triggers                 scene_67_triggers
     001E427B  ___func_scene_68_triggers          scene_68_triggers
     001E427B  _scene_68_triggers                 scene_68_triggers
     001E4283  ___func_scene_70_triggers          scene_70_triggers
     001E4283  _scene_70_triggers                 scene_70_triggers
     001E428B  ___func_scene_71_sprites           scene_71_sprites
     001E428B  _scene_71_sprites                  scene_71_sprites
     001E428E  ___func_scene_73_sprites           scene_73_sprites
     001E428E  _scene_73_sprites                  scene_73_sprites
     001E4291  ___func_scene_75_triggers          scene_75_triggers
     001E4291  _scene_75_triggers                 scene_75_triggers
     001E4299  ___func_scene_76_sprites           scene_76_sprites
     001E4299  _scene_76_sprites                  scene_76_sprites
     001E429C  ___func_scene_76_triggers          scene_76_triggers
     001E429C  _scene_76_triggers                 scene_76_triggers
     001E42A4  ___func_scene_77_triggers          scene_77_triggers
     001E42A4  _scene_77_triggers                 scene_77_triggers
     001E42AC  ___func_scene_78_triggers          scene_78_triggers
     001E42AC  _scene_78_triggers                 scene_78_triggers
     001E42B4  ___func_scene_79_triggers          scene_79_triggers
     001E42B4  _scene_79_triggers                 scene_79_triggers
     001E42BC  ___func_scene_86_sprites           scene_86_sprites
     001E42BC  _scene_86_sprites                  scene_86_sprites
     001E42BF  ___func_scene_89_triggers          scene_89_triggers
ASxxxx Linker V03.00/V05.40 + sdld,  page 68.
Hexadecimal  [32-Bits]

Area                                    Addr        Size        Decimal Bytes (Attributes)
--------------------------------        ----        ----        ------- ----- ------------
_CODE_30                            001E4000    000002F7 =         759. bytes (REL,CON)

      Value  Global                              Global Defined In Module
      -----  --------------------------------   ------------------------
     001E42BF  _scene_89_triggers                 scene_89_triggers
     001E42C7  ___func_scene_90_sprites           scene_90_sprites
     001E42C7  _scene_90_sprites                  scene_90_sprites
     001E42CA  ___func_scene_91_sprites           scene_91_sprites
     001E42CA  _scene_91_sprites                  scene_91_sprites
     001E42D0  ___func_scene_91_triggers          scene_91_triggers
     001E42D0  _scene_91_triggers                 scene_91_triggers
     001E42D8  ___func_scene_92_sprites           scene_92_sprites
     001E42D8  _scene_92_sprites                  scene_92_sprites
     001E42DB  ___func_scene_93_triggers          scene_93_triggers
     001E42DB  _scene_93_triggers                 scene_93_triggers
     001E42E3  ___func_scene_99_sprites           scene_99_sprites
     001E42E3  _scene_99_sprites                  scene_99_sprites
     001E42E9  _trigger_50_interact               trigger_50_interact

ASxxxx Linker V03.00/V05.40 + sdld,  page 69.
Hexadecimal  [32-Bits]

Area                                    Addr        Size        Decimal Bytes (Attributes)
--------------------------------        ----        ----        ------- ----- ------------
_CODE_29                            001D4000    00003FFF =       16383. bytes (REL,CON)

      Value  Global                              Global Defined In Module
      -----  --------------------------------   ------------------------
     001D4000  _camera_init                       camera
     001D4026  _remove_LCD_ISRs                   interrupts
     001D4041  _parallax_init                     parallax
     001D4061  _SIO_init                          sio
     001D408A  _actor_14_interact                 actor_14_interact
     001D40C0  _actor_17_interact                 actor_17_interact
     001D40F6  _actor_31_interact                 actor_31_interact
     001D4126  _actor_32_interact                 actor_32_interact
     001D4156  _actor_36_interact                 actor_36_interact
     001D4186  _actor_37_interact                 actor_37_interact
     001D41B6  _actor_46_interact                 actor_46_interact
     001D41EC  _actor_47_interact                 actor_47_interact
     001D4222  ___func_bg_chase_shilly            bg_chase_shilly
     001D4222  _bg_chase_shilly                   bg_chase_shilly
     001D4230  ___func_bg_cinema                  bg_cinema
     001D4230  _bg_cinema                         bg_cinema
     001D423E  ___func_bg_controls_gb_copy_       bg_controls_gb_copy_
     001D423E  _bg_controls_gb_copy_              bg_controls_gb_copy_
     001D424C  ___func_bg_controls_gb_copy_0      bg_controls_gb_copy_0
     001D424C  _bg_controls_gb_copy_0             bg_controls_gb_copy_0
     001D425A  ___func_bg_controls_gba_copy_      bg_controls_gba_copy_
     001D425A  _bg_controls_gba_copy_             bg_controls_gba_copy_
     001D4268  ___func_bg_controls_gba_copy_0     bg_controls_gba_copy_0
     001D4268  _bg_controls_gba_copy_0            bg_controls_gba_copy_0
     001D4276  ___func_bg_controls_gbc_copy_      bg_controls_gbc_copy_
     001D4276  _bg_controls_gbc_copy_             bg_controls_gbc_copy_
     001D4284  ___func_bg_controls_mobile_copy_   bg_controls_mobile_copy_
     001D4284  _bg_controls_mobile_copy_          bg_controls_mobile_copy_
     001D4292  ___func_bg_controls_mobile_copy_   bg_controls_mobile_copy_0
     001D4292  _bg_controls_mobile_copy_0         bg_controls_mobile_copy_0
     001D42A0  ___func_bg_dhilly_bridge           bg_dhilly_bridge
     001D42A0  _bg_dhilly_bridge                  bg_dhilly_bridge
     001D42AE  ___func_bg_dhilly_game_1           bg_dhilly_game_1
     001D42AE  _bg_dhilly_game_1                  bg_dhilly_game_1
     001D42BC  ___func_bg_dhilly_game_10          bg_dhilly_game_10
     001D42BC  _bg_dhilly_game_10                 bg_dhilly_game_10
     001D42CA  ___func_bg_dhilly_game_11          bg_dhilly_game_11
     001D42CA  _bg_dhilly_game_11                 bg_dhilly_game_11
     001D42D8  ___func_bg_dhilly_game_4           bg_dhilly_game_4
     001D42D8  _bg_dhilly_game_4                  bg_dhilly_game_4
     001D42E6  ___func_bg_dhilly_game_5           bg_dhilly_game_5
     001D42E6  _bg_dhilly_game_5                  bg_dhilly_game_5
     001D42F4  ___func_bg_dhilly_game_8           bg_dhilly_game_8
     001D42F4  _bg_dhilly_game_8                  bg_dhilly_game_8
     001D4302  ___func_bg_dhilly_game_9           bg_dhilly_game_9
     001D4302  _bg_dhilly_game_9                  bg_dhilly_game_9
     001D4310  ___func_bg_dhillyhubdown           bg_dhillyhubdown
     001D4310  _bg_dhillyhubdown                  bg_dhillyhubdown
     001D431E  ___func_bg_elevator                bg_elevator
     001D431E  _bg_elevator                       bg_elevator
ASxxxx Linker V03.00/V05.40 + sdld,  page 70.
Hexadecimal  [32-Bits]

Area                                    Addr        Size        Decimal Bytes (Attributes)
--------------------------------        ----        ----        ------- ----- ------------
_CODE_29                            001D4000    00003FFF =       16383. bytes (REL,CON)

      Value  Global                              Global Defined In Module
      -----  --------------------------------   ------------------------
     001D432C  ___func_bg_endingscene_0           bg_endingscene_0
     001D432C  _bg_endingscene_0                  bg_endingscene_0
     001D433A  ___func_bg_endingscene             bg_endingscene
     001D433A  _bg_endingscene                    bg_endingscene
     001D4348  ___func_bg_endingscene2            bg_endingscene2
     001D4348  _bg_endingscene2                   bg_endingscene2
     001D4356  ___func_bg_endingscene3            bg_endingscene3
     001D4356  _bg_endingscene3                   bg_endingscene3
     001D4364  ___func_bg_fall_to_shilly_area_c   bg_fall_to_shilly_area_copy
     001D4364  _bg_fall_to_shilly_area_copy       bg_fall_to_shilly_area_copy
     001D4372  ___func_bg_fieldlazy               bg_fieldlazy
     001D4372  _bg_fieldlazy                      bg_fieldlazy
     001D4380  ___func_bg_iceos_desktop_copy_     bg_iceos_desktop_copy_
     001D4380  _bg_iceos_desktop_copy_            bg_iceos_desktop_copy_
     001D438E  ___func_bg_iceos_login_2_copy_     bg_iceos_login_2_copy_
     001D438E  _bg_iceos_login_2_copy_            bg_iceos_login_2_copy_
     001D439C  ___func_bg_iceos_login_copy__til   bg_iceos_login_copy__tileset
     001D439C  _bg_iceos_login_copy__tileset      bg_iceos_login_copy__tileset
     001D43AE  ___func_bg_iceos_login_copy_       bg_iceos_login_copy_
     001D43AE  _bg_iceos_login_copy_              bg_iceos_login_copy_
     001D43BC  ___func_bg_iceos_platformer2_cop   bg_iceos_platformer2_copy_
     001D43BC  _bg_iceos_platformer2_copy_        bg_iceos_platformer2_copy_
     001D43CA  ___func_bg_iceos_platformer3_cop   bg_iceos_platformer3_copy_
     001D43CA  _bg_iceos_platformer3_copy_        bg_iceos_platformer3_copy_
     001D43D8  ___func_bg_iceos_platformer4       bg_iceos_platformer4
     001D43D8  _bg_iceos_platformer4              bg_iceos_platformer4
     001D43E6  ___func_bg_init_copy_              bg_init_copy_
     001D43E6  _bg_init_copy_                     bg_init_copy_
     001D43F4  ___func_bg_init_copy_0             bg_init_copy_0
     001D43F4  _bg_init_copy_0                    bg_init_copy_0
     001D4402  ___func_bg_init_copy_1             bg_init_copy_1
     001D4402  _bg_init_copy_1                    bg_init_copy_1
     001D4410  ___func_bg_init_copy_2             bg_init_copy_2
     001D4410  _bg_init_copy_2                    bg_init_copy_2
     001D441E  ___func_bg_intro_scenary_copy_     bg_intro_scenary_copy_
     001D441E  _bg_intro_scenary_copy_            bg_intro_scenary_copy_
     001D442C  ___func_bg_intro_weather_copy_     bg_intro_weather_copy_
     001D442C  _bg_intro_weather_copy_            bg_intro_weather_copy_
     001D443A  ___func_bg_lair_hub                bg_lair_hub
     001D443A  _bg_lair_hub                       bg_lair_hub
     001D4448  ___func_bg_lair_left_2_copy_       bg_lair_left_2_copy_
     001D4448  _bg_lair_left_2_copy_              bg_lair_left_2_copy_
     001D4456  ___func_bg_lair_left_2             bg_lair_left_2
     001D4456  _bg_lair_left_2                    bg_lair_left_2
     001D4464  ___func_bg_lair_left_3             bg_lair_left_3
     001D4464  _bg_lair_left_3                    bg_lair_left_3
     001D4472  ___func_bg_lair_right_2_copy_      bg_lair_right_2_copy_
     001D4472  _bg_lair_right_2_copy_             bg_lair_right_2_copy_
     001D4480  ___func_bg_lair_right_2            bg_lair_right_2
     001D4480  _bg_lair_right_2                   bg_lair_right_2
     001D448E  ___func_bg_lair_right_3_copy_      bg_lair_right_3_copy_
ASxxxx Linker V03.00/V05.40 + sdld,  page 71.
Hexadecimal  [32-Bits]

Area                                    Addr        Size        Decimal Bytes (Attributes)
--------------------------------        ----        ----        ------- ----- ------------
_CODE_29                            001D4000    00003FFF =       16383. bytes (REL,CON)

      Value  Global                              Global Defined In Module
      -----  --------------------------------   ------------------------
     001D448E  _bg_lair_right_3_copy_             bg_lair_right_3_copy_
     001D449C  ___func_bg_lair_right_3            bg_lair_right_3
     001D449C  _bg_lair_right_3                   bg_lair_right_3
     001D44AA  ___func_bg_lair_right_4_copy_      bg_lair_right_4_copy_
     001D44AA  _bg_lair_right_4_copy_             bg_lair_right_4_copy_
     001D44B8  ___func_bg_lair_right_5            bg_lair_right_5
     001D44B8  _bg_lair_right_5                   bg_lair_right_5
     001D44C6  ___func_bg_lair_right              bg_lair_right
     001D44C6  _bg_lair_right                     bg_lair_right
     001D44D4  ___func_bg_lencity_dhillybuildin   bg_lencity_dhillybuilding_c
     001D44D4  _bg_lencity_dhillybuilding_c       bg_lencity_dhillybuilding_c
     001D44E2  ___func_bg_lencity_dhillybuildin   bg_lencity_dhillybuilding_f
     001D44E2  _bg_lencity_dhillybuilding_f       bg_lencity_dhillybuilding_f
     001D44F0  ___func_bg_lencity_trainstation_   bg_lencity_trainstation_cop
     001D44F0  _bg_lencity_trainstation_cop       bg_lencity_trainstation_cop
     001D44FE  ___func_bg_title_copy_1_tileset    bg_title_copy_1_tileset
     001D44FE  _bg_title_copy_1_tileset           bg_title_copy_1_tileset
     001D4510  ___func_bg_wakeupsquare_1_tilese   bg_wakeupsquare_1_tileset
     001D4510  _bg_wakeupsquare_1_tileset         bg_wakeupsquare_1_tileset
     001D4532  _scene_0_init                      scene_0_init
     001D4557  ___func_scene_0_triggers           scene_0_triggers
     001D4557  _scene_0_triggers                  scene_0_triggers
     001D457F  _scene_100_init                    scene_100_init
     001D4599  ___func_scene_101_triggers         scene_101_triggers
     001D4599  _scene_101_triggers                scene_101_triggers
     001D45B1  _scene_12_init                     scene_12_init
     001D45CB  _scene_13_init                     scene_13_init
     001D45E5  _scene_15_init                     scene_15_init
     001D4611  _scene_16_init                     scene_16_init
     001D462B  ___func_scene_17_actors            scene_17_actors
     001D462B  _scene_17_actors                   scene_17_actors
     001D465F  _scene_17_init                     scene_17_init
     001D4681  ___func_scene_17_triggers          scene_17_triggers
     001D4681  _scene_17_triggers                 scene_17_triggers
     001D4691  ___func_scene_18_triggers          scene_18_triggers
     001D4691  _scene_18_triggers                 scene_18_triggers
     001D46A9  ___func_scene_19_actors            scene_19_actors
     001D46A9  _scene_19_actors                   scene_19_actors
     001D46DD  ___func_scene_20_actors            scene_20_actors
     001D46DD  _scene_20_actors                   scene_20_actors
     001D4711  _scene_20_init                     scene_20_init
     001D472B  ___func_scene_20_triggers          scene_20_triggers
     001D472B  _scene_20_triggers                 scene_20_triggers
     001D4733  _scene_28_init                     scene_28_init
     001D474D  ___func_scene_28_triggers          scene_28_triggers
     001D474D  _scene_28_triggers                 scene_28_triggers
     001D4775  _scene_29_init                     scene_29_init
     001D478F  ___func_scene_3_actors             scene_3_actors
     001D478F  _scene_3_actors                    scene_3_actors
     001D47C3  ___func_scene_3                    scene_3
     001D47C3  _scene_3                           scene_3
ASxxxx Linker V03.00/V05.40 + sdld,  page 72.
Hexadecimal  [32-Bits]

Area                                    Addr        Size        Decimal Bytes (Attributes)
--------------------------------        ----        ----        ------- ----- ------------
_CODE_29                            001D4000    00003FFF =       16383. bytes (REL,CON)

      Value  Global                              Global Defined In Module
      -----  --------------------------------   ------------------------
     001D47FE  _scene_30_init                     scene_30_init
     001D4818  ___func_scene_30_triggers          scene_30_triggers
     001D4818  _scene_30_triggers                 scene_30_triggers
     001D4828  ___func_scene_30                   scene_30
     001D4828  _scene_30                          scene_30
     001D4863  _scene_31_init                     scene_31_init
     001D487D  ___func_scene_31_triggers          scene_31_triggers
     001D487D  _scene_31_triggers                 scene_31_triggers
     001D4895  ___func_scene_31                   scene_31
     001D4895  _scene_31                          scene_31
     001D48D0  _scene_32_init                     scene_32_init
     001D48EA  ___func_scene_32                   scene_32
     001D48EA  _scene_32                          scene_32
     001D4925  _scene_33_init                     scene_33_init
     001D495D  ___func_scene_33                   scene_33
     001D495D  _scene_33                          scene_33
     001D4998  ___func_scene_34_actors            scene_34_actors
     001D4998  _scene_34_actors                   scene_34_actors
     001D49CC  ___func_scene_34_triggers          scene_34_triggers
     001D49CC  _scene_34_triggers                 scene_34_triggers
     001D49E4  ___func_scene_34                   scene_34
     001D49E4  _scene_34                          scene_34
     001D4A1F  _scene_35_init                     scene_35_init
     001D4A39  ___func_scene_35                   scene_35
     001D4A39  _scene_35                          scene_35
     001D4A74  _scene_37_init                     scene_37_init
     001D4A8E  ___func_scene_37                   scene_37
     001D4A8E  _scene_37                          scene_37
     001D4AC9  ___func_scene_38                   scene_38
     001D4AC9  _scene_38                          scene_38
     001D4B04  _scene_39_init                     scene_39_init
     001D4B1E  ___func_scene_39                   scene_39
     001D4B1E  _scene_39                          scene_39
     001D4B59  ___func_scene_4                    scene_4
     001D4B59  _scene_4                           scene_4
     001D4B94  _scene_40_init                     scene_40_init
     001D4BB6  ___func_scene_40_triggers          scene_40_triggers
     001D4BB6  _scene_40_triggers                 scene_40_triggers
     001D4BCE  ___func_scene_40                   scene_40
     001D4BCE  _scene_40                          scene_40
     001D4C09  _scene_41_init                     scene_41_init
     001D4C2B  ___func_scene_41_triggers          scene_41_triggers
     001D4C2B  _scene_41_triggers                 scene_41_triggers
     001D4C53  ___func_scene_41                   scene_41
     001D4C53  _scene_41                          scene_41
     001D4C8E  _scene_42_init                     scene_42_init
     001D4CB0  ___func_scene_42                   scene_42
     001D4CB0  _scene_42                          scene_42
     001D4CEB  _scene_43_init                     scene_43_init
     001D4D0D  ___func_scene_43_triggers          scene_43_triggers
     001D4D0D  _scene_43_triggers                 scene_43_triggers
ASxxxx Linker V03.00/V05.40 + sdld,  page 73.
Hexadecimal  [32-Bits]

Area                                    Addr        Size        Decimal Bytes (Attributes)
--------------------------------        ----        ----        ------- ----- ------------
_CODE_29                            001D4000    00003FFF =       16383. bytes (REL,CON)

      Value  Global                              Global Defined In Module
      -----  --------------------------------   ------------------------
     001D4D3D  ___func_scene_43                   scene_43
     001D4D3D  _scene_43                          scene_43
     001D4D78  _scene_44_init                     scene_44_init
     001D4D9A  ___func_scene_44                   scene_44
     001D4D9A  _scene_44                          scene_44
     001D4DD5  ___func_scene_45                   scene_45
     001D4DD5  _scene_45                          scene_45
     001D4E10  ___func_scene_46                   scene_46
     001D4E10  _scene_46                          scene_46
     001D4E4B  _scene_47_init                     scene_47_init
     001D4E65  ___func_scene_47                   scene_47
     001D4E65  _scene_47                          scene_47
     001D4EA0  ___func_scene_48_actors            scene_48_actors
     001D4EA0  _scene_48_actors                   scene_48_actors
     001D4ED4  _scene_48_init                     scene_48_init
     001D4EF6  ___func_scene_48_projectiles       scene_48_projectiles
     001D4EF6  _scene_48_projectiles              scene_48_projectiles
     001D4F0D  ___func_scene_48                   scene_48
     001D4F0D  _scene_48                          scene_48
     001D4F48  ___func_scene_49_actors            scene_49_actors
     001D4F48  _scene_49_actors                   scene_49_actors
     001D4F7C  _scene_49_init                     scene_49_init
     001D4F9E  ___func_scene_49_projectiles       scene_49_projectiles
     001D4F9E  _scene_49_projectiles              scene_49_projectiles
     001D4FB5  ___func_scene_49                   scene_49
     001D4FB5  _scene_49                          scene_49
     001D4FF0  ___func_scene_5                    scene_5
     001D4FF0  _scene_5                           scene_5
     001D502B  ___func_scene_50_actors            scene_50_actors
     001D502B  _scene_50_actors                   scene_50_actors
     001D505F  ___func_scene_50_projectiles       scene_50_projectiles
     001D505F  _scene_50_projectiles              scene_50_projectiles
     001D5076  ___func_scene_50_triggers          scene_50_triggers
     001D5076  _scene_50_triggers                 scene_50_triggers
     001D5086  ___func_scene_50                   scene_50
     001D5086  _scene_50                          scene_50
     001D50C1  ___func_scene_51_actors            scene_51_actors
     001D50C1  _scene_51_actors                   scene_51_actors
     001D50F5  _scene_51_init                     scene_51_init
     001D5119  ___func_scene_51                   scene_51
     001D5119  _scene_51                          scene_51
     001D5154  ___func_scene_52                   scene_52
     001D5154  _scene_52                          scene_52
     001D518F  _scene_53_init                     scene_53_init
     001D51A9  ___func_scene_53                   scene_53
     001D51A9  _scene_53                          scene_53
     001D51E4  ___func_scene_54_actors            scene_54_actors
     001D51E4  _scene_54_actors                   scene_54_actors
     001D5218  ___func_scene_54                   scene_54
     001D5218  _scene_54                          scene_54
     001D5253  _scene_55_init                     scene_55_init
ASxxxx Linker V03.00/V05.40 + sdld,  page 74.
Hexadecimal  [32-Bits]

Area                                    Addr        Size        Decimal Bytes (Attributes)
--------------------------------        ----        ----        ------- ----- ------------
_CODE_29                            001D4000    00003FFF =       16383. bytes (REL,CON)

      Value  Global                              Global Defined In Module
      -----  --------------------------------   ------------------------
     001D526D  ___func_scene_55                   scene_55
     001D526D  _scene_55                          scene_55
     001D52A8  _scene_56_init                     scene_56_init
     001D52C2  ___func_scene_56                   scene_56
     001D52C2  _scene_56                          scene_56
     001D52FD  _scene_57_init                     scene_57_init
     001D5317  ___func_scene_57_triggers          scene_57_triggers
     001D5317  _scene_57_triggers                 scene_57_triggers
     001D5327  ___func_scene_57                   scene_57
     001D5327  _scene_57                          scene_57
     001D5362  ___func_scene_58_actors            scene_58_actors
     001D5362  _scene_58_actors                   scene_58_actors
     001D5396  _scene_58_init                     scene_58_init
     001D53BD  ___func_scene_58_triggers          scene_58_triggers
     001D53BD  _scene_58_triggers                 scene_58_triggers
     001D53CD  ___func_scene_58                   scene_58
     001D53CD  _scene_58                          scene_58
     001D5408  _scene_59_init                     scene_59_init
     001D5422  ___func_scene_59                   scene_59
     001D5422  _scene_59                          scene_59
     001D545D  ___func_scene_6                    scene_6
     001D545D  _scene_6                           scene_6
     001D5498  ___func_scene_60_actors            scene_60_actors
     001D5498  _scene_60_actors                   scene_60_actors
     001D54CC  _scene_60_init                     scene_60_init
     001D54E6  ___func_scene_60                   scene_60
     001D54E6  _scene_60                          scene_60
     001D5521  ___func_scene_61_actors            scene_61_actors
     001D5521  _scene_61_actors                   scene_61_actors
     001D5555  ___func_scene_61                   scene_61
     001D5555  _scene_61                          scene_61
     001D5590  _scene_62_init                     scene_62_init
     001D55B7  ___func_scene_62_triggers          scene_62_triggers
     001D55B7  _scene_62_triggers                 scene_62_triggers
     001D55CF  ___func_scene_62                   scene_62
     001D55CF  _scene_62                          scene_62
     001D560A  _scene_63_init                     scene_63_init
     001D5624  ___func_scene_63                   scene_63
     001D5624  _scene_63                          scene_63
     001D565F  ___func_scene_64_actors            scene_64_actors
     001D565F  _scene_64_actors                   scene_64_actors
     001D5693  ___func_scene_64_triggers          scene_64_triggers
     001D5693  _scene_64_triggers                 scene_64_triggers
     001D56AB  ___func_scene_64                   scene_64
     001D56AB  _scene_64                          scene_64
     001D56E6  _scene_65_init                     scene_65_init
     001D5700  ___func_scene_65_triggers          scene_65_triggers
     001D5700  _scene_65_triggers                 scene_65_triggers
     001D5710  ___func_scene_65                   scene_65
     001D5710  _scene_65                          scene_65
     001D574B  _scene_66_init                     scene_66_init
ASxxxx Linker V03.00/V05.40 + sdld,  page 75.
Hexadecimal  [32-Bits]

Area                                    Addr        Size        Decimal Bytes (Attributes)
--------------------------------        ----        ----        ------- ----- ------------
_CODE_29                            001D4000    00003FFF =       16383. bytes (REL,CON)

      Value  Global                              Global Defined In Module
      -----  --------------------------------   ------------------------
     001D5765  ___func_scene_66_triggers          scene_66_triggers
     001D5765  _scene_66_triggers                 scene_66_triggers
     001D5775  ___func_scene_66                   scene_66
     001D5775  _scene_66                          scene_66
     001D57B0  _scene_67_init                     scene_67_init
     001D57CA  ___func_scene_67                   scene_67
     001D57CA  _scene_67                          scene_67
     001D5805  _scene_68_init                     scene_68_init
     001D581F  ___func_scene_68                   scene_68
     001D581F  _scene_68                          scene_68
     001D585A  ___func_scene_69                   scene_69
     001D585A  _scene_69                          scene_69
     001D5895  ___func_scene_7                    scene_7
     001D5895  _scene_7                           scene_7
     001D58D0  ___func_scene_70                   scene_70
     001D58D0  _scene_70                          scene_70
     001D590B  ___func_scene_71_actors            scene_71_actors
     001D590B  _scene_71_actors                   scene_71_actors
     001D593F  _scene_71_init                     scene_71_init
     001D5963  ___func_scene_71_triggers          scene_71_triggers
     001D5963  _scene_71_triggers                 scene_71_triggers
     001D597B  ___func_scene_71                   scene_71
     001D597B  _scene_71                          scene_71
     001D59B6  _scene_72_init                     scene_72_init
     001D59D0  ___func_scene_72_triggers          scene_72_triggers
     001D59D0  _scene_72_triggers                 scene_72_triggers
     001D59E8  ___func_scene_72                   scene_72
     001D59E8  _scene_72                          scene_72
     001D5A23  _scene_73_init                     scene_73_init
     001D5A3D  ___func_scene_73                   scene_73
     001D5A3D  _scene_73                          scene_73
     001D5A78  ___func_scene_74                   scene_74
     001D5A78  _scene_74                          scene_74
     001D5AB3  ___func_scene_75                   scene_75
     001D5AB3  _scene_75                          scene_75
     001D5AEE  ___func_scene_76_actors            scene_76_actors
     001D5AEE  _scene_76_actors                   scene_76_actors
     001D5B22  _scene_76_init                     scene_76_init
     001D5B46  ___func_scene_76                   scene_76
     001D5B46  _scene_76                          scene_76
     001D5B81  _scene_77_init                     scene_77_init
     001D5B9B  ___func_scene_77                   scene_77
     001D5B9B  _scene_77                          scene_77
     001D5BD6  _scene_78_init                     scene_78_init
     001D5BF0  ___func_scene_78                   scene_78
     001D5BF0  _scene_78                          scene_78
     001D5C2B  _scene_79_init                     scene_79_init
     001D5C45  ___func_scene_79                   scene_79
     001D5C45  _scene_79                          scene_79
     001D5C80  ___func_scene_8                    scene_8
     001D5C80  _scene_8                           scene_8
ASxxxx Linker V03.00/V05.40 + sdld,  page 76.
Hexadecimal  [32-Bits]

Area                                    Addr        Size        Decimal Bytes (Attributes)
--------------------------------        ----        ----        ------- ----- ------------
_CODE_29                            001D4000    00003FFF =       16383. bytes (REL,CON)

      Value  Global                              Global Defined In Module
      -----  --------------------------------   ------------------------
     001D5CBB  _scene_80_init                     scene_80_init
     001D5CD5  ___func_scene_80_triggers          scene_80_triggers
     001D5CD5  _scene_80_triggers                 scene_80_triggers
     001D5CE5  ___func_scene_80                   scene_80
     001D5CE5  _scene_80                          scene_80
     001D5D20  _scene_81_init                     scene_81_init
     001D5D3A  ___func_scene_81_triggers          scene_81_triggers
     001D5D3A  _scene_81_triggers                 scene_81_triggers
     001D5D52  ___func_scene_81                   scene_81
     001D5D52  _scene_81                          scene_81
     001D5D8D  _scene_82_init                     scene_82_init
     001D5DA7  ___func_scene_82_triggers          scene_82_triggers
     001D5DA7  _scene_82_triggers                 scene_82_triggers
     001D5DB7  ___func_scene_82                   scene_82
     001D5DB7  _scene_82                          scene_82
     001D5DF2  _scene_83_init                     scene_83_init
     001D5E0C  ___func_scene_83_triggers          scene_83_triggers
     001D5E0C  _scene_83_triggers                 scene_83_triggers
     001D5E1C  ___func_scene_83                   scene_83
     001D5E1C  _scene_83                          scene_83
     001D5E57  _scene_84_init                     scene_84_init
     001D5E71  ___func_scene_84_triggers          scene_84_triggers
     001D5E71  _scene_84_triggers                 scene_84_triggers
     001D5E89  ___func_scene_84                   scene_84
     001D5E89  _scene_84                          scene_84
     001D5EC4  ___func_scene_85                   scene_85
     001D5EC4  _scene_85                          scene_85
     001D5EFF  ___func_scene_86_triggers          scene_86_triggers
     001D5EFF  _scene_86_triggers                 scene_86_triggers
     001D5F17  ___func_scene_86                   scene_86
     001D5F17  _scene_86                          scene_86
     001D5F52  ___func_scene_87                   scene_87
     001D5F52  _scene_87                          scene_87
     001D5F8D  _scene_88_init                     scene_88_init
     001D5FA7  ___func_scene_88_triggers          scene_88_triggers
     001D5FA7  _scene_88_triggers                 scene_88_triggers
     001D5FBF  ___func_scene_88                   scene_88
     001D5FBF  _scene_88                          scene_88
     001D5FFA  _scene_89_init                     scene_89_init
     001D6026  ___func_scene_89                   scene_89
     001D6026  _scene_89                          scene_89
     001D6061  ___func_scene_9                    scene_9
     001D6061  _scene_9                           scene_9
     001D609C  ___func_scene_90_actors            scene_90_actors
     001D609C  _scene_90_actors                   scene_90_actors
     001D60D0  _scene_90_init                     scene_90_init
     001D60F2  ___func_scene_90_triggers          scene_90_triggers
     001D60F2  _scene_90_triggers                 scene_90_triggers
     001D6102  ___func_scene_90                   scene_90
     001D6102  _scene_90                          scene_90
     001D613D  ___func_scene_91                   scene_91
ASxxxx Linker V03.00/V05.40 + sdld,  page 77.
Hexadecimal  [32-Bits]

Area                                    Addr        Size        Decimal Bytes (Attributes)
--------------------------------        ----        ----        ------- ----- ------------
_CODE_29                            001D4000    00003FFF =       16383. bytes (REL,CON)

      Value  Global                              Global Defined In Module
      -----  --------------------------------   ------------------------
     001D613D  _scene_91                          scene_91
     001D6178  ___func_scene_92                   scene_92
     001D6178  _scene_92                          scene_92
     001D61B3  ___func_scene_93_actors            scene_93_actors
     001D61B3  _scene_93_actors                   scene_93_actors
     001D61E7  _scene_93_init                     scene_93_init
     001D6201  ___func_scene_93_projectiles       scene_93_projectiles
     001D6201  _scene_93_projectiles              scene_93_projectiles
     001D622F  ___func_scene_93                   scene_93
     001D622F  _scene_93                          scene_93
     001D626A  ___func_scene_94_actors            scene_94_actors
     001D626A  _scene_94_actors                   scene_94_actors
     001D629E  ___func_scene_94_projectiles       scene_94_projectiles
     001D629E  _scene_94_projectiles              scene_94_projectiles
     001D62CC  ___func_scene_94                   scene_94
     001D62CC  _scene_94                          scene_94
     001D6307  ___func_scene_95                   scene_95
     001D6307  _scene_95                          scene_95
     001D6342  ___func_scene_96                   scene_96
     001D6342  _scene_96                          scene_96
     001D637D  ___func_scene_97                   scene_97
     001D637D  _scene_97                          scene_97
     001D63B8  ___func_scene_98                   scene_98
     001D63B8  _scene_98                          scene_98
     001D63F3  ___func_scene_99                   scene_99
     001D63F3  _scene_99                          scene_99
     001D642E  _script_input_0                    script_input_0
     001D6463  _script_input_10                   script_input_10
     001D6498  _script_input_11                   script_input_11
     001D64CD  _script_input_12                   script_input_12
     001D6502  _script_input_13                   script_input_13
     001D6521  _script_input_14                   script_input_14
     001D6540  _script_input_8                    script_input_8
     001D6575  _script_input_9                    script_input_9
     001D65AA  _script_timer_2                    script_timer_2
     001D65D7  _script_timer_3                    script_timer_3
     001D6604  _script_timer_5                    script_timer_5
     001D663E  _script_timer_6                    script_timer_6
     001D665D  _script_timer_7                    script_timer_7
     001D667C  _script_timer_8                    script_timer_8
     001D66A9  _script_timer_9                    script_timer_9
     001D66D6  ___func_sprite_blank_interactabl   sprite_blank_interactable_c
     001D66D6  _sprite_blank_interactable_c_met   sprite_blank_interactable_c
     001D66E2  _sprite_blank_interactable_c_met   sprite_blank_interactable_c
     001D66E4  _sprite_blank_interactable_c_ani   sprite_blank_interactable_c
     001D66F4  _sprite_blank_interactable_c_ani   sprite_blank_interactable_c
     001D66F6  _sprite_blank_interactable_c       sprite_blank_interactable_c
     001D6709  ___func_sprite_car                 sprite_car
     001D6709  _sprite_car_metasprite_0           sprite_car
     001D6715  _sprite_car_metasprites            sprite_car
     001D6717  _sprite_car_animations             sprite_car
ASxxxx Linker V03.00/V05.40 + sdld,  page 78.
Hexadecimal  [32-Bits]

Area                                    Addr        Size        Decimal Bytes (Attributes)
--------------------------------        ----        ----        ------- ----- ------------
_CODE_29                            001D4000    00003FFF =       16383. bytes (REL,CON)

      Value  Global                              Global Defined In Module
      -----  --------------------------------   ------------------------
     001D6727  _sprite_car_animations_lookup      sprite_car
     001D6729  _sprite_car                        sprite_car
     001D673C  ___func_sprite_cataa               sprite_cataa
     001D673C  _sprite_cataa_metasprite_0         sprite_cataa
     001D6748  _sprite_cataa_metasprites          sprite_cataa
     001D674A  _sprite_cataa_animations           sprite_cataa
     001D675A  _sprite_cataa_animations_lookup    sprite_cataa
     001D675C  _sprite_cataa                      sprite_cataa
     001D676F  ___func_sprite_dhilly_bridge_int   sprite_dhilly_bridge_intera_
     001D676F  _sprite_dhilly_bridge_intera_0_t   sprite_dhilly_bridge_intera_
     001D6791  ___func_sprite_dhilly_bridge_int   sprite_dhilly_bridge_intera_
     001D6791  _sprite_dhilly_bridge_intera_til   sprite_dhilly_bridge_intera_
     001D67B3  ___func_sprite_dhilly_bridge_int   sprite_dhilly_bridge_intera
     001D67B3  _sprite_dhilly_bridge_intera_met   sprite_dhilly_bridge_intera
     001D67BF  _sprite_dhilly_bridge_intera_met   sprite_dhilly_bridge_intera
     001D67C1  _sprite_dhilly_bridge_intera_ani   sprite_dhilly_bridge_intera
     001D67D1  _sprite_dhilly_bridge_intera_ani   sprite_dhilly_bridge_intera
     001D67D3  _sprite_dhilly_bridge_intera       sprite_dhilly_bridge_intera
     001D67E6  ___func_sprite_dhilly_saveselect   sprite_dhilly_saveselect_co_
     001D67E6  _sprite_dhilly_saveselect_co_0_t   sprite_dhilly_saveselect_co_
     001D6808  ___func_sprite_dhilly_saveselect   sprite_dhilly_saveselect_co_
     001D6808  _sprite_dhilly_saveselect_co_0_m   sprite_dhilly_saveselect_co_
     001D6814  _sprite_dhilly_saveselect_co_0_m   sprite_dhilly_saveselect_co_
     001D6816  _sprite_dhilly_saveselect_co_0_a   sprite_dhilly_saveselect_co_
     001D6826  _sprite_dhilly_saveselect_co_0_a   sprite_dhilly_saveselect_co_
     001D6828  _sprite_dhilly_saveselect_co_0     sprite_dhilly_saveselect_co_
     001D683B  ___func_sprite_dhilly_saveselect   sprite_dhilly_saveselect_co_
     001D683B  _sprite_dhilly_saveselect_co_1_m   sprite_dhilly_saveselect_co_
     001D6847  _sprite_dhilly_saveselect_co_1_m   sprite_dhilly_saveselect_co_
     001D6849  _sprite_dhilly_saveselect_co_1_a   sprite_dhilly_saveselect_co_
     001D6859  _sprite_dhilly_saveselect_co_1_a   sprite_dhilly_saveselect_co_
     001D685B  _sprite_dhilly_saveselect_co_1     sprite_dhilly_saveselect_co_
     001D686E  ___func_sprite_dhilly_saveselect   sprite_dhilly_saveselect_co_
     001D686E  _sprite_dhilly_saveselect_co_til   sprite_dhilly_saveselect_co_
     001D6890  ___func_sprite_dhilly_saveselect   sprite_dhilly_saveselect_co
     001D6890  _sprite_dhilly_saveselect_co_met   sprite_dhilly_saveselect_co
     001D689C  _sprite_dhilly_saveselect_co_met   sprite_dhilly_saveselect_co
     001D689E  _sprite_dhilly_saveselect_co_ani   sprite_dhilly_saveselect_co
     001D68AE  _sprite_dhilly_saveselect_co_ani   sprite_dhilly_saveselect_co
     001D68B0  _sprite_dhilly_saveselect_co       sprite_dhilly_saveselect_co
     001D68C3  ___func_sprite_dhilly_saveselect   sprite_dhilly_saveselect_til
     001D68C3  _sprite_dhilly_saveselect_tilese   sprite_dhilly_saveselect_til
     001D68E5  ___func_sprite_iceos_cursor_copy   sprite_iceos_cursor_copy_
     001D68E5  _sprite_iceos_cursor_copy__metas   sprite_iceos_cursor_copy_
     001D68E9  _sprite_iceos_cursor_copy__metas   sprite_iceos_cursor_copy_
     001D68EB  _sprite_iceos_cursor_copy__anima   sprite_iceos_cursor_copy_
     001D68FB  _sprite_iceos_cursor_copy__anima   sprite_iceos_cursor_copy_
     001D68FD  _sprite_iceos_cursor_copy_         sprite_iceos_cursor_copy_
     001D6910  ___func_sprite_iceosapp_ctf_copy   sprite_iceosapp_ctf_copy_0
     001D6910  _sprite_iceosapp_ctf_copy_0_meta   sprite_iceosapp_ctf_copy_0
     001D691C  _sprite_iceosapp_ctf_copy_0_meta   sprite_iceosapp_ctf_copy_0
ASxxxx Linker V03.00/V05.40 + sdld,  page 79.
Hexadecimal  [32-Bits]

Area                                    Addr        Size        Decimal Bytes (Attributes)
--------------------------------        ----        ----        ------- ----- ------------
_CODE_29                            001D4000    00003FFF =       16383. bytes (REL,CON)

      Value  Global                              Global Defined In Module
      -----  --------------------------------   ------------------------
     001D691E  _sprite_iceosapp_ctf_copy_0_anim   sprite_iceosapp_ctf_copy_0
     001D692E  _sprite_iceosapp_ctf_copy_0_anim   sprite_iceosapp_ctf_copy_0
     001D6930  _sprite_iceosapp_ctf_copy_0        sprite_iceosapp_ctf_copy_0
     001D6943  ___func_sprite_iceosapp_pltfrmr_   sprite_iceosapp_pltfrmr_cop_
     001D6943  _sprite_iceosapp_pltfrmr_cop_til   sprite_iceosapp_pltfrmr_cop_
     001D6965  ___func_sprite_iceosapp_pltfrmr_   sprite_iceosapp_pltfrmr_cop
     001D6965  _sprite_iceosapp_pltfrmr_cop_met   sprite_iceosapp_pltfrmr_cop
     001D6971  _sprite_iceosapp_pltfrmr_cop_met   sprite_iceosapp_pltfrmr_cop
     001D6973  _sprite_iceosapp_pltfrmr_cop_ani   sprite_iceosapp_pltfrmr_cop
     001D6983  _sprite_iceosapp_pltfrmr_cop_ani   sprite_iceosapp_pltfrmr_cop
     001D6985  _sprite_iceosapp_pltfrmr_cop       sprite_iceosapp_pltfrmr_cop
     001D6998  ___func_sprite_iceosapp_settings   sprite_iceosapp_settings_co_
     001D6998  _sprite_iceosapp_settings_co_til   sprite_iceosapp_settings_co_
     001D69BA  ___func_sprite_iceosapp_settings   sprite_iceosapp_settings_co
     001D69BA  _sprite_iceosapp_settings_co_met   sprite_iceosapp_settings_co
     001D69C6  _sprite_iceosapp_settings_co_met   sprite_iceosapp_settings_co
     001D69C8  _sprite_iceosapp_settings_co_ani   sprite_iceosapp_settings_co
     001D69D8  _sprite_iceosapp_settings_co_ani   sprite_iceosapp_settings_co
     001D69DA  _sprite_iceosapp_settings_co       sprite_iceosapp_settings_co
     001D69ED  ___func_sprite_iceosapp_wveruner   sprite_iceosapp_wveruner_co
     001D69ED  _sprite_iceosapp_wveruner_co_met   sprite_iceosapp_wveruner_co
     001D69F9  _sprite_iceosapp_wveruner_co_met   sprite_iceosapp_wveruner_co
     001D69FB  _sprite_iceosapp_wveruner_co_ani   sprite_iceosapp_wveruner_co
     001D6A0B  _sprite_iceosapp_wveruner_co_ani   sprite_iceosapp_wveruner_co
     001D6A0D  _sprite_iceosapp_wveruner_co       sprite_iceosapp_wveruner_co
     001D6A20  ___func_sprite_knife_down_copy_    sprite_knife_down_copy_
     001D6A20  _sprite_knife_down_copy__metaspr   sprite_knife_down_copy_
     001D6A2C  _sprite_knife_down_copy__metaspr   sprite_knife_down_copy_
     001D6A2E  _sprite_knife_down_copy__animati   sprite_knife_down_copy_
     001D6A3E  _sprite_knife_down_copy__animati   sprite_knife_down_copy_
     001D6A40  _sprite_knife_down_copy_           sprite_knife_down_copy_
     001D6A53  ___func_sprite_len_city_dhilly_h   sprite_len_city_dhilly_hous
     001D6A53  _sprite_len_city_dhilly_hous_met   sprite_len_city_dhilly_hous
     001D6A57  _sprite_len_city_dhilly_hous_met   sprite_len_city_dhilly_hous
     001D6A59  _sprite_len_city_dhilly_hous_ani   sprite_len_city_dhilly_hous
     001D6A69  _sprite_len_city_dhilly_hous_ani   sprite_len_city_dhilly_hous
     001D6A6B  _sprite_len_city_dhilly_hous       sprite_len_city_dhilly_hous
     001D6A7E  ___func_sprite_mzdesigns           sprite_mzdesigns
     001D6A7E  _sprite_mzdesigns_metasprite_0     sprite_mzdesigns
     001D6A8A  _sprite_mzdesigns_metasprites      sprite_mzdesigns
     001D6A8C  _sprite_mzdesigns_animations       sprite_mzdesigns
     001D6A9C  _sprite_mzdesigns_animations_loo   sprite_mzdesigns
     001D6A9E  _sprite_mzdesigns                  sprite_mzdesigns
     001D6AB1  ___func_sprite_piece_dhilly3_ver   sprite_piece_dhilly3_ver_co_
     001D6AB1  _sprite_piece_dhilly3_ver_co_til   sprite_piece_dhilly3_ver_co_
     001D6AD3  ___func_sprite_piece_dhilly3_ver   sprite_piece_dhilly3_ver_co
     001D6AD3  _sprite_piece_dhilly3_ver_co_met   sprite_piece_dhilly3_ver_co
     001D6ADF  _sprite_piece_dhilly3_ver_co_met   sprite_piece_dhilly3_ver_co
     001D6AE1  _sprite_piece_dhilly3_ver_co_ani   sprite_piece_dhilly3_ver_co
     001D6AF1  _sprite_piece_dhilly3_ver_co_ani   sprite_piece_dhilly3_ver_co
     001D6AF3  _sprite_piece_dhilly3_ver_co       sprite_piece_dhilly3_ver_co
ASxxxx Linker V03.00/V05.40 + sdld,  page 80.
Hexadecimal  [32-Bits]

Area                                    Addr        Size        Decimal Bytes (Attributes)
--------------------------------        ----        ----        ------- ----- ------------
_CODE_29                            001D4000    00003FFF =       16383. bytes (REL,CON)

      Value  Global                              Global Defined In Module
      -----  --------------------------------   ------------------------
     001D6B06  ___func_sprite_piece_dhilly3_ver   sprite_piece_dhilly3_ver_til
     001D6B06  _sprite_piece_dhilly3_ver_tilese   sprite_piece_dhilly3_ver_til
     001D6B28  ___func_sprite_piece_dhilly3_ver   sprite_piece_dhilly3_ver
     001D6B28  _sprite_piece_dhilly3_ver_metasp   sprite_piece_dhilly3_ver
     001D6B34  _sprite_piece_dhilly3_ver_metasp   sprite_piece_dhilly3_ver
     001D6B36  _sprite_piece_dhilly3_ver_animat   sprite_piece_dhilly3_ver
     001D6B46  _sprite_piece_dhilly3_ver_animat   sprite_piece_dhilly3_ver
     001D6B48  _sprite_piece_dhilly3_ver          sprite_piece_dhilly3_ver
     001D6B5B  ___func_sprite_shapiro             sprite_shapiro
     001D6B5B  _sprite_shapiro_metasprite_0       sprite_shapiro
     001D6B67  _sprite_shapiro_metasprite_1       sprite_shapiro
     001D6B6B  _sprite_shapiro_metasprites        sprite_shapiro
     001D6B6F  _sprite_shapiro_animations         sprite_shapiro
     001D6B7F  _sprite_shapiro_animations_looku   sprite_shapiro
     001D6B81  _sprite_shapiro                    sprite_shapiro
     001D6B94  ___func_sprite_square_full_hitbo   sprite_square_full_hitbox_c_
     001D6B94  _sprite_square_full_hitbox_c_1_t   sprite_square_full_hitbox_c_
     001D6BB6  ___func_sprite_square_full_hitbo   sprite_square_full_hitbox_c_
     001D6BB6  _sprite_square_full_hitbox_c_1_m   sprite_square_full_hitbox_c_
     001D6BC2  _sprite_square_full_hitbox_c_1_m   sprite_square_full_hitbox_c_
     001D6BC4  _sprite_square_full_hitbox_c_1_a   sprite_square_full_hitbox_c_
     001D6BD4  _sprite_square_full_hitbox_c_1_a   sprite_square_full_hitbox_c_
     001D6BD6  _sprite_square_full_hitbox_c_1     sprite_square_full_hitbox_c_
     001D6BE9  ___func_sprite_square_full_hitbo   sprite_square_full_hitbox_c_
     001D6BE9  _sprite_square_full_hitbox_c_4_t   sprite_square_full_hitbox_c_
     001D6C0B  ___func_sprite_square_full_hitbo   sprite_square_full_hitbox_c_
     001D6C0B  _sprite_square_full_hitbox_c_4_m   sprite_square_full_hitbox_c_
     001D6C17  _sprite_square_full_hitbox_c_4_m   sprite_square_full_hitbox_c_
     001D6C19  _sprite_square_full_hitbox_c_4_a   sprite_square_full_hitbox_c_
     001D6C29  _sprite_square_full_hitbox_c_4_a   sprite_square_full_hitbox_c_
     001D6C2B  _sprite_square_full_hitbox_c_4     sprite_square_full_hitbox_c_
     001D6C3E  ___func_sprite_square_full_hitbo   sprite_square_full_hitbox_c_
     001D6C3E  _sprite_square_full_hitbox_c_5_m   sprite_square_full_hitbox_c_
     001D6C52  _sprite_square_full_hitbox_c_5_m   sprite_square_full_hitbox_c_
     001D6C54  _sprite_square_full_hitbox_c_5_a   sprite_square_full_hitbox_c_
     001D6C64  _sprite_square_full_hitbox_c_5_a   sprite_square_full_hitbox_c_
     001D6C66  _sprite_square_full_hitbox_c_5     sprite_square_full_hitbox_c_
     001D6C79  ___func_sprite_square_full_hitbo   sprite_square_full_hitbox_c_
     001D6C79  _sprite_square_full_hitbox_c_til   sprite_square_full_hitbox_c_
     001D6C9B  ___func_sprite_square_full_hitbo   sprite_square_full_hitbox_c
     001D6C9B  _sprite_square_full_hitbox_c_met   sprite_square_full_hitbox_c
     001D6CA3  _sprite_square_full_hitbox_c_met   sprite_square_full_hitbox_c
     001D6CA5  _sprite_square_full_hitbox_c_ani   sprite_square_full_hitbox_c
     001D6CB5  _sprite_square_full_hitbox_c_ani   sprite_square_full_hitbox_c
     001D6CB7  _sprite_square_full_hitbox_c       sprite_square_full_hitbox_c
     001D6CCA  ___func_sprite_square_platformin   sprite_square_platforming_c_
     001D6CCA  _sprite_square_platforming_c_til   sprite_square_platforming_c_
     001D6CEC  ___func_sprite_square_platformin   sprite_square_platforming_c
     001D6CEC  _sprite_square_platforming_c_met   sprite_square_platforming_c
     001D6CF8  _sprite_square_platforming_c_met   sprite_square_platforming_c
     001D6CFA  _sprite_square_platforming_c_ani   sprite_square_platforming_c
ASxxxx Linker V03.00/V05.40 + sdld,  page 81.
Hexadecimal  [32-Bits]

Area                                    Addr        Size        Decimal Bytes (Attributes)
--------------------------------        ----        ----        ------- ----- ------------
_CODE_29                            001D4000    00003FFF =       16383. bytes (REL,CON)

      Value  Global                              Global Defined In Module
      -----  --------------------------------   ------------------------
     001D6D0A  _sprite_square_platforming_c_ani   sprite_square_platforming_c
     001D6D0C  _sprite_square_platforming_c       sprite_square_platforming_c
     001D6D1F  ___func_sprite_static_copy_0       sprite_static_copy_0
     001D6D1F  _sprite_static_copy_0_metasprite   sprite_static_copy_0
     001D6D2B  _sprite_static_copy_0_metasprite   sprite_static_copy_0
     001D6D2D  _sprite_static_copy_0_animations   sprite_static_copy_0
     001D6D3D  _sprite_static_copy_0_animations   sprite_static_copy_0
     001D6D3F  _sprite_static_copy_0              sprite_static_copy_0
     001D6D52  ___func_sprite_static_copy         sprite_static_copy
     001D6D52  _sprite_static_copy_metasprite_0   sprite_static_copy
     001D6D5E  _sprite_static_copy_metasprites    sprite_static_copy
     001D6D60  _sprite_static_copy_animations     sprite_static_copy
     001D6D70  _sprite_static_copy_animations_l   sprite_static_copy
     001D6D72  _sprite_static_copy                sprite_static_copy
     001D6D85  _spritesheet_none_metasprite       spritesheet_none
     001D6D89  _spritesheet_none_metasprites      spritesheet_none
     001D6D8B  _spritesheet_none                  spritesheet_none
     001D6D9E  _trigger_0_interact                trigger_0_interact
     001D6DD4  _trigger_10_interact               trigger_10_interact
     001D6DEC  _trigger_100_interact              trigger_100_interact
     001D6E22  _trigger_107_interact              trigger_107_interact
     001D6E58  _trigger_11_interact               trigger_11_interact
     001D6E78  _trigger_116_interact              trigger_116_interact
     001D6EAE  _trigger_117_interact              trigger_117_interact
     001D6EE4  _trigger_118_interact              trigger_118_interact
     001D6F1A  _trigger_119_interact              trigger_119_interact
     001D6F50  _trigger_12_interact               trigger_12_interact
     001D6F86  _trigger_122_interact              trigger_122_interact
     001D6FBC  _trigger_123_interact              trigger_123_interact
     001D6FF2  _trigger_124_interact              trigger_124_interact
     001D7028  _trigger_13_interact               trigger_13_interact
     001D705E  _trigger_14_interact               trigger_14_interact
     001D7078  _trigger_15_interact               trigger_15_interact
     001D70AE  _trigger_16_interact               trigger_16_interact
     001D70E4  _trigger_17_interact               trigger_17_interact
     001D711A  _trigger_18_interact               trigger_18_interact
     001D7150  _trigger_19_interact               trigger_19_interact
     001D7186  _trigger_2_interact                trigger_2_interact
     001D71BC  _trigger_20_interact               trigger_20_interact
     001D71F2  _trigger_21_interact               trigger_21_interact
     001D7228  _trigger_22_interact               trigger_22_interact
     001D725E  _trigger_23_interact               trigger_23_interact
     001D7294  _trigger_24_interact               trigger_24_interact
     001D72CA  _trigger_25_interact               trigger_25_interact
     001D7300  _trigger_26_interact               trigger_26_interact
     001D7336  _trigger_27_interact               trigger_27_interact
     001D736C  _trigger_28_interact               trigger_28_interact
     001D73A2  _trigger_29_interact               trigger_29_interact
     001D73D8  _trigger_30_interact               trigger_30_interact
     001D740E  _trigger_31_interact               trigger_31_interact
     001D7444  _trigger_32_interact               trigger_32_interact
ASxxxx Linker V03.00/V05.40 + sdld,  page 82.
Hexadecimal  [32-Bits]

Area                                    Addr        Size        Decimal Bytes (Attributes)
--------------------------------        ----        ----        ------- ----- ------------
_CODE_29                            001D4000    00003FFF =       16383. bytes (REL,CON)

      Value  Global                              Global Defined In Module
      -----  --------------------------------   ------------------------
     001D747A  _trigger_33_interact               trigger_33_interact
     001D74B0  _trigger_34_interact               trigger_34_interact
     001D74E6  _trigger_35_interact               trigger_35_interact
     001D751C  _trigger_36_interact               trigger_36_interact
     001D7552  _trigger_37_interact               trigger_37_interact
     001D7588  _trigger_38_interact               trigger_38_interact
     001D75BE  _trigger_39_interact               trigger_39_interact
     001D75F4  _trigger_4_interact                trigger_4_interact
     001D762A  _trigger_41_interact               trigger_41_interact
     001D7660  _trigger_42_interact               trigger_42_interact
     001D7696  _trigger_43_interact               trigger_43_interact
     001D76CC  _trigger_44_interact               trigger_44_interact
     001D7702  _trigger_45_interact               trigger_45_interact
     001D7738  _trigger_46_interact               trigger_46_interact
     001D776E  _trigger_47_interact               trigger_47_interact
     001D77A4  _trigger_48_interact               trigger_48_interact
     001D77DA  _trigger_5_interact                trigger_5_interact
     001D7810  _trigger_51_interact               trigger_51_interact
     001D7846  _trigger_53_interact               trigger_53_interact
     001D787C  _trigger_54_interact               trigger_54_interact
     001D78B2  _trigger_55_interact               trigger_55_interact
     001D78CC  _trigger_56_interact               trigger_56_interact
     001D78E6  _trigger_57_interact               trigger_57_interact
     001D7900  _trigger_58_interact               trigger_58_interact
     001D791A  _trigger_59_interact               trigger_59_interact
     001D7934  _trigger_6_interact                trigger_6_interact
     001D796A  _trigger_60_interact               trigger_60_interact
     001D79A0  _trigger_62_interact               trigger_62_interact
     001D79D6  _trigger_63_interact               trigger_63_interact
     001D7A0C  _trigger_64_interact               trigger_64_interact
     001D7A42  _trigger_65_interact               trigger_65_interact
     001D7A78  _trigger_66_interact               trigger_66_interact
     001D7AAE  _trigger_67_interact               trigger_67_interact
     001D7AE4  _trigger_68_interact               trigger_68_interact
     001D7B1A  _trigger_7_interact                trigger_7_interact
     001D7B50  _trigger_70_interact               trigger_70_interact
     001D7B86  _trigger_71_interact               trigger_71_interact
     001D7BBC  _trigger_72_interact               trigger_72_interact
     001D7BF2  _trigger_73_interact               trigger_73_interact
     001D7C28  _trigger_74_interact               trigger_74_interact
     001D7C5E  _trigger_75_interact               trigger_75_interact
     001D7C94  _trigger_76_interact               trigger_76_interact
     001D7CCA  _trigger_78_interact               trigger_78_interact
     001D7D00  _trigger_79_interact               trigger_79_interact
     001D7D36  _trigger_8_interact                trigger_8_interact
     001D7D4E  _trigger_80_interact               trigger_80_interact
     001D7D84  _trigger_82_interact               trigger_82_interact
     001D7DBA  _trigger_83_interact               trigger_83_interact
     001D7DF0  _trigger_84_interact               trigger_84_interact
     001D7E26  _trigger_85_interact               trigger_85_interact
     001D7E5C  _trigger_87_interact               trigger_87_interact
ASxxxx Linker V03.00/V05.40 + sdld,  page 83.
Hexadecimal  [32-Bits]

Area                                    Addr        Size        Decimal Bytes (Attributes)
--------------------------------        ----        ----        ------- ----- ------------
_CODE_29                            001D4000    00003FFF =       16383. bytes (REL,CON)

      Value  Global                              Global Defined In Module
      -----  --------------------------------   ------------------------
     001D7E92  _trigger_88_interact               trigger_88_interact
     001D7EC8  _trigger_9_interact                trigger_9_interact
     001D7EE0  _trigger_91_interact               trigger_91_interact
     001D7F16  _trigger_92_interact               trigger_92_interact
     001D7F4C  _trigger_93_interact               trigger_93_interact
     001D7F82  _trigger_94_interact               trigger_94_interact
     001D7FB8  _trigger_98_interact               trigger_98_interact
     001D7FEE  _logo_init                         logo
     001D7FFE  _logo_update                       logo

ASxxxx Linker V03.00/V05.40 + sdld,  page 84.
Hexadecimal  [32-Bits]

Area                                    Addr        Size        Decimal Bytes (Attributes)
--------------------------------        ----        ----        ------- ----- ------------
_CODE_19                            00134000    00003FFF =       16383. bytes (REL,CON)

      Value  Global                              Global Defined In Module
      -----  --------------------------------   ------------------------
     00134000  _core_reset                        core
     00134075  _process_VM                        core
     001342F7  _core_run                          core
     0013441B  _projectiles_init                  projectiles
     0013444A  _projectile_launch                 projectiles
     00134861  _actor_11_interact                 actor_11_interact
     00134C8C  _actor_19_interact                 actor_19_interact
     00135081  _actor_64_interact                 actor_64_interact
     001354AC  ___func_bg_announcer_tileset       bg_announcer_tileset
     001354AC  _bg_announcer_tileset              bg_announcer_tileset
     0013592E  ___func_bg_dhilly_bridge_tilemap   bg_dhilly_bridge_tilemap_att
     0013592E  _bg_dhilly_bridge_tilemap_attr     bg_dhilly_bridge_tilemap_att
     00135D16  ___func_bg_init_copy__tileset      bg_init_copy__tileset
     00135D16  _bg_init_copy__tileset             bg_init_copy__tileset
     00135D38  ___func_bg_init_copy_2_tilemap_a   bg_init_copy_2_tilemap_attr
     00135D38  _bg_init_copy_2_tilemap_attr       bg_init_copy_2_tilemap_attr
     001361AC  ___func_bg_init_copy_2_tilemap     bg_init_copy_2_tilemap
     001361AC  _bg_init_copy_2_tilemap            bg_init_copy_2_tilemap
     00136620  ___func_bg_placeholder_copy_copy   bg_placeholder_copy_copy_co_
     00136620  _bg_placeholder_copy_copy_co_0_t   bg_placeholder_copy_copy_co_
     00136A12  ___func_bg_placeholder_copy_copy   bg_placeholder_copy_copy_co_
     00136A12  _bg_placeholder_copy_copy_co_til   bg_placeholder_copy_copy_co_
     00136EB4  ___func_scene_91_collisions        scene_91_collisions
     00136EB4  _scene_91_collisions               scene_91_collisions
     00137328  _scene_91_init                     scene_91_init
     00137717  ___func_scene_93_collisions        scene_93_collisions
     00137717  _scene_93_collisions               scene_93_collisions
     00137B8B  ___func_scene_94_collisions        scene_94_collisions
     00137B8B  _scene_94_collisions               scene_94_collisions

ASxxxx Linker V03.00/V05.40 + sdld,  page 85.
Hexadecimal  [32-Bits]

Area                                    Addr        Size        Decimal Bytes (Attributes)
--------------------------------        ----        ----        ------- ----- ------------
_CRASH_HEADER0                      00000000    00000005 =           5. bytes (ABS,CON)

      Value  Global                              Global Defined In Module
      -----  --------------------------------   ------------------------
ASxxxx Linker V03.00/V05.40 + sdld,  page 86.
Hexadecimal  [32-Bits]

Area                                    Addr        Size        Decimal Bytes (Attributes)
--------------------------------        ----        ----        ------- ----- ------------
_CRASH_HEADER1                      00000000    00000004 =           4. bytes (ABS,CON)

      Value  Global                              Global Defined In Module
      -----  --------------------------------   ------------------------
ASxxxx Linker V03.00/V05.40 + sdld,  page 87.
Hexadecimal  [32-Bits]

Area                                    Addr        Size        Decimal Bytes (Attributes)
--------------------------------        ----        ----        ------- ----- ------------
_CODE_21                            00154000    00004000 =       16384. bytes (REL,CON)

      Value  Global                              Global Defined In Module
      -----  --------------------------------   ------------------------
     00154000  ___HandleCrash_banked              
     00154368  _printer_send_receive              gbprinter
     0015439E  _printer_send_byte                 gbprinter
     001543B1  _printer_send_command              gbprinter
     001543D4  _printer_print_tile                gbprinter
     00154465  _printer_wait                      gbprinter
     00154497  _gbprinter_detect                  gbprinter
     001544B1  _gbprinter_print_overlay           gbprinter
     0015467E  _atan2                             math_atan2
     00154817  _atan2_table                       math_atan2
     0015497F  _trigger_reset                     trigger
     0015498F  _trigger_interact                  trigger
     001549CE  _trigger_activate_at               trigger
     00154A19  _trigger_at_intersection           trigger
     00154B40  _trigger_activate_at_intersectio   trigger
     00154C81  _trigger_at_tile                   trigger
     00154D12  ___func_VM_SIO                     vm_sio
     00154D12  _vm_sio_set_mode                   vm_sio
     00154D24  _vm_sio_exchange                   vm_sio
     00155006  ___func_bg_cave_ladder_copy_       bg_cave_ladder_copy_
     00155006  _bg_cave_ladder_copy_              bg_cave_ladder_copy_
     00155014  ___func_bg_chase_shilly_tileset    bg_chase_shilly_tileset
     00155014  _bg_chase_shilly_tileset           bg_chase_shilly_tileset
     001552E6  ___func_bg_dhilly_game_9_tileset   bg_dhilly_game_9_tileset
     001552E6  _bg_dhilly_game_9_tileset          bg_dhilly_game_9_tileset
     00155608  ___func_bg_lair_right_5_tileset    bg_lair_right_5_tileset
     00155608  _bg_lair_right_5_tileset           bg_lair_right_5_tileset
     0015597A  ___func_bg_pixil_frame_0_24_tile   bg_pixil_frame_0_24_tilemap_
     0015597A  _bg_pixil_frame_0_24_tilemap_att   bg_pixil_frame_0_24_tilemap_
     00155CA4  ___func_bg_pixil_frame_0_24_tile   bg_pixil_frame_0_24_tilemap
     00155CA4  _bg_pixil_frame_0_24_tilemap       bg_pixil_frame_0_24_tilemap
     00155FCE  ___func_bg_pixil_frame_0_30_tile   bg_pixil_frame_0_30_tilemap_
     00155FCE  _bg_pixil_frame_0_30_tilemap_att   bg_pixil_frame_0_30_tilemap_
     00156352  ___func_bg_pixil_frame_0_30_tile   bg_pixil_frame_0_30_tilemap
     00156352  _bg_pixil_frame_0_30_tilemap       bg_pixil_frame_0_30_tilemap
     001566D6  ___func_bg_pixil_frame_0_copy_co   bg_pixil_frame_0_copy_copy__
     001566D6  _bg_pixil_frame_0_copy_copy__til   bg_pixil_frame_0_copy_copy__
     00156A58  ___func_bg_pixil_frame_23_0_tile   bg_pixil_frame_23_0_tileset
     00156A58  _bg_pixil_frame_23_0_tileset       bg_pixil_frame_23_0_tileset
     00156D8A  ___func_bg_shillycityopen_copy__   bg_shillycityopen_copy__tile
     00156D8A  _bg_shillycityopen_copy__tileset   bg_shillycityopen_copy__tile
     00156F8C  _scene_27_init                     scene_27_init
     00157264  ___func_scene_29_collisions        scene_29_collisions
     00157264  _scene_29_collisions               scene_29_collisions
     0015758E  ___func_scene_30_collisions        scene_30_collisions
     0015758E  _scene_30_collisions               scene_30_collisions
     00157912  _script_input_3                    script_input_3
     00157C8C  _pointnclick_init                  pointnclick
     00157CC5  _pointnclick_update                pointnclick

ASxxxx Linker V03.00/V05.40 + sdld,  page 88.
Hexadecimal  [32-Bits]

Area                                    Addr        Size        Decimal Bytes (Attributes)
--------------------------------        ----        ----        ------- ----- ------------
_CRASH_SCRATCH2                     00000000    000001CB =         459. bytes (ABS,CON)

      Value  Global                              Global Defined In Module
      -----  --------------------------------   ------------------------
ASxxxx Linker V03.00/V05.40 + sdld,  page 89.
Hexadecimal  [32-Bits]

Area                                    Addr        Size        Decimal Bytes (Attributes)
--------------------------------        ----        ----        ------- ----- ------------
_CODE_13                            000D4000    00004000 =       16384. bytes (REL,CON)

      Value  Global                              Global Defined In Module
      -----  --------------------------------   ------------------------
     000D4000  _load_init                         data_manager
     000D4013  _spritesheet_none_far              data_manager
     000D4016  _load_bkg_tileset                  data_manager
     000D40F3  _load_background                   data_manager
     000D41B9  _load_sprite                       data_manager
     000D428F  _load_bounds                       data_manager
     000D42AC  _do_load_palette                   data_manager
     000D4331  _load_scene                        data_manager
     000D49BD  _load_player                       data_manager
     000D4A06  _load_emote                        data_manager
     000D4A1F  ___func_bg_lencityopen_copy__til   bg_lencityopen_copy__tilemap
     000D4A1F  _bg_lencityopen_copy__tilemap_at   bg_lencityopen_copy__tilemap
     000D5343  ___func_bg_lencityopen_copy__til   bg_lencityopen_copy__tilemap
     000D5343  _bg_lencityopen_copy__tilemap      bg_lencityopen_copy__tilemap
     000D5C67  ___func_bg_placeholder_copy_copy   bg_placeholder_copy_copy_co_
     000D5C67  _bg_placeholder_copy_copy_co_til   bg_placeholder_copy_copy_co_
     000D662B  ___func_scene_47_collisions        scene_47_collisions
     000D662B  _scene_47_collisions               scene_47_collisions
     000D6F4F  _scene_70_init                     scene_70_init
     000D6F70  ___func_scene_86_collisions        scene_86_collisions
     000D6F70  _scene_86_collisions               scene_86_collisions
     000D7934  _adventure_init                    adventure
     000D7949  _adventure_update                  adventure

ASxxxx Linker V03.00/V05.40 + sdld,  page 90.
Hexadecimal  [32-Bits]

Area                                    Addr        Size        Decimal Bytes (Attributes)
--------------------------------        ----        ----        ------- ----- ------------
_CODE_28                            001C4000    00004000 =       16384. bytes (REL,CON)

      Value  Global                              Global Defined In Module
      -----  --------------------------------   ------------------------
     001C4000  _events_init                       events
     001C4040  _timers_init                       events
     001C4080  _restore_sram_bank                 flasher
     001C40B6  _restore_sram                      flasher
     001C40CC  _save_sram                         flasher
     001C40F8  _scroll_rect                       
     001C4135  ___func_VM_LOAD_SAVE               vm_load_save
     001C4135  _vm_save_clear                     vm_load_save
     001C4144  _vm_save_peek                      vm_load_save
     001C41C6  ___func_VM_SCENE                   vm_scene
     001C41C6  _vm_scene_push                     vm_scene
     001C423C  _vm_scene_pop                      vm_scene
     001C424A  _vm_scene_pop_all                  vm_scene
     001C4255  _vm_scene_stack_reset              vm_scene
     001C425E  _actor_21_interact                 actor_21_interact
     001C42D3  _actor_33_interact                 actor_33_interact
     001C4367  _actor_34_interact                 actor_34_interact
     001C43FB  _actor_35_interact                 actor_35_interact
     001C448D  _actor_38_interact                 actor_38_interact
     001C451D  _actor_39_interact                 actor_39_interact
     001C45AD  _actor_42_interact                 actor_42_interact
     001C462F  ___func_bg_dhilly_game_4_tileset   bg_dhilly_game_4_tileset
     001C462F  _bg_dhilly_game_4_tileset          bg_dhilly_game_4_tileset
     001C4691  ___func_bg_init_copy_0_tileset     bg_init_copy_0_tileset
     001C4691  _bg_init_copy_0_tileset            bg_init_copy_0_tileset
     001C46E3  ___func_bg_intro_scenary_copy__t   bg_intro_scenary_copy__tiles
     001C46E3  _bg_intro_scenary_copy__tileset    bg_intro_scenary_copy__tiles
     001C4725  ___func_bg_intro_weather_copy__t   bg_intro_weather_copy__tiles
     001C4725  _bg_intro_weather_copy__tileset    bg_intro_weather_copy__tiles
     001C4777  ___func_bg_lair_right_2_copy__ti   bg_lair_right_2_copy__tilese
     001C4777  _bg_lair_right_2_copy__tileset     bg_lair_right_2_copy__tilese
     001C47B9  ___func_bg_lair_right_2_tileset    bg_lair_right_2_tileset
     001C47B9  _bg_lair_right_2_tileset           bg_lair_right_2_tileset
     001C482B  ___func_bg_lair_right_4_copy__ti   bg_lair_right_4_copy__tilese
     001C482B  _bg_lair_right_4_copy__tileset     bg_lair_right_4_copy__tilese
     001C48AD  ___func_bg_wakeupsquare_3_copy__   bg_wakeupsquare_3_copy__tile
     001C48AD  _bg_wakeupsquare_3_copy__tileset   bg_wakeupsquare_3_copy__tile
     001C491F  ___func_emote_shock                emote_shock
     001C491F  _emote_shock                       emote_shock
     001C495F  ___func_frame_image                frame_image
     001C495F  _frame_image                       frame_image
     001C49EF  ___func_palette_0                  palette_0
     001C49EF  _palette_0                         palette_0
     001C4A32  ___func_palette_1                  palette_1
     001C4A32  _palette_1                         palette_1
     001C4A75  ___func_palette_10                 palette_10
     001C4A75  _palette_10                        palette_10
     001C4AB8  ___func_palette_11                 palette_11
     001C4AB8  _palette_11                        palette_11
     001C4AFB  ___func_palette_12                 palette_12
ASxxxx Linker V03.00/V05.40 + sdld,  page 91.
Hexadecimal  [32-Bits]

Area                                    Addr        Size        Decimal Bytes (Attributes)
--------------------------------        ----        ----        ------- ----- ------------
_CODE_28                            001C4000    00004000 =       16384. bytes (REL,CON)

      Value  Global                              Global Defined In Module
      -----  --------------------------------   ------------------------
     001C4AFB  _palette_12                        palette_12
     001C4B3E  ___func_palette_13                 palette_13
     001C4B3E  _palette_13                        palette_13
     001C4B81  ___func_palette_14                 palette_14
     001C4B81  _palette_14                        palette_14
     001C4BC4  ___func_palette_15                 palette_15
     001C4BC4  _palette_15                        palette_15
     001C4C07  ___func_palette_16                 palette_16
     001C4C07  _palette_16                        palette_16
     001C4C4A  ___func_palette_17                 palette_17
     001C4C4A  _palette_17                        palette_17
     001C4C8D  ___func_palette_18                 palette_18
     001C4C8D  _palette_18                        palette_18
     001C4CD0  ___func_palette_19                 palette_19
     001C4CD0  _palette_19                        palette_19
     001C4D13  ___func_palette_2                  palette_2
     001C4D13  _palette_2                         palette_2
     001C4D56  ___func_palette_20                 palette_20
     001C4D56  _palette_20                        palette_20
     001C4D99  ___func_palette_21                 palette_21
     001C4D99  _palette_21                        palette_21
     001C4DDC  ___func_palette_22                 palette_22
     001C4DDC  _palette_22                        palette_22
     001C4E1F  ___func_palette_23                 palette_23
     001C4E1F  _palette_23                        palette_23
     001C4E62  ___func_palette_24                 palette_24
     001C4E62  _palette_24                        palette_24
     001C4EA5  ___func_palette_25                 palette_25
     001C4EA5  _palette_25                        palette_25
     001C4EE8  ___func_palette_26                 palette_26
     001C4EE8  _palette_26                        palette_26
     001C4F2B  ___func_palette_27                 palette_27
     001C4F2B  _palette_27                        palette_27
     001C4F6E  ___func_palette_28                 palette_28
     001C4F6E  _palette_28                        palette_28
     001C4FB1  ___func_palette_29                 palette_29
     001C4FB1  _palette_29                        palette_29
     001C4FF4  ___func_palette_3                  palette_3
     001C4FF4  _palette_3                         palette_3
     001C5037  ___func_palette_30                 palette_30
     001C5037  _palette_30                        palette_30
     001C507A  ___func_palette_31                 palette_31
     001C507A  _palette_31                        palette_31
     001C50BD  ___func_palette_32                 palette_32
     001C50BD  _palette_32                        palette_32
     001C5100  ___func_palette_33                 palette_33
     001C5100  _palette_33                        palette_33
     001C5143  ___func_palette_34                 palette_34
     001C5143  _palette_34                        palette_34
     001C5186  ___func_palette_35                 palette_35
     001C5186  _palette_35                        palette_35
ASxxxx Linker V03.00/V05.40 + sdld,  page 92.
Hexadecimal  [32-Bits]

Area                                    Addr        Size        Decimal Bytes (Attributes)
--------------------------------        ----        ----        ------- ----- ------------
_CODE_28                            001C4000    00004000 =       16384. bytes (REL,CON)

      Value  Global                              Global Defined In Module
      -----  --------------------------------   ------------------------
     001C51C9  ___func_palette_36                 palette_36
     001C51C9  _palette_36                        palette_36
     001C520C  ___func_palette_37                 palette_37
     001C520C  _palette_37                        palette_37
     001C524F  ___func_palette_38                 palette_38
     001C524F  _palette_38                        palette_38
     001C5292  ___func_palette_39                 palette_39
     001C5292  _palette_39                        palette_39
     001C52D5  ___func_palette_4                  palette_4
     001C52D5  _palette_4                         palette_4
     001C5318  ___func_palette_40                 palette_40
     001C5318  _palette_40                        palette_40
     001C535B  ___func_palette_41                 palette_41
     001C535B  _palette_41                        palette_41
     001C539E  ___func_palette_42                 palette_42
     001C539E  _palette_42                        palette_42
     001C53E1  ___func_palette_43                 palette_43
     001C53E1  _palette_43                        palette_43
     001C5424  ___func_palette_44                 palette_44
     001C5424  _palette_44                        palette_44
     001C5467  ___func_palette_45                 palette_45
     001C5467  _palette_45                        palette_45
     001C54AA  ___func_palette_46                 palette_46
     001C54AA  _palette_46                        palette_46
     001C54ED  ___func_palette_47                 palette_47
     001C54ED  _palette_47                        palette_47
     001C5530  ___func_palette_48                 palette_48
     001C5530  _palette_48                        palette_48
     001C5573  ___func_palette_49                 palette_49
     001C5573  _palette_49                        palette_49
     001C55B6  ___func_palette_5                  palette_5
     001C55B6  _palette_5                         palette_5
     001C55F9  ___func_palette_50                 palette_50
     001C55F9  _palette_50                        palette_50
     001C563C  ___func_palette_51                 palette_51
     001C563C  _palette_51                        palette_51
     001C567F  ___func_palette_52                 palette_52
     001C567F  _palette_52                        palette_52
     001C56C2  ___func_palette_53                 palette_53
     001C56C2  _palette_53                        palette_53
     001C5705  ___func_palette_54                 palette_54
     001C5705  _palette_54                        palette_54
     001C5748  ___func_palette_55                 palette_55
     001C5748  _palette_55                        palette_55
     001C578B  ___func_palette_56                 palette_56
     001C578B  _palette_56                        palette_56
     001C57CE  ___func_palette_57                 palette_57
     001C57CE  _palette_57                        palette_57
     001C5811  ___func_palette_58                 palette_58
     001C5811  _palette_58                        palette_58
     001C5854  ___func_palette_59                 palette_59
ASxxxx Linker V03.00/V05.40 + sdld,  page 93.
Hexadecimal  [32-Bits]

Area                                    Addr        Size        Decimal Bytes (Attributes)
--------------------------------        ----        ----        ------- ----- ------------
_CODE_28                            001C4000    00004000 =       16384. bytes (REL,CON)

      Value  Global                              Global Defined In Module
      -----  --------------------------------   ------------------------
     001C5854  _palette_59                        palette_59
     001C5897  ___func_palette_6                  palette_6
     001C5897  _palette_6                         palette_6
     001C58DA  ___func_palette_60                 palette_60
     001C58DA  _palette_60                        palette_60
     001C591D  ___func_palette_61                 palette_61
     001C591D  _palette_61                        palette_61
     001C5960  ___func_palette_62                 palette_62
     001C5960  _palette_62                        palette_62
     001C59A3  ___func_palette_63                 palette_63
     001C59A3  _palette_63                        palette_63
     001C59E6  ___func_palette_64                 palette_64
     001C59E6  _palette_64                        palette_64
     001C5A29  ___func_palette_65                 palette_65
     001C5A29  _palette_65                        palette_65
     001C5A6C  ___func_palette_7                  palette_7
     001C5A6C  _palette_7                         palette_7
     001C5AAF  ___func_palette_8                  palette_8
     001C5AAF  _palette_8                         palette_8
     001C5AF2  ___func_palette_9                  palette_9
     001C5AF2  _palette_9                         palette_9
     001C5B35  ___func_scene_0                    scene_0
     001C5B35  _scene_0                           scene_0
     001C5B70  _scene_1_init                      scene_1_init
     001C5BBE  ___func_scene_1                    scene_1
     001C5BBE  _scene_1                           scene_1
     001C5BF9  _scene_10_init                     scene_10_init
     001C5C4C  ___func_scene_10                   scene_10
     001C5C4C  _scene_10                          scene_10
     001C5C87  ___func_scene_100                  scene_100
     001C5C87  _scene_100                         scene_100
     001C5CC2  _scene_101_init                    scene_101_init
     001C5D0D  ___func_scene_101                  scene_101
     001C5D0D  _scene_101                         scene_101
     001C5D48  _scene_11_init                     scene_11_init
     001C5D96  ___func_scene_11                   scene_11
     001C5D96  _scene_11                          scene_11
     001C5DD1  ___func_scene_12                   scene_12
     001C5DD1  _scene_12                          scene_12
     001C5E0C  ___func_scene_13                   scene_13
     001C5E0C  _scene_13                          scene_13
     001C5E47  ___func_scene_14                   scene_14
     001C5E47  _scene_14                          scene_14
     001C5E82  ___func_scene_15                   scene_15
     001C5E82  _scene_15                          scene_15
     001C5EBD  ___func_scene_16                   scene_16
     001C5EBD  _scene_16                          scene_16
     001C5EF8  ___func_scene_17                   scene_17
     001C5EF8  _scene_17                          scene_17
     001C5F33  ___func_scene_18_actors            scene_18_actors
     001C5F33  _scene_18_actors                   scene_18_actors
ASxxxx Linker V03.00/V05.40 + sdld,  page 94.
Hexadecimal  [32-Bits]

Area                                    Addr        Size        Decimal Bytes (Attributes)
--------------------------------        ----        ----        ------- ----- ------------
_CODE_28                            001C4000    00004000 =       16384. bytes (REL,CON)

      Value  Global                              Global Defined In Module
      -----  --------------------------------   ------------------------
     001C5F9B  _scene_18_init                     scene_18_init
     001C5FEB  ___func_scene_18                   scene_18
     001C5FEB  _scene_18                          scene_18
     001C6026  _scene_19_init                     scene_19_init
     001C607A  ___func_scene_19                   scene_19
     001C607A  _scene_19                          scene_19
     001C60B5  _scene_2_init                      scene_2_init
     001C6100  ___func_scene_2                    scene_2
     001C6100  _scene_2                           scene_2
     001C613B  ___func_scene_20                   scene_20
     001C613B  _scene_20                          scene_20
     001C6176  ___func_scene_21                   scene_21
     001C6176  _scene_21                          scene_21
     001C61B1  ___func_scene_22_actors            scene_22_actors
     001C61B1  _scene_22_actors                   scene_22_actors
     001C6219  ___func_scene_22                   scene_22
     001C6219  _scene_22                          scene_22
     001C6254  ___func_scene_23                   scene_23
     001C6254  _scene_23                          scene_23
     001C628F  _scene_24_init                     scene_24_init
     001C62DD  ___func_scene_24                   scene_24
     001C62DD  _scene_24                          scene_24
     001C6318  _scene_25_init                     scene_25_init
     001C6366  ___func_scene_25                   scene_25
     001C6366  _scene_25                          scene_25
     001C63A1  ___func_scene_26                   scene_26
     001C63A1  _scene_26                          scene_26
     001C63DC  ___func_scene_27                   scene_27
     001C63DC  _scene_27                          scene_27
     001C6417  ___func_scene_28                   scene_28
     001C6417  _scene_28                          scene_28
     001C6452  ___func_scene_29                   scene_29
     001C6452  _scene_29                          scene_29
     001C648D  _scene_3_init                      scene_3_init
     001C64D7  ___func_scene_33_actors            scene_33_actors
     001C64D7  _scene_33_actors                   scene_33_actors
     001C653F  _scene_38_init                     scene_38_init
     001C65B8  _scene_4_init                      scene_4_init
     001C660B  ___func_scene_45_actors            scene_45_actors
     001C660B  _scene_45_actors                   scene_45_actors
     001C6673  ___func_scene_46_actors            scene_46_actors
     001C6673  _scene_46_actors                   scene_46_actors
     001C66DB  ___func_scene_46_projectiles       scene_46_projectiles
     001C66DB  _scene_46_projectiles              scene_46_projectiles
     001C66F2  _scene_49_p_hit1                   scene_49_p_hit1
     001C6739  ___func_scene_49_triggers          scene_49_triggers
     001C6739  _scene_49_triggers                 scene_49_triggers
     001C6779  _scene_5_init                      scene_5_init
     001C67C7  _scene_6_init                      scene_6_init
     001C6815  _scene_64_init                     scene_64_init
     001C6868  ___func_scene_73_actors            scene_73_actors
ASxxxx Linker V03.00/V05.40 + sdld,  page 95.
Hexadecimal  [32-Bits]

Area                                    Addr        Size        Decimal Bytes (Attributes)
--------------------------------        ----        ----        ------- ----- ------------
_CODE_28                            001C4000    00004000 =       16384. bytes (REL,CON)

      Value  Global                              Global Defined In Module
      -----  --------------------------------   ------------------------
     001C6868  _scene_73_actors                   scene_73_actors
     001C68D0  _scene_8_init                      scene_8_init
     001C691E  _scene_85_init                     scene_85_init
     001C69A1  ___func_scene_86_actors            scene_86_actors
     001C69A1  _scene_86_actors                   scene_86_actors
     001C6A3D  _scene_87_init                     scene_87_init
     001C6AB5  _scene_9_init                      scene_9_init
     001C6B03  ___func_scene_92_actors            scene_92_actors
     001C6B03  _scene_92_actors                   scene_92_actors
     001C6B9F  _scene_95_init                     scene_95_init
     001C6BF7  _scene_96_init                     scene_96_init
     001C6C4F  _scene_98_init                     scene_98_init
     001C6CB4  ___func_scene_99_actors            scene_99_actors
     001C6CB4  _scene_99_actors                   scene_99_actors
     001C6D1C  _script_engine_init                
     001C6D9C  _script_input_1                    script_input_1
     001C6E01  _script_input_2                    script_input_2
     001C6E6A  _script_input_4                    script_input_4
     001C6ED8  _script_input_5                    script_input_5
     001C6F46  _script_timer_0                    script_timer_0
     001C6F85  _script_timer_1                    script_timer_1
     001C6FC4  _script_timer_10                   script_timer_10
     001C7003  _script_timer_11                   script_timer_11
     001C7042  _script_timer_12                   script_timer_12
     001C7082  _script_timer_13                   script_timer_13
     001C70C2  _script_timer_14                   script_timer_14
     001C7127  ___func_sprite_blank_interactabl   sprite_blank_interactable_c_
     001C7127  _sprite_blank_interactable_c_0_t   sprite_blank_interactable_c_
     001C71A9  ___func_sprite_blank_interactabl   sprite_blank_interactable_c_
     001C71A9  _sprite_blank_interactable_c_0_m   sprite_blank_interactable_c_
     001C71C5  _sprite_blank_interactable_c_0_m   sprite_blank_interactable_c_
     001C71C7  _sprite_blank_interactable_c_0_a   sprite_blank_interactable_c_
     001C71D7  _sprite_blank_interactable_c_0_a   sprite_blank_interactable_c_
     001C71D9  _sprite_blank_interactable_c_0     sprite_blank_interactable_c_
     001C71EC  ___func_sprite_blank_interactabl   sprite_blank_interactable_c_
     001C71EC  _sprite_blank_interactable_c_til   sprite_blank_interactable_c_
     001C722E  ___func_sprite_car_tileset         sprite_car_tileset
     001C722E  _sprite_car_tileset                sprite_car_tileset
     001C7270  ___func_sprite_cataa_tileset       sprite_cataa_tileset
     001C7270  _sprite_cataa_tileset              sprite_cataa_tileset
     001C72B2  ___func_sprite_dhilly_5_level_co   sprite_dhilly_5_level_copy_
     001C72B2  _sprite_dhilly_5_level_copy__met   sprite_dhilly_5_level_copy_
     001C72CE  _sprite_dhilly_5_level_copy__met   sprite_dhilly_5_level_copy_
     001C72D0  _sprite_dhilly_5_level_copy__ani   sprite_dhilly_5_level_copy_
     001C72E0  _sprite_dhilly_5_level_copy__ani   sprite_dhilly_5_level_copy_
     001C72E2  _sprite_dhilly_5_level_copy_       sprite_dhilly_5_level_copy_
     001C72F5  ___func_sprite_dhilly_bridge_int   sprite_dhilly_bridge_intera_
     001C72F5  _sprite_dhilly_bridge_intera_0_m   sprite_dhilly_bridge_intera_
     001C7301  _sprite_dhilly_bridge_intera_0_m   sprite_dhilly_bridge_intera_
     001C730D  _sprite_dhilly_bridge_intera_0_m   sprite_dhilly_bridge_intera_
     001C7319  _sprite_dhilly_bridge_intera_0_m   sprite_dhilly_bridge_intera_
ASxxxx Linker V03.00/V05.40 + sdld,  page 96.
Hexadecimal  [32-Bits]

Area                                    Addr        Size        Decimal Bytes (Attributes)
--------------------------------        ----        ----        ------- ----- ------------
_CODE_28                            001C4000    00004000 =       16384. bytes (REL,CON)

      Value  Global                              Global Defined In Module
      -----  --------------------------------   ------------------------
     001C7325  _sprite_dhilly_bridge_intera_0_m   sprite_dhilly_bridge_intera_
     001C7331  _sprite_dhilly_bridge_intera_0_m   sprite_dhilly_bridge_intera_
     001C7341  _sprite_dhilly_bridge_intera_0_a   sprite_dhilly_bridge_intera_
     001C7351  _sprite_dhilly_bridge_intera_0_a   sprite_dhilly_bridge_intera_
     001C7353  _sprite_dhilly_bridge_intera_0     sprite_dhilly_bridge_intera_
     001C7366  ___func_sprite_dhilly_saveselect   sprite_dhilly_saveselect_co_
     001C7366  _sprite_dhilly_saveselect_co_1_t   sprite_dhilly_saveselect_co_
     001C73A8  ___func_sprite_dhilly_saveselect   sprite_dhilly_saveselect
     001C73A8  _sprite_dhilly_saveselect_metasp   sprite_dhilly_saveselect
     001C73B4  _sprite_dhilly_saveselect_metasp   sprite_dhilly_saveselect
     001C73C0  _sprite_dhilly_saveselect_metasp   sprite_dhilly_saveselect
     001C73CC  _sprite_dhilly_saveselect_metasp   sprite_dhilly_saveselect
     001C73D8  _sprite_dhilly_saveselect_metasp   sprite_dhilly_saveselect
     001C73E4  _sprite_dhilly_saveselect_metasp   sprite_dhilly_saveselect
     001C73F4  _sprite_dhilly_saveselect_animat   sprite_dhilly_saveselect
     001C7404  _sprite_dhilly_saveselect_animat   sprite_dhilly_saveselect
     001C7406  _sprite_dhilly_saveselect          sprite_dhilly_saveselect
     001C7419  ___func_sprite_highlight_options   sprite_highlight_options_co
     001C7419  _sprite_highlight_options_co_met   sprite_highlight_options_co
     001C741D  _sprite_highlight_options_co_met   sprite_highlight_options_co
     001C7441  _sprite_highlight_options_co_met   sprite_highlight_options_co
     001C745D  _sprite_highlight_options_co_met   sprite_highlight_options_co
     001C7463  _sprite_highlight_options_co_ani   sprite_highlight_options_co
     001C7473  _sprite_highlight_options_co_ani   sprite_highlight_options_co
     001C7475  _sprite_highlight_options_co       sprite_highlight_options_co
     001C7488  ___func_sprite_iceosapp_ctf_copy   sprite_iceosapp_ctf_copy_0_t
     001C7488  _sprite_iceosapp_ctf_copy_0_tile   sprite_iceosapp_ctf_copy_0_t
     001C74CA  ___func_sprite_iceosapp_wveruner   sprite_iceosapp_wveruner_co_
     001C74CA  _sprite_iceosapp_wveruner_co_til   sprite_iceosapp_wveruner_co_
     001C750C  ___func_sprite_knife_down_copy__   sprite_knife_down_copy__tile
     001C750C  _sprite_knife_down_copy__tileset   sprite_knife_down_copy__tile
     001C754E  ___func_sprite_mzdesigns_tileset   sprite_mzdesigns_tileset
     001C754E  _sprite_mzdesigns_tileset          sprite_mzdesigns_tileset
     001C7590  ___func_sprite_shapiro_tileset     sprite_shapiro_tileset
     001C7590  _sprite_shapiro_tileset            sprite_shapiro_tileset
     001C75D2  ___func_sprite_square_cart_copy_   sprite_square_cart_copy__til
     001C75D2  _sprite_square_cart_copy__tilese   sprite_square_cart_copy__til
     001C7634  ___func_sprite_square_cart_copy_   sprite_square_cart_copy_
     001C7634  _sprite_square_cart_copy__metasp   sprite_square_cart_copy_
     001C7650  _sprite_square_cart_copy__metasp   sprite_square_cart_copy_
     001C7652  _sprite_square_cart_copy__animat   sprite_square_cart_copy_
     001C7662  _sprite_square_cart_copy__animat   sprite_square_cart_copy_
     001C7664  _sprite_square_cart_copy_          sprite_square_cart_copy_
     001C7677  ___func_sprite_square_full_hitbo   sprite_square_full_hitbox_c_
     001C7677  _sprite_square_full_hitbox_c_2_t   sprite_square_full_hitbox_c_
     001C76D9  ___func_sprite_square_full_hitbo   sprite_square_full_hitbox_c_
     001C76D9  _sprite_square_full_hitbox_c_2_m   sprite_square_full_hitbox_c_
     001C76FD  _sprite_square_full_hitbox_c_2_m   sprite_square_full_hitbox_c_
     001C76FF  _sprite_square_full_hitbox_c_2_a   sprite_square_full_hitbox_c_
     001C770F  _sprite_square_full_hitbox_c_2_a   sprite_square_full_hitbox_c_
     001C7711  _sprite_square_full_hitbox_c_2     sprite_square_full_hitbox_c_
ASxxxx Linker V03.00/V05.40 + sdld,  page 97.
Hexadecimal  [32-Bits]

Area                                    Addr        Size        Decimal Bytes (Attributes)
--------------------------------        ----        ----        ------- ----- ------------
_CODE_28                            001C4000    00004000 =       16384. bytes (REL,CON)

      Value  Global                              Global Defined In Module
      -----  --------------------------------   ------------------------
     001C7724  ___func_sprite_square_full_hitbo   sprite_square_full_hitbox_c_
     001C7724  _sprite_square_full_hitbox_c_3_t   sprite_square_full_hitbox_c_
     001C7766  ___func_sprite_square_full_hitbo   sprite_square_full_hitbox_c_
     001C7766  _sprite_square_full_hitbox_c_3_m   sprite_square_full_hitbox_c_
     001C778A  _sprite_square_full_hitbox_c_3_m   sprite_square_full_hitbox_c_
     001C778C  _sprite_square_full_hitbox_c_3_a   sprite_square_full_hitbox_c_
     001C779C  _sprite_square_full_hitbox_c_3_a   sprite_square_full_hitbox_c_
     001C779E  _sprite_square_full_hitbox_c_3     sprite_square_full_hitbox_c_
     001C77B1  ___func_sprite_square_full_hitbo   sprite_square_full_hitbox_c_
     001C77B1  _sprite_square_full_hitbox_c_5_t   sprite_square_full_hitbox_c_
     001C7813  ___func_sprite_static_copy_0_til   sprite_static_copy_0_tileset
     001C7813  _sprite_static_copy_0_tileset      sprite_static_copy_0_tileset
     001C7855  ___func_sprite_static_copy_tiles   sprite_static_copy_tileset
     001C7855  _sprite_static_copy_tileset        sprite_static_copy_tileset
     001C7897  _trigger_101_interact              trigger_101_interact
     001C7909  _trigger_102_interact              trigger_102_interact
     001C797B  _trigger_103_interact              trigger_103_interact
     001C79ED  _trigger_104_interact              trigger_104_interact
     001C7A5F  _trigger_105_interact              trigger_105_interact
     001C7AF2  _trigger_106_interact              trigger_106_interact
     001C7B6F  _trigger_108_interact              trigger_108_interact
     001C7BE0  _trigger_109_interact              trigger_109_interact
     001C7C52  _trigger_110_interact              trigger_110_interact
     001C7CC4  _trigger_111_interact              trigger_111_interact
     001C7D36  _trigger_115_interact              trigger_115_interact
     001C7DAF  _trigger_69_interact               trigger_69_interact
     001C7DF9  _trigger_77_interact               trigger_77_interact
     001C7E52  _trigger_90_interact               trigger_90_interact
     001C7ECE  _trigger_96_interact               trigger_96_interact
     001C7F1C  _trigger_97_interact               trigger_97_interact
     001C7F8E  _trigger_99_interact               trigger_99_interact
ASxxxx Linker V03.00/V05.40 + sdld,  page 98.
Hexadecimal  [32-Bits]

Area                                    Addr        Size        Decimal Bytes (Attributes)
--------------------------------        ----        ----        ------- ----- ------------
_CODE_22                            00164000    00004000 =       16384. bytes (REL,CON)

      Value  Global                              Global Defined In Module
      -----  --------------------------------   ------------------------
     00164000  _CGBFadeToWhiteStep                fade_manager
     00164039  _CGBFadeToBlackStep                fade_manager
     00164074  _ApplyPaletteChangeColor           fade_manager
     001640B1  _fade_speeds                       fade_manager
     001640B8  _DMGFadeToWhiteStep                fade_manager
     001640D9  _DMGFadeToBlackStep                fade_manager
     001640FC  _ApplyPaletteChangeDMG             fade_manager
     00164152  _fade_init                         fade_manager
     00164173  _fade_in                           fade_manager
     001641AB  _fade_out                          fade_manager
     001641E4  _fade_update                       fade_manager
     00164237  _fade_applypalettechange           fade_manager
     00164249  _fade_setspeed                     fade_manager
     00164259  _fade_in_modal                     fade_manager
     00164273  _fade_out_modal                    fade_manager
     0016428D  _set_sgb_border                    sgb_border
     00164477  ___func_VM_PALETTE                 vm_palette
     00164477  _vm_load_palette                   vm_palette
     0016466E  ___func_avatar_font_0              avatar_font_0
     00164916  _avatar_font_0                     avatar_font_0
     0016491E  ___func_bg_cave_ladder_copy_0      bg_cave_ladder_copy_0
     0016491E  _bg_cave_ladder_copy_0             bg_cave_ladder_copy_0
     0016492C  ___func_bg_cinema_tilemap_attr     bg_cinema_tilemap_attr
     0016492C  _bg_cinema_tilemap_attr            bg_cinema_tilemap_attr
     00164B0C  ___func_bg_cinema_tilemap          bg_cinema_tilemap
     00164B0C  _bg_cinema_tilemap                 bg_cinema_tilemap
     00164CEC  ___func_bg_fieldlazy_tileset       bg_fieldlazy_tileset
     00164CEC  _bg_fieldlazy_tileset              bg_fieldlazy_tileset
     00164DDE  ___func_bg_iceos_desktop_copy__t   bg_iceos_desktop_copy__tiles
     00164DDE  _bg_iceos_desktop_copy__tileset    bg_iceos_desktop_copy__tiles
     00164FC0  ___func_bg_iceos_login_2_copy__t   bg_iceos_login_2_copy__tiles
     00164FC0  _bg_iceos_login_2_copy__tileset    bg_iceos_login_2_copy__tiles
     00165252  ___func_bg_lair_right_tileset      bg_lair_right_tileset
     00165252  _bg_lair_right_tileset             bg_lair_right_tileset
     00165434  ___func_bg_pixil_frame_0_23_tile   bg_pixil_frame_0_23_tileset
     00165434  _bg_pixil_frame_0_23_tileset       bg_pixil_frame_0_23_tileset
     001656E6  ___func_bg_samsam_copy_tileset     bg_samsam_copy_tileset
     001656E6  _bg_samsam_copy_tileset            bg_samsam_copy_tileset
     00165988  ___func_bg_shillycity_sara_house   bg_shillycity_sara_house_co_
     00165988  _bg_shillycity_sara_house_co_til   bg_shillycity_sara_house_co_
     00165BCA  ___func_bg_shillycityopen_copy_0   bg_shillycityopen_copy_0_til
     00165BCA  _bg_shillycityopen_copy_0_tilema   bg_shillycityopen_copy_0_til
     00165DBE  ___func_bg_shillycityopen_copy_0   bg_shillycityopen_copy_0_til
     00165DBE  _bg_shillycityopen_copy_0_tilema   bg_shillycityopen_copy_0_til
     00165FB2  ___func_bg_shillycityopen_copy_1   bg_shillycityopen_copy_1_til
     00165FB2  _bg_shillycityopen_copy_1_tilese   bg_shillycityopen_copy_1_til
     00166234  ___func_bg_square_frozen_future_   bg_square_frozen_future_tile
     00166234  _bg_square_frozen_future_tileset   bg_square_frozen_future_tile
     001664F6  ___func_bg_theatre_tilemap_attr    bg_theatre_tilemap_attr
     001664F6  _bg_theatre_tilemap_attr           bg_theatre_tilemap_attr
ASxxxx Linker V03.00/V05.40 + sdld,  page 99.
Hexadecimal  [32-Bits]

Area                                    Addr        Size        Decimal Bytes (Attributes)
--------------------------------        ----        ----        ------- ----- ------------
_CODE_22                            00164000    00004000 =       16384. bytes (REL,CON)

      Value  Global                              Global Defined In Module
      -----  --------------------------------   ------------------------
     001666EA  ___func_bg_theatre_tilemap         bg_theatre_tilemap
     001666EA  _bg_theatre_tilemap                bg_theatre_tilemap
     001668DE  ___func_bg_theatre_tileset         bg_theatre_tileset
     001668DE  _bg_theatre_tileset                bg_theatre_tileset
     00166B60  ___func_bg_title_copy_0_tileset    bg_title_copy_0_tileset
     00166B60  _bg_title_copy_0_tileset           bg_title_copy_0_tileset
     00166DF2  _scene_14_init                     scene_14_init
     00167064  ___func_scene_46_collisions        scene_46_collisions
     00167064  _scene_46_collisions               scene_46_collisions
     00167258  ___func_scene_48_collisions        scene_48_collisions
     00167258  _scene_48_collisions               scene_48_collisions
     0016744C  ___func_scene_63_collisions        scene_63_collisions
     0016744C  _scene_63_collisions               scene_63_collisions
     00167640  ___func_sprite_pixelperfectvoti_   sprite_pixelperfectvoti_cop_
     00167640  _sprite_pixelperfectvoti_cop_til   sprite_pixelperfectvoti_cop_
     00167882  ___func_sprite_pixelperfectvoti_   sprite_pixelperfectvoti_tile
     00167882  _sprite_pixelperfectvoti_tileset   sprite_pixelperfectvoti_tile
     00167AA4  _trigger_81_interact               trigger_81_interact
     00167D6B  _trigger_95_interact               trigger_95_interact
ASxxxx Linker V03.00/V05.40 + sdld,  page 100.
Hexadecimal  [32-Bits]

Area                                    Addr        Size        Decimal Bytes (Attributes)
--------------------------------        ----        ----        ------- ----- ------------
_CODE_18                            00124000    00004000 =       16384. bytes (REL,CON)

      Value  Global                              Global Defined In Module
      -----  --------------------------------   ------------------------
     00124068  _save_sram_banks                   
     001240F0  _erase_flash                       
     00124106  ___func_bg_cave_ladder_copy__til   bg_cave_ladder_copy__tilemap
     00124106  _bg_cave_ladder_copy__tilemap      bg_cave_ladder_copy__tilemap
     001245B6  ___func_bg_fall_to_shilly_area_c   bg_fall_to_shilly_area_copy_
     001245B6  _bg_fall_to_shilly_area_copy_til   bg_fall_to_shilly_area_copy_
     00124A66  ___func_bg_fall_to_shilly_area_c   bg_fall_to_shilly_area_copy_
     00124A66  _bg_fall_to_shilly_area_copy_til   bg_fall_to_shilly_area_copy_
     00124F16  ___func_bg_init_copy_0_tilemap_a   bg_init_copy_0_tilemap_attr
     00124F16  _bg_init_copy_0_tilemap_attr       bg_init_copy_0_tilemap_attr
     001253C6  ___func_bg_init_copy_0_tilemap     bg_init_copy_0_tilemap
     001253C6  _bg_init_copy_0_tilemap            bg_init_copy_0_tilemap
     00125876  ___func_bg_lencityopen_tileset     bg_lencityopen_tileset
     00125876  _bg_lencityopen_tileset            bg_lencityopen_tileset
     00125D68  ___func_bg_pixil_frame_0_33_tile   bg_pixil_frame_0_33_tilemap
     00125D68  _bg_pixil_frame_0_33_tilemap       bg_pixil_frame_0_33_tilemap
     001262AE  ___func_scene_22_sprites           scene_22_sprites
     001262AE  _scene_22_sprites                  scene_22_sprites
     001262B4  ___func_scene_32_collisions        scene_32_collisions
     001262B4  _scene_32_collisions               scene_32_collisions
     00126764  ___func_scene_50_collisions        scene_50_collisions
     00126764  _scene_50_collisions               scene_50_collisions
     00126CAA  ___func_scene_51_collisions        scene_51_collisions
     00126CAA  _scene_51_collisions               scene_51_collisions
     0012715A  ___func_scene_56_collisions        scene_56_collisions
     0012715A  _scene_56_collisions               scene_56_collisions
     0012760A  ___func_scene_57_collisions        scene_57_collisions
     0012760A  _scene_57_collisions               scene_57_collisions
     00127B50  ___func_scene_77_collisions        scene_77_collisions
     00127B50  _scene_77_collisions               scene_77_collisions
ASxxxx Linker V03.00/V05.40 + sdld,  page 101.
Hexadecimal  [32-Bits]

Area                                    Addr        Size        Decimal Bytes (Attributes)
--------------------------------        ----        ----        ------- ----- ------------
_CODE_27                            001B4000    00004000 =       16384. bytes (REL,CON)

      Value  Global                              Global Defined In Module
      -----  --------------------------------   ------------------------
     001B4000  _input_init                        input
     001B402B  _music_init_driver                 music_manager
     001B4087  _music_init_events                 music_manager
     001B40C3  _music_events_poll                 music_manager
     001B40EB  _music_pause                       music_manager
     001B410D  _palette_init                      palette
     001B4144  _CGBZeroPalette                    palette
     001B4159  _SGBTransferPalettes               palette
     001B41D1  ___func_VM_GBPRINTER               vm_gbprinter
     001B41D1  _vm_print_detect                   vm_gbprinter
     001B4220  _vm_print_overlay                  vm_gbprinter
     001B4275  ___func_VM_MATH                    vm_math
     001B4275  _vm_sin_scale                      vm_math
     001B4311  _vm_cos_scale                      vm_math
     001B43AF  ___func_VM_MUSIC                   vm_music
     001B43AF  _vm_music_play                     vm_music
     001B43FC  _vm_music_stop                     vm_music
     001B441E  _vm_music_mute                     vm_music
     001B445C  _vm_music_routine                  vm_music
     001B4483  _vm_music_setpos                   vm_music
     001B4489  _vm_sound_mastervol                vm_music
     001B448F  _vm_sfx_play                       vm_music
     001B4502  ___func_VM_PROJECTILE              vm_projectiles
     001B4502  _vm_projectile_launch              vm_projectiles
     001B4543  _vm_projectile_load_type           vm_projectiles
     001B45D5  ___func_VM_RTC                     vm_rtc
     001B45D5  _vm_rtc_latch                      vm_rtc
     001B45DD  _vm_rtc_get                        vm_rtc
     001B4644  _vm_rtc_set                        vm_rtc
     001B46A2  _vm_rtc_start                      vm_rtc
     001B46C5  _actor_18_interact                 actor_18_interact
     001B4766  _actor_41_interact                 actor_41_interact
     001B4802  _actor_60_interact                 actor_60_interact
     001B48BF  _actor_61_interact                 actor_61_interact
     001B497C  ___func_bg_cave_ladder_copy__til   bg_cave_ladder_copy__tileset
     001B497C  _bg_cave_ladder_copy__tileset      bg_cave_ladder_copy__tileset
     001B4ABE  ___func_bg_cave_ladder_copy_0_ti   bg_cave_ladder_copy_0_tilese
     001B4ABE  _bg_cave_ladder_copy_0_tileset     bg_cave_ladder_copy_0_tilese
     001B4B90  ___func_bg_cinema_tileset          bg_cinema_tileset
     001B4B90  _bg_cinema_tileset                 bg_cinema_tileset
     001B4CD2  ___func_bg_controls_gb_copy_0_ti   bg_controls_gb_copy_0_tilese
     001B4CD2  _bg_controls_gb_copy_0_tileset     bg_controls_gb_copy_0_tilese
     001B4DF4  ___func_bg_dhilly_bridge_tileset   bg_dhilly_bridge_tileset
     001B4DF4  _bg_dhilly_bridge_tileset          bg_dhilly_bridge_tileset
     001B4F16  ___func_bg_fall_to_shilly_area_c   bg_fall_to_shilly_area_copy_
     001B4F16  _bg_fall_to_shilly_area_copy_til   bg_fall_to_shilly_area_copy_
     001B5068  ___func_bg_iceos_platformer2_cop   bg_iceos_platformer2_copy__t
     001B5068  _bg_iceos_platformer2_copy__tile   bg_iceos_platformer2_copy__t
     001B51BA  ___func_bg_iceos_platformer3_cop   bg_iceos_platformer3_copy__t
     001B51BA  _bg_iceos_platformer3_copy__tile   bg_iceos_platformer3_copy__t
ASxxxx Linker V03.00/V05.40 + sdld,  page 102.
Hexadecimal  [32-Bits]

Area                                    Addr        Size        Decimal Bytes (Attributes)
--------------------------------        ----        ----        ------- ----- ------------
_CODE_27                            001B4000    00004000 =       16384. bytes (REL,CON)

      Value  Global                              Global Defined In Module
      -----  --------------------------------   ------------------------
     001B531C  ___func_bg_init_copy_2_tileset     bg_init_copy_2_tileset
     001B531C  _bg_init_copy_2_tileset            bg_init_copy_2_tileset
     001B541E  ___func_bg_lair_hub_tileset        bg_lair_hub_tileset
     001B541E  _bg_lair_hub_tileset               bg_lair_hub_tileset
     001B5530  ___func_bg_lair_left_2_copy__til   bg_lair_left_2_copy__tileset
     001B5530  _bg_lair_left_2_copy__tileset      bg_lair_left_2_copy__tileset
     001B5612  ___func_bg_lair_left_2_tileset     bg_lair_left_2_tileset
     001B5612  _bg_lair_left_2_tileset            bg_lair_left_2_tileset
     001B5724  ___func_bg_lencity_dhillybuildin   bg_lencity_dhillybuilding_c_
     001B5724  _bg_lencity_dhillybuilding_c_til   bg_lencity_dhillybuilding_c_
     001B5846  ___func_bg_lencity_dhillybuildin   bg_lencity_dhillybuilding_f_
     001B5846  _bg_lencity_dhillybuilding_f_til   bg_lencity_dhillybuilding_f_
     001B5978  ___func_bg_lencity_trainstation_   bg_lencity_trainstation_tile
     001B5978  _bg_lencity_trainstation_tileset   bg_lencity_trainstation_tile
     001B5ACA  ___func_bg_lencityopen_copy_0_ti   bg_lencityopen_copy_0_tilese
     001B5ACA  _bg_lencityopen_copy_0_tileset     bg_lencityopen_copy_0_tilese
     001B5C2C  ___func_scene_101_actors           scene_101_actors
     001B5C2C  _scene_101_actors                  scene_101_actors
     001B5CC8  ___func_scene_2_actors             scene_2_actors
     001B5CC8  _scene_2_actors                    scene_2_actors
     001B5D64  _scene_21_init                     scene_21_init
     001B5E75  _scene_26_init                     scene_26_init
     001B5F1D  ___func_scene_37_actors            scene_37_actors
     001B5F1D  _scene_37_actors                   scene_37_actors
     001B5FB9  ___func_scene_39_actors            scene_39_actors
     001B5FB9  _scene_39_actors                   scene_39_actors
     001B6089  _scene_45_init                     scene_45_init
     001B6165  ___func_scene_52_actors            scene_52_actors
     001B6165  _scene_52_actors                   scene_52_actors
     001B6269  ___func_scene_53_actors            scene_53_actors
     001B6269  _scene_53_actors                   scene_53_actors
     001B636D  _scene_69_init                     scene_69_init
     001B640A  _scene_74_init                     scene_74_init
     001B64A9  ___func_scene_83_collisions        scene_83_collisions
     001B64A9  _scene_83_collisions               scene_83_collisions
     001B6611  ___func_scene_84_collisions        scene_84_collisions
     001B6611  _scene_84_collisions               scene_84_collisions
     001B6779  ___func_scene_85_collisions        scene_85_collisions
     001B6779  _scene_85_collisions               scene_85_collisions
     001B68E1  ___func_scene_87_collisions        scene_87_collisions
     001B68E1  _scene_87_collisions               scene_87_collisions
     001B6A49  ___func_scene_9_collisions         scene_9_collisions
     001B6A49  _scene_9_collisions                scene_9_collisions
     001B6BB1  ___func_scene_91_actors            scene_91_actors
     001B6BB1  _scene_91_actors                   scene_91_actors
     001B6C81  ___func_scene_92_collisions        scene_92_collisions
     001B6C81  _scene_92_collisions               scene_92_collisions
     001B6DE9  _scene_92_init                     scene_92_init
     001B6EF9  _scene_93_p_hit1                   scene_93_p_hit1
     001B6FB8  _scene_94_p_hit1                   scene_94_p_hit1
     001B7077  ___func_scene_95_collisions        scene_95_collisions
ASxxxx Linker V03.00/V05.40 + sdld,  page 103.
Hexadecimal  [32-Bits]

Area                                    Addr        Size        Decimal Bytes (Attributes)
--------------------------------        ----        ----        ------- ----- ------------
_CODE_27                            001B4000    00004000 =       16384. bytes (REL,CON)

      Value  Global                              Global Defined In Module
      -----  --------------------------------   ------------------------
     001B7077  _scene_95_collisions               scene_95_collisions
     001B71DF  ___func_scene_96_collisions        scene_96_collisions
     001B71DF  _scene_96_collisions               scene_96_collisions
     001B7347  ___func_scene_97_collisions        scene_97_collisions
     001B7347  _scene_97_collisions               scene_97_collisions
     001B74AF  ___func_scene_98_collisions        scene_98_collisions
     001B74AF  _scene_98_collisions               scene_98_collisions
     001B7617  ___func_sprite_dhilly_5_level_co   sprite_dhilly_5_level_copy__
     001B7617  _sprite_dhilly_5_level_copy__til   sprite_dhilly_5_level_copy__
     001B76D9  ___func_sprite_highlight_options   sprite_highlight_options_co_
     001B76D9  _sprite_highlight_options_co_til   sprite_highlight_options_co_
     001B77BB  ___func_sprite_pixelperfectvoti_   sprite_pixelperfectvoti_cop
     001B77BB  _sprite_pixelperfectvoti_cop_met   sprite_pixelperfectvoti_cop
     001B77C7  _sprite_pixelperfectvoti_cop_met   sprite_pixelperfectvoti_cop
     001B77D3  _sprite_pixelperfectvoti_cop_met   sprite_pixelperfectvoti_cop
     001B77DF  _sprite_pixelperfectvoti_cop_met   sprite_pixelperfectvoti_cop
     001B77EB  _sprite_pixelperfectvoti_cop_met   sprite_pixelperfectvoti_cop
     001B77F7  _sprite_pixelperfectvoti_cop_met   sprite_pixelperfectvoti_cop
     001B7803  _sprite_pixelperfectvoti_cop_met   sprite_pixelperfectvoti_cop
     001B780F  _sprite_pixelperfectvoti_cop_met   sprite_pixelperfectvoti_cop
     001B781B  _sprite_pixelperfectvoti_cop_met   sprite_pixelperfectvoti_cop
     001B7827  _sprite_pixelperfectvoti_cop_met   sprite_pixelperfectvoti_cop
     001B7833  _sprite_pixelperfectvoti_cop_met   sprite_pixelperfectvoti_cop
     001B783F  _sprite_pixelperfectvoti_cop_met   sprite_pixelperfectvoti_cop
     001B784B  _sprite_pixelperfectvoti_cop_met   sprite_pixelperfectvoti_cop
     001B7857  _sprite_pixelperfectvoti_cop_met   sprite_pixelperfectvoti_cop
     001B7863  _sprite_pixelperfectvoti_cop_met   sprite_pixelperfectvoti_cop
     001B787F  _sprite_pixelperfectvoti_cop_ani   sprite_pixelperfectvoti_cop
     001B788F  _sprite_pixelperfectvoti_cop_ani   sprite_pixelperfectvoti_cop
     001B7891  _sprite_pixelperfectvoti_cop       sprite_pixelperfectvoti_cop
     001B78A4  ___func_sprite_pixelperfectvoti    sprite_pixelperfectvoti
     001B78A4  _sprite_pixelperfectvoti_metaspr   sprite_pixelperfectvoti
     001B78B0  _sprite_pixelperfectvoti_metaspr   sprite_pixelperfectvoti
     001B78BC  _sprite_pixelperfectvoti_metaspr   sprite_pixelperfectvoti
     001B78C8  _sprite_pixelperfectvoti_metaspr   sprite_pixelperfectvoti
     001B78D4  _sprite_pixelperfectvoti_metaspr   sprite_pixelperfectvoti
     001B78E0  _sprite_pixelperfectvoti_metaspr   sprite_pixelperfectvoti
     001B78EC  _sprite_pixelperfectvoti_metaspr   sprite_pixelperfectvoti
     001B78F8  _sprite_pixelperfectvoti_metaspr   sprite_pixelperfectvoti
     001B7904  _sprite_pixelperfectvoti_metaspr   sprite_pixelperfectvoti
     001B7910  _sprite_pixelperfectvoti_metaspr   sprite_pixelperfectvoti
     001B791C  _sprite_pixelperfectvoti_metaspr   sprite_pixelperfectvoti
     001B7928  _sprite_pixelperfectvoti_metaspr   sprite_pixelperfectvoti
     001B7934  _sprite_pixelperfectvoti_metaspr   sprite_pixelperfectvoti
     001B7940  _sprite_pixelperfectvoti_metaspr   sprite_pixelperfectvoti
     001B794C  _sprite_pixelperfectvoti_metaspr   sprite_pixelperfectvoti
     001B7968  _sprite_pixelperfectvoti_animati   sprite_pixelperfectvoti
     001B7978  _sprite_pixelperfectvoti_animati   sprite_pixelperfectvoti
     001B797A  _sprite_pixelperfectvoti           sprite_pixelperfectvoti
     001B798D  _trigger_112_interact              trigger_112_interact
     001B7A6E  _trigger_113_interact              trigger_113_interact
ASxxxx Linker V03.00/V05.40 + sdld,  page 104.
Hexadecimal  [32-Bits]

Area                                    Addr        Size        Decimal Bytes (Attributes)
--------------------------------        ----        ----        ------- ----- ------------
_CODE_27                            001B4000    00004000 =       16384. bytes (REL,CON)

      Value  Global                              Global Defined In Module
      -----  --------------------------------   ------------------------
     001B7B4F  _trigger_114_interact              trigger_114_interact
     001B7C30  _trigger_120_interact              trigger_120_interact
     001B7CD5  _trigger_40_interact               trigger_40_interact
     001B7D9E  _trigger_52_interact               trigger_52_interact
     001B7EA2  _trigger_86_interact               trigger_86_interact
     001B7F43  _trigger_89_interact               trigger_89_interact

ASxxxx Linker V03.00/V05.40 + sdld,  page 105.
Hexadecimal  [32-Bits]

Area                                    Addr        Size        Decimal Bytes (Attributes)
--------------------------------        ----        ----        ------- ----- ------------
_HEADER_SIO0                        00000000    00000004 =           4. bytes (ABS,CON)

      Value  Global                              Global Defined In Module
      -----  --------------------------------   ------------------------
ASxxxx Linker V03.00/V05.40 + sdld,  page 106.
Hexadecimal  [32-Bits]

Area                                    Addr        Size        Decimal Bytes (Attributes)
--------------------------------        ----        ----        ------- ----- ------------
_HEADER_TIMER0                      00000000    00000004 =           4. bytes (ABS,CON)

      Value  Global                              Global Defined In Module
      -----  --------------------------------   ------------------------
ASxxxx Linker V03.00/V05.40 + sdld,  page 107.
Hexadecimal  [32-Bits]

Area                                    Addr        Size        Decimal Bytes (Attributes)
--------------------------------        ----        ----        ------- ----- ------------
_CODE_20                            00144000    00003FFE =       16382. bytes (REL,CON)

      Value  Global                              Global Defined In Module
      -----  --------------------------------   ------------------------
     00144000  _data_init                         load_save
     0014404B  _save_points                       load_save
     001440AB  _data_slot_address                 load_save
     00144123  _data_save                         load_save
     001441E4  _data_load                         load_save
     001442F8  _data_clear                        load_save
     00144325  _data_peek                         load_save
     001443C6  ___func_VM_CAMERA                  vm_camera
     001443C6  _vm_camera_move_to                 vm_camera
     00144619  _vm_camera_set_pos                 vm_camera
     00144660  _camera_shake_frames               vm_camera
     0014478F  _itoa_fmt                          vm_ui_a
     001447C8  .utoa_fmt                          vm_ui_a
     00144872  _actor_16_interact                 actor_16_interact
     00144C3D  _actor_6_interact                  actor_6_interact
     00145008  ___func_bg_controls_gb_copy_0_ti   bg_controls_gb_copy_0_tilema
     00145008  _bg_controls_gb_copy_0_tilemap_a   bg_controls_gb_copy_0_tilema
     0014539E  ___func_bg_controls_gb_copy_0_ti   bg_controls_gb_copy_0_tilema
     0014539E  _bg_controls_gb_copy_0_tilemap     bg_controls_gb_copy_0_tilema
     00145734  ___func_bg_dhilly_bridge_tilemap   bg_dhilly_bridge_tilemap
     00145734  _bg_dhilly_bridge_tilemap          bg_dhilly_bridge_tilemap
     00145B1C  ___func_bg_dhilly_game_10_tilese   bg_dhilly_game_10_tileset
     00145B1C  _bg_dhilly_game_10_tileset         bg_dhilly_game_10_tileset
     00145EFE  ___func_bg_endingscene3_tileset    bg_endingscene3_tileset
     00145EFE  _bg_endingscene3_tileset           bg_endingscene3_tileset
     001462A0  ___func_bg_init_copy__tilemap_at   bg_init_copy__tilemap_attr
     001462A0  _bg_init_copy__tilemap_attr        bg_init_copy__tilemap_attr
     00146638  ___func_bg_init_copy__tilemap      bg_init_copy__tilemap
     00146638  _bg_init_copy__tilemap             bg_init_copy__tilemap
     001469D0  ___func_bg_pixil_frame_0_33_tile   bg_pixil_frame_0_33_tileset
     001469D0  _bg_pixil_frame_0_33_tileset       bg_pixil_frame_0_33_tileset
     00146DA2  ___func_scene_0_collisions         scene_0_collisions
     00146DA2  _scene_0_collisions                scene_0_collisions
     0014713A  ___func_scene_15_collisions        scene_15_collisions
     0014713A  _scene_15_collisions               scene_15_collisions
     001474D0  ___func_scene_20_sprites           scene_20_sprites
     001474D0  _scene_20_sprites                  scene_20_sprites
     001474D3  ___func_scene_76_collisions        scene_76_collisions
     001474D3  _scene_76_collisions               scene_76_collisions
     001478BB  ___func_scene_89_collisions        scene_89_collisions
     001478BB  _scene_89_collisions               scene_89_collisions
     00147C51  _script_input_6                    script_input_6
ASxxxx Linker V03.00/V05.40 + sdld,  page 108.
Hexadecimal  [32-Bits]

Area                                    Addr        Size        Decimal Bytes (Attributes)
--------------------------------        ----        ----        ------- ----- ------------
_CODE_15                            000F4000    00004000 =       16384. bytes (REL,CON)

      Value  Global                              Global Defined In Module
      -----  --------------------------------   ------------------------
     000F4000  _scroll_init                       scroll
     000F402A  _scroll_reset                      scroll
     000F404A  _scroll_update                     scroll
     000F4181  _scroll_viewport                   scroll
     000F461A  _scroll_repaint                    scroll
     000F462A  _scroll_render_rows                scroll
     000F46C0  _scroll_queue_row                  scroll
     000F46E2  _scroll_queue_col                  scroll
     000F472D  ___func_bg_dhilly_game_11_tilese   bg_dhilly_game_11_tileset
     000F472D  _bg_dhilly_game_11_tileset         bg_dhilly_game_11_tileset
     000F4CBF  ___func_bg_dhilly_game_8_tileset   bg_dhilly_game_8_tileset
     000F4CBF  _bg_dhilly_game_8_tileset          bg_dhilly_game_8_tileset
     000F5411  ___func_bg_fieldlazy_tilemap_att   bg_fieldlazy_tilemap_attr
     000F5411  _bg_fieldlazy_tilemap_attr         bg_fieldlazy_tilemap_attr
     000F5B4F  ___func_bg_fieldlazy_tilemap       bg_fieldlazy_tilemap
     000F5B4F  _bg_fieldlazy_tilemap              bg_fieldlazy_tilemap
     000F628D  ___func_bg_pixil_frame_23_0_tile   bg_pixil_frame_23_0_tilemap_
     000F628D  _bg_pixil_frame_23_0_tilemap_att   bg_pixil_frame_23_0_tilemap_
     000F6995  _scene_48_p_hit1                   scene_48_p_hit1
     000F69DC  ___func_scene_49_collisions        scene_49_collisions
     000F69DC  _scene_49_collisions               scene_49_collisions
     000F711A  _scene_61_init                     scene_61_init
     000F788B  _trigger_1_interact                trigger_1_interact

ASxxxx Linker V03.00/V05.40 + sdld,  page 109.
Hexadecimal  [32-Bits]

Area                                    Addr        Size        Decimal Bytes (Attributes)
--------------------------------        ----        ----        ------- ----- ------------
_CODE_1                             00014000    00004000 =       16384. bytes (REL,CON)

      Value  Global                              Global Defined In Module
      -----  --------------------------------   ------------------------
     00014000  _ui_swap_tiles                     
     0001404A  _ui_print_make_mask_lr             
     00014066  _ui_print_make_mask_rl             
     00014082  _ui_init                           ui
     00014153  _ui_load_tiles                     ui
     000141AA  _ui_draw_frame                     ui
     00014244  _ui_print_reset                    ui
     00014295  _ui_set_start_tile                 ui
     000142C1  _ui_print_render                   ui
     00014557  _ui_draw_text_buffer_char          ui
     00014A3B  _ui_run_menu                       ui
     00014C12  _ui_run_modal                      ui
     00014CCC  ___func_VM_SGB                     vm_sgb
     00014CCC  ___func_bg_elevator_tileset        bg_elevator_tileset
     00014CCC  _bg_elevator_tileset               bg_elevator_tileset
     00014DCE  ___func_bg_lencityopen_copy_0_ti   bg_lencityopen_copy_0_tilema
     00014DCE  _bg_lencityopen_copy_0_tilemap_a   bg_lencityopen_copy_0_tilema
     000158F0  ___func_bg_lencityopen_tilemap_a   bg_lencityopen_tilemap_attr
     000158F0  _bg_lencityopen_tilemap_attr       bg_lencityopen_tilemap_attr

ASxxxx Linker V03.00/V05.40 + sdld,  page 110.
Hexadecimal  [32-Bits]

Area                                    Addr        Size        Decimal Bytes (Attributes)
--------------------------------        ----        ----        ------- ----- ------------
_CODE_16                            00104000    00004000 =       16384. bytes (REL,CON)

      Value  Global                              Global Defined In Module
      -----  --------------------------------   ------------------------
     00104000  ___func_VM_GAMEBOY                 vm_gameboy
     00104000  _vm_set_sprites_visible            vm_gameboy
     00104017  _vm_input_wait                     vm_gameboy
     00104040  _vm_context_prepare                vm_gameboy
     0010406B  _vm_input_attach                   vm_gameboy
     00104081  _vm_input_detach                   vm_gameboy
     00104095  _vm_input_get                      vm_gameboy
     001040C9  _vm_fade                           vm_gameboy
     001040F9  _vm_timer_prepare                  vm_gameboy
     00104124  _vm_timer_set                      vm_gameboy
     0010413F  _vm_timer_stop                     vm_gameboy
     00104153  _vm_timer_reset                    vm_gameboy
     0010416A  _vm_get_tile_xy                    vm_gameboy
     00104240  _vm_replace_tile                   vm_gameboy
     001042EB  _vm_poll                           vm_gameboy
     001043BD  _vm_set_sprite_mode                vm_gameboy
     001043D1  _vm_replace_tile_xy                vm_gameboy
     001045B1  _vm_rumble                         vm_gameboy
     001045D1  _vm_load_tileset                   vm_gameboy
     001046A2  ___func_bg_cave_ladder_copy__til   bg_cave_ladder_copy__tilemap
     001046A2  _bg_cave_ladder_copy__tilemap_at   bg_cave_ladder_copy__tilemap
     00104B52  ___func_bg_dhillyhubdown_tileset   bg_dhillyhubdown_tileset
     00104B52  _bg_dhillyhubdown_tileset          bg_dhillyhubdown_tileset
     00105194  ___func_bg_endingscene_0_tileset   bg_endingscene_0_tileset
     00105194  _bg_endingscene_0_tileset          bg_endingscene_0_tileset
     00105806  ___func_bg_intro_scenary_copy__t   bg_intro_scenary_copy__tilem
     00105806  _bg_intro_scenary_copy__tilemap_   bg_intro_scenary_copy__tilem
     00105DE2  ___func_bg_pixil_frame_23_0_tile   bg_pixil_frame_23_0_tilemap
     00105DE2  _bg_pixil_frame_23_0_tilemap       bg_pixil_frame_23_0_tilemap
     001064EA  ___func_bg_title_copy_2_tileset    bg_title_copy_2_tileset
     001064EA  _bg_title_copy_2_tileset           bg_title_copy_2_tileset
     00106B1C  _scene_22_init                     scene_22_init
     00107210  ___func_scene_28_collisions        scene_28_collisions
     00107210  _scene_28_collisions               scene_28_collisions
     00107918  _scene_34_init                     scene_34_init
     0010793F  _topdown_init                      topdown
     001079D6  _topdown_update                    topdown

ASxxxx Linker V03.00/V05.40 + sdld,  page 111.
Hexadecimal  [32-Bits]

Area                                    Addr        Size        Decimal Bytes (Attributes)
--------------------------------        ----        ----        ------- ----- ------------
_CODE_14                            000E4000    00004000 =       16384. bytes (REL,CON)

      Value  Global                              Global Defined In Module
      -----  --------------------------------   ------------------------
     000E4000  ___func_VM_UI                      vm_ui
     000E4000  _vm_display_text                   vm_ui
     000E406E  _vm_switch_text_layer              vm_ui
     000E4088  _vm_overlay_setpos                 vm_ui
     000E40A2  _vm_overlay_wait                   vm_ui
     000E4132  _vm_overlay_move_to                vm_ui
     000E4176  _vm_overlay_set_scroll             vm_ui
     000E41AF  _vm_overlay_clear                  vm_ui
     000E4281  _vm_overlay_show                   vm_ui
     000E42CF  _vm_choice                         vm_ui
     000E43EA  _vm_set_font                       vm_ui
     000E4419  _vm_overlay_scroll                 vm_ui
     000E447A  _vm_overlay_set_submap             vm_ui
     000E44E6  _vm_overlay_set_submap_ex          vm_ui
     000E45E7  _vm_overlay_set_map                vm_ui
     000E4746  _vm_set_text_sound                 vm_ui
     000E475F  ___func_bg_dhilly_game_1_tileset   bg_dhilly_game_1_tileset
     000E475F  _bg_dhilly_game_1_tileset          bg_dhilly_game_1_tileset
     000E4F91  ___func_bg_endingscene_tileset     bg_endingscene_tileset
     000E4F91  _bg_endingscene_tileset            bg_endingscene_tileset
     000E5763  ___func_bg_pixil_frame_0_31_tile   bg_pixil_frame_0_31_tileset
     000E5763  _bg_pixil_frame_0_31_tileset       bg_pixil_frame_0_31_tileset
     000E5F45  ___func_scene_17_sprites           scene_17_sprites
     000E5F45  _scene_17_sprites                  scene_17_sprites
     000E5F48  _scene_46_init                     scene_46_init
     000E67AB  _scene_52_init                     scene_52_init
     000E6FC4  _trigger_61_interact               trigger_61_interact
     000E7838  _shmup_init                        shmup
     000E78D5  _shmup_update                      shmup

ASxxxx Linker V03.00/V05.40 + sdld,  page 112.
Hexadecimal  [32-Bits]

Area                                    Addr        Size        Decimal Bytes (Attributes)
--------------------------------        ----        ----        ------- ----- ------------
_CODE_11                            000B4000    00003FFF =       16383. bytes (REL,CON)

      Value  Global                              Global Defined In Module
      -----  --------------------------------   ------------------------
     000B4000  ___func_VM_MAIN                    vm
     000B4000  _vm_call                           vm
     000B4042  _vm_ret                            vm
     000B40A2  _vm_call_far                       vm
     000B4121  _vm_ret_far                        vm
     000B4199  _vm_push                           vm
     000B41C4  _vm_pop                            vm
     000B41FF  _vm_loop                           vm
     000B428A  _vm_jump                           vm
     000B4296  _wait_frames                       vm
     000B430C  _vm_invoke                         vm
     000B4439  _vm_join                           vm
     000B449B  _vm_terminate                      vm
     000B44C8  _vm_if                             vm
     000B460D  _vm_if_const                       vm
     000B4722  _vm_push_value                     vm
     000B4774  _vm_push_value_ind                 vm
     000B47E9  _vm_push_reference                 vm
     000B4840  _vm_reserve                        vm
     000B486E  _vm_set                            vm
     000B48CF  _vm_set_const                      vm
     000B48FB  _vm_get_tlocal                     vm
     000B4988  _vm_test_terminate                 vm
     000B4993  _vm_idle                           vm
     000B499F  _vm_init_rng                       vm
     000B49CB  _vm_rand                           vm
     000B4A0D  _vm_lock                           vm
     000B4A1C  _vm_unlock                         vm
     000B4A2F  _vm_raise                          vm
     000B4A71  _vm_set_indirect                   vm
     000B4AEC  _vm_get_indirect                   vm
     000B4B67  _vm_poll_loaded                    vm
     000B4B97  _vm_memset                         vm
     000B4BD1  _vm_memcpy                         vm
     000B4C4E  _script_runner_init                vm
     000B4D05  _script_execute                    vm
     000B4E6B  _script_terminate                  vm
     000B4ED0  _script_detach_hthread             vm
     000B4F0C  ___func_bg_lencityopen_copy_0_ti   bg_lencityopen_copy_0_tilema
     000B4F0C  _bg_lencityopen_copy_0_tilemap     bg_lencityopen_copy_0_tilema
     000B5A2E  ___func_bg_pixil_frame_0_24_tile   bg_pixil_frame_0_24_tileset
     000B5A2E  _bg_pixil_frame_0_24_tileset       bg_pixil_frame_0_24_tileset
     000B5FE0  ___func_font_gbs_variable_width    font_gbs_variable_width
     000B6E5B  _font_gbs_variable_width           font_gbs_variable_width
     000B6E63  ___func_scene_15_triggers          scene_15_triggers
     000B6E63  _scene_15_triggers                 scene_15_triggers
     000B6E6B  ___func_scene_99_collisions        scene_99_collisions
     000B6E6B  _scene_99_collisions               scene_99_collisions
ASxxxx Linker V03.00/V05.40 + sdld,  page 113.
Hexadecimal  [32-Bits]

Area                                    Addr        Size        Decimal Bytes (Attributes)
--------------------------------        ----        ----        ------- ----- ------------
_CODE_23                            00174000    00003FFF =       16383. bytes (REL,CON)

      Value  Global                              Global Defined In Module
      -----  --------------------------------   ------------------------
     00174000  _actor_25_interact                 actor_25_interact
     001741BE  ___func_bg_announcer_tilemap       bg_announcer_tilemap
     001741BE  _bg_announcer_tilemap              bg_announcer_tilemap
     00174326  ___func_bg_controls_gb_copy__til   bg_controls_gb_copy__tilemap
     00174326  _bg_controls_gb_copy__tilemap_at   bg_controls_gb_copy__tilemap
     0017448E  ___func_bg_controls_gb_copy__til   bg_controls_gb_copy__tilemap
     0017448E  _bg_controls_gb_copy__tilemap      bg_controls_gb_copy__tilemap
     001745F6  ___func_bg_controls_gba_copy__ti   bg_controls_gba_copy__tilema
     001745F6  _bg_controls_gba_copy__tilemap_a   bg_controls_gba_copy__tilema
     0017475E  ___func_bg_controls_gba_copy__ti   bg_controls_gba_copy__tilema
     0017475E  _bg_controls_gba_copy__tilemap     bg_controls_gba_copy__tilema
     001748C6  ___func_bg_controls_gba_copy_0_t   bg_controls_gba_copy_0_tilem
     001748C6  _bg_controls_gba_copy_0_tilemap_   bg_controls_gba_copy_0_tilem
     00174A2E  ___func_bg_controls_gba_copy_0_t   bg_controls_gba_copy_0_tilem
     00174A2E  _bg_controls_gba_copy_0_tilemap    bg_controls_gba_copy_0_tilem
     00174B96  ___func_bg_controls_gbc_copy__ti   bg_controls_gbc_copy__tilema
     00174B96  _bg_controls_gbc_copy__tilemap_a   bg_controls_gbc_copy__tilema
     00174CFE  ___func_bg_controls_gbc_copy__ti   bg_controls_gbc_copy__tilema
     00174CFE  _bg_controls_gbc_copy__tilemap     bg_controls_gbc_copy__tilema
     00174E66  ___func_bg_controls_mobile_copy_   bg_controls_mobile_copy__til
     00174E66  _bg_controls_mobile_copy__tilema   bg_controls_mobile_copy__til
     00174FCE  ___func_bg_controls_mobile_copy_   bg_controls_mobile_copy__til
     00174FCE  _bg_controls_mobile_copy__tilema   bg_controls_mobile_copy__til
     00175136  ___func_bg_controls_mobile_copy_   bg_controls_mobile_copy_0_ti
     00175136  _bg_controls_mobile_copy_0_tilem   bg_controls_mobile_copy_0_ti
     0017529E  ___func_bg_controls_mobile_copy_   bg_controls_mobile_copy_0_ti
     0017529E  _bg_controls_mobile_copy_0_tilem   bg_controls_mobile_copy_0_ti
     00175406  ___func_bg_dhilly_game_1_tilemap   bg_dhilly_game_1_tilemap_att
     00175406  _bg_dhilly_game_1_tilemap_attr     bg_dhilly_game_1_tilemap_att
     0017556E  ___func_bg_dhilly_game_1_tilemap   bg_dhilly_game_1_tilemap
     0017556E  _bg_dhilly_game_1_tilemap          bg_dhilly_game_1_tilemap
     001756D6  ___func_bg_dhilly_game_10_tilema   bg_dhilly_game_10_tilemap_at
     001756D6  _bg_dhilly_game_10_tilemap_attr    bg_dhilly_game_10_tilemap_at
     0017583E  ___func_bg_dhilly_game_10_tilema   bg_dhilly_game_10_tilemap
     0017583E  _bg_dhilly_game_10_tilemap         bg_dhilly_game_10_tilemap
     001759A6  ___func_bg_dhilly_game_11_tilema   bg_dhilly_game_11_tilemap_at
     001759A6  _bg_dhilly_game_11_tilemap_attr    bg_dhilly_game_11_tilemap_at
     00175B0E  ___func_bg_dhilly_game_11_tilema   bg_dhilly_game_11_tilemap
     00175B0E  _bg_dhilly_game_11_tilemap         bg_dhilly_game_11_tilemap
     00175C76  ___func_bg_dhilly_game_4_tilemap   bg_dhilly_game_4_tilemap_att
     00175C76  _bg_dhilly_game_4_tilemap_attr     bg_dhilly_game_4_tilemap_att
     00175DDE  ___func_bg_dhilly_game_4_tilemap   bg_dhilly_game_4_tilemap
     00175DDE  _bg_dhilly_game_4_tilemap          bg_dhilly_game_4_tilemap
     00175F46  ___func_bg_dhilly_game_5_tilemap   bg_dhilly_game_5_tilemap_att
     00175F46  _bg_dhilly_game_5_tilemap_attr     bg_dhilly_game_5_tilemap_att
     001760AE  ___func_bg_dhilly_game_5_tilemap   bg_dhilly_game_5_tilemap
     001760AE  _bg_dhilly_game_5_tilemap          bg_dhilly_game_5_tilemap
     00176216  ___func_bg_dhilly_game_5_tileset   bg_dhilly_game_5_tileset
     00176216  _bg_dhilly_game_5_tileset          bg_dhilly_game_5_tileset
     001763E8  ___func_bg_dhilly_game_8_tilemap   bg_dhilly_game_8_tilemap_att
ASxxxx Linker V03.00/V05.40 + sdld,  page 114.
Hexadecimal  [32-Bits]

Area                                    Addr        Size        Decimal Bytes (Attributes)
--------------------------------        ----        ----        ------- ----- ------------
_CODE_23                            00174000    00003FFF =       16383. bytes (REL,CON)

      Value  Global                              Global Defined In Module
      -----  --------------------------------   ------------------------
     001763E8  _bg_dhilly_game_8_tilemap_attr     bg_dhilly_game_8_tilemap_att
     00176550  ___func_bg_lair_right_3_tileset    bg_lair_right_3_tileset
     00176550  _bg_lair_right_3_tileset           bg_lair_right_3_tileset
     001766E2  ___func_bg_lencity_trainstation_   bg_lencity_trainstation_cop_
     001766E2  _bg_lencity_trainstation_cop_til   bg_lencity_trainstation_cop_
     00176894  ___func_bg_lencity_trainstation_   bg_lencity_trainstation_tile
     00176894  _bg_lencity_trainstation_tilemap   bg_lencity_trainstation_tile
     00176A20  ___func_bg_lencity_trainstation_   bg_lencity_trainstation_tile
     00176A20  _bg_lencity_trainstation_tilemap   bg_lencity_trainstation_tile
     00176BAC  ___func_bg_pixil_frame_0_30_tile   bg_pixil_frame_0_30_tileset
     00176BAC  _bg_pixil_frame_0_30_tileset       bg_pixil_frame_0_30_tileset
     00176D4E  ___func_bg_shillycityopen_copy_0   bg_shillycityopen_copy_0_til
     00176D4E  _bg_shillycityopen_copy_0_tilese   bg_shillycityopen_copy_0_til
     00176F20  ___func_bg_square_frozen_future_   bg_square_frozen_future_tile
     00176F20  _bg_square_frozen_future_tilemap   bg_square_frozen_future_tile
     001770AC  ___func_bg_square_frozen_future_   bg_square_frozen_future_tile
     001770AC  _bg_square_frozen_future_tilemap   bg_square_frozen_future_tile
     00177238  ___func_scene_19_collisions        scene_19_collisions
     00177238  _scene_19_collisions               scene_19_collisions
     001773C4  ___func_scene_20_collisions        scene_20_collisions
     001773C4  _scene_20_collisions               scene_20_collisions
     00177550  ___func_scene_27_collisions        scene_27_collisions
     00177550  _scene_27_collisions               scene_27_collisions
     001776DC  ___func_scene_35_collisions        scene_35_collisions
     001776DC  _scene_35_collisions               scene_35_collisions
     00177868  ___func_scene_45_collisions        scene_45_collisions
     00177868  _scene_45_collisions               scene_45_collisions
     00177A48  _scene_54_init                     scene_54_init
     00177C25  _scene_94_init                     scene_94_init
     00177DEF  _scene_97_init                     scene_97_init
     00177E49  _trigger_121_interact              trigger_121_interact
ASxxxx Linker V03.00/V05.40 + sdld,  page 115.
Hexadecimal  [32-Bits]

Area                                    Addr        Size        Decimal Bytes (Attributes)
--------------------------------        ----        ----        ------- ----- ------------
_CODE_9                             00094000    00004000 =       16384. bytes (REL,CON)

      Value  Global                              Global Defined In Module
      -----  --------------------------------   ------------------------
     00094000  ___func_bg_announcer_tilemap_att   bg_announcer_tilemap_attr
     00094000  _bg_announcer_tilemap_attr         bg_announcer_tilemap_attr
     00094168  ___func_bg_shillycityopen_copy_1   bg_shillycityopen_copy_1_til
     00094168  _bg_shillycityopen_copy_1_tilema   bg_shillycityopen_copy_1_til
     000952FC  ___func_bg_title_tileset           bg_title_tileset
     000952FC  _bg_title_tileset                  bg_title_tileset
     0009697E  ___func_cursor_image               cursor_image
     0009697E  _cursor_image                      cursor_image
     0009698E  _platform_init                     platform
     00096B08  _platform_update                   platform

ASxxxx Linker V03.00/V05.40 + sdld,  page 116.
Hexadecimal  [32-Bits]

Area                                    Addr        Size        Decimal Bytes (Attributes)
--------------------------------        ----        ----        ------- ----- ------------
_CODE_17                            00114000    00003FFF =       16383. bytes (REL,CON)

      Value  Global                              Global Defined In Module
      -----  --------------------------------   ------------------------
     00114000  ___func_bg_announcer               bg_announcer
     00114000  _bg_announcer                      bg_announcer
     0011400E  ___func_bg_cave_ladder_copy_0_ti   bg_cave_ladder_copy_0_tilema
     0011400E  _bg_cave_ladder_copy_0_tilemap_a   bg_cave_ladder_copy_0_tilema
     0011459F  ___func_bg_cave_ladder_copy_0_ti   bg_cave_ladder_copy_0_tilema
     0011459F  _bg_cave_ladder_copy_0_tilemap     bg_cave_ladder_copy_0_tilema
     00114B30  ___func_bg_chase_shilly_tilemap_   bg_chase_shilly_tilemap_attr
     00114B30  _bg_chase_shilly_tilemap_attr      bg_chase_shilly_tilemap_attr
     001150BE  ___func_bg_chase_shilly_tilemap    bg_chase_shilly_tilemap
     001150BE  _bg_chase_shilly_tilemap           bg_chase_shilly_tilemap
     0011564C  ___func_bg_intro_scenary_copy__t   bg_intro_scenary_copy__tilem
     0011564C  _bg_intro_scenary_copy__tilemap    bg_intro_scenary_copy__tilem
     00115C28  ___func_bg_lair_left_3_tileset     bg_lair_left_3_tileset
     00115C28  _bg_lair_left_3_tileset            bg_lair_left_3_tileset
     0011619A  ___func_bg_pixil_frame_0_33_tile   bg_pixil_frame_0_33_tilemap_
     0011619A  _bg_pixil_frame_0_33_tilemap_att   bg_pixil_frame_0_33_tilemap_
     001166E0  ___func_scene_17_collisions        scene_17_collisions
     001166E0  _scene_17_collisions               scene_17_collisions
     00116CBC  ___func_scene_55_collisions        scene_55_collisions
     00116CBC  _scene_55_collisions               scene_55_collisions
     0011724D  ___func_scene_88_collisions        scene_88_collisions
     0011724D  _scene_88_collisions               scene_88_collisions
     001177DB  ___func_scene_90_collisions        scene_90_collisions
     001177DB  _scene_90_collisions               scene_90_collisions
     00117DB7  _scene_99_init                     scene_99_init

ASxxxx Linker V03.00/V05.40 + sdld,  page 117.
Hexadecimal  [32-Bits]

Area                                    Addr        Size        Decimal Bytes (Attributes)
--------------------------------        ----        ----        ------- ----- ------------
_CODE_2                             00024000    00004000 =       16384. bytes (REL,CON)

      Value  Global                              Global Defined In Module
      -----  --------------------------------   ------------------------
     00024000  ___func_bg_controls_gb_copy__til   bg_controls_gb_copy__tileset
     00024000  _bg_controls_gb_copy__tileset      bg_controls_gb_copy__tileset
     00025682  ___func_bg_lair_right_tilemap_at   bg_lair_right_tilemap_attr
     00025682  _bg_lair_right_tilemap_attr        bg_lair_right_tilemap_attr
     000258E6  ___func_bg_lencityopen_tilemap     bg_lencityopen_tilemap
     000258E6  _bg_lencityopen_tilemap            bg_lencityopen_tilemap
     00027FF6  ___func_scene_101_sprites          scene_101_sprites
     00027FF6  _scene_101_sprites                 scene_101_sprites
     00027FFF  _script_input_7                    script_input_7
ASxxxx Linker V03.00/V05.40 + sdld,  page 118.
Hexadecimal  [32-Bits]

Area                                    Addr        Size        Decimal Bytes (Attributes)
--------------------------------        ----        ----        ------- ----- ------------
_CODE_3                             00034000    00003FFF =       16383. bytes (REL,CON)

      Value  Global                              Global Defined In Module
      -----  --------------------------------   ------------------------
     00034000  ___func_bg_controls_gba_copy__ti   bg_controls_gba_copy__tilese
     00034000  _bg_controls_gba_copy__tileset     bg_controls_gba_copy__tilese
     00035682  ___func_bg_lair_right_tilemap      bg_lair_right_tilemap
     00035682  _bg_lair_right_tilemap             bg_lair_right_tilemap
     000358E6  ___func_scene_101_collisions       scene_101_collisions
     000358E6  _scene_101_collisions              scene_101_collisions
     00037FF6  ___func_scene_93_sprites           scene_93_sprites
     00037FF6  _scene_93_sprites                  scene_93_sprites

ASxxxx Linker V03.00/V05.40 + sdld,  page 119.
Hexadecimal  [32-Bits]

Area                                    Addr        Size        Decimal Bytes (Attributes)
--------------------------------        ----        ----        ------- ----- ------------
_CODE_4                             00044000    00003FFF =       16383. bytes (REL,CON)

      Value  Global                              Global Defined In Module
      -----  --------------------------------   ------------------------
     00044000  ___func_bg_controls_gba_copy_0_t   bg_controls_gba_copy_0_tiles
     00044000  _bg_controls_gba_copy_0_tileset    bg_controls_gba_copy_0_tiles
     00045682  ___func_scene_18_collisions        scene_18_collisions
     00045682  _scene_18_collisions               scene_18_collisions
     00047D92  ___func_scene_65_collisions        scene_65_collisions
     00047D92  _scene_65_collisions               scene_65_collisions
     00047FF6  ___func_scene_94_sprites           scene_94_sprites
     00047FF6  _scene_94_sprites                  scene_94_sprites

ASxxxx Linker V03.00/V05.40 + sdld,  page 120.
Hexadecimal  [32-Bits]

Area                                    Addr        Size        Decimal Bytes (Attributes)
--------------------------------        ----        ----        ------- ----- ------------
_CODE_5                             00054000    00004000 =       16384. bytes (REL,CON)

      Value  Global                              Global Defined In Module
      -----  --------------------------------   ------------------------
     00054000  ___func_bg_controls_gbc_copy__ti   bg_controls_gbc_copy__tilese
     00054000  _bg_controls_gbc_copy__tileset     bg_controls_gbc_copy__tilese
     00055682  ___func_bg_init_copy_1_tileset     bg_init_copy_1_tileset
     00055682  _bg_init_copy_1_tileset            bg_init_copy_1_tileset
     000558D4  ___func_scene_34_collisions        scene_34_collisions
     000558D4  _scene_34_collisions               scene_34_collisions
     00057FE4  _scene_75_init                     scene_75_init

ASxxxx Linker V03.00/V05.40 + sdld,  page 121.
Hexadecimal  [32-Bits]

Area                                    Addr        Size        Decimal Bytes (Attributes)
--------------------------------        ----        ----        ------- ----- ------------
_CODE_6                             00064000    00004000 =       16384. bytes (REL,CON)

      Value  Global                              Global Defined In Module
      -----  --------------------------------   ------------------------
     00064000  ___func_bg_controls_mobile_copy_   bg_controls_mobile_copy__til
     00064000  _bg_controls_mobile_copy__tilese   bg_controls_mobile_copy__til
     00065682  ___func_bg_lencityopen_copy__til   bg_lencityopen_copy__tileset
     00065682  _bg_lencityopen_copy__tileset      bg_lencityopen_copy__tileset
     000658D4  ___func_scene_58_collisions        scene_58_collisions
     000658D4  _scene_58_collisions               scene_58_collisions
     00067FE4  _scene_86_init                     scene_86_init

ASxxxx Linker V03.00/V05.40 + sdld,  page 122.
Hexadecimal  [32-Bits]

Area                                    Addr        Size        Decimal Bytes (Attributes)
--------------------------------        ----        ----        ------- ----- ------------
_CODE_7                             00074000    00004000 =       16384. bytes (REL,CON)

      Value  Global                              Global Defined In Module
      -----  --------------------------------   ------------------------
     00074000  ___func_bg_controls_mobile_copy_   bg_controls_mobile_copy_0_ti
     00074000  _bg_controls_mobile_copy_0_tiles   bg_controls_mobile_copy_0_ti
     00075682  _scene_50_init                     scene_50_init
     000756A6  ___func_scene_62_collisions        scene_62_collisions
     000756A6  _scene_62_collisions               scene_62_collisions
     00077DB6  _scene_7_init                      scene_7_init
ASxxxx Linker V03.00/V05.40 + sdld,  page 123.
Hexadecimal  [32-Bits]

Area                                    Addr        Size        Decimal Bytes (Attributes)
--------------------------------        ----        ----        ------- ----- ------------
_CODE_24                            00184000    00004000 =       16384. bytes (REL,CON)

      Value  Global                              Global Defined In Module
      -----  --------------------------------   ------------------------
     00184000  ___func_bg_dhilly_game_8_tilemap   bg_dhilly_game_8_tilemap
     00184000  _bg_dhilly_game_8_tilemap          bg_dhilly_game_8_tilemap
     00184168  ___func_bg_dhilly_game_9_tilemap   bg_dhilly_game_9_tilemap_att
     00184168  _bg_dhilly_game_9_tilemap_attr     bg_dhilly_game_9_tilemap_att
     001842D0  ___func_bg_dhilly_game_9_tilemap   bg_dhilly_game_9_tilemap
     001842D0  _bg_dhilly_game_9_tilemap          bg_dhilly_game_9_tilemap
     00184438  ___func_bg_dhillyhubdown_tilemap   bg_dhillyhubdown_tilemap_att
     00184438  _bg_dhillyhubdown_tilemap_attr     bg_dhillyhubdown_tilemap_att
     001845A0  ___func_bg_dhillyhubdown_tilemap   bg_dhillyhubdown_tilemap
     001845A0  _bg_dhillyhubdown_tilemap          bg_dhillyhubdown_tilemap
     00184708  ___func_bg_elevator_tilemap_attr   bg_elevator_tilemap_attr
     00184708  _bg_elevator_tilemap_attr          bg_elevator_tilemap_attr
     00184870  ___func_bg_elevator_tilemap        bg_elevator_tilemap
     00184870  _bg_elevator_tilemap               bg_elevator_tilemap
     001849D8  ___func_bg_endingscene_0_tilemap   bg_endingscene_0_tilemap_att
     001849D8  _bg_endingscene_0_tilemap_attr     bg_endingscene_0_tilemap_att
     00184B40  ___func_bg_endingscene_0_tilemap   bg_endingscene_0_tilemap
     00184B40  _bg_endingscene_0_tilemap          bg_endingscene_0_tilemap
     00184CA8  ___func_bg_endingscene_tilemap_a   bg_endingscene_tilemap_attr
     00184CA8  _bg_endingscene_tilemap_attr       bg_endingscene_tilemap_attr
     00184E10  ___func_bg_endingscene_tilemap     bg_endingscene_tilemap
     00184E10  _bg_endingscene_tilemap            bg_endingscene_tilemap
     00184F78  ___func_bg_endingscene2_tilemap_   bg_endingscene2_tilemap_attr
     00184F78  _bg_endingscene2_tilemap_attr      bg_endingscene2_tilemap_attr
     001850E0  ___func_bg_endingscene2_tilemap    bg_endingscene2_tilemap
     001850E0  _bg_endingscene2_tilemap           bg_endingscene2_tilemap
     00185248  ___func_bg_endingscene3_tilemap_   bg_endingscene3_tilemap_attr
     00185248  _bg_endingscene3_tilemap_attr      bg_endingscene3_tilemap_attr
     001853B0  ___func_bg_endingscene3_tilemap    bg_endingscene3_tilemap
     001853B0  _bg_endingscene3_tilemap           bg_endingscene3_tilemap
     00185518  ___func_bg_iceos_desktop_copy__t   bg_iceos_desktop_copy__tilem
     00185518  _bg_iceos_desktop_copy__tilemap_   bg_iceos_desktop_copy__tilem
     00185680  ___func_bg_iceos_desktop_copy__t   bg_iceos_desktop_copy__tilem
     00185680  _bg_iceos_desktop_copy__tilemap    bg_iceos_desktop_copy__tilem
     001857E8  ___func_bg_iceos_login_2_copy__t   bg_iceos_login_2_copy__tilem
     001857E8  _bg_iceos_login_2_copy__tilemap_   bg_iceos_login_2_copy__tilem
     00185950  ___func_bg_iceos_login_2_copy__t   bg_iceos_login_2_copy__tilem
     00185950  _bg_iceos_login_2_copy__tilemap    bg_iceos_login_2_copy__tilem
     00185AB8  ___func_bg_iceos_login_copy__til   bg_iceos_login_copy__tilemap
     00185AB8  _bg_iceos_login_copy__tilemap_at   bg_iceos_login_copy__tilemap
     00185C20  ___func_bg_iceos_login_copy__til   bg_iceos_login_copy__tilemap
     00185C20  _bg_iceos_login_copy__tilemap      bg_iceos_login_copy__tilemap
     00185D88  ___func_bg_iceos_platformer2_cop   bg_iceos_platformer2_copy__t
     00185D88  _bg_iceos_platformer2_copy__tile   bg_iceos_platformer2_copy__t
     00185EF0  ___func_bg_iceos_platformer2_cop   bg_iceos_platformer2_copy__t
     00185EF0  _bg_iceos_platformer2_copy__tile   bg_iceos_platformer2_copy__t
     00186058  ___func_bg_iceos_platformer3_cop   bg_iceos_platformer3_copy__t
     00186058  _bg_iceos_platformer3_copy__tile   bg_iceos_platformer3_copy__t
     001861C0  ___func_bg_iceos_platformer3_cop   bg_iceos_platformer3_copy__t
     001861C0  _bg_iceos_platformer3_copy__tile   bg_iceos_platformer3_copy__t
ASxxxx Linker V03.00/V05.40 + sdld,  page 124.
Hexadecimal  [32-Bits]

Area                                    Addr        Size        Decimal Bytes (Attributes)
--------------------------------        ----        ----        ------- ----- ------------
_CODE_24                            00184000    00004000 =       16384. bytes (REL,CON)

      Value  Global                              Global Defined In Module
      -----  --------------------------------   ------------------------
     00186328  ___func_bg_iceos_platformer4_til   bg_iceos_platformer4_tilemap
     00186328  _bg_iceos_platformer4_tilemap_at   bg_iceos_platformer4_tilemap
     00186490  ___func_bg_iceos_platformer4_til   bg_iceos_platformer4_tilemap
     00186490  _bg_iceos_platformer4_tilemap      bg_iceos_platformer4_tilemap
     001865F8  ___func_bg_iceos_platformer4_til   bg_iceos_platformer4_tileset
     001865F8  _bg_iceos_platformer4_tileset      bg_iceos_platformer4_tileset
     001866AA  ___func_bg_init_copy_1_tilemap_a   bg_init_copy_1_tilemap_attr
     001866AA  _bg_init_copy_1_tilemap_attr       bg_init_copy_1_tilemap_attr
     00186812  ___func_bg_init_copy_1_tilemap     bg_init_copy_1_tilemap
     00186812  _bg_init_copy_1_tilemap            bg_init_copy_1_tilemap
     0018697A  ___func_bg_intro_weather_copy__t   bg_intro_weather_copy__tilem
     0018697A  _bg_intro_weather_copy__tilemap_   bg_intro_weather_copy__tilem
     00186AE2  ___func_bg_intro_weather_copy__t   bg_intro_weather_copy__tilem
     00186AE2  _bg_intro_weather_copy__tilemap    bg_intro_weather_copy__tilem
     00186C4A  ___func_bg_lair_hub_tilemap_attr   bg_lair_hub_tilemap_attr
     00186C4A  _bg_lair_hub_tilemap_attr          bg_lair_hub_tilemap_attr
     00186DB2  ___func_bg_lair_hub_tilemap        bg_lair_hub_tilemap
     00186DB2  _bg_lair_hub_tilemap               bg_lair_hub_tilemap
     00186F1A  ___func_bg_lair_left_2_copy__til   bg_lair_left_2_copy__tilemap
     00186F1A  _bg_lair_left_2_copy__tilemap_at   bg_lair_left_2_copy__tilemap
     00187082  ___func_bg_lair_left_2_copy__til   bg_lair_left_2_copy__tilemap
     00187082  _bg_lair_left_2_copy__tilemap      bg_lair_left_2_copy__tilemap
     001871EA  ___func_bg_lair_left_2_tilemap_a   bg_lair_left_2_tilemap_attr
     001871EA  _bg_lair_left_2_tilemap_attr       bg_lair_left_2_tilemap_attr
     00187352  ___func_bg_lair_left_2_tilemap     bg_lair_left_2_tilemap
     00187352  _bg_lair_left_2_tilemap            bg_lair_left_2_tilemap
     001874BA  ___func_bg_lair_left_3_tilemap_a   bg_lair_left_3_tilemap_attr
     001874BA  _bg_lair_left_3_tilemap_attr       bg_lair_left_3_tilemap_attr
     00187622  ___func_bg_lair_left_3_tilemap     bg_lair_left_3_tilemap
     00187622  _bg_lair_left_3_tilemap            bg_lair_left_3_tilemap
     0018778A  ___func_bg_lair_right_2_copy__ti   bg_lair_right_2_copy__tilema
     0018778A  _bg_lair_right_2_copy__tilemap_a   bg_lair_right_2_copy__tilema
     001878F2  ___func_bg_lair_right_2_copy__ti   bg_lair_right_2_copy__tilema
     001878F2  _bg_lair_right_2_copy__tilemap     bg_lair_right_2_copy__tilema
     00187A5A  ___func_bg_lair_right_2_tilemap_   bg_lair_right_2_tilemap_attr
     00187A5A  _bg_lair_right_2_tilemap_attr      bg_lair_right_2_tilemap_attr
     00187BC2  ___func_bg_lair_right_2_tilemap    bg_lair_right_2_tilemap
     00187BC2  _bg_lair_right_2_tilemap           bg_lair_right_2_tilemap
     00187D2A  ___func_bg_lair_right_3_copy__ti   bg_lair_right_3_copy__tilema
     00187D2A  _bg_lair_right_3_copy__tilemap_a   bg_lair_right_3_copy__tilema
     00187E92  ___func_bg_lair_right_3_copy__ti   bg_lair_right_3_copy__tilema
     00187E92  _bg_lair_right_3_copy__tilemap     bg_lair_right_3_copy__tilema
     00187FFA  ___func_scene_45_sprites           scene_45_sprites
     00187FFA  _scene_45_sprites                  scene_45_sprites

ASxxxx Linker V03.00/V05.40 + sdld,  page 125.
Hexadecimal  [32-Bits]

Area                                    Addr        Size        Decimal Bytes (Attributes)
--------------------------------        ----        ----        ------- ----- ------------
_CODE_12                            000C4000    00003FFF =       16383. bytes (REL,CON)

      Value  Global                              Global Defined In Module
      -----  --------------------------------   ------------------------
     000C4000  ___func_bg_endingscene2_tileset    bg_endingscene2_tileset
     000C4000  _bg_endingscene2_tileset           bg_endingscene2_tileset
     000C48C2  ___func_bg_pixil_frame_0_31_tile   bg_pixil_frame_0_31_tilemap_
     000C48C2  _bg_pixil_frame_0_31_tilemap_att   bg_pixil_frame_0_31_tilemap_
     000C53A8  ___func_bg_pixil_frame_0_31_tile   bg_pixil_frame_0_31_tilemap
     000C53A8  _bg_pixil_frame_0_31_tilemap       bg_pixil_frame_0_31_tilemap
     000C5E8E  ___func_scene_31_collisions        scene_31_collisions
     000C5E8E  _scene_31_collisions               scene_31_collisions
     000C6974  _scene_46_p_hit1                   scene_46_p_hit1
     000C69BB  ___func_scene_52_collisions        scene_52_collisions
     000C69BB  _scene_52_collisions               scene_52_collisions
     000C74DD  ___func_scene_53_collisions        scene_53_collisions
     000C74DD  _scene_53_collisions               scene_53_collisions

ASxxxx Linker V03.00/V05.40 + sdld,  page 126.
Hexadecimal  [32-Bits]

Area                                    Addr        Size        Decimal Bytes (Attributes)
--------------------------------        ----        ----        ------- ----- ------------
_CODE_25                            00194000    00004000 =       16384. bytes (REL,CON)

      Value  Global                              Global Defined In Module
      -----  --------------------------------   ------------------------
     00194000  ___func_bg_lair_right_3_copy__ti   bg_lair_right_3_copy__tilese
     00194000  _bg_lair_right_3_copy__tileset     bg_lair_right_3_copy__tilese
     001940B2  ___func_bg_lair_right_3_tilemap_   bg_lair_right_3_tilemap_attr
     001940B2  _bg_lair_right_3_tilemap_attr      bg_lair_right_3_tilemap_attr
     0019421A  ___func_bg_lair_right_3_tilemap    bg_lair_right_3_tilemap
     0019421A  _bg_lair_right_3_tilemap           bg_lair_right_3_tilemap
     00194382  ___func_bg_lair_right_4_copy__ti   bg_lair_right_4_copy__tilema
     00194382  _bg_lair_right_4_copy__tilemap_a   bg_lair_right_4_copy__tilema
     001944EA  ___func_bg_lair_right_4_copy__ti   bg_lair_right_4_copy__tilema
     001944EA  _bg_lair_right_4_copy__tilemap     bg_lair_right_4_copy__tilema
     00194652  ___func_bg_lair_right_5_tilemap_   bg_lair_right_5_tilemap_attr
     00194652  _bg_lair_right_5_tilemap_attr      bg_lair_right_5_tilemap_attr
     001947BA  ___func_bg_lair_right_5_tilemap    bg_lair_right_5_tilemap
     001947BA  _bg_lair_right_5_tilemap           bg_lair_right_5_tilemap
     00194922  ___func_bg_lencity_dhillybuildin   bg_lencity_dhillybuilding_c_
     00194922  _bg_lencity_dhillybuilding_c_til   bg_lencity_dhillybuilding_c_
     00194A8A  ___func_bg_lencity_dhillybuildin   bg_lencity_dhillybuilding_c_
     00194A8A  _bg_lencity_dhillybuilding_c_til   bg_lencity_dhillybuilding_c_
     00194BF2  ___func_bg_lencity_dhillybuildin   bg_lencity_dhillybuilding_f_
     00194BF2  _bg_lencity_dhillybuilding_f_til   bg_lencity_dhillybuilding_f_
     00194D5A  ___func_bg_lencity_dhillybuildin   bg_lencity_dhillybuilding_f_
     00194D5A  _bg_lencity_dhillybuilding_f_til   bg_lencity_dhillybuilding_f_
     00194EC2  ___func_bg_lencity_trainstation_   bg_lencity_trainstation_cop_
     00194EC2  _bg_lencity_trainstation_cop_til   bg_lencity_trainstation_cop_
     0019502A  ___func_bg_lencity_trainstation_   bg_lencity_trainstation_cop_
     0019502A  _bg_lencity_trainstation_cop_til   bg_lencity_trainstation_cop_
     00195192  ___func_bg_options_copy__tilemap   bg_options_copy__tilemap_att
     00195192  _bg_options_copy__tilemap_attr     bg_options_copy__tilemap_att
     001952FA  ___func_bg_options_copy__tilemap   bg_options_copy__tilemap
     001952FA  _bg_options_copy__tilemap          bg_options_copy__tilemap
     00195462  ___func_bg_pixil_frame_0_23_tile   bg_pixil_frame_0_23_tilemap_
     00195462  _bg_pixil_frame_0_23_tilemap_att   bg_pixil_frame_0_23_tilemap_
     001955CA  ___func_bg_pixil_frame_0_23_tile   bg_pixil_frame_0_23_tilemap
     001955CA  _bg_pixil_frame_0_23_tilemap       bg_pixil_frame_0_23_tilemap
     00195732  ___func_bg_pixil_frame_0_copy_co   bg_pixil_frame_0_copy_copy__
     00195732  _bg_pixil_frame_0_copy_copy__til   bg_pixil_frame_0_copy_copy__
     0019589A  ___func_bg_pixil_frame_0_copy_co   bg_pixil_frame_0_copy_copy__
     0019589A  _bg_pixil_frame_0_copy_copy__til   bg_pixil_frame_0_copy_copy__
     00195A02  ___func_bg_placeholder_copy_copy   bg_placeholder_copy_copy_co_
     00195A02  _bg_placeholder_copy_copy_co_0_t   bg_placeholder_copy_copy_co_
     00195B6A  ___func_bg_placeholder_copy_copy   bg_placeholder_copy_copy_co_
     00195B6A  _bg_placeholder_copy_copy_co_0_t   bg_placeholder_copy_copy_co_
     00195CD2  ___func_bg_samsam_copy_tilemap_a   bg_samsam_copy_tilemap_attr
     00195CD2  _bg_samsam_copy_tilemap_attr       bg_samsam_copy_tilemap_attr
     00195E3A  ___func_bg_samsam_copy_tilemap     bg_samsam_copy_tilemap
     00195E3A  _bg_samsam_copy_tilemap            bg_samsam_copy_tilemap
     00195FA2  ___func_bg_shillycity_sara_house   bg_shillycity_sara_house_co_
     00195FA2  _bg_shillycity_sara_house_co_til   bg_shillycity_sara_house_co_
     0019610A  ___func_bg_shillycity_sara_house   bg_shillycity_sara_house_co_
     0019610A  _bg_shillycity_sara_house_co_til   bg_shillycity_sara_house_co_
ASxxxx Linker V03.00/V05.40 + sdld,  page 127.
Hexadecimal  [32-Bits]

Area                                    Addr        Size        Decimal Bytes (Attributes)
--------------------------------        ----        ----        ------- ----- ------------
_CODE_25                            00194000    00004000 =       16384. bytes (REL,CON)

      Value  Global                              Global Defined In Module
      -----  --------------------------------   ------------------------
     00196272  ___func_bg_shillycityopen_copy__   bg_shillycityopen_copy__tile
     00196272  _bg_shillycityopen_copy__tilemap   bg_shillycityopen_copy__tile
     001963DA  ___func_bg_shillycityopen_copy__   bg_shillycityopen_copy__tile
     001963DA  _bg_shillycityopen_copy__tilemap   bg_shillycityopen_copy__tile
     00196542  ___func_bg_title_copy__tilemap_a   bg_title_copy__tilemap_attr
     00196542  _bg_title_copy__tilemap_attr       bg_title_copy__tilemap_attr
     001966AA  ___func_bg_title_copy__tilemap     bg_title_copy__tilemap
     001966AA  _bg_title_copy__tilemap            bg_title_copy__tilemap
     00196812  ___func_bg_title_copy_0_tilemap_   bg_title_copy_0_tilemap_attr
     00196812  _bg_title_copy_0_tilemap_attr      bg_title_copy_0_tilemap_attr
     0019697A  ___func_bg_title_copy_0_tilemap    bg_title_copy_0_tilemap
     0019697A  _bg_title_copy_0_tilemap           bg_title_copy_0_tilemap
     00196AE2  ___func_bg_title_copy_1_tilemap_   bg_title_copy_1_tilemap_attr
     00196AE2  _bg_title_copy_1_tilemap_attr      bg_title_copy_1_tilemap_attr
     00196C4A  ___func_bg_title_copy_1_tilemap    bg_title_copy_1_tilemap
     00196C4A  _bg_title_copy_1_tilemap           bg_title_copy_1_tilemap
     00196DB2  ___func_bg_title_copy_2_tilemap_   bg_title_copy_2_tilemap_attr
     00196DB2  _bg_title_copy_2_tilemap_attr      bg_title_copy_2_tilemap_attr
     00196F1A  ___func_bg_title_copy_2_tilemap    bg_title_copy_2_tilemap
     00196F1A  _bg_title_copy_2_tilemap           bg_title_copy_2_tilemap
     00197082  ___func_bg_title_tilemap_attr      bg_title_tilemap_attr
     00197082  _bg_title_tilemap_attr             bg_title_tilemap_attr
     001971EA  ___func_bg_title_tilemap           bg_title_tilemap
     001971EA  _bg_title_tilemap                  bg_title_tilemap
     00197352  ___func_bg_wakeupsquare_1_tilema   bg_wakeupsquare_1_tilemap_at
     00197352  _bg_wakeupsquare_1_tilemap_attr    bg_wakeupsquare_1_tilemap_at
     001974BA  ___func_bg_wakeupsquare_1_tilema   bg_wakeupsquare_1_tilemap
     001974BA  _bg_wakeupsquare_1_tilemap         bg_wakeupsquare_1_tilemap
     00197622  ___func_bg_wakeupsquare_3_copy__   bg_wakeupsquare_3_copy__tile
     00197622  _bg_wakeupsquare_3_copy__tilemap   bg_wakeupsquare_3_copy__tile
     0019778A  ___func_bg_wakeupsquare_3_copy__   bg_wakeupsquare_3_copy__tile
     0019778A  _bg_wakeupsquare_3_copy__tilemap   bg_wakeupsquare_3_copy__tile
     001978F2  ___func_scene_1_collisions         scene_1_collisions
     001978F2  _scene_1_collisions                scene_1_collisions
     00197A5A  ___func_scene_10_collisions        scene_10_collisions
     00197A5A  _scene_10_collisions               scene_10_collisions
     00197BC2  ___func_scene_100_collisions       scene_100_collisions
     00197BC2  _scene_100_collisions              scene_100_collisions
     00197D2A  ___func_scene_11_collisions        scene_11_collisions
     00197D2A  _scene_11_collisions               scene_11_collisions
     00197E92  ___func_scene_12_collisions        scene_12_collisions
     00197E92  _scene_12_collisions               scene_12_collisions
     00197FFA  ___func_scene_46_sprites           scene_46_sprites
     00197FFA  _scene_46_sprites                  scene_46_sprites

ASxxxx Linker V03.00/V05.40 + sdld,  page 128.
Hexadecimal  [32-Bits]

Area                                    Addr        Size        Decimal Bytes (Attributes)
--------------------------------        ----        ----        ------- ----- ------------
_CODE_8                             00084000    00004000 =       16384. bytes (REL,CON)

      Value  Global                              Global Defined In Module
      -----  --------------------------------   ------------------------
     00084000  ___func_bg_options_copy__tileset   bg_options_copy__tileset
     00084000  _bg_options_copy__tileset          bg_options_copy__tileset
     00085682  ___func_bg_placeholder_copy_copy   bg_placeholder_copy_copy_co_
     00085682  _bg_placeholder_copy_copy_co_til   bg_placeholder_copy_copy_co_
     00086046  _SGB_border_chr                    border
     00086046  ___func_SGB_border_chr             border
     00086046  ___func_SGB_border_map             border
     00086046  ___func_SGB_border_pal             border
     00087846  _SGB_border_map                    border
     00087F46  _SGB_border_pal                    border
     00087FC6  _script_timer_4                    script_timer_4

ASxxxx Linker V03.00/V05.40 + sdld,  page 129.
Hexadecimal  [32-Bits]

Area                                    Addr        Size        Decimal Bytes (Attributes)
--------------------------------        ----        ----        ------- ----- ------------
_CODE_26                            001A4000    00003FFE =       16382. bytes (REL,CON)

      Value  Global                              Global Defined In Module
      -----  --------------------------------   ------------------------
     001A4000  ___func_scene_13_collisions        scene_13_collisions
     001A4000  _scene_13_collisions               scene_13_collisions
     001A4168  ___func_scene_14_collisions        scene_14_collisions
     001A4168  _scene_14_collisions               scene_14_collisions
     001A42D0  ___func_scene_16_collisions        scene_16_collisions
     001A42D0  _scene_16_collisions               scene_16_collisions
     001A4438  ___func_scene_19_triggers          scene_19_triggers
     001A4438  _scene_19_triggers                 scene_19_triggers
     001A4440  ___func_scene_2_collisions         scene_2_collisions
     001A4440  _scene_2_collisions                scene_2_collisions
     001A45A8  ___func_scene_21_collisions        scene_21_collisions
     001A45A8  _scene_21_collisions               scene_21_collisions
     001A4710  ___func_scene_22_collisions        scene_22_collisions
     001A4710  _scene_22_collisions               scene_22_collisions
     001A4878  ___func_scene_23_collisions        scene_23_collisions
     001A4878  _scene_23_collisions               scene_23_collisions
     001A49E0  _scene_23_init                     scene_23_init
     001A4A8E  ___func_scene_24_collisions        scene_24_collisions
     001A4A8E  _scene_24_collisions               scene_24_collisions
     001A4BF6  ___func_scene_25_collisions        scene_25_collisions
     001A4BF6  _scene_25_collisions               scene_25_collisions
     001A4D5E  ___func_scene_26_collisions        scene_26_collisions
     001A4D5E  _scene_26_collisions               scene_26_collisions
     001A4EC6  ___func_scene_3_collisions         scene_3_collisions
     001A4EC6  _scene_3_collisions                scene_3_collisions
     001A502E  ___func_scene_33_collisions        scene_33_collisions
     001A502E  _scene_33_collisions               scene_33_collisions
     001A5196  ___func_scene_37_collisions        scene_37_collisions
     001A5196  _scene_37_collisions               scene_37_collisions
     001A52FE  ___func_scene_38_collisions        scene_38_collisions
     001A52FE  _scene_38_collisions               scene_38_collisions
     001A5466  ___func_scene_39_collisions        scene_39_collisions
     001A5466  _scene_39_collisions               scene_39_collisions
     001A55CE  ___func_scene_4_collisions         scene_4_collisions
     001A55CE  _scene_4_collisions                scene_4_collisions
     001A5736  ___func_scene_40_collisions        scene_40_collisions
     001A5736  _scene_40_collisions               scene_40_collisions
     001A589E  ___func_scene_41_collisions        scene_41_collisions
     001A589E  _scene_41_collisions               scene_41_collisions
     001A5A06  ___func_scene_42_collisions        scene_42_collisions
     001A5A06  _scene_42_collisions               scene_42_collisions
     001A5B6E  ___func_scene_43_collisions        scene_43_collisions
     001A5B6E  _scene_43_collisions               scene_43_collisions
     001A5CD6  ___func_scene_44_collisions        scene_44_collisions
     001A5CD6  _scene_44_collisions               scene_44_collisions
     001A5E3E  ___func_scene_5_collisions         scene_5_collisions
     001A5E3E  _scene_5_collisions                scene_5_collisions
     001A5FA6  ___func_scene_54_collisions        scene_54_collisions
     001A5FA6  _scene_54_collisions               scene_54_collisions
     001A610E  ___func_scene_59_collisions        scene_59_collisions
ASxxxx Linker V03.00/V05.40 + sdld,  page 130.
Hexadecimal  [32-Bits]

Area                                    Addr        Size        Decimal Bytes (Attributes)
--------------------------------        ----        ----        ------- ----- ------------
_CODE_26                            001A4000    00003FFE =       16382. bytes (REL,CON)

      Value  Global                              Global Defined In Module
      -----  --------------------------------   ------------------------
     001A610E  _scene_59_collisions               scene_59_collisions
     001A6276  ___func_scene_6_collisions         scene_6_collisions
     001A6276  _scene_6_collisions                scene_6_collisions
     001A63DE  ___func_scene_60_collisions        scene_60_collisions
     001A63DE  _scene_60_collisions               scene_60_collisions
     001A6546  ___func_scene_61_collisions        scene_61_collisions
     001A6546  _scene_61_collisions               scene_61_collisions
     001A66AE  ___func_scene_64_collisions        scene_64_collisions
     001A66AE  _scene_64_collisions               scene_64_collisions
     001A6816  ___func_scene_66_collisions        scene_66_collisions
     001A6816  _scene_66_collisions               scene_66_collisions
     001A697E  ___func_scene_67_collisions        scene_67_collisions
     001A697E  _scene_67_collisions               scene_67_collisions
     001A6AE6  ___func_scene_68_collisions        scene_68_collisions
     001A6AE6  _scene_68_collisions               scene_68_collisions
     001A6C4E  ___func_scene_69_collisions        scene_69_collisions
     001A6C4E  _scene_69_collisions               scene_69_collisions
     001A6DB6  ___func_scene_7_collisions         scene_7_collisions
     001A6DB6  _scene_7_collisions                scene_7_collisions
     001A6F1E  ___func_scene_70_collisions        scene_70_collisions
     001A6F1E  _scene_70_collisions               scene_70_collisions
     001A7086  ___func_scene_71_collisions        scene_71_collisions
     001A7086  _scene_71_collisions               scene_71_collisions
     001A71EE  ___func_scene_72_collisions        scene_72_collisions
     001A71EE  _scene_72_collisions               scene_72_collisions
     001A7356  ___func_scene_73_collisions        scene_73_collisions
     001A7356  _scene_73_collisions               scene_73_collisions
     001A74BE  ___func_scene_74_collisions        scene_74_collisions
     001A74BE  _scene_74_collisions               scene_74_collisions
     001A7626  ___func_scene_75_collisions        scene_75_collisions
     001A7626  _scene_75_collisions               scene_75_collisions
     001A778E  ___func_scene_78_collisions        scene_78_collisions
     001A778E  _scene_78_collisions               scene_78_collisions
     001A78F6  ___func_scene_79_collisions        scene_79_collisions
     001A78F6  _scene_79_collisions               scene_79_collisions
     001A7A5E  ___func_scene_8_collisions         scene_8_collisions
     001A7A5E  _scene_8_collisions                scene_8_collisions
     001A7BC6  ___func_scene_80_collisions        scene_80_collisions
     001A7BC6  _scene_80_collisions               scene_80_collisions
     001A7D2E  ___func_scene_81_collisions        scene_81_collisions
     001A7D2E  _scene_81_collisions               scene_81_collisions
     001A7E96  ___func_scene_82_collisions        scene_82_collisions
     001A7E96  _scene_82_collisions               scene_82_collisions
ASxxxx Linker V03.00/V05.40 + sdld,  page 131.
Hexadecimal  [32-Bits]

Area                                    Addr        Size        Decimal Bytes (Attributes)
--------------------------------        ----        ----        ------- ----- ------------
_HEADER_LCD0                        00000000    00000003 =           3. bytes (ABS,CON)

      Value  Global                              Global Defined In Module
      -----  --------------------------------   ------------------------
ASxxxx Linker V03.00/V05.40 + sdld,  page 132.

Files Linked                              [ module(s) ]

/tmp/_gbstools/gbdk/lib/gb/crt0.o         [ Runtime ]
/tmp/_gbsbuild/obj/absolute.rel           [ absolute ]
/tmp/_gbsbuild/obj/actor.rel              [ actor ]
/tmp/_gbsbuild/obj/bankdata.rel           [ bankdata ]
/tmp/_gbsbuild/obj/bootstrap.rel          [  ]
/tmp/_gbsbuild/obj/camera.rel             [ camera ]
/tmp/_gbsbuild/obj/core.rel               [ core ]
/tmp/_gbsbuild/obj/crash_handler.rel      [  ]
/tmp/_gbsbuild/obj/data_manager.rel       [ data_manager ]
/tmp/_gbsbuild/obj/events.rel             [ events ]
/tmp/_gbsbuild/obj/fade_manager.rel       [ fade_manager ]
/tmp/_gbsbuild/obj/flasher_s.rel          [  ]
/tmp/_gbsbuild/obj/flasher.rel            [ flasher ]
/tmp/_gbsbuild/obj/game_time.rel          [ game_time ]
/tmp/_gbsbuild/obj/gbprinter.rel          [ gbprinter ]
/tmp/_gbsbuild/obj/input.rel              [ input ]
/tmp/_gbsbuild/obj/interrupt_sio.rel      [  ]
/tmp/_gbsbuild/obj/interrupt_timer.rel    [  ]
/tmp/_gbsbuild/obj/interrupts.rel         [ interrupts ]
/tmp/_gbsbuild/obj/load_save.rel          [ load_save ]
/tmp/_gbsbuild/obj/math_atan2.rel         [ math_atan2 ]
/tmp/_gbsbuild/obj/math.rel               [ math ]
/tmp/_gbsbuild/obj/music_manager.rel      [ music_manager ]
/tmp/_gbsbuild/obj/palette.rel            [ palette ]
/tmp/_gbsbuild/obj/parallax.rel           [ parallax ]
/tmp/_gbsbuild/obj/projectiles.rel        [ projectiles ]
/tmp/_gbsbuild/obj/scroll_a.rel           [  ]
/tmp/_gbsbuild/obj/scroll.rel             [ scroll ]
/tmp/_gbsbuild/obj/set_tile_submap.rel    [  ]
/tmp/_gbsbuild/obj/sfx_player.rel         [ sfx_player ]
/tmp/_gbsbuild/obj/sgb_border.rel         [ sgb_border ]
/tmp/_gbsbuild/obj/sio.rel                [ sio ]
/tmp/_gbsbuild/obj/states_caller.rel      [  ]
/tmp/_gbsbuild/obj/system.rel             [ system ]
/tmp/_gbsbuild/obj/trigger.rel            [ trigger ]
/tmp/_gbsbuild/obj/ui_a.rel               [  ]
/tmp/_gbsbuild/obj/ui.rel                 [ ui ]
/tmp/_gbsbuild/obj/vm_actor.rel           [ vm_actor ]
/tmp/_gbsbuild/obj/vm_camera.rel          [ vm_camera ]
/tmp/_gbsbuild/obj/vm_gameboy.rel         [ vm_gameboy ]
/tmp/_gbsbuild/obj/vm_gbprinter.rel       [ vm_gbprinter ]
/tmp/_gbsbuild/obj/vm_instructions.rel    [ vm_instructions ]
/tmp/_gbsbuild/obj/vm_load_save.rel       [ vm_load_save ]
/tmp/_gbsbuild/obj/vm_math.rel            [ vm_math ]
/tmp/_gbsbuild/obj/vm_music.rel           [ vm_music ]
/tmp/_gbsbuild/obj/vm_palette.rel         [ vm_palette ]
/tmp/_gbsbuild/obj/vm_projectiles.rel     [ vm_projectiles ]
/tmp/_gbsbuild/obj/vm_rtc.rel             [ vm_rtc ]
/tmp/_gbsbuild/obj/vm_scene.rel           [ vm_scene ]
/tmp/_gbsbuild/obj/vm_sgb.rel             [ vm_sgb ]
/tmp/_gbsbuild/obj/vm_sio.rel             [ vm_sio ]
/tmp/_gbsbuild/obj/vm_ui_a.rel            [ vm_ui_a ]
/tmp/_gbsbuild/obj/vm_ui.rel              [ vm_ui ]
/tmp/_gbsbuild/obj/vm.rel                 [ vm ]
/tmp/_gbsbuild/obj/actor_11_interact.rel  [ actor_11_interact ]
/tmp/_gbsbuild/obj/actor_14_interact.rel  [ actor_14_interact ]
/tmp/_gbsbuild/obj/actor_16_interact.rel  [ actor_16_interact ]
/tmp/_gbsbuild/obj/actor_17_interact.rel  [ actor_17_interact ]
/tmp/_gbsbuild/obj/actor_18_interact.rel  [ actor_18_interact ]
/tmp/_gbsbuild/obj/actor_19_interact.rel  [ actor_19_interact ]
/tmp/_gbsbuild/obj/actor_21_interact.rel  [ actor_21_interact ]
/tmp/_gbsbuild/obj/actor_25_interact.rel  [ actor_25_interact ]
/tmp/_gbsbuild/obj/actor_31_interact.rel  [ actor_31_interact ]
/tmp/_gbsbuild/obj/actor_32_interact.rel  [ actor_32_interact ]
/tmp/_gbsbuild/obj/actor_33_interact.rel  [ actor_33_interact ]
/tmp/_gbsbuild/obj/actor_34_interact.rel  [ actor_34_interact ]
/tmp/_gbsbuild/obj/actor_35_interact.rel  [ actor_35_interact ]
/tmp/_gbsbuild/obj/actor_36_interact.rel  [ actor_36_interact ]
/tmp/_gbsbuild/obj/actor_37_interact.rel  [ actor_37_interact ]
/tmp/_gbsbuild/obj/actor_38_interact.rel  [ actor_38_interact ]
/tmp/_gbsbuild/obj/actor_39_interact.rel  [ actor_39_interact ]
/tmp/_gbsbuild/obj/actor_41_interact.rel  [ actor_41_interact ]
/tmp/_gbsbuild/obj/actor_42_interact.rel  [ actor_42_interact ]
/tmp/_gbsbuild/obj/actor_46_interact.rel  [ actor_46_interact ]
/tmp/_gbsbuild/obj/actor_47_interact.rel  [ actor_47_interact ]
/tmp/_gbsbuild/obj/actor_6_interact.rel   [ actor_6_interact ]
/tmp/_gbsbuild/obj/actor_60_interact.rel  [ actor_60_interact ]
/tmp/_gbsbuild/obj/actor_61_interact.rel  [ actor_61_interact ]
/tmp/_gbsbuild/obj/actor_64_interact.rel  [ actor_64_interact ]
/tmp/_gbsbuild/obj/avatar_font_0.rel      [ avatar_font_0 ]
/tmp/_gbsbuild/obj/bg_announcer_tilemap_attr.rel
                                          [ bg_announcer_tilemap_attr ]
/tmp/_gbsbuild/obj/bg_announcer_tilemap.rel
                                          [ bg_announcer_tilemap ]
/tmp/_gbsbuild/obj/bg_announcer_tileset.rel
                                          [ bg_announcer_tileset ]
/tmp/_gbsbuild/obj/bg_announcer.rel       [ bg_announcer ]
/tmp/_gbsbuild/obj/bg_cave_ladder_copy__tilemap_attr.rel
                                          [ bg_cave_ladder_copy__tilemap_att ]
/tmp/_gbsbuild/obj/bg_cave_ladder_copy__tilemap.rel
                                          [ bg_cave_ladder_copy__tilemap ]
/tmp/_gbsbuild/obj/bg_cave_ladder_copy__tileset.rel
                                          [ bg_cave_ladder_copy__tileset ]
/tmp/_gbsbuild/obj/bg_cave_ladder_copy_.rel
                                          [ bg_cave_ladder_copy_ ]
/tmp/_gbsbuild/obj/bg_cave_ladder_copy_0_tilemap_attr.rel
                                          [ bg_cave_ladder_copy_0_tilemap_at ]
/tmp/_gbsbuild/obj/bg_cave_ladder_copy_0_tilemap.rel
                                          [ bg_cave_ladder_copy_0_tilemap ]
/tmp/_gbsbuild/obj/bg_cave_ladder_copy_0_tileset.rel
                                          [ bg_cave_ladder_copy_0_tileset ]
/tmp/_gbsbuild/obj/bg_cave_ladder_copy_0.rel
                                          [ bg_cave_ladder_copy_0 ]
/tmp/_gbsbuild/obj/bg_chase_shilly_tilemap_attr.rel
                                          [ bg_chase_shilly_tilemap_attr ]
/tmp/_gbsbuild/obj/bg_chase_shilly_tilemap.rel
                                          [ bg_chase_shilly_tilemap ]
/tmp/_gbsbuild/obj/bg_chase_shilly_tileset.rel
                                          [ bg_chase_shilly_tileset ]
/tmp/_gbsbuild/obj/bg_chase_shilly.rel    [ bg_chase_shilly ]
/tmp/_gbsbuild/obj/bg_cinema_tilemap_attr.rel
                                          [ bg_cinema_tilemap_attr ]
/tmp/_gbsbuild/obj/bg_cinema_tilemap.rel  [ bg_cinema_tilemap ]
/tmp/_gbsbuild/obj/bg_cinema_tileset.rel  [ bg_cinema_tileset ]
/tmp/_gbsbuild/obj/bg_cinema.rel          [ bg_cinema ]
/tmp/_gbsbuild/obj/bg_controls_gb_copy__tilemap_attr.rel
                                          [ bg_controls_gb_copy__tilemap_att ]
/tmp/_gbsbuild/obj/bg_controls_gb_copy__tilemap.rel
                                          [ bg_controls_gb_copy__tilemap ]
/tmp/_gbsbuild/obj/bg_controls_gb_copy__tileset.rel
                                          [ bg_controls_gb_copy__tileset ]
/tmp/_gbsbuild/obj/bg_controls_gb_copy_.rel
                                          [ bg_controls_gb_copy_ ]
/tmp/_gbsbuild/obj/bg_controls_gb_copy_0_tilemap_attr.rel
                                          [ bg_controls_gb_copy_0_tilemap_at ]
/tmp/_gbsbuild/obj/bg_controls_gb_copy_0_tilemap.rel
                                          [ bg_controls_gb_copy_0_tilemap ]
/tmp/_gbsbuild/obj/bg_controls_gb_copy_0_tileset.rel
                                          [ bg_controls_gb_copy_0_tileset ]
/tmp/_gbsbuild/obj/bg_controls_gb_copy_0.rel
                                          [ bg_controls_gb_copy_0 ]
/tmp/_gbsbuild/obj/bg_controls_gba_copy__tilemap_attr.rel
                                          [ bg_controls_gba_copy__tilemap_at ]
/tmp/_gbsbuild/obj/bg_controls_gba_copy__tilemap.rel
                                          [ bg_controls_gba_copy__tilemap ]
/tmp/_gbsbuild/obj/bg_controls_gba_copy__tileset.rel
                                          [ bg_controls_gba_copy__tileset ]
/tmp/_gbsbuild/obj/bg_controls_gba_copy_.rel
                                          [ bg_controls_gba_copy_ ]
/tmp/_gbsbuild/obj/bg_controls_gba_copy_0_tilemap_attr.rel
                                          [ bg_controls_gba_copy_0_tilemap_a ]
/tmp/_gbsbuild/obj/bg_controls_gba_copy_0_tilemap.rel
                                          [ bg_controls_gba_copy_0_tilemap ]
/tmp/_gbsbuild/obj/bg_controls_gba_copy_0_tileset.rel
                                          [ bg_controls_gba_copy_0_tileset ]
/tmp/_gbsbuild/obj/bg_controls_gba_copy_0.rel
                                          [ bg_controls_gba_copy_0 ]
/tmp/_gbsbuild/obj/bg_controls_gbc_copy__tilemap_attr.rel
                                          [ bg_controls_gbc_copy__tilemap_at ]
/tmp/_gbsbuild/obj/bg_controls_gbc_copy__tilemap.rel
                                          [ bg_controls_gbc_copy__tilemap ]
/tmp/_gbsbuild/obj/bg_controls_gbc_copy__tileset.rel
                                          [ bg_controls_gbc_copy__tileset ]
/tmp/_gbsbuild/obj/bg_controls_gbc_copy_.rel
                                          [ bg_controls_gbc_copy_ ]
/tmp/_gbsbuild/obj/bg_controls_mobile_copy__tilemap_attr.rel
                                          [ bg_controls_mobile_copy__tilemap ]
/tmp/_gbsbuild/obj/bg_controls_mobile_copy__tilemap.rel
                                          [ bg_controls_mobile_copy__tilemap ]
/tmp/_gbsbuild/obj/bg_controls_mobile_copy__tileset.rel
                                          [ bg_controls_mobile_copy__tileset ]
/tmp/_gbsbuild/obj/bg_controls_mobile_copy_.rel
                                          [ bg_controls_mobile_copy_ ]
/tmp/_gbsbuild/obj/bg_controls_mobile_copy_0_tilemap_attr.rel
                                          [ bg_controls_mobile_copy_0_tilema ]
/tmp/_gbsbuild/obj/bg_controls_mobile_copy_0_tilemap.rel
                                          [ bg_controls_mobile_copy_0_tilema ]
/tmp/_gbsbuild/obj/bg_controls_mobile_copy_0_tileset.rel
                                          [ bg_controls_mobile_copy_0_tilese ]
/tmp/_gbsbuild/obj/bg_controls_mobile_copy_0.rel
                                          [ bg_controls_mobile_copy_0 ]
/tmp/_gbsbuild/obj/bg_dhilly_bridge_tilemap_attr.rel
                                          [ bg_dhilly_bridge_tilemap_attr ]
/tmp/_gbsbuild/obj/bg_dhilly_bridge_tilemap.rel
                                          [ bg_dhilly_bridge_tilemap ]
/tmp/_gbsbuild/obj/bg_dhilly_bridge_tileset.rel
                                          [ bg_dhilly_bridge_tileset ]
/tmp/_gbsbuild/obj/bg_dhilly_bridge.rel   [ bg_dhilly_bridge ]
/tmp/_gbsbuild/obj/bg_dhilly_game_1_tilemap_attr.rel
                                          [ bg_dhilly_game_1_tilemap_attr ]
/tmp/_gbsbuild/obj/bg_dhilly_game_1_tilemap.rel
                                          [ bg_dhilly_game_1_tilemap ]
/tmp/_gbsbuild/obj/bg_dhilly_game_1_tileset.rel
                                          [ bg_dhilly_game_1_tileset ]
/tmp/_gbsbuild/obj/bg_dhilly_game_1.rel   [ bg_dhilly_game_1 ]
/tmp/_gbsbuild/obj/bg_dhilly_game_10_tilemap_attr.rel
                                          [ bg_dhilly_game_10_tilemap_attr ]
/tmp/_gbsbuild/obj/bg_dhilly_game_10_tilemap.rel
                                          [ bg_dhilly_game_10_tilemap ]
/tmp/_gbsbuild/obj/bg_dhilly_game_10_tileset.rel
                                          [ bg_dhilly_game_10_tileset ]
/tmp/_gbsbuild/obj/bg_dhilly_game_10.rel  [ bg_dhilly_game_10 ]
/tmp/_gbsbuild/obj/bg_dhilly_game_11_tilemap_attr.rel
                                          [ bg_dhilly_game_11_tilemap_attr ]
/tmp/_gbsbuild/obj/bg_dhilly_game_11_tilemap.rel
                                          [ bg_dhilly_game_11_tilemap ]
/tmp/_gbsbuild/obj/bg_dhilly_game_11_tileset.rel
                                          [ bg_dhilly_game_11_tileset ]
/tmp/_gbsbuild/obj/bg_dhilly_game_11.rel  [ bg_dhilly_game_11 ]
/tmp/_gbsbuild/obj/bg_dhilly_game_4_tilemap_attr.rel
                                          [ bg_dhilly_game_4_tilemap_attr ]
/tmp/_gbsbuild/obj/bg_dhilly_game_4_tilemap.rel
                                          [ bg_dhilly_game_4_tilemap ]
/tmp/_gbsbuild/obj/bg_dhilly_game_4_tileset.rel
                                          [ bg_dhilly_game_4_tileset ]
/tmp/_gbsbuild/obj/bg_dhilly_game_4.rel   [ bg_dhilly_game_4 ]
/tmp/_gbsbuild/obj/bg_dhilly_game_5_tilemap_attr.rel
                                          [ bg_dhilly_game_5_tilemap_attr ]
/tmp/_gbsbuild/obj/bg_dhilly_game_5_tilemap.rel
                                          [ bg_dhilly_game_5_tilemap ]
/tmp/_gbsbuild/obj/bg_dhilly_game_5_tileset.rel
                                          [ bg_dhilly_game_5_tileset ]
/tmp/_gbsbuild/obj/bg_dhilly_game_5.rel   [ bg_dhilly_game_5 ]
/tmp/_gbsbuild/obj/bg_dhilly_game_8_tilemap_attr.rel
                                          [ bg_dhilly_game_8_tilemap_attr ]
/tmp/_gbsbuild/obj/bg_dhilly_game_8_tilemap.rel
                                          [ bg_dhilly_game_8_tilemap ]
/tmp/_gbsbuild/obj/bg_dhilly_game_8_tileset.rel
                                          [ bg_dhilly_game_8_tileset ]
/tmp/_gbsbuild/obj/bg_dhilly_game_8.rel   [ bg_dhilly_game_8 ]
/tmp/_gbsbuild/obj/bg_dhilly_game_9_tilemap_attr.rel
                                          [ bg_dhilly_game_9_tilemap_attr ]
/tmp/_gbsbuild/obj/bg_dhilly_game_9_tilemap.rel
                                          [ bg_dhilly_game_9_tilemap ]
/tmp/_gbsbuild/obj/bg_dhilly_game_9_tileset.rel
                                          [ bg_dhilly_game_9_tileset ]
/tmp/_gbsbuild/obj/bg_dhilly_game_9.rel   [ bg_dhilly_game_9 ]
/tmp/_gbsbuild/obj/bg_dhillyhubdown_tilemap_attr.rel
                                          [ bg_dhillyhubdown_tilemap_attr ]
/tmp/_gbsbuild/obj/bg_dhillyhubdown_tilemap.rel
                                          [ bg_dhillyhubdown_tilemap ]
/tmp/_gbsbuild/obj/bg_dhillyhubdown_tileset.rel
                                          [ bg_dhillyhubdown_tileset ]
/tmp/_gbsbuild/obj/bg_dhillyhubdown.rel   [ bg_dhillyhubdown ]
/tmp/_gbsbuild/obj/bg_elevator_tilemap_attr.rel
                                          [ bg_elevator_tilemap_attr ]
/tmp/_gbsbuild/obj/bg_elevator_tilemap.rel
                                          [ bg_elevator_tilemap ]
/tmp/_gbsbuild/obj/bg_elevator_tileset.rel
                                          [ bg_elevator_tileset ]
/tmp/_gbsbuild/obj/bg_elevator.rel        [ bg_elevator ]
/tmp/_gbsbuild/obj/bg_endingscene_0_tilemap_attr.rel
                                          [ bg_endingscene_0_tilemap_attr ]
/tmp/_gbsbuild/obj/bg_endingscene_0_tilemap.rel
                                          [ bg_endingscene_0_tilemap ]
/tmp/_gbsbuild/obj/bg_endingscene_0_tileset.rel
                                          [ bg_endingscene_0_tileset ]
/tmp/_gbsbuild/obj/bg_endingscene_0.rel   [ bg_endingscene_0 ]
/tmp/_gbsbuild/obj/bg_endingscene_tilemap_attr.rel
                                          [ bg_endingscene_tilemap_attr ]
/tmp/_gbsbuild/obj/bg_endingscene_tilemap.rel
                                          [ bg_endingscene_tilemap ]
/tmp/_gbsbuild/obj/bg_endingscene_tileset.rel
                                          [ bg_endingscene_tileset ]
/tmp/_gbsbuild/obj/bg_endingscene.rel     [ bg_endingscene ]
/tmp/_gbsbuild/obj/bg_endingscene2_tilemap_attr.rel
                                          [ bg_endingscene2_tilemap_attr ]
/tmp/_gbsbuild/obj/bg_endingscene2_tilemap.rel
                                          [ bg_endingscene2_tilemap ]
/tmp/_gbsbuild/obj/bg_endingscene2_tileset.rel
                                          [ bg_endingscene2_tileset ]
/tmp/_gbsbuild/obj/bg_endingscene2.rel    [ bg_endingscene2 ]
/tmp/_gbsbuild/obj/bg_endingscene3_tilemap_attr.rel
                                          [ bg_endingscene3_tilemap_attr ]
/tmp/_gbsbuild/obj/bg_endingscene3_tilemap.rel
                                          [ bg_endingscene3_tilemap ]
/tmp/_gbsbuild/obj/bg_endingscene3_tileset.rel
                                          [ bg_endingscene3_tileset ]
/tmp/_gbsbuild/obj/bg_endingscene3.rel    [ bg_endingscene3 ]
/tmp/_gbsbuild/obj/bg_fall_to_shilly_area_copy_tilemap_attr.rel
                                          [ bg_fall_to_shilly_area_copy_tile ]
/tmp/_gbsbuild/obj/bg_fall_to_shilly_area_copy_tilemap.rel
                                          [ bg_fall_to_shilly_area_copy_tile ]
/tmp/_gbsbuild/obj/bg_fall_to_shilly_area_copy_tileset.rel
                                          [ bg_fall_to_shilly_area_copy_tile ]
/tmp/_gbsbuild/obj/bg_fall_to_shilly_area_copy.rel
                                          [ bg_fall_to_shilly_area_copy ]
/tmp/_gbsbuild/obj/bg_fieldlazy_tilemap_attr.rel
                                          [ bg_fieldlazy_tilemap_attr ]
/tmp/_gbsbuild/obj/bg_fieldlazy_tilemap.rel
                                          [ bg_fieldlazy_tilemap ]
/tmp/_gbsbuild/obj/bg_fieldlazy_tileset.rel
                                          [ bg_fieldlazy_tileset ]
/tmp/_gbsbuild/obj/bg_fieldlazy.rel       [ bg_fieldlazy ]
/tmp/_gbsbuild/obj/bg_iceos_desktop_copy__tilemap_attr.rel
                                          [ bg_iceos_desktop_copy__tilemap_a ]
/tmp/_gbsbuild/obj/bg_iceos_desktop_copy__tilemap.rel
                                          [ bg_iceos_desktop_copy__tilemap ]
/tmp/_gbsbuild/obj/bg_iceos_desktop_copy__tileset.rel
                                          [ bg_iceos_desktop_copy__tileset ]
/tmp/_gbsbuild/obj/bg_iceos_desktop_copy_.rel
                                          [ bg_iceos_desktop_copy_ ]
/tmp/_gbsbuild/obj/bg_iceos_login_2_copy__tilemap_attr.rel
                                          [ bg_iceos_login_2_copy__tilemap_a ]
/tmp/_gbsbuild/obj/bg_iceos_login_2_copy__tilemap.rel
                                          [ bg_iceos_login_2_copy__tilemap ]
/tmp/_gbsbuild/obj/bg_iceos_login_2_copy__tileset.rel
                                          [ bg_iceos_login_2_copy__tileset ]
/tmp/_gbsbuild/obj/bg_iceos_login_2_copy_.rel
                                          [ bg_iceos_login_2_copy_ ]
/tmp/_gbsbuild/obj/bg_iceos_login_copy__tilemap_attr.rel
                                          [ bg_iceos_login_copy__tilemap_att ]
/tmp/_gbsbuild/obj/bg_iceos_login_copy__tilemap.rel
                                          [ bg_iceos_login_copy__tilemap ]
/tmp/_gbsbuild/obj/bg_iceos_login_copy__tileset.rel
                                          [ bg_iceos_login_copy__tileset ]
/tmp/_gbsbuild/obj/bg_iceos_login_copy_.rel
                                          [ bg_iceos_login_copy_ ]
/tmp/_gbsbuild/obj/bg_iceos_platformer2_copy__tilemap_attr.rel
                                          [ bg_iceos_platformer2_copy__tilem ]
/tmp/_gbsbuild/obj/bg_iceos_platformer2_copy__tilemap.rel
                                          [ bg_iceos_platformer2_copy__tilem ]
/tmp/_gbsbuild/obj/bg_iceos_platformer2_copy__tileset.rel
                                          [ bg_iceos_platformer2_copy__tiles ]
/tmp/_gbsbuild/obj/bg_iceos_platformer2_copy_.rel
                                          [ bg_iceos_platformer2_copy_ ]
/tmp/_gbsbuild/obj/bg_iceos_platformer3_copy__tilemap_attr.rel
                                          [ bg_iceos_platformer3_copy__tilem ]
/tmp/_gbsbuild/obj/bg_iceos_platformer3_copy__tilemap.rel
                                          [ bg_iceos_platformer3_copy__tilem ]
/tmp/_gbsbuild/obj/bg_iceos_platformer3_copy__tileset.rel
                                          [ bg_iceos_platformer3_copy__tiles ]
/tmp/_gbsbuild/obj/bg_iceos_platformer3_copy_.rel
                                          [ bg_iceos_platformer3_copy_ ]
/tmp/_gbsbuild/obj/bg_iceos_platformer4_tilemap_attr.rel
                                          [ bg_iceos_platformer4_tilemap_att ]
/tmp/_gbsbuild/obj/bg_iceos_platformer4_tilemap.rel
                                          [ bg_iceos_platformer4_tilemap ]
/tmp/_gbsbuild/obj/bg_iceos_platformer4_tileset.rel
                                          [ bg_iceos_platformer4_tileset ]
/tmp/_gbsbuild/obj/bg_iceos_platformer4.rel
                                          [ bg_iceos_platformer4 ]
/tmp/_gbsbuild/obj/bg_init_copy__tilemap_attr.rel
                                          [ bg_init_copy__tilemap_attr ]
/tmp/_gbsbuild/obj/bg_init_copy__tilemap.rel
                                          [ bg_init_copy__tilemap ]
/tmp/_gbsbuild/obj/bg_init_copy__tileset.rel
                                          [ bg_init_copy__tileset ]
/tmp/_gbsbuild/obj/bg_init_copy_.rel      [ bg_init_copy_ ]
/tmp/_gbsbuild/obj/bg_init_copy_0_tilemap_attr.rel
                                          [ bg_init_copy_0_tilemap_attr ]
/tmp/_gbsbuild/obj/bg_init_copy_0_tilemap.rel
                                          [ bg_init_copy_0_tilemap ]
/tmp/_gbsbuild/obj/bg_init_copy_0_tileset.rel
                                          [ bg_init_copy_0_tileset ]
/tmp/_gbsbuild/obj/bg_init_copy_0.rel     [ bg_init_copy_0 ]
/tmp/_gbsbuild/obj/bg_init_copy_1_tilemap_attr.rel
                                          [ bg_init_copy_1_tilemap_attr ]
/tmp/_gbsbuild/obj/bg_init_copy_1_tilemap.rel
                                          [ bg_init_copy_1_tilemap ]
/tmp/_gbsbuild/obj/bg_init_copy_1_tileset.rel
                                          [ bg_init_copy_1_tileset ]
/tmp/_gbsbuild/obj/bg_init_copy_1.rel     [ bg_init_copy_1 ]
/tmp/_gbsbuild/obj/bg_init_copy_2_tilemap_attr.rel
                                          [ bg_init_copy_2_tilemap_attr ]
/tmp/_gbsbuild/obj/bg_init_copy_2_tilemap.rel
                                          [ bg_init_copy_2_tilemap ]
/tmp/_gbsbuild/obj/bg_init_copy_2_tileset.rel
                                          [ bg_init_copy_2_tileset ]
/tmp/_gbsbuild/obj/bg_init_copy_2.rel     [ bg_init_copy_2 ]
/tmp/_gbsbuild/obj/bg_intro_scenary_copy__tilemap_attr.rel
                                          [ bg_intro_scenary_copy__tilemap_a ]
/tmp/_gbsbuild/obj/bg_intro_scenary_copy__tilemap.rel
                                          [ bg_intro_scenary_copy__tilemap ]
/tmp/_gbsbuild/obj/bg_intro_scenary_copy__tileset.rel
                                          [ bg_intro_scenary_copy__tileset ]
/tmp/_gbsbuild/obj/bg_intro_scenary_copy_.rel
                                          [ bg_intro_scenary_copy_ ]
/tmp/_gbsbuild/obj/bg_intro_weather_copy__tilemap_attr.rel
                                          [ bg_intro_weather_copy__tilemap_a ]
/tmp/_gbsbuild/obj/bg_intro_weather_copy__tilemap.rel
                                          [ bg_intro_weather_copy__tilemap ]
/tmp/_gbsbuild/obj/bg_intro_weather_copy__tileset.rel
                                          [ bg_intro_weather_copy__tileset ]
/tmp/_gbsbuild/obj/bg_intro_weather_copy_.rel
                                          [ bg_intro_weather_copy_ ]
/tmp/_gbsbuild/obj/bg_lair_hub_tilemap_attr.rel
                                          [ bg_lair_hub_tilemap_attr ]
/tmp/_gbsbuild/obj/bg_lair_hub_tilemap.rel
                                          [ bg_lair_hub_tilemap ]
/tmp/_gbsbuild/obj/bg_lair_hub_tileset.rel
                                          [ bg_lair_hub_tileset ]
/tmp/_gbsbuild/obj/bg_lair_hub.rel        [ bg_lair_hub ]
/tmp/_gbsbuild/obj/bg_lair_left_2_copy__tilemap_attr.rel
                                          [ bg_lair_left_2_copy__tilemap_att ]
/tmp/_gbsbuild/obj/bg_lair_left_2_copy__tilemap.rel
                                          [ bg_lair_left_2_copy__tilemap ]
/tmp/_gbsbuild/obj/bg_lair_left_2_copy__tileset.rel
                                          [ bg_lair_left_2_copy__tileset ]
/tmp/_gbsbuild/obj/bg_lair_left_2_copy_.rel
                                          [ bg_lair_left_2_copy_ ]
/tmp/_gbsbuild/obj/bg_lair_left_2_tilemap_attr.rel
                                          [ bg_lair_left_2_tilemap_attr ]
/tmp/_gbsbuild/obj/bg_lair_left_2_tilemap.rel
                                          [ bg_lair_left_2_tilemap ]
/tmp/_gbsbuild/obj/bg_lair_left_2_tileset.rel
                                          [ bg_lair_left_2_tileset ]
/tmp/_gbsbuild/obj/bg_lair_left_2.rel     [ bg_lair_left_2 ]
/tmp/_gbsbuild/obj/bg_lair_left_3_tilemap_attr.rel
                                          [ bg_lair_left_3_tilemap_attr ]
/tmp/_gbsbuild/obj/bg_lair_left_3_tilemap.rel
                                          [ bg_lair_left_3_tilemap ]
/tmp/_gbsbuild/obj/bg_lair_left_3_tileset.rel
                                          [ bg_lair_left_3_tileset ]
/tmp/_gbsbuild/obj/bg_lair_left_3.rel     [ bg_lair_left_3 ]
/tmp/_gbsbuild/obj/bg_lair_right_2_copy__tilemap_attr.rel
                                          [ bg_lair_right_2_copy__tilemap_at ]
/tmp/_gbsbuild/obj/bg_lair_right_2_copy__tilemap.rel
                                          [ bg_lair_right_2_copy__tilemap ]
/tmp/_gbsbuild/obj/bg_lair_right_2_copy__tileset.rel
                                          [ bg_lair_right_2_copy__tileset ]
/tmp/_gbsbuild/obj/bg_lair_right_2_copy_.rel
                                          [ bg_lair_right_2_copy_ ]
/tmp/_gbsbuild/obj/bg_lair_right_2_tilemap_attr.rel
                                          [ bg_lair_right_2_tilemap_attr ]
/tmp/_gbsbuild/obj/bg_lair_right_2_tilemap.rel
                                          [ bg_lair_right_2_tilemap ]
/tmp/_gbsbuild/obj/bg_lair_right_2_tileset.rel
                                          [ bg_lair_right_2_tileset ]
/tmp/_gbsbuild/obj/bg_lair_right_2.rel    [ bg_lair_right_2 ]
/tmp/_gbsbuild/obj/bg_lair_right_3_copy__tilemap_attr.rel
                                          [ bg_lair_right_3_copy__tilemap_at ]
/tmp/_gbsbuild/obj/bg_lair_right_3_copy__tilemap.rel
                                          [ bg_lair_right_3_copy__tilemap ]
/tmp/_gbsbuild/obj/bg_lair_right_3_copy__tileset.rel
                                          [ bg_lair_right_3_copy__tileset ]
/tmp/_gbsbuild/obj/bg_lair_right_3_copy_.rel
                                          [ bg_lair_right_3_copy_ ]
/tmp/_gbsbuild/obj/bg_lair_right_3_tilemap_attr.rel
                                          [ bg_lair_right_3_tilemap_attr ]
/tmp/_gbsbuild/obj/bg_lair_right_3_tilemap.rel
                                          [ bg_lair_right_3_tilemap ]
/tmp/_gbsbuild/obj/bg_lair_right_3_tileset.rel
                                          [ bg_lair_right_3_tileset ]
/tmp/_gbsbuild/obj/bg_lair_right_3.rel    [ bg_lair_right_3 ]
/tmp/_gbsbuild/obj/bg_lair_right_4_copy__tilemap_attr.rel
                                          [ bg_lair_right_4_copy__tilemap_at ]
/tmp/_gbsbuild/obj/bg_lair_right_4_copy__tilemap.rel
                                          [ bg_lair_right_4_copy__tilemap ]
/tmp/_gbsbuild/obj/bg_lair_right_4_copy__tileset.rel
                                          [ bg_lair_right_4_copy__tileset ]
/tmp/_gbsbuild/obj/bg_lair_right_4_copy_.rel
                                          [ bg_lair_right_4_copy_ ]
/tmp/_gbsbuild/obj/bg_lair_right_5_tilemap_attr.rel
                                          [ bg_lair_right_5_tilemap_attr ]
/tmp/_gbsbuild/obj/bg_lair_right_5_tilemap.rel
                                          [ bg_lair_right_5_tilemap ]
/tmp/_gbsbuild/obj/bg_lair_right_5_tileset.rel
                                          [ bg_lair_right_5_tileset ]
/tmp/_gbsbuild/obj/bg_lair_right_5.rel    [ bg_lair_right_5 ]
/tmp/_gbsbuild/obj/bg_lair_right_tilemap_attr.rel
                                          [ bg_lair_right_tilemap_attr ]
/tmp/_gbsbuild/obj/bg_lair_right_tilemap.rel
                                          [ bg_lair_right_tilemap ]
/tmp/_gbsbuild/obj/bg_lair_right_tileset.rel
                                          [ bg_lair_right_tileset ]
/tmp/_gbsbuild/obj/bg_lair_right.rel      [ bg_lair_right ]
/tmp/_gbsbuild/obj/bg_lencity_dhillybuilding_c_tilemap_attr.rel
                                          [ bg_lencity_dhillybuilding_c_tile ]
/tmp/_gbsbuild/obj/bg_lencity_dhillybuilding_c_tilemap.rel
                                          [ bg_lencity_dhillybuilding_c_tile ]
/tmp/_gbsbuild/obj/bg_lencity_dhillybuilding_c_tileset.rel
                                          [ bg_lencity_dhillybuilding_c_tile ]
/tmp/_gbsbuild/obj/bg_lencity_dhillybuilding_c.rel
                                          [ bg_lencity_dhillybuilding_c ]
/tmp/_gbsbuild/obj/bg_lencity_dhillybuilding_f_tilemap_attr.rel
                                          [ bg_lencity_dhillybuilding_f_tile ]
/tmp/_gbsbuild/obj/bg_lencity_dhillybuilding_f_tilemap.rel
                                          [ bg_lencity_dhillybuilding_f_tile ]
/tmp/_gbsbuild/obj/bg_lencity_dhillybuilding_f_tileset.rel
                                          [ bg_lencity_dhillybuilding_f_tile ]
/tmp/_gbsbuild/obj/bg_lencity_dhillybuilding_f.rel
                                          [ bg_lencity_dhillybuilding_f ]
/tmp/_gbsbuild/obj/bg_lencity_trainstation_cop_tilemap_attr.rel
                                          [ bg_lencity_trainstation_cop_tile ]
/tmp/_gbsbuild/obj/bg_lencity_trainstation_cop_tilemap.rel
                                          [ bg_lencity_trainstation_cop_tile ]
/tmp/_gbsbuild/obj/bg_lencity_trainstation_cop_tileset.rel
                                          [ bg_lencity_trainstation_cop_tile ]
/tmp/_gbsbuild/obj/bg_lencity_trainstation_cop.rel
                                          [ bg_lencity_trainstation_cop ]
/tmp/_gbsbuild/obj/bg_lencity_trainstation_tilemap_attr.rel
                                          [ bg_lencity_trainstation_tilemap_ ]
/tmp/_gbsbuild/obj/bg_lencity_trainstation_tilemap.rel
                                          [ bg_lencity_trainstation_tilemap ]
/tmp/_gbsbuild/obj/bg_lencity_trainstation_tileset.rel
                                          [ bg_lencity_trainstation_tileset ]
/tmp/_gbsbuild/obj/bg_lencity_trainstation.rel
                                          [ bg_lencity_trainstation ]
/tmp/_gbsbuild/obj/bg_lencityopen_copy__tilemap_attr.rel
                                          [ bg_lencityopen_copy__tilemap_att ]
/tmp/_gbsbuild/obj/bg_lencityopen_copy__tilemap.rel
                                          [ bg_lencityopen_copy__tilemap ]
/tmp/_gbsbuild/obj/bg_lencityopen_copy__tileset.rel
                                          [ bg_lencityopen_copy__tileset ]
/tmp/_gbsbuild/obj/bg_lencityopen_copy_.rel
                                          [ bg_lencityopen_copy_ ]
/tmp/_gbsbuild/obj/bg_lencityopen_copy_0_tilemap_attr.rel
                                          [ bg_lencityopen_copy_0_tilemap_at ]
/tmp/_gbsbuild/obj/bg_lencityopen_copy_0_tilemap.rel
                                          [ bg_lencityopen_copy_0_tilemap ]
/tmp/_gbsbuild/obj/bg_lencityopen_copy_0_tileset.rel
                                          [ bg_lencityopen_copy_0_tileset ]
/tmp/_gbsbuild/obj/bg_lencityopen_copy_0.rel
                                          [ bg_lencityopen_copy_0 ]
/tmp/_gbsbuild/obj/bg_lencityopen_tilemap_attr.rel
                                          [ bg_lencityopen_tilemap_attr ]
/tmp/_gbsbuild/obj/bg_lencityopen_tilemap.rel
                                          [ bg_lencityopen_tilemap ]
/tmp/_gbsbuild/obj/bg_lencityopen_tileset.rel
                                          [ bg_lencityopen_tileset ]
/tmp/_gbsbuild/obj/bg_lencityopen.rel     [ bg_lencityopen ]
/tmp/_gbsbuild/obj/bg_options_copy__tilemap_attr.rel
                                          [ bg_options_copy__tilemap_attr ]
/tmp/_gbsbuild/obj/bg_options_copy__tilemap.rel
                                          [ bg_options_copy__tilemap ]
/tmp/_gbsbuild/obj/bg_options_copy__tileset.rel
                                          [ bg_options_copy__tileset ]
/tmp/_gbsbuild/obj/bg_options_copy_.rel   [ bg_options_copy_ ]
/tmp/_gbsbuild/obj/bg_pixil_frame_0_23_tilemap_attr.rel
                                          [ bg_pixil_frame_0_23_tilemap_attr ]
/tmp/_gbsbuild/obj/bg_pixil_frame_0_23_tilemap.rel
                                          [ bg_pixil_frame_0_23_tilemap ]
/tmp/_gbsbuild/obj/bg_pixil_frame_0_23_tileset.rel
                                          [ bg_pixil_frame_0_23_tileset ]
/tmp/_gbsbuild/obj/bg_pixil_frame_0_23.rel
                                          [ bg_pixil_frame_0_23 ]
/tmp/_gbsbuild/obj/bg_pixil_frame_0_24_tilemap_attr.rel
                                          [ bg_pixil_frame_0_24_tilemap_attr ]
/tmp/_gbsbuild/obj/bg_pixil_frame_0_24_tilemap.rel
                                          [ bg_pixil_frame_0_24_tilemap ]
/tmp/_gbsbuild/obj/bg_pixil_frame_0_24_tileset.rel
                                          [ bg_pixil_frame_0_24_tileset ]
/tmp/_gbsbuild/obj/bg_pixil_frame_0_24.rel
                                          [ bg_pixil_frame_0_24 ]
/tmp/_gbsbuild/obj/bg_pixil_frame_0_30_tilemap_attr.rel
                                          [ bg_pixil_frame_0_30_tilemap_attr ]
/tmp/_gbsbuild/obj/bg_pixil_frame_0_30_tilemap.rel
                                          [ bg_pixil_frame_0_30_tilemap ]
/tmp/_gbsbuild/obj/bg_pixil_frame_0_30_tileset.rel
                                          [ bg_pixil_frame_0_30_tileset ]
/tmp/_gbsbuild/obj/bg_pixil_frame_0_30.rel
                                          [ bg_pixil_frame_0_30 ]
/tmp/_gbsbuild/obj/bg_pixil_frame_0_31_tilemap_attr.rel
                                          [ bg_pixil_frame_0_31_tilemap_attr ]
/tmp/_gbsbuild/obj/bg_pixil_frame_0_31_tilemap.rel
                                          [ bg_pixil_frame_0_31_tilemap ]
/tmp/_gbsbuild/obj/bg_pixil_frame_0_31_tileset.rel
                                          [ bg_pixil_frame_0_31_tileset ]
/tmp/_gbsbuild/obj/bg_pixil_frame_0_31.rel
                                          [ bg_pixil_frame_0_31 ]
/tmp/_gbsbuild/obj/bg_pixil_frame_0_33_tilemap_attr.rel
                                          [ bg_pixil_frame_0_33_tilemap_attr ]
/tmp/_gbsbuild/obj/bg_pixil_frame_0_33_tilemap.rel
                                          [ bg_pixil_frame_0_33_tilemap ]
/tmp/_gbsbuild/obj/bg_pixil_frame_0_33_tileset.rel
                                          [ bg_pixil_frame_0_33_tileset ]
/tmp/_gbsbuild/obj/bg_pixil_frame_0_33.rel
                                          [ bg_pixil_frame_0_33 ]
/tmp/_gbsbuild/obj/bg_pixil_frame_0_copy_copy__tilemap_attr.rel
                                          [ bg_pixil_frame_0_copy_copy__tile ]
/tmp/_gbsbuild/obj/bg_pixil_frame_0_copy_copy__tilemap.rel
                                          [ bg_pixil_frame_0_copy_copy__tile ]
/tmp/_gbsbuild/obj/bg_pixil_frame_0_copy_copy__tileset.rel
                                          [ bg_pixil_frame_0_copy_copy__tile ]
/tmp/_gbsbuild/obj/bg_pixil_frame_0_copy_copy_.rel
                                          [ bg_pixil_frame_0_copy_copy_ ]
/tmp/_gbsbuild/obj/bg_pixil_frame_23_0_tilemap_attr.rel
                                          [ bg_pixil_frame_23_0_tilemap_attr ]
/tmp/_gbsbuild/obj/bg_pixil_frame_23_0_tilemap.rel
                                          [ bg_pixil_frame_23_0_tilemap ]
/tmp/_gbsbuild/obj/bg_pixil_frame_23_0_tileset.rel
                                          [ bg_pixil_frame_23_0_tileset ]
/tmp/_gbsbuild/obj/bg_pixil_frame_23_0.rel
                                          [ bg_pixil_frame_23_0 ]
/tmp/_gbsbuild/obj/bg_placeholder_copy_copy_co_0_tilemap_attr.rel
                                          [ bg_placeholder_copy_copy_co_0_ti ]
/tmp/_gbsbuild/obj/bg_placeholder_copy_copy_co_0_tilemap.rel
                                          [ bg_placeholder_copy_copy_co_0_ti ]
/tmp/_gbsbuild/obj/bg_placeholder_copy_copy_co_0_tileset.rel
                                          [ bg_placeholder_copy_copy_co_0_ti ]
/tmp/_gbsbuild/obj/bg_placeholder_copy_copy_co_0.rel
                                          [ bg_placeholder_copy_copy_co_0 ]
/tmp/_gbsbuild/obj/bg_placeholder_copy_copy_co_tilemap_attr.rel
                                          [ bg_placeholder_copy_copy_co_tile ]
/tmp/_gbsbuild/obj/bg_placeholder_copy_copy_co_tilemap.rel
                                          [ bg_placeholder_copy_copy_co_tile ]
/tmp/_gbsbuild/obj/bg_placeholder_copy_copy_co_tileset.rel
                                          [ bg_placeholder_copy_copy_co_tile ]
/tmp/_gbsbuild/obj/bg_placeholder_copy_copy_co.rel
                                          [ bg_placeholder_copy_copy_co ]
/tmp/_gbsbuild/obj/bg_samsam_copy_tilemap_attr.rel
                                          [ bg_samsam_copy_tilemap_attr ]
/tmp/_gbsbuild/obj/bg_samsam_copy_tilemap.rel
                                          [ bg_samsam_copy_tilemap ]
/tmp/_gbsbuild/obj/bg_samsam_copy_tileset.rel
                                          [ bg_samsam_copy_tileset ]
/tmp/_gbsbuild/obj/bg_samsam_copy.rel     [ bg_samsam_copy ]
/tmp/_gbsbuild/obj/bg_shillycity_sara_house_co_tilemap_attr.rel
                                          [ bg_shillycity_sara_house_co_tile ]
/tmp/_gbsbuild/obj/bg_shillycity_sara_house_co_tilemap.rel
                                          [ bg_shillycity_sara_house_co_tile ]
/tmp/_gbsbuild/obj/bg_shillycity_sara_house_co_tileset.rel
                                          [ bg_shillycity_sara_house_co_tile ]
/tmp/_gbsbuild/obj/bg_shillycity_sara_house_co.rel
                                          [ bg_shillycity_sara_house_co ]
/tmp/_gbsbuild/obj/bg_shillycityopen_copy__tilemap_attr.rel
                                          [ bg_shillycityopen_copy__tilemap_ ]
/tmp/_gbsbuild/obj/bg_shillycityopen_copy__tilemap.rel
                                          [ bg_shillycityopen_copy__tilemap ]
/tmp/_gbsbuild/obj/bg_shillycityopen_copy__tileset.rel
                                          [ bg_shillycityopen_copy__tileset ]
/tmp/_gbsbuild/obj/bg_shillycityopen_copy_.rel
                                          [ bg_shillycityopen_copy_ ]
/tmp/_gbsbuild/obj/bg_shillycityopen_copy_0_tilemap_attr.rel
                                          [ bg_shillycityopen_copy_0_tilemap ]
/tmp/_gbsbuild/obj/bg_shillycityopen_copy_0_tilemap.rel
                                          [ bg_shillycityopen_copy_0_tilemap ]
/tmp/_gbsbuild/obj/bg_shillycityopen_copy_0_tileset.rel
                                          [ bg_shillycityopen_copy_0_tileset ]
/tmp/_gbsbuild/obj/bg_shillycityopen_copy_0.rel
                                          [ bg_shillycityopen_copy_0 ]
/tmp/_gbsbuild/obj/bg_shillycityopen_copy_1_tilemap_attr.rel
                                          [ bg_shillycityopen_copy_1_tilemap ]
/tmp/_gbsbuild/obj/bg_shillycityopen_copy_1_tilemap.rel
                                          [ bg_shillycityopen_copy_1_tilemap ]
/tmp/_gbsbuild/obj/bg_shillycityopen_copy_1_tileset.rel
                                          [ bg_shillycityopen_copy_1_tileset ]
/tmp/_gbsbuild/obj/bg_shillycityopen_copy_1.rel
                                          [ bg_shillycityopen_copy_1 ]
/tmp/_gbsbuild/obj/bg_square_frozen_future_tilemap_attr.rel
                                          [ bg_square_frozen_future_tilemap_ ]
/tmp/_gbsbuild/obj/bg_square_frozen_future_tilemap.rel
                                          [ bg_square_frozen_future_tilemap ]
/tmp/_gbsbuild/obj/bg_square_frozen_future_tileset.rel
                                          [ bg_square_frozen_future_tileset ]
/tmp/_gbsbuild/obj/bg_square_frozen_future.rel
                                          [ bg_square_frozen_future ]
/tmp/_gbsbuild/obj/bg_theatre_tilemap_attr.rel
                                          [ bg_theatre_tilemap_attr ]
/tmp/_gbsbuild/obj/bg_theatre_tilemap.rel
                                          [ bg_theatre_tilemap ]
/tmp/_gbsbuild/obj/bg_theatre_tileset.rel
                                          [ bg_theatre_tileset ]
/tmp/_gbsbuild/obj/bg_theatre.rel         [ bg_theatre ]
/tmp/_gbsbuild/obj/bg_title_copy__tilemap_attr.rel
                                          [ bg_title_copy__tilemap_attr ]
/tmp/_gbsbuild/obj/bg_title_copy__tilemap.rel
                                          [ bg_title_copy__tilemap ]
/tmp/_gbsbuild/obj/bg_title_copy__tileset.rel
                                          [ bg_title_copy__tileset ]
/tmp/_gbsbuild/obj/bg_title_copy_.rel     [ bg_title_copy_ ]
/tmp/_gbsbuild/obj/bg_title_copy_0_tilemap_attr.rel
                                          [ bg_title_copy_0_tilemap_attr ]
/tmp/_gbsbuild/obj/bg_title_copy_0_tilemap.rel
                                          [ bg_title_copy_0_tilemap ]
/tmp/_gbsbuild/obj/bg_title_copy_0_tileset.rel
                                          [ bg_title_copy_0_tileset ]
/tmp/_gbsbuild/obj/bg_title_copy_0.rel    [ bg_title_copy_0 ]
/tmp/_gbsbuild/obj/bg_title_copy_1_tilemap_attr.rel
                                          [ bg_title_copy_1_tilemap_attr ]
/tmp/_gbsbuild/obj/bg_title_copy_1_tilemap.rel
                                          [ bg_title_copy_1_tilemap ]
/tmp/_gbsbuild/obj/bg_title_copy_1_tileset.rel
                                          [ bg_title_copy_1_tileset ]
/tmp/_gbsbuild/obj/bg_title_copy_1.rel    [ bg_title_copy_1 ]
/tmp/_gbsbuild/obj/bg_title_copy_2_tilemap_attr.rel
                                          [ bg_title_copy_2_tilemap_attr ]
/tmp/_gbsbuild/obj/bg_title_copy_2_tilemap.rel
                                          [ bg_title_copy_2_tilemap ]
/tmp/_gbsbuild/obj/bg_title_copy_2_tileset.rel
                                          [ bg_title_copy_2_tileset ]
/tmp/_gbsbuild/obj/bg_title_copy_2.rel    [ bg_title_copy_2 ]
/tmp/_gbsbuild/obj/bg_title_tilemap_attr.rel
                                          [ bg_title_tilemap_attr ]
/tmp/_gbsbuild/obj/bg_title_tilemap.rel   [ bg_title_tilemap ]
/tmp/_gbsbuild/obj/bg_title_tileset.rel   [ bg_title_tileset ]
/tmp/_gbsbuild/obj/bg_title.rel           [ bg_title ]
/tmp/_gbsbuild/obj/bg_wakeupsquare_1_tilemap_attr.rel
                                          [ bg_wakeupsquare_1_tilemap_attr ]
/tmp/_gbsbuild/obj/bg_wakeupsquare_1_tilemap.rel
                                          [ bg_wakeupsquare_1_tilemap ]
/tmp/_gbsbuild/obj/bg_wakeupsquare_1_tileset.rel
                                          [ bg_wakeupsquare_1_tileset ]
/tmp/_gbsbuild/obj/bg_wakeupsquare_1.rel  [ bg_wakeupsquare_1 ]
/tmp/_gbsbuild/obj/bg_wakeupsquare_3_copy__tilemap_attr.rel
                                          [ bg_wakeupsquare_3_copy__tilemap_ ]
/tmp/_gbsbuild/obj/bg_wakeupsquare_3_copy__tilemap.rel
                                          [ bg_wakeupsquare_3_copy__tilemap ]
/tmp/_gbsbuild/obj/bg_wakeupsquare_3_copy__tileset.rel
                                          [ bg_wakeupsquare_3_copy__tileset ]
/tmp/_gbsbuild/obj/bg_wakeupsquare_3_copy_.rel
                                          [ bg_wakeupsquare_3_copy_ ]
/tmp/_gbsbuild/obj/border.rel             [ border ]
/tmp/_gbsbuild/obj/cursor_image.rel       [ cursor_image ]
/tmp/_gbsbuild/obj/emote_shock.rel        [ emote_shock ]
/tmp/_gbsbuild/obj/font_gbs_variable_width.rel
                                          [ font_gbs_variable_width ]
/tmp/_gbsbuild/obj/frame_image.rel        [ frame_image ]
/tmp/_gbsbuild/obj/game_signature.rel     [ game_signature ]
/tmp/_gbsbuild/obj/palette_0.rel          [ palette_0 ]
/tmp/_gbsbuild/obj/palette_1.rel          [ palette_1 ]
/tmp/_gbsbuild/obj/palette_10.rel         [ palette_10 ]
/tmp/_gbsbuild/obj/palette_11.rel         [ palette_11 ]
/tmp/_gbsbuild/obj/palette_12.rel         [ palette_12 ]
/tmp/_gbsbuild/obj/palette_13.rel         [ palette_13 ]
/tmp/_gbsbuild/obj/palette_14.rel         [ palette_14 ]
/tmp/_gbsbuild/obj/palette_15.rel         [ palette_15 ]
/tmp/_gbsbuild/obj/palette_16.rel         [ palette_16 ]
/tmp/_gbsbuild/obj/palette_17.rel         [ palette_17 ]
/tmp/_gbsbuild/obj/palette_18.rel         [ palette_18 ]
/tmp/_gbsbuild/obj/palette_19.rel         [ palette_19 ]
/tmp/_gbsbuild/obj/palette_2.rel          [ palette_2 ]
/tmp/_gbsbuild/obj/palette_20.rel         [ palette_20 ]
/tmp/_gbsbuild/obj/palette_21.rel         [ palette_21 ]
/tmp/_gbsbuild/obj/palette_22.rel         [ palette_22 ]
/tmp/_gbsbuild/obj/palette_23.rel         [ palette_23 ]
/tmp/_gbsbuild/obj/palette_24.rel         [ palette_24 ]
/tmp/_gbsbuild/obj/palette_25.rel         [ palette_25 ]
/tmp/_gbsbuild/obj/palette_26.rel         [ palette_26 ]
/tmp/_gbsbuild/obj/palette_27.rel         [ palette_27 ]
/tmp/_gbsbuild/obj/palette_28.rel         [ palette_28 ]
/tmp/_gbsbuild/obj/palette_29.rel         [ palette_29 ]
/tmp/_gbsbuild/obj/palette_3.rel          [ palette_3 ]
/tmp/_gbsbuild/obj/palette_30.rel         [ palette_30 ]
/tmp/_gbsbuild/obj/palette_31.rel         [ palette_31 ]
/tmp/_gbsbuild/obj/palette_32.rel         [ palette_32 ]
/tmp/_gbsbuild/obj/palette_33.rel         [ palette_33 ]
/tmp/_gbsbuild/obj/palette_34.rel         [ palette_34 ]
/tmp/_gbsbuild/obj/palette_35.rel         [ palette_35 ]
/tmp/_gbsbuild/obj/palette_36.rel         [ palette_36 ]
/tmp/_gbsbuild/obj/palette_37.rel         [ palette_37 ]
/tmp/_gbsbuild/obj/palette_38.rel         [ palette_38 ]
/tmp/_gbsbuild/obj/palette_39.rel         [ palette_39 ]
/tmp/_gbsbuild/obj/palette_4.rel          [ palette_4 ]
/tmp/_gbsbuild/obj/palette_40.rel         [ palette_40 ]
/tmp/_gbsbuild/obj/palette_41.rel         [ palette_41 ]
/tmp/_gbsbuild/obj/palette_42.rel         [ palette_42 ]
/tmp/_gbsbuild/obj/palette_43.rel         [ palette_43 ]
/tmp/_gbsbuild/obj/palette_44.rel         [ palette_44 ]
/tmp/_gbsbuild/obj/palette_45.rel         [ palette_45 ]
/tmp/_gbsbuild/obj/palette_46.rel         [ palette_46 ]
/tmp/_gbsbuild/obj/palette_47.rel         [ palette_47 ]
/tmp/_gbsbuild/obj/palette_48.rel         [ palette_48 ]
/tmp/_gbsbuild/obj/palette_49.rel         [ palette_49 ]
/tmp/_gbsbuild/obj/palette_5.rel          [ palette_5 ]
/tmp/_gbsbuild/obj/palette_50.rel         [ palette_50 ]
/tmp/_gbsbuild/obj/palette_51.rel         [ palette_51 ]
/tmp/_gbsbuild/obj/palette_52.rel         [ palette_52 ]
/tmp/_gbsbuild/obj/palette_53.rel         [ palette_53 ]
/tmp/_gbsbuild/obj/palette_54.rel         [ palette_54 ]
/tmp/_gbsbuild/obj/palette_55.rel         [ palette_55 ]
/tmp/_gbsbuild/obj/palette_56.rel         [ palette_56 ]
/tmp/_gbsbuild/obj/palette_57.rel         [ palette_57 ]
/tmp/_gbsbuild/obj/palette_58.rel         [ palette_58 ]
/tmp/_gbsbuild/obj/palette_59.rel         [ palette_59 ]
/tmp/_gbsbuild/obj/palette_6.rel          [ palette_6 ]
/tmp/_gbsbuild/obj/palette_60.rel         [ palette_60 ]
/tmp/_gbsbuild/obj/palette_61.rel         [ palette_61 ]
/tmp/_gbsbuild/obj/palette_62.rel         [ palette_62 ]
/tmp/_gbsbuild/obj/palette_63.rel         [ palette_63 ]
/tmp/_gbsbuild/obj/palette_64.rel         [ palette_64 ]
/tmp/_gbsbuild/obj/palette_65.rel         [ palette_65 ]
/tmp/_gbsbuild/obj/palette_7.rel          [ palette_7 ]
/tmp/_gbsbuild/obj/palette_8.rel          [ palette_8 ]
/tmp/_gbsbuild/obj/palette_9.rel          [ palette_9 ]
/tmp/_gbsbuild/obj/scene_0_collisions.rel
                                          [ scene_0_collisions ]
/tmp/_gbsbuild/obj/scene_0_init.rel       [ scene_0_init ]
/tmp/_gbsbuild/obj/scene_0_triggers.rel   [ scene_0_triggers ]
/tmp/_gbsbuild/obj/scene_0.rel            [ scene_0 ]
/tmp/_gbsbuild/obj/scene_1_collisions.rel
                                          [ scene_1_collisions ]
/tmp/_gbsbuild/obj/scene_1_init.rel       [ scene_1_init ]
/tmp/_gbsbuild/obj/scene_1.rel            [ scene_1 ]
/tmp/_gbsbuild/obj/scene_10_collisions.rel
                                          [ scene_10_collisions ]
/tmp/_gbsbuild/obj/scene_10_init.rel      [ scene_10_init ]
/tmp/_gbsbuild/obj/scene_10.rel           [ scene_10 ]
/tmp/_gbsbuild/obj/scene_100_collisions.rel
                                          [ scene_100_collisions ]
/tmp/_gbsbuild/obj/scene_100_init.rel     [ scene_100_init ]
/tmp/_gbsbuild/obj/scene_100.rel          [ scene_100 ]
/tmp/_gbsbuild/obj/scene_101_actors.rel   [ scene_101_actors ]
/tmp/_gbsbuild/obj/scene_101_collisions.rel
                                          [ scene_101_collisions ]
/tmp/_gbsbuild/obj/scene_101_init.rel     [ scene_101_init ]
/tmp/_gbsbuild/obj/scene_101_sprites.rel  [ scene_101_sprites ]
/tmp/_gbsbuild/obj/scene_101_triggers.rel
                                          [ scene_101_triggers ]
/tmp/_gbsbuild/obj/scene_101.rel          [ scene_101 ]
/tmp/_gbsbuild/obj/scene_11_collisions.rel
                                          [ scene_11_collisions ]
/tmp/_gbsbuild/obj/scene_11_init.rel      [ scene_11_init ]
/tmp/_gbsbuild/obj/scene_11.rel           [ scene_11 ]
/tmp/_gbsbuild/obj/scene_12_collisions.rel
                                          [ scene_12_collisions ]
/tmp/_gbsbuild/obj/scene_12_init.rel      [ scene_12_init ]
/tmp/_gbsbuild/obj/scene_12.rel           [ scene_12 ]
/tmp/_gbsbuild/obj/scene_13_collisions.rel
                                          [ scene_13_collisions ]
/tmp/_gbsbuild/obj/scene_13_init.rel      [ scene_13_init ]
/tmp/_gbsbuild/obj/scene_13.rel           [ scene_13 ]
/tmp/_gbsbuild/obj/scene_14_collisions.rel
                                          [ scene_14_collisions ]
/tmp/_gbsbuild/obj/scene_14_init.rel      [ scene_14_init ]
/tmp/_gbsbuild/obj/scene_14.rel           [ scene_14 ]
/tmp/_gbsbuild/obj/scene_15_collisions.rel
                                          [ scene_15_collisions ]
/tmp/_gbsbuild/obj/scene_15_init.rel      [ scene_15_init ]
/tmp/_gbsbuild/obj/scene_15_triggers.rel  [ scene_15_triggers ]
/tmp/_gbsbuild/obj/scene_15.rel           [ scene_15 ]
/tmp/_gbsbuild/obj/scene_16_collisions.rel
                                          [ scene_16_collisions ]
/tmp/_gbsbuild/obj/scene_16_init.rel      [ scene_16_init ]
/tmp/_gbsbuild/obj/scene_16.rel           [ scene_16 ]
/tmp/_gbsbuild/obj/scene_17_actors.rel    [ scene_17_actors ]
/tmp/_gbsbuild/obj/scene_17_collisions.rel
                                          [ scene_17_collisions ]
/tmp/_gbsbuild/obj/scene_17_init.rel      [ scene_17_init ]
/tmp/_gbsbuild/obj/scene_17_sprites.rel   [ scene_17_sprites ]
/tmp/_gbsbuild/obj/scene_17_triggers.rel  [ scene_17_triggers ]
/tmp/_gbsbuild/obj/scene_17.rel           [ scene_17 ]
/tmp/_gbsbuild/obj/scene_18_actors.rel    [ scene_18_actors ]
/tmp/_gbsbuild/obj/scene_18_collisions.rel
                                          [ scene_18_collisions ]
/tmp/_gbsbuild/obj/scene_18_init.rel      [ scene_18_init ]
/tmp/_gbsbuild/obj/scene_18_sprites.rel   [ scene_18_sprites ]
/tmp/_gbsbuild/obj/scene_18_triggers.rel  [ scene_18_triggers ]
/tmp/_gbsbuild/obj/scene_18.rel           [ scene_18 ]
/tmp/_gbsbuild/obj/scene_19_actors.rel    [ scene_19_actors ]
/tmp/_gbsbuild/obj/scene_19_collisions.rel
                                          [ scene_19_collisions ]
/tmp/_gbsbuild/obj/scene_19_init.rel      [ scene_19_init ]
/tmp/_gbsbuild/obj/scene_19_triggers.rel  [ scene_19_triggers ]
/tmp/_gbsbuild/obj/scene_19.rel           [ scene_19 ]
/tmp/_gbsbuild/obj/scene_2_actors.rel     [ scene_2_actors ]
/tmp/_gbsbuild/obj/scene_2_collisions.rel
                                          [ scene_2_collisions ]
/tmp/_gbsbuild/obj/scene_2_init.rel       [ scene_2_init ]
/tmp/_gbsbuild/obj/scene_2.rel            [ scene_2 ]
/tmp/_gbsbuild/obj/scene_20_actors.rel    [ scene_20_actors ]
/tmp/_gbsbuild/obj/scene_20_collisions.rel
                                          [ scene_20_collisions ]
/tmp/_gbsbuild/obj/scene_20_init.rel      [ scene_20_init ]
/tmp/_gbsbuild/obj/scene_20_sprites.rel   [ scene_20_sprites ]
/tmp/_gbsbuild/obj/scene_20_triggers.rel  [ scene_20_triggers ]
/tmp/_gbsbuild/obj/scene_20.rel           [ scene_20 ]
/tmp/_gbsbuild/obj/scene_21_collisions.rel
                                          [ scene_21_collisions ]
/tmp/_gbsbuild/obj/scene_21_init.rel      [ scene_21_init ]
/tmp/_gbsbuild/obj/scene_21.rel           [ scene_21 ]
/tmp/_gbsbuild/obj/scene_22_actors.rel    [ scene_22_actors ]
/tmp/_gbsbuild/obj/scene_22_collisions.rel
                                          [ scene_22_collisions ]
/tmp/_gbsbuild/obj/scene_22_init.rel      [ scene_22_init ]
/tmp/_gbsbuild/obj/scene_22_sprites.rel   [ scene_22_sprites ]
/tmp/_gbsbuild/obj/scene_22.rel           [ scene_22 ]
/tmp/_gbsbuild/obj/scene_23_collisions.rel
                                          [ scene_23_collisions ]
/tmp/_gbsbuild/obj/scene_23_init.rel      [ scene_23_init ]
/tmp/_gbsbuild/obj/scene_23.rel           [ scene_23 ]
/tmp/_gbsbuild/obj/scene_24_collisions.rel
                                          [ scene_24_collisions ]
/tmp/_gbsbuild/obj/scene_24_init.rel      [ scene_24_init ]
/tmp/_gbsbuild/obj/scene_24.rel           [ scene_24 ]
/tmp/_gbsbuild/obj/scene_25_collisions.rel
                                          [ scene_25_collisions ]
/tmp/_gbsbuild/obj/scene_25_init.rel      [ scene_25_init ]
/tmp/_gbsbuild/obj/scene_25.rel           [ scene_25 ]
/tmp/_gbsbuild/obj/scene_26_collisions.rel
                                          [ scene_26_collisions ]
/tmp/_gbsbuild/obj/scene_26_init.rel      [ scene_26_init ]
/tmp/_gbsbuild/obj/scene_26.rel           [ scene_26 ]
/tmp/_gbsbuild/obj/scene_27_collisions.rel
                                          [ scene_27_collisions ]
/tmp/_gbsbuild/obj/scene_27_init.rel      [ scene_27_init ]
/tmp/_gbsbuild/obj/scene_27_triggers.rel  [ scene_27_triggers ]
/tmp/_gbsbuild/obj/scene_27.rel           [ scene_27 ]
/tmp/_gbsbuild/obj/scene_28_collisions.rel
                                          [ scene_28_collisions ]
/tmp/_gbsbuild/obj/scene_28_init.rel      [ scene_28_init ]
/tmp/_gbsbuild/obj/scene_28_triggers.rel  [ scene_28_triggers ]
/tmp/_gbsbuild/obj/scene_28.rel           [ scene_28 ]
/tmp/_gbsbuild/obj/scene_29_collisions.rel
                                          [ scene_29_collisions ]
/tmp/_gbsbuild/obj/scene_29_init.rel      [ scene_29_init ]
/tmp/_gbsbuild/obj/scene_29_triggers.rel  [ scene_29_triggers ]
/tmp/_gbsbuild/obj/scene_29.rel           [ scene_29 ]
/tmp/_gbsbuild/obj/scene_3_actors.rel     [ scene_3_actors ]
/tmp/_gbsbuild/obj/scene_3_collisions.rel
                                          [ scene_3_collisions ]
/tmp/_gbsbuild/obj/scene_3_init.rel       [ scene_3_init ]
/tmp/_gbsbuild/obj/scene_3_sprites.rel    [ scene_3_sprites ]
/tmp/_gbsbuild/obj/scene_3.rel            [ scene_3 ]
/tmp/_gbsbuild/obj/scene_30_collisions.rel
                                          [ scene_30_collisions ]
/tmp/_gbsbuild/obj/scene_30_init.rel      [ scene_30_init ]
/tmp/_gbsbuild/obj/scene_30_triggers.rel  [ scene_30_triggers ]
/tmp/_gbsbuild/obj/scene_30.rel           [ scene_30 ]
/tmp/_gbsbuild/obj/scene_31_collisions.rel
                                          [ scene_31_collisions ]
/tmp/_gbsbuild/obj/scene_31_init.rel      [ scene_31_init ]
/tmp/_gbsbuild/obj/scene_31_triggers.rel  [ scene_31_triggers ]
/tmp/_gbsbuild/obj/scene_31.rel           [ scene_31 ]
/tmp/_gbsbuild/obj/scene_32_collisions.rel
                                          [ scene_32_collisions ]
/tmp/_gbsbuild/obj/scene_32_init.rel      [ scene_32_init ]
/tmp/_gbsbuild/obj/scene_32_triggers.rel  [ scene_32_triggers ]
/tmp/_gbsbuild/obj/scene_32.rel           [ scene_32 ]
/tmp/_gbsbuild/obj/scene_33_actors.rel    [ scene_33_actors ]
/tmp/_gbsbuild/obj/scene_33_collisions.rel
                                          [ scene_33_collisions ]
/tmp/_gbsbuild/obj/scene_33_init.rel      [ scene_33_init ]
/tmp/_gbsbuild/obj/scene_33_sprites.rel   [ scene_33_sprites ]
/tmp/_gbsbuild/obj/scene_33_triggers.rel  [ scene_33_triggers ]
/tmp/_gbsbuild/obj/scene_33.rel           [ scene_33 ]
/tmp/_gbsbuild/obj/scene_34_actors.rel    [ scene_34_actors ]
/tmp/_gbsbuild/obj/scene_34_collisions.rel
                                          [ scene_34_collisions ]
/tmp/_gbsbuild/obj/scene_34_init.rel      [ scene_34_init ]
/tmp/_gbsbuild/obj/scene_34_sprites.rel   [ scene_34_sprites ]
/tmp/_gbsbuild/obj/scene_34_triggers.rel  [ scene_34_triggers ]
/tmp/_gbsbuild/obj/scene_34.rel           [ scene_34 ]
/tmp/_gbsbuild/obj/scene_35_collisions.rel
                                          [ scene_35_collisions ]
/tmp/_gbsbuild/obj/scene_35_init.rel      [ scene_35_init ]
/tmp/_gbsbuild/obj/scene_35_triggers.rel  [ scene_35_triggers ]
/tmp/_gbsbuild/obj/scene_35.rel           [ scene_35 ]
/tmp/_gbsbuild/obj/scene_37_actors.rel    [ scene_37_actors ]
/tmp/_gbsbuild/obj/scene_37_collisions.rel
                                          [ scene_37_collisions ]
/tmp/_gbsbuild/obj/scene_37_init.rel      [ scene_37_init ]
/tmp/_gbsbuild/obj/scene_37_sprites.rel   [ scene_37_sprites ]
/tmp/_gbsbuild/obj/scene_37.rel           [ scene_37 ]
/tmp/_gbsbuild/obj/scene_38_collisions.rel
                                          [ scene_38_collisions ]
/tmp/_gbsbuild/obj/scene_38_init.rel      [ scene_38_init ]
/tmp/_gbsbuild/obj/scene_38.rel           [ scene_38 ]
/tmp/_gbsbuild/obj/scene_39_actors.rel    [ scene_39_actors ]
/tmp/_gbsbuild/obj/scene_39_collisions.rel
                                          [ scene_39_collisions ]
/tmp/_gbsbuild/obj/scene_39_init.rel      [ scene_39_init ]
/tmp/_gbsbuild/obj/scene_39_sprites.rel   [ scene_39_sprites ]
/tmp/_gbsbuild/obj/scene_39.rel           [ scene_39 ]
/tmp/_gbsbuild/obj/scene_4_collisions.rel
                                          [ scene_4_collisions ]
/tmp/_gbsbuild/obj/scene_4_init.rel       [ scene_4_init ]
/tmp/_gbsbuild/obj/scene_4.rel            [ scene_4 ]
/tmp/_gbsbuild/obj/scene_40_collisions.rel
                                          [ scene_40_collisions ]
/tmp/_gbsbuild/obj/scene_40_init.rel      [ scene_40_init ]
/tmp/_gbsbuild/obj/scene_40_triggers.rel  [ scene_40_triggers ]
/tmp/_gbsbuild/obj/scene_40.rel           [ scene_40 ]
/tmp/_gbsbuild/obj/scene_41_collisions.rel
                                          [ scene_41_collisions ]
/tmp/_gbsbuild/obj/scene_41_init.rel      [ scene_41_init ]
/tmp/_gbsbuild/obj/scene_41_triggers.rel  [ scene_41_triggers ]
/tmp/_gbsbuild/obj/scene_41.rel           [ scene_41 ]
/tmp/_gbsbuild/obj/scene_42_collisions.rel
                                          [ scene_42_collisions ]
/tmp/_gbsbuild/obj/scene_42_init.rel      [ scene_42_init ]
/tmp/_gbsbuild/obj/scene_42_triggers.rel  [ scene_42_triggers ]
/tmp/_gbsbuild/obj/scene_42.rel           [ scene_42 ]
/tmp/_gbsbuild/obj/scene_43_collisions.rel
                                          [ scene_43_collisions ]
/tmp/_gbsbuild/obj/scene_43_init.rel      [ scene_43_init ]
/tmp/_gbsbuild/obj/scene_43_triggers.rel  [ scene_43_triggers ]
/tmp/_gbsbuild/obj/scene_43.rel           [ scene_43 ]
/tmp/_gbsbuild/obj/scene_44_collisions.rel
                                          [ scene_44_collisions ]
/tmp/_gbsbuild/obj/scene_44_init.rel      [ scene_44_init ]
/tmp/_gbsbuild/obj/scene_44_triggers.rel  [ scene_44_triggers ]
/tmp/_gbsbuild/obj/scene_44.rel           [ scene_44 ]
/tmp/_gbsbuild/obj/scene_45_actors.rel    [ scene_45_actors ]
/tmp/_gbsbuild/obj/scene_45_collisions.rel
                                          [ scene_45_collisions ]
/tmp/_gbsbuild/obj/scene_45_init.rel      [ scene_45_init ]
/tmp/_gbsbuild/obj/scene_45_sprites.rel   [ scene_45_sprites ]
/tmp/_gbsbuild/obj/scene_45_triggers.rel  [ scene_45_triggers ]
/tmp/_gbsbuild/obj/scene_45.rel           [ scene_45 ]
/tmp/_gbsbuild/obj/scene_46_actors.rel    [ scene_46_actors ]
/tmp/_gbsbuild/obj/scene_46_collisions.rel
                                          [ scene_46_collisions ]
/tmp/_gbsbuild/obj/scene_46_init.rel      [ scene_46_init ]
/tmp/_gbsbuild/obj/scene_46_p_hit1.rel    [ scene_46_p_hit1 ]
/tmp/_gbsbuild/obj/scene_46_projectiles.rel
                                          [ scene_46_projectiles ]
/tmp/_gbsbuild/obj/scene_46_sprites.rel   [ scene_46_sprites ]
/tmp/_gbsbuild/obj/scene_46_triggers.rel  [ scene_46_triggers ]
/tmp/_gbsbuild/obj/scene_46.rel           [ scene_46 ]
/tmp/_gbsbuild/obj/scene_47_collisions.rel
                                          [ scene_47_collisions ]
/tmp/_gbsbuild/obj/scene_47_init.rel      [ scene_47_init ]
/tmp/_gbsbuild/obj/scene_47.rel           [ scene_47 ]
/tmp/_gbsbuild/obj/scene_48_actors.rel    [ scene_48_actors ]
/tmp/_gbsbuild/obj/scene_48_collisions.rel
                                          [ scene_48_collisions ]
/tmp/_gbsbuild/obj/scene_48_init.rel      [ scene_48_init ]
/tmp/_gbsbuild/obj/scene_48_p_hit1.rel    [ scene_48_p_hit1 ]
/tmp/_gbsbuild/obj/scene_48_projectiles.rel
                                          [ scene_48_projectiles ]
/tmp/_gbsbuild/obj/scene_48_sprites.rel   [ scene_48_sprites ]
/tmp/_gbsbuild/obj/scene_48_triggers.rel  [ scene_48_triggers ]
/tmp/_gbsbuild/obj/scene_48.rel           [ scene_48 ]
/tmp/_gbsbuild/obj/scene_49_actors.rel    [ scene_49_actors ]
/tmp/_gbsbuild/obj/scene_49_collisions.rel
                                          [ scene_49_collisions ]
/tmp/_gbsbuild/obj/scene_49_init.rel      [ scene_49_init ]
/tmp/_gbsbuild/obj/scene_49_p_hit1.rel    [ scene_49_p_hit1 ]
/tmp/_gbsbuild/obj/scene_49_projectiles.rel
                                          [ scene_49_projectiles ]
/tmp/_gbsbuild/obj/scene_49_sprites.rel   [ scene_49_sprites ]
/tmp/_gbsbuild/obj/scene_49_triggers.rel  [ scene_49_triggers ]
/tmp/_gbsbuild/obj/scene_49.rel           [ scene_49 ]
/tmp/_gbsbuild/obj/scene_5_collisions.rel
                                          [ scene_5_collisions ]
/tmp/_gbsbuild/obj/scene_5_init.rel       [ scene_5_init ]
/tmp/_gbsbuild/obj/scene_5.rel            [ scene_5 ]
/tmp/_gbsbuild/obj/scene_50_actors.rel    [ scene_50_actors ]
/tmp/_gbsbuild/obj/scene_50_collisions.rel
                                          [ scene_50_collisions ]
/tmp/_gbsbuild/obj/scene_50_init.rel      [ scene_50_init ]
/tmp/_gbsbuild/obj/scene_50_projectiles.rel
                                          [ scene_50_projectiles ]
/tmp/_gbsbuild/obj/scene_50_sprites.rel   [ scene_50_sprites ]
/tmp/_gbsbuild/obj/scene_50_triggers.rel  [ scene_50_triggers ]
/tmp/_gbsbuild/obj/scene_50.rel           [ scene_50 ]
/tmp/_gbsbuild/obj/scene_51_actors.rel    [ scene_51_actors ]
/tmp/_gbsbuild/obj/scene_51_collisions.rel
                                          [ scene_51_collisions ]
/tmp/_gbsbuild/obj/scene_51_init.rel      [ scene_51_init ]
/tmp/_gbsbuild/obj/scene_51_sprites.rel   [ scene_51_sprites ]
/tmp/_gbsbuild/obj/scene_51_triggers.rel  [ scene_51_triggers ]
/tmp/_gbsbuild/obj/scene_51.rel           [ scene_51 ]
/tmp/_gbsbuild/obj/scene_52_actors.rel    [ scene_52_actors ]
/tmp/_gbsbuild/obj/scene_52_collisions.rel
                                          [ scene_52_collisions ]
/tmp/_gbsbuild/obj/scene_52_init.rel      [ scene_52_init ]
/tmp/_gbsbuild/obj/scene_52_sprites.rel   [ scene_52_sprites ]
/tmp/_gbsbuild/obj/scene_52.rel           [ scene_52 ]
/tmp/_gbsbuild/obj/scene_53_actors.rel    [ scene_53_actors ]
/tmp/_gbsbuild/obj/scene_53_collisions.rel
                                          [ scene_53_collisions ]
/tmp/_gbsbuild/obj/scene_53_init.rel      [ scene_53_init ]
/tmp/_gbsbuild/obj/scene_53_sprites.rel   [ scene_53_sprites ]
/tmp/_gbsbuild/obj/scene_53_triggers.rel  [ scene_53_triggers ]
/tmp/_gbsbuild/obj/scene_53.rel           [ scene_53 ]
/tmp/_gbsbuild/obj/scene_54_actors.rel    [ scene_54_actors ]
/tmp/_gbsbuild/obj/scene_54_collisions.rel
                                          [ scene_54_collisions ]
/tmp/_gbsbuild/obj/scene_54_init.rel      [ scene_54_init ]
/tmp/_gbsbuild/obj/scene_54_sprites.rel   [ scene_54_sprites ]
/tmp/_gbsbuild/obj/scene_54_triggers.rel  [ scene_54_triggers ]
/tmp/_gbsbuild/obj/scene_54.rel           [ scene_54 ]
/tmp/_gbsbuild/obj/scene_55_collisions.rel
                                          [ scene_55_collisions ]
/tmp/_gbsbuild/obj/scene_55_init.rel      [ scene_55_init ]
/tmp/_gbsbuild/obj/scene_55_triggers.rel  [ scene_55_triggers ]
/tmp/_gbsbuild/obj/scene_55.rel           [ scene_55 ]
/tmp/_gbsbuild/obj/scene_56_collisions.rel
                                          [ scene_56_collisions ]
/tmp/_gbsbuild/obj/scene_56_init.rel      [ scene_56_init ]
/tmp/_gbsbuild/obj/scene_56_triggers.rel  [ scene_56_triggers ]
/tmp/_gbsbuild/obj/scene_56.rel           [ scene_56 ]
/tmp/_gbsbuild/obj/scene_57_collisions.rel
                                          [ scene_57_collisions ]
/tmp/_gbsbuild/obj/scene_57_init.rel      [ scene_57_init ]
/tmp/_gbsbuild/obj/scene_57_triggers.rel  [ scene_57_triggers ]
/tmp/_gbsbuild/obj/scene_57.rel           [ scene_57 ]
/tmp/_gbsbuild/obj/scene_58_actors.rel    [ scene_58_actors ]
/tmp/_gbsbuild/obj/scene_58_collisions.rel
                                          [ scene_58_collisions ]
/tmp/_gbsbuild/obj/scene_58_init.rel      [ scene_58_init ]
/tmp/_gbsbuild/obj/scene_58_sprites.rel   [ scene_58_sprites ]
/tmp/_gbsbuild/obj/scene_58_triggers.rel  [ scene_58_triggers ]
/tmp/_gbsbuild/obj/scene_58.rel           [ scene_58 ]
/tmp/_gbsbuild/obj/scene_59_collisions.rel
                                          [ scene_59_collisions ]
/tmp/_gbsbuild/obj/scene_59_init.rel      [ scene_59_init ]
/tmp/_gbsbuild/obj/scene_59_triggers.rel  [ scene_59_triggers ]
/tmp/_gbsbuild/obj/scene_59.rel           [ scene_59 ]
/tmp/_gbsbuild/obj/scene_6_collisions.rel
                                          [ scene_6_collisions ]
/tmp/_gbsbuild/obj/scene_6_init.rel       [ scene_6_init ]
/tmp/_gbsbuild/obj/scene_6.rel            [ scene_6 ]
/tmp/_gbsbuild/obj/scene_60_actors.rel    [ scene_60_actors ]
/tmp/_gbsbuild/obj/scene_60_collisions.rel
                                          [ scene_60_collisions ]
/tmp/_gbsbuild/obj/scene_60_init.rel      [ scene_60_init ]
/tmp/_gbsbuild/obj/scene_60_sprites.rel   [ scene_60_sprites ]
/tmp/_gbsbuild/obj/scene_60_triggers.rel  [ scene_60_triggers ]
/tmp/_gbsbuild/obj/scene_60.rel           [ scene_60 ]
/tmp/_gbsbuild/obj/scene_61_actors.rel    [ scene_61_actors ]
/tmp/_gbsbuild/obj/scene_61_collisions.rel
                                          [ scene_61_collisions ]
/tmp/_gbsbuild/obj/scene_61_init.rel      [ scene_61_init ]
/tmp/_gbsbuild/obj/scene_61_sprites.rel   [ scene_61_sprites ]
/tmp/_gbsbuild/obj/scene_61_triggers.rel  [ scene_61_triggers ]
/tmp/_gbsbuild/obj/scene_61.rel           [ scene_61 ]
/tmp/_gbsbuild/obj/scene_62_collisions.rel
                                          [ scene_62_collisions ]
/tmp/_gbsbuild/obj/scene_62_init.rel      [ scene_62_init ]
/tmp/_gbsbuild/obj/scene_62_triggers.rel  [ scene_62_triggers ]
/tmp/_gbsbuild/obj/scene_62.rel           [ scene_62 ]
/tmp/_gbsbuild/obj/scene_63_collisions.rel
                                          [ scene_63_collisions ]
/tmp/_gbsbuild/obj/scene_63_init.rel      [ scene_63_init ]
/tmp/_gbsbuild/obj/scene_63_triggers.rel  [ scene_63_triggers ]
/tmp/_gbsbuild/obj/scene_63.rel           [ scene_63 ]
/tmp/_gbsbuild/obj/scene_64_actors.rel    [ scene_64_actors ]
/tmp/_gbsbuild/obj/scene_64_collisions.rel
                                          [ scene_64_collisions ]
/tmp/_gbsbuild/obj/scene_64_init.rel      [ scene_64_init ]
/tmp/_gbsbuild/obj/scene_64_sprites.rel   [ scene_64_sprites ]
/tmp/_gbsbuild/obj/scene_64_triggers.rel  [ scene_64_triggers ]
/tmp/_gbsbuild/obj/scene_64.rel           [ scene_64 ]
/tmp/_gbsbuild/obj/scene_65_collisions.rel
                                          [ scene_65_collisions ]
/tmp/_gbsbuild/obj/scene_65_init.rel      [ scene_65_init ]
/tmp/_gbsbuild/obj/scene_65_triggers.rel  [ scene_65_triggers ]
/tmp/_gbsbuild/obj/scene_65.rel           [ scene_65 ]
/tmp/_gbsbuild/obj/scene_66_collisions.rel
                                          [ scene_66_collisions ]
/tmp/_gbsbuild/obj/scene_66_init.rel      [ scene_66_init ]
/tmp/_gbsbuild/obj/scene_66_triggers.rel  [ scene_66_triggers ]
/tmp/_gbsbuild/obj/scene_66.rel           [ scene_66 ]
/tmp/_gbsbuild/obj/scene_67_collisions.rel
                                          [ scene_67_collisions ]
/tmp/_gbsbuild/obj/scene_67_init.rel      [ scene_67_init ]
/tmp/_gbsbuild/obj/scene_67_triggers.rel  [ scene_67_triggers ]
/tmp/_gbsbuild/obj/scene_67.rel           [ scene_67 ]
/tmp/_gbsbuild/obj/scene_68_collisions.rel
                                          [ scene_68_collisions ]
/tmp/_gbsbuild/obj/scene_68_init.rel      [ scene_68_init ]
/tmp/_gbsbuild/obj/scene_68_triggers.rel  [ scene_68_triggers ]
/tmp/_gbsbuild/obj/scene_68.rel           [ scene_68 ]
/tmp/_gbsbuild/obj/scene_69_collisions.rel
                                          [ scene_69_collisions ]
/tmp/_gbsbuild/obj/scene_69_init.rel      [ scene_69_init ]
/tmp/_gbsbuild/obj/scene_69.rel           [ scene_69 ]
/tmp/_gbsbuild/obj/scene_7_collisions.rel
                                          [ scene_7_collisions ]
/tmp/_gbsbuild/obj/scene_7_init.rel       [ scene_7_init ]
/tmp/_gbsbuild/obj/scene_7.rel            [ scene_7 ]
/tmp/_gbsbuild/obj/scene_70_collisions.rel
                                          [ scene_70_collisions ]
/tmp/_gbsbuild/obj/scene_70_init.rel      [ scene_70_init ]
/tmp/_gbsbuild/obj/scene_70_triggers.rel  [ scene_70_triggers ]
/tmp/_gbsbuild/obj/scene_70.rel           [ scene_70 ]
/tmp/_gbsbuild/obj/scene_71_actors.rel    [ scene_71_actors ]
/tmp/_gbsbuild/obj/scene_71_collisions.rel
                                          [ scene_71_collisions ]
/tmp/_gbsbuild/obj/scene_71_init.rel      [ scene_71_init ]
/tmp/_gbsbuild/obj/scene_71_sprites.rel   [ scene_71_sprites ]
/tmp/_gbsbuild/obj/scene_71_triggers.rel  [ scene_71_triggers ]
/tmp/_gbsbuild/obj/scene_71.rel           [ scene_71 ]
/tmp/_gbsbuild/obj/scene_72_collisions.rel
                                          [ scene_72_collisions ]
/tmp/_gbsbuild/obj/scene_72_init.rel      [ scene_72_init ]
/tmp/_gbsbuild/obj/scene_72_triggers.rel  [ scene_72_triggers ]
/tmp/_gbsbuild/obj/scene_72.rel           [ scene_72 ]
/tmp/_gbsbuild/obj/scene_73_actors.rel    [ scene_73_actors ]
/tmp/_gbsbuild/obj/scene_73_collisions.rel
                                          [ scene_73_collisions ]
/tmp/_gbsbuild/obj/scene_73_init.rel      [ scene_73_init ]
/tmp/_gbsbuild/obj/scene_73_sprites.rel   [ scene_73_sprites ]
/tmp/_gbsbuild/obj/scene_73.rel           [ scene_73 ]
/tmp/_gbsbuild/obj/scene_74_collisions.rel
                                          [ scene_74_collisions ]
/tmp/_gbsbuild/obj/scene_74_init.rel      [ scene_74_init ]
/tmp/_gbsbuild/obj/scene_74.rel           [ scene_74 ]
/tmp/_gbsbuild/obj/scene_75_collisions.rel
                                          [ scene_75_collisions ]
/tmp/_gbsbuild/obj/scene_75_init.rel      [ scene_75_init ]
/tmp/_gbsbuild/obj/scene_75_triggers.rel  [ scene_75_triggers ]
/tmp/_gbsbuild/obj/scene_75.rel           [ scene_75 ]
/tmp/_gbsbuild/obj/scene_76_actors.rel    [ scene_76_actors ]
/tmp/_gbsbuild/obj/scene_76_collisions.rel
                                          [ scene_76_collisions ]
/tmp/_gbsbuild/obj/scene_76_init.rel      [ scene_76_init ]
/tmp/_gbsbuild/obj/scene_76_sprites.rel   [ scene_76_sprites ]
/tmp/_gbsbuild/obj/scene_76_triggers.rel  [ scene_76_triggers ]
/tmp/_gbsbuild/obj/scene_76.rel           [ scene_76 ]
/tmp/_gbsbuild/obj/scene_77_collisions.rel
                                          [ scene_77_collisions ]
/tmp/_gbsbuild/obj/scene_77_init.rel      [ scene_77_init ]
/tmp/_gbsbuild/obj/scene_77_triggers.rel  [ scene_77_triggers ]
/tmp/_gbsbuild/obj/scene_77.rel           [ scene_77 ]
/tmp/_gbsbuild/obj/scene_78_collisions.rel
                                          [ scene_78_collisions ]
/tmp/_gbsbuild/obj/scene_78_init.rel      [ scene_78_init ]
/tmp/_gbsbuild/obj/scene_78_triggers.rel  [ scene_78_triggers ]
/tmp/_gbsbuild/obj/scene_78.rel           [ scene_78 ]
/tmp/_gbsbuild/obj/scene_79_collisions.rel
                                          [ scene_79_collisions ]
/tmp/_gbsbuild/obj/scene_79_init.rel      [ scene_79_init ]
/tmp/_gbsbuild/obj/scene_79_triggers.rel  [ scene_79_triggers ]
/tmp/_gbsbuild/obj/scene_79.rel           [ scene_79 ]
/tmp/_gbsbuild/obj/scene_8_collisions.rel
                                          [ scene_8_collisions ]
/tmp/_gbsbuild/obj/scene_8_init.rel       [ scene_8_init ]
/tmp/_gbsbuild/obj/scene_8.rel            [ scene_8 ]
/tmp/_gbsbuild/obj/scene_80_collisions.rel
                                          [ scene_80_collisions ]
/tmp/_gbsbuild/obj/scene_80_init.rel      [ scene_80_init ]
/tmp/_gbsbuild/obj/scene_80_triggers.rel  [ scene_80_triggers ]
/tmp/_gbsbuild/obj/scene_80.rel           [ scene_80 ]
/tmp/_gbsbuild/obj/scene_81_collisions.rel
                                          [ scene_81_collisions ]
/tmp/_gbsbuild/obj/scene_81_init.rel      [ scene_81_init ]
/tmp/_gbsbuild/obj/scene_81_triggers.rel  [ scene_81_triggers ]
/tmp/_gbsbuild/obj/scene_81.rel           [ scene_81 ]
/tmp/_gbsbuild/obj/scene_82_collisions.rel
                                          [ scene_82_collisions ]
/tmp/_gbsbuild/obj/scene_82_init.rel      [ scene_82_init ]
/tmp/_gbsbuild/obj/scene_82_triggers.rel  [ scene_82_triggers ]
/tmp/_gbsbuild/obj/scene_82.rel           [ scene_82 ]
/tmp/_gbsbuild/obj/scene_83_collisions.rel
                                          [ scene_83_collisions ]
/tmp/_gbsbuild/obj/scene_83_init.rel      [ scene_83_init ]
/tmp/_gbsbuild/obj/scene_83_triggers.rel  [ scene_83_triggers ]
/tmp/_gbsbuild/obj/scene_83.rel           [ scene_83 ]
/tmp/_gbsbuild/obj/scene_84_collisions.rel
                                          [ scene_84_collisions ]
/tmp/_gbsbuild/obj/scene_84_init.rel      [ scene_84_init ]
/tmp/_gbsbuild/obj/scene_84_triggers.rel  [ scene_84_triggers ]
/tmp/_gbsbuild/obj/scene_84.rel           [ scene_84 ]
/tmp/_gbsbuild/obj/scene_85_collisions.rel
                                          [ scene_85_collisions ]
/tmp/_gbsbuild/obj/scene_85_init.rel      [ scene_85_init ]
/tmp/_gbsbuild/obj/scene_85.rel           [ scene_85 ]
/tmp/_gbsbuild/obj/scene_86_actors.rel    [ scene_86_actors ]
/tmp/_gbsbuild/obj/scene_86_collisions.rel
                                          [ scene_86_collisions ]
/tmp/_gbsbuild/obj/scene_86_init.rel      [ scene_86_init ]
/tmp/_gbsbuild/obj/scene_86_sprites.rel   [ scene_86_sprites ]
/tmp/_gbsbuild/obj/scene_86_triggers.rel  [ scene_86_triggers ]
/tmp/_gbsbuild/obj/scene_86.rel           [ scene_86 ]
/tmp/_gbsbuild/obj/scene_87_collisions.rel
                                          [ scene_87_collisions ]
/tmp/_gbsbuild/obj/scene_87_init.rel      [ scene_87_init ]
/tmp/_gbsbuild/obj/scene_87.rel           [ scene_87 ]
/tmp/_gbsbuild/obj/scene_88_collisions.rel
                                          [ scene_88_collisions ]
/tmp/_gbsbuild/obj/scene_88_init.rel      [ scene_88_init ]
/tmp/_gbsbuild/obj/scene_88_triggers.rel  [ scene_88_triggers ]
/tmp/_gbsbuild/obj/scene_88.rel           [ scene_88 ]
/tmp/_gbsbuild/obj/scene_89_collisions.rel
                                          [ scene_89_collisions ]
/tmp/_gbsbuild/obj/scene_89_init.rel      [ scene_89_init ]
/tmp/_gbsbuild/obj/scene_89_triggers.rel  [ scene_89_triggers ]
/tmp/_gbsbuild/obj/scene_89.rel           [ scene_89 ]
/tmp/_gbsbuild/obj/scene_9_collisions.rel
                                          [ scene_9_collisions ]
/tmp/_gbsbuild/obj/scene_9_init.rel       [ scene_9_init ]
/tmp/_gbsbuild/obj/scene_9.rel            [ scene_9 ]
/tmp/_gbsbuild/obj/scene_90_actors.rel    [ scene_90_actors ]
/tmp/_gbsbuild/obj/scene_90_collisions.rel
                                          [ scene_90_collisions ]
/tmp/_gbsbuild/obj/scene_90_init.rel      [ scene_90_init ]
/tmp/_gbsbuild/obj/scene_90_sprites.rel   [ scene_90_sprites ]
/tmp/_gbsbuild/obj/scene_90_triggers.rel  [ scene_90_triggers ]
/tmp/_gbsbuild/obj/scene_90.rel           [ scene_90 ]
/tmp/_gbsbuild/obj/scene_91_actors.rel    [ scene_91_actors ]
/tmp/_gbsbuild/obj/scene_91_collisions.rel
                                          [ scene_91_collisions ]
/tmp/_gbsbuild/obj/scene_91_init.rel      [ scene_91_init ]
/tmp/_gbsbuild/obj/scene_91_sprites.rel   [ scene_91_sprites ]
/tmp/_gbsbuild/obj/scene_91_triggers.rel  [ scene_91_triggers ]
/tmp/_gbsbuild/obj/scene_91.rel           [ scene_91 ]
/tmp/_gbsbuild/obj/scene_92_actors.rel    [ scene_92_actors ]
/tmp/_gbsbuild/obj/scene_92_collisions.rel
                                          [ scene_92_collisions ]
/tmp/_gbsbuild/obj/scene_92_init.rel      [ scene_92_init ]
/tmp/_gbsbuild/obj/scene_92_sprites.rel   [ scene_92_sprites ]
/tmp/_gbsbuild/obj/scene_92.rel           [ scene_92 ]
/tmp/_gbsbuild/obj/scene_93_actors.rel    [ scene_93_actors ]
/tmp/_gbsbuild/obj/scene_93_collisions.rel
                                          [ scene_93_collisions ]
/tmp/_gbsbuild/obj/scene_93_init.rel      [ scene_93_init ]
/tmp/_gbsbuild/obj/scene_93_p_hit1.rel    [ scene_93_p_hit1 ]
/tmp/_gbsbuild/obj/scene_93_projectiles.rel
                                          [ scene_93_projectiles ]
/tmp/_gbsbuild/obj/scene_93_sprites.rel   [ scene_93_sprites ]
/tmp/_gbsbuild/obj/scene_93_triggers.rel  [ scene_93_triggers ]
/tmp/_gbsbuild/obj/scene_93.rel           [ scene_93 ]
/tmp/_gbsbuild/obj/scene_94_actors.rel    [ scene_94_actors ]
/tmp/_gbsbuild/obj/scene_94_collisions.rel
                                          [ scene_94_collisions ]
/tmp/_gbsbuild/obj/scene_94_init.rel      [ scene_94_init ]
/tmp/_gbsbuild/obj/scene_94_p_hit1.rel    [ scene_94_p_hit1 ]
/tmp/_gbsbuild/obj/scene_94_projectiles.rel
                                          [ scene_94_projectiles ]
/tmp/_gbsbuild/obj/scene_94_sprites.rel   [ scene_94_sprites ]
/tmp/_gbsbuild/obj/scene_94.rel           [ scene_94 ]
/tmp/_gbsbuild/obj/scene_95_collisions.rel
                                          [ scene_95_collisions ]
/tmp/_gbsbuild/obj/scene_95_init.rel      [ scene_95_init ]
/tmp/_gbsbuild/obj/scene_95.rel           [ scene_95 ]
/tmp/_gbsbuild/obj/scene_96_collisions.rel
                                          [ scene_96_collisions ]
/tmp/_gbsbuild/obj/scene_96_init.rel      [ scene_96_init ]
/tmp/_gbsbuild/obj/scene_96.rel           [ scene_96 ]
/tmp/_gbsbuild/obj/scene_97_collisions.rel
                                          [ scene_97_collisions ]
/tmp/_gbsbuild/obj/scene_97_init.rel      [ scene_97_init ]
/tmp/_gbsbuild/obj/scene_97.rel           [ scene_97 ]
/tmp/_gbsbuild/obj/scene_98_collisions.rel
                                          [ scene_98_collisions ]
/tmp/_gbsbuild/obj/scene_98_init.rel      [ scene_98_init ]
/tmp/_gbsbuild/obj/scene_98.rel           [ scene_98 ]
/tmp/_gbsbuild/obj/scene_99_actors.rel    [ scene_99_actors ]
/tmp/_gbsbuild/obj/scene_99_collisions.rel
                                          [ scene_99_collisions ]
/tmp/_gbsbuild/obj/scene_99_init.rel      [ scene_99_init ]
/tmp/_gbsbuild/obj/scene_99_sprites.rel   [ scene_99_sprites ]
/tmp/_gbsbuild/obj/scene_99.rel           [ scene_99 ]
/tmp/_gbsbuild/obj/script_engine_init.rel
                                          [  ]
/tmp/_gbsbuild/obj/script_input_0.rel     [ script_input_0 ]
/tmp/_gbsbuild/obj/script_input_1.rel     [ script_input_1 ]
/tmp/_gbsbuild/obj/script_input_10.rel    [ script_input_10 ]
/tmp/_gbsbuild/obj/script_input_11.rel    [ script_input_11 ]
/tmp/_gbsbuild/obj/script_input_12.rel    [ script_input_12 ]
/tmp/_gbsbuild/obj/script_input_13.rel    [ script_input_13 ]
/tmp/_gbsbuild/obj/script_input_14.rel    [ script_input_14 ]
/tmp/_gbsbuild/obj/script_input_2.rel     [ script_input_2 ]
/tmp/_gbsbuild/obj/script_input_3.rel     [ script_input_3 ]
/tmp/_gbsbuild/obj/script_input_4.rel     [ script_input_4 ]
/tmp/_gbsbuild/obj/script_input_5.rel     [ script_input_5 ]
/tmp/_gbsbuild/obj/script_input_6.rel     [ script_input_6 ]
/tmp/_gbsbuild/obj/script_input_7.rel     [ script_input_7 ]
/tmp/_gbsbuild/obj/script_input_8.rel     [ script_input_8 ]
/tmp/_gbsbuild/obj/script_input_9.rel     [ script_input_9 ]
/tmp/_gbsbuild/obj/script_timer_0.rel     [ script_timer_0 ]
/tmp/_gbsbuild/obj/script_timer_1.rel     [ script_timer_1 ]
/tmp/_gbsbuild/obj/script_timer_10.rel    [ script_timer_10 ]
/tmp/_gbsbuild/obj/script_timer_11.rel    [ script_timer_11 ]
/tmp/_gbsbuild/obj/script_timer_12.rel    [ script_timer_12 ]
/tmp/_gbsbuild/obj/script_timer_13.rel    [ script_timer_13 ]
/tmp/_gbsbuild/obj/script_timer_14.rel    [ script_timer_14 ]
/tmp/_gbsbuild/obj/script_timer_2.rel     [ script_timer_2 ]
/tmp/_gbsbuild/obj/script_timer_3.rel     [ script_timer_3 ]
/tmp/_gbsbuild/obj/script_timer_4.rel     [ script_timer_4 ]
/tmp/_gbsbuild/obj/script_timer_5.rel     [ script_timer_5 ]
/tmp/_gbsbuild/obj/script_timer_6.rel     [ script_timer_6 ]
/tmp/_gbsbuild/obj/script_timer_7.rel     [ script_timer_7 ]
/tmp/_gbsbuild/obj/script_timer_8.rel     [ script_timer_8 ]
/tmp/_gbsbuild/obj/script_timer_9.rel     [ script_timer_9 ]
/tmp/_gbsbuild/obj/sprite_blank_interactable_c_0_tileset.rel
                                          [ sprite_blank_interactable_c_0_ti ]
/tmp/_gbsbuild/obj/sprite_blank_interactable_c_0.rel
                                          [ sprite_blank_interactable_c_0 ]
/tmp/_gbsbuild/obj/sprite_blank_interactable_c_tileset.rel
                                          [ sprite_blank_interactable_c_tile ]
/tmp/_gbsbuild/obj/sprite_blank_interactable_c.rel
                                          [ sprite_blank_interactable_c ]
/tmp/_gbsbuild/obj/sprite_car_tileset.rel
                                          [ sprite_car_tileset ]
/tmp/_gbsbuild/obj/sprite_car.rel         [ sprite_car ]
/tmp/_gbsbuild/obj/sprite_cataa_tileset.rel
                                          [ sprite_cataa_tileset ]
/tmp/_gbsbuild/obj/sprite_cataa.rel       [ sprite_cataa ]
/tmp/_gbsbuild/obj/sprite_dhilly_5_level_copy__tileset.rel
                                          [ sprite_dhilly_5_level_copy__tile ]
/tmp/_gbsbuild/obj/sprite_dhilly_5_level_copy_.rel
                                          [ sprite_dhilly_5_level_copy_ ]
/tmp/_gbsbuild/obj/sprite_dhilly_bridge_intera_0_tileset.rel
                                          [ sprite_dhilly_bridge_intera_0_ti ]
/tmp/_gbsbuild/obj/sprite_dhilly_bridge_intera_0.rel
                                          [ sprite_dhilly_bridge_intera_0 ]
/tmp/_gbsbuild/obj/sprite_dhilly_bridge_intera_tileset.rel
                                          [ sprite_dhilly_bridge_intera_tile ]
/tmp/_gbsbuild/obj/sprite_dhilly_bridge_intera.rel
                                          [ sprite_dhilly_bridge_intera ]
/tmp/_gbsbuild/obj/sprite_dhilly_saveselect_co_0_tileset.rel
                                          [ sprite_dhilly_saveselect_co_0_ti ]
/tmp/_gbsbuild/obj/sprite_dhilly_saveselect_co_0.rel
                                          [ sprite_dhilly_saveselect_co_0 ]
/tmp/_gbsbuild/obj/sprite_dhilly_saveselect_co_1_tileset.rel
                                          [ sprite_dhilly_saveselect_co_1_ti ]
/tmp/_gbsbuild/obj/sprite_dhilly_saveselect_co_1.rel
                                          [ sprite_dhilly_saveselect_co_1 ]
/tmp/_gbsbuild/obj/sprite_dhilly_saveselect_co_tileset.rel
                                          [ sprite_dhilly_saveselect_co_tile ]
/tmp/_gbsbuild/obj/sprite_dhilly_saveselect_co.rel
                                          [ sprite_dhilly_saveselect_co ]
/tmp/_gbsbuild/obj/sprite_dhilly_saveselect_tileset.rel
                                          [ sprite_dhilly_saveselect_tileset ]
/tmp/_gbsbuild/obj/sprite_dhilly_saveselect.rel
                                          [ sprite_dhilly_saveselect ]
/tmp/_gbsbuild/obj/sprite_highlight_options_co_tileset.rel
                                          [ sprite_highlight_options_co_tile ]
/tmp/_gbsbuild/obj/sprite_highlight_options_co.rel
                                          [ sprite_highlight_options_co ]
/tmp/_gbsbuild/obj/sprite_iceos_cursor_copy_.rel
                                          [ sprite_iceos_cursor_copy_ ]
/tmp/_gbsbuild/obj/sprite_iceosapp_ctf_copy_0_tileset.rel
                                          [ sprite_iceosapp_ctf_copy_0_tiles ]
/tmp/_gbsbuild/obj/sprite_iceosapp_ctf_copy_0.rel
                                          [ sprite_iceosapp_ctf_copy_0 ]
/tmp/_gbsbuild/obj/sprite_iceosapp_pltfrmr_cop_tileset.rel
                                          [ sprite_iceosapp_pltfrmr_cop_tile ]
/tmp/_gbsbuild/obj/sprite_iceosapp_pltfrmr_cop.rel
                                          [ sprite_iceosapp_pltfrmr_cop ]
/tmp/_gbsbuild/obj/sprite_iceosapp_settings_co_tileset.rel
                                          [ sprite_iceosapp_settings_co_tile ]
/tmp/_gbsbuild/obj/sprite_iceosapp_settings_co.rel
                                          [ sprite_iceosapp_settings_co ]
/tmp/_gbsbuild/obj/sprite_iceosapp_wveruner_co_tileset.rel
                                          [ sprite_iceosapp_wveruner_co_tile ]
/tmp/_gbsbuild/obj/sprite_iceosapp_wveruner_co.rel
                                          [ sprite_iceosapp_wveruner_co ]
/tmp/_gbsbuild/obj/sprite_knife_down_copy__tileset.rel
                                          [ sprite_knife_down_copy__tileset ]
/tmp/_gbsbuild/obj/sprite_knife_down_copy_.rel
                                          [ sprite_knife_down_copy_ ]
/tmp/_gbsbuild/obj/sprite_len_city_dhilly_hous.rel
                                          [ sprite_len_city_dhilly_hous ]
/tmp/_gbsbuild/obj/sprite_mzdesigns_tileset.rel
                                          [ sprite_mzdesigns_tileset ]
/tmp/_gbsbuild/obj/sprite_mzdesigns.rel   [ sprite_mzdesigns ]
/tmp/_gbsbuild/obj/sprite_piece_dhilly3_ver_co_tileset.rel
                                          [ sprite_piece_dhilly3_ver_co_tile ]
/tmp/_gbsbuild/obj/sprite_piece_dhilly3_ver_co.rel
                                          [ sprite_piece_dhilly3_ver_co ]
/tmp/_gbsbuild/obj/sprite_piece_dhilly3_ver_tileset.rel
                                          [ sprite_piece_dhilly3_ver_tileset ]
/tmp/_gbsbuild/obj/sprite_piece_dhilly3_ver.rel
                                          [ sprite_piece_dhilly3_ver ]
/tmp/_gbsbuild/obj/sprite_pixelperfectvoti_cop_tileset.rel
                                          [ sprite_pixelperfectvoti_cop_tile ]
/tmp/_gbsbuild/obj/sprite_pixelperfectvoti_cop.rel
                                          [ sprite_pixelperfectvoti_cop ]
/tmp/_gbsbuild/obj/sprite_pixelperfectvoti_tileset.rel
                                          [ sprite_pixelperfectvoti_tileset ]
/tmp/_gbsbuild/obj/sprite_pixelperfectvoti.rel
                                          [ sprite_pixelperfectvoti ]
/tmp/_gbsbuild/obj/sprite_shapiro_tileset.rel
                                          [ sprite_shapiro_tileset ]
/tmp/_gbsbuild/obj/sprite_shapiro.rel     [ sprite_shapiro ]
/tmp/_gbsbuild/obj/sprite_square_cart_copy__tileset.rel
                                          [ sprite_square_cart_copy__tileset ]
/tmp/_gbsbuild/obj/sprite_square_cart_copy_.rel
                                          [ sprite_square_cart_copy_ ]
/tmp/_gbsbuild/obj/sprite_square_full_hitbox_c_1_tileset.rel
                                          [ sprite_square_full_hitbox_c_1_ti ]
/tmp/_gbsbuild/obj/sprite_square_full_hitbox_c_1.rel
                                          [ sprite_square_full_hitbox_c_1 ]
/tmp/_gbsbuild/obj/sprite_square_full_hitbox_c_2_tileset.rel
                                          [ sprite_square_full_hitbox_c_2_ti ]
/tmp/_gbsbuild/obj/sprite_square_full_hitbox_c_2.rel
                                          [ sprite_square_full_hitbox_c_2 ]
/tmp/_gbsbuild/obj/sprite_square_full_hitbox_c_3_tileset.rel
                                          [ sprite_square_full_hitbox_c_3_ti ]
/tmp/_gbsbuild/obj/sprite_square_full_hitbox_c_3.rel
                                          [ sprite_square_full_hitbox_c_3 ]
/tmp/_gbsbuild/obj/sprite_square_full_hitbox_c_4_tileset.rel
                                          [ sprite_square_full_hitbox_c_4_ti ]
/tmp/_gbsbuild/obj/sprite_square_full_hitbox_c_4.rel
                                          [ sprite_square_full_hitbox_c_4 ]
/tmp/_gbsbuild/obj/sprite_square_full_hitbox_c_5_tileset.rel
                                          [ sprite_square_full_hitbox_c_5_ti ]
/tmp/_gbsbuild/obj/sprite_square_full_hitbox_c_5.rel
                                          [ sprite_square_full_hitbox_c_5 ]
/tmp/_gbsbuild/obj/sprite_square_full_hitbox_c_tileset.rel
                                          [ sprite_square_full_hitbox_c_tile ]
/tmp/_gbsbuild/obj/sprite_square_full_hitbox_c.rel
                                          [ sprite_square_full_hitbox_c ]
/tmp/_gbsbuild/obj/sprite_square_platforming_c_tileset.rel
                                          [ sprite_square_platforming_c_tile ]
/tmp/_gbsbuild/obj/sprite_square_platforming_c.rel
                                          [ sprite_square_platforming_c ]
/tmp/_gbsbuild/obj/sprite_static_copy_0_tileset.rel
                                          [ sprite_static_copy_0_tileset ]
/tmp/_gbsbuild/obj/sprite_static_copy_0.rel
                                          [ sprite_static_copy_0 ]
/tmp/_gbsbuild/obj/sprite_static_copy_tileset.rel
                                          [ sprite_static_copy_tileset ]
/tmp/_gbsbuild/obj/sprite_static_copy.rel
                                          [ sprite_static_copy ]
/tmp/_gbsbuild/obj/spritesheet_none.rel   [ spritesheet_none ]
/tmp/_gbsbuild/obj/trigger_0_interact.rel
                                          [ trigger_0_interact ]
/tmp/_gbsbuild/obj/trigger_1_interact.rel
                                          [ trigger_1_interact ]
/tmp/_gbsbuild/obj/trigger_10_interact.rel
                                          [ trigger_10_interact ]
/tmp/_gbsbuild/obj/trigger_100_interact.rel
                                          [ trigger_100_interact ]
/tmp/_gbsbuild/obj/trigger_101_interact.rel
                                          [ trigger_101_interact ]
/tmp/_gbsbuild/obj/trigger_102_interact.rel
                                          [ trigger_102_interact ]
/tmp/_gbsbuild/obj/trigger_103_interact.rel
                                          [ trigger_103_interact ]
/tmp/_gbsbuild/obj/trigger_104_interact.rel
                                          [ trigger_104_interact ]
/tmp/_gbsbuild/obj/trigger_105_interact.rel
                                          [ trigger_105_interact ]
/tmp/_gbsbuild/obj/trigger_106_interact.rel
                                          [ trigger_106_interact ]
/tmp/_gbsbuild/obj/trigger_107_interact.rel
                                          [ trigger_107_interact ]
/tmp/_gbsbuild/obj/trigger_108_interact.rel
                                          [ trigger_108_interact ]
/tmp/_gbsbuild/obj/trigger_109_interact.rel
                                          [ trigger_109_interact ]
/tmp/_gbsbuild/obj/trigger_11_interact.rel
                                          [ trigger_11_interact ]
/tmp/_gbsbuild/obj/trigger_110_interact.rel
                                          [ trigger_110_interact ]
/tmp/_gbsbuild/obj/trigger_111_interact.rel
                                          [ trigger_111_interact ]
/tmp/_gbsbuild/obj/trigger_112_interact.rel
                                          [ trigger_112_interact ]
/tmp/_gbsbuild/obj/trigger_113_interact.rel
                                          [ trigger_113_interact ]
/tmp/_gbsbuild/obj/trigger_114_interact.rel
                                          [ trigger_114_interact ]
/tmp/_gbsbuild/obj/trigger_115_interact.rel
                                          [ trigger_115_interact ]
/tmp/_gbsbuild/obj/trigger_116_interact.rel
                                          [ trigger_116_interact ]
/tmp/_gbsbuild/obj/trigger_117_interact.rel
                                          [ trigger_117_interact ]
/tmp/_gbsbuild/obj/trigger_118_interact.rel
                                          [ trigger_118_interact ]
/tmp/_gbsbuild/obj/trigger_119_interact.rel
                                          [ trigger_119_interact ]
/tmp/_gbsbuild/obj/trigger_12_interact.rel
                                          [ trigger_12_interact ]
/tmp/_gbsbuild/obj/trigger_120_interact.rel
                                          [ trigger_120_interact ]
/tmp/_gbsbuild/obj/trigger_121_interact.rel
                                          [ trigger_121_interact ]
/tmp/_gbsbuild/obj/trigger_122_interact.rel
                                          [ trigger_122_interact ]
/tmp/_gbsbuild/obj/trigger_123_interact.rel
                                          [ trigger_123_interact ]
/tmp/_gbsbuild/obj/trigger_124_interact.rel
                                          [ trigger_124_interact ]
/tmp/_gbsbuild/obj/trigger_13_interact.rel
                                          [ trigger_13_interact ]
/tmp/_gbsbuild/obj/trigger_14_interact.rel
                                          [ trigger_14_interact ]
/tmp/_gbsbuild/obj/trigger_15_interact.rel
                                          [ trigger_15_interact ]
/tmp/_gbsbuild/obj/trigger_16_interact.rel
                                          [ trigger_16_interact ]
/tmp/_gbsbuild/obj/trigger_17_interact.rel
                                          [ trigger_17_interact ]
/tmp/_gbsbuild/obj/trigger_18_interact.rel
                                          [ trigger_18_interact ]
/tmp/_gbsbuild/obj/trigger_19_interact.rel
                                          [ trigger_19_interact ]
/tmp/_gbsbuild/obj/trigger_2_interact.rel
                                          [ trigger_2_interact ]
/tmp/_gbsbuild/obj/trigger_20_interact.rel
                                          [ trigger_20_interact ]
/tmp/_gbsbuild/obj/trigger_21_interact.rel
                                          [ trigger_21_interact ]
/tmp/_gbsbuild/obj/trigger_22_interact.rel
                                          [ trigger_22_interact ]
/tmp/_gbsbuild/obj/trigger_23_interact.rel
                                          [ trigger_23_interact ]
/tmp/_gbsbuild/obj/trigger_24_interact.rel
                                          [ trigger_24_interact ]
/tmp/_gbsbuild/obj/trigger_25_interact.rel
                                          [ trigger_25_interact ]
/tmp/_gbsbuild/obj/trigger_26_interact.rel
                                          [ trigger_26_interact ]
/tmp/_gbsbuild/obj/trigger_27_interact.rel
                                          [ trigger_27_interact ]
/tmp/_gbsbuild/obj/trigger_28_interact.rel
                                          [ trigger_28_interact ]
/tmp/_gbsbuild/obj/trigger_29_interact.rel
                                          [ trigger_29_interact ]
/tmp/_gbsbuild/obj/trigger_30_interact.rel
                                          [ trigger_30_interact ]
/tmp/_gbsbuild/obj/trigger_31_interact.rel
                                          [ trigger_31_interact ]
/tmp/_gbsbuild/obj/trigger_32_interact.rel
                                          [ trigger_32_interact ]
/tmp/_gbsbuild/obj/trigger_33_interact.rel
                                          [ trigger_33_interact ]
/tmp/_gbsbuild/obj/trigger_34_interact.rel
                                          [ trigger_34_interact ]
/tmp/_gbsbuild/obj/trigger_35_interact.rel
                                          [ trigger_35_interact ]
/tmp/_gbsbuild/obj/trigger_36_interact.rel
                                          [ trigger_36_interact ]
/tmp/_gbsbuild/obj/trigger_37_interact.rel
                                          [ trigger_37_interact ]
/tmp/_gbsbuild/obj/trigger_38_interact.rel
                                          [ trigger_38_interact ]
/tmp/_gbsbuild/obj/trigger_39_interact.rel
                                          [ trigger_39_interact ]
/tmp/_gbsbuild/obj/trigger_4_interact.rel
                                          [ trigger_4_interact ]
/tmp/_gbsbuild/obj/trigger_40_interact.rel
                                          [ trigger_40_interact ]
/tmp/_gbsbuild/obj/trigger_41_interact.rel
                                          [ trigger_41_interact ]
/tmp/_gbsbuild/obj/trigger_42_interact.rel
                                          [ trigger_42_interact ]
/tmp/_gbsbuild/obj/trigger_43_interact.rel
                                          [ trigger_43_interact ]
/tmp/_gbsbuild/obj/trigger_44_interact.rel
                                          [ trigger_44_interact ]
/tmp/_gbsbuild/obj/trigger_45_interact.rel
                                          [ trigger_45_interact ]
/tmp/_gbsbuild/obj/trigger_46_interact.rel
                                          [ trigger_46_interact ]
/tmp/_gbsbuild/obj/trigger_47_interact.rel
                                          [ trigger_47_interact ]
/tmp/_gbsbuild/obj/trigger_48_interact.rel
                                          [ trigger_48_interact ]
/tmp/_gbsbuild/obj/trigger_5_interact.rel
                                          [ trigger_5_interact ]
/tmp/_gbsbuild/obj/trigger_50_interact.rel
                                          [ trigger_50_interact ]
/tmp/_gbsbuild/obj/trigger_51_interact.rel
                                          [ trigger_51_interact ]
/tmp/_gbsbuild/obj/trigger_52_interact.rel
                                          [ trigger_52_interact ]
/tmp/_gbsbuild/obj/trigger_53_interact.rel
                                          [ trigger_53_interact ]
/tmp/_gbsbuild/obj/trigger_54_interact.rel
                                          [ trigger_54_interact ]
/tmp/_gbsbuild/obj/trigger_55_interact.rel
                                          [ trigger_55_interact ]
/tmp/_gbsbuild/obj/trigger_56_interact.rel
                                          [ trigger_56_interact ]
/tmp/_gbsbuild/obj/trigger_57_interact.rel
                                          [ trigger_57_interact ]
/tmp/_gbsbuild/obj/trigger_58_interact.rel
                                          [ trigger_58_interact ]
/tmp/_gbsbuild/obj/trigger_59_interact.rel
                                          [ trigger_59_interact ]
/tmp/_gbsbuild/obj/trigger_6_interact.rel
                                          [ trigger_6_interact ]
/tmp/_gbsbuild/obj/trigger_60_interact.rel
                                          [ trigger_60_interact ]
/tmp/_gbsbuild/obj/trigger_61_interact.rel
                                          [ trigger_61_interact ]
/tmp/_gbsbuild/obj/trigger_62_interact.rel
                                          [ trigger_62_interact ]
/tmp/_gbsbuild/obj/trigger_63_interact.rel
                                          [ trigger_63_interact ]
/tmp/_gbsbuild/obj/trigger_64_interact.rel
                                          [ trigger_64_interact ]
/tmp/_gbsbuild/obj/trigger_65_interact.rel
                                          [ trigger_65_interact ]
/tmp/_gbsbuild/obj/trigger_66_interact.rel
                                          [ trigger_66_interact ]
/tmp/_gbsbuild/obj/trigger_67_interact.rel
                                          [ trigger_67_interact ]
/tmp/_gbsbuild/obj/trigger_68_interact.rel
                                          [ trigger_68_interact ]
/tmp/_gbsbuild/obj/trigger_69_interact.rel
                                          [ trigger_69_interact ]
/tmp/_gbsbuild/obj/trigger_7_interact.rel
                                          [ trigger_7_interact ]
/tmp/_gbsbuild/obj/trigger_70_interact.rel
                                          [ trigger_70_interact ]
/tmp/_gbsbuild/obj/trigger_71_interact.rel
                                          [ trigger_71_interact ]
/tmp/_gbsbuild/obj/trigger_72_interact.rel
                                          [ trigger_72_interact ]
/tmp/_gbsbuild/obj/trigger_73_interact.rel
                                          [ trigger_73_interact ]
/tmp/_gbsbuild/obj/trigger_74_interact.rel
                                          [ trigger_74_interact ]
/tmp/_gbsbuild/obj/trigger_75_interact.rel
                                          [ trigger_75_interact ]
/tmp/_gbsbuild/obj/trigger_76_interact.rel
                                          [ trigger_76_interact ]
/tmp/_gbsbuild/obj/trigger_77_interact.rel
                                          [ trigger_77_interact ]
/tmp/_gbsbuild/obj/trigger_78_interact.rel
                                          [ trigger_78_interact ]
/tmp/_gbsbuild/obj/trigger_79_interact.rel
                                          [ trigger_79_interact ]
/tmp/_gbsbuild/obj/trigger_8_interact.rel
                                          [ trigger_8_interact ]
/tmp/_gbsbuild/obj/trigger_80_interact.rel
                                          [ trigger_80_interact ]
/tmp/_gbsbuild/obj/trigger_81_interact.rel
                                          [ trigger_81_interact ]
/tmp/_gbsbuild/obj/trigger_82_interact.rel
                                          [ trigger_82_interact ]
/tmp/_gbsbuild/obj/trigger_83_interact.rel
                                          [ trigger_83_interact ]
/tmp/_gbsbuild/obj/trigger_84_interact.rel
                                          [ trigger_84_interact ]
/tmp/_gbsbuild/obj/trigger_85_interact.rel
                                          [ trigger_85_interact ]
/tmp/_gbsbuild/obj/trigger_86_interact.rel
                                          [ trigger_86_interact ]
/tmp/_gbsbuild/obj/trigger_87_interact.rel
                                          [ trigger_87_interact ]
/tmp/_gbsbuild/obj/trigger_88_interact.rel
                                          [ trigger_88_interact ]
/tmp/_gbsbuild/obj/trigger_89_interact.rel
                                          [ trigger_89_interact ]
/tmp/_gbsbuild/obj/trigger_9_interact.rel
                                          [ trigger_9_interact ]
/tmp/_gbsbuild/obj/trigger_90_interact.rel
                                          [ trigger_90_interact ]
/tmp/_gbsbuild/obj/trigger_91_interact.rel
                                          [ trigger_91_interact ]
/tmp/_gbsbuild/obj/trigger_92_interact.rel
                                          [ trigger_92_interact ]
/tmp/_gbsbuild/obj/trigger_93_interact.rel
                                          [ trigger_93_interact ]
/tmp/_gbsbuild/obj/trigger_94_interact.rel
                                          [ trigger_94_interact ]
/tmp/_gbsbuild/obj/trigger_95_interact.rel
                                          [ trigger_95_interact ]
/tmp/_gbsbuild/obj/trigger_96_interact.rel
                                          [ trigger_96_interact ]
/tmp/_gbsbuild/obj/trigger_97_interact.rel
                                          [ trigger_97_interact ]
/tmp/_gbsbuild/obj/trigger_98_interact.rel
                                          [ trigger_98_interact ]
/tmp/_gbsbuild/obj/trigger_99_interact.rel
                                          [ trigger_99_interact ]
/tmp/_gbsbuild/obj/main.rel               [ main ]
/tmp/_gbsbuild/obj/adventure.rel          [ adventure ]
/tmp/_gbsbuild/obj/logo.rel               [ logo ]
/tmp/_gbsbuild/obj/platform.rel           [ platform ]
/tmp/_gbsbuild/obj/pointnclick.rel        [ pointnclick ]
/tmp/_gbsbuild/obj/shmup.rel              [ shmup ]
/tmp/_gbsbuild/obj/states_ptrs.rel        [  ]
/tmp/_gbsbuild/obj/topdown.rel            [ topdown ]


Libraries Linked                          [ object file ]

/tmp/_gbstools/gbdk/lib/gb/gb.lib         [ fill_rect_wi.o ]
/tmp/_gbstools/gbdk/lib/sm83/sm83.lib     [ rand.o ]
lib/hUGEDriver.lib                        [ hUGEDriver.o ]
/tmp/_gbstools/gbdk/lib/gb/gb.lib         [ sfr.o ]
/tmp/_gbstools/gbdk/lib/gb/gb.lib         [ get_data.o ]
/tmp/_gbstools/gbdk/lib/gb/gb.lib         [ get_tile.o ]
/tmp/_gbstools/gbdk/lib/gb/gb.lib         [ cgb_palettes.o ]
/tmp/_gbstools/gbdk/lib/gb/gb.lib         [ metasprites_hide_spr.o ]
/tmp/_gbstools/gbdk/lib/sm83/sm83.lib     [ mul.o ]
/tmp/_gbstools/gbdk/lib/gb/gb.lib         [ set_tile.o ]
/tmp/_gbstools/gbdk/lib/sm83/sm83.lib     [ abs.o ]
/tmp/_gbstools/gbdk/lib/gb/gb.lib         [ set_wi_t.o ]
/tmp/_gbstools/gbdk/lib/gb/gb.lib         [ set_data.o ]
/tmp/_gbstools/gbdk/lib/sm83/sm83.lib     [ reverse.o ]
/tmp/_gbstools/gbdk/lib/gb/gb.lib         [ far_ptr.o ]
/tmp/_gbstools/gbdk/lib/gb/gb.lib         [ sgb.o ]
/tmp/_gbstools/gbdk/lib/gb/gb.lib         [ lcd.o ]
/tmp/_gbstools/gbdk/lib/gb/gb.lib         [ fill_rect.o ]
/tmp/_gbstools/gbdk/lib/gb/gb.lib         [ pad_ex.o ]
/tmp/_gbstools/gbdk/lib/gb/gb.lib         [ cpy_data.o ]
/tmp/_gbstools/gbdk/lib/gb/gb.lib         [ fill_rect_bk.o ]
/tmp/_gbstools/gbdk/lib/gb/gb.lib         [ metasprites.o ]
/tmp/_gbstools/gbdk/lib/sm83/sm83.lib     [ __sdcc_call_hl.o ]
/tmp/_gbstools/gbdk/lib/sm83/sm83.lib     [ memcpy.o ]
/tmp/_gbstools/gbdk/lib/sm83/sm83.lib     [ _memset.o ]
/tmp/_gbstools/gbdk/lib/gb/gb.lib         [ set_xy_t.o ]
/tmp/_gbstools/gbdk/lib/gb/gb.lib         [ ___sdcc_bcall_ehl.o ]
/tmp/_gbstools/gbdk/lib/gb/gb.lib         [ cgb.o ]
/tmp/_gbstools/gbdk/lib/sm83/sm83.lib     [ div.o ]
/tmp/_gbstools/gbdk/lib/gb/gb.lib         [ set_bk_t.o ]

ASxxxx Linker V03.00/V05.40 + sdld,  page 133.

User Base Address Definitions

_DATA=0xC0A0
_CODE=0x0200
ASxxxx Linker V03.00/V05.40 + sdld,  page 134.

User Global Definitions

.STACK=0xDF00
_shadow_OAM=0xC000
.refresh_OAM=0xFF80
__start_save=28

