ASxxxx Linker V03.00/V05.40 + sdld,  page 1.
Hexadecimal  [32-Bits]

Area                                    Addr        Size        Decimal Bytes (Attributes)
--------------------------------        ----        ----        ------- ----- ------------
.  .ABS.                            00000000    00000000 =           0. bytes (ABS,CON)

      Value  Global                              Global Defined In Module
      -----  --------------------------------   ------------------------
     00000000  .__.ABS.                           
     00000000  _rRAMG                             
     00000000  l__BASE                         
     00000000  l__BSS                          
     00000000  l__CABS                         
     00000000  l__CODE_0                       
     00000000  l__CRASH_HEADER                 
     00000000  l__CRASH_SCRATCH                
     00000000  l__DABS                         
     00000000  l__HEADER                       
     00000000  l__HEADER_LCD                   
     00000000  l__HEADER_SIO                   
     00000000  l__HEADER_TIMER                 
     00000000  l__HEAP                         
     00000000  l__HEAP_END                     
     00000000  l__HRAM                         
     00000000  l__LIT                          
     00000000  s__CABS                         
     00000000  s__CRASH_HEADER                 
     00000000  s__CRASH_HEADER0                
     00000000  s__CRASH_HEADER1                
     00000000  s__CRASH_SCRATCH                
     00000000  s__CRASH_SCRATCH2               
     00000000  s__DABS                         
     00000000  s__HEADER                       
     00000000  s__HEADER0                      
     00000000  s__HEADER1                      
     00000000  s__HEADER10                     
     00000000  s__HEADER11                     
     00000000  s__HEADER2                      
     00000000  s__HEADER3                      
     00000000  s__HEADER4                      
     00000000  s__HEADER5                      
     00000000  s__HEADER6                      
     00000000  s__HEADER7                      
     00000000  s__HEADER8                      
     00000000  s__HEADER9                      
     00000000  s__HEADER_LCD                   
     00000000  s__HEADER_LCD0                  
     00000000  s__HEADER_SIO                   
     00000000  s__HEADER_SIO0                  
     00000000  s__HEADER_TIMER                 
     00000000  s__HEADER_TIMER0                
     00000000  s__HEADERa                      
     00000000  s__HEADERb                      
     00000000  s__HEADERc                      
     00000000  s__HEADERd                      
     00000000  s__HEADERe                      
     00000000  s__HEADERf                      
     00000000  s__HRAM                         
ASxxxx Linker V03.00/V05.40 + sdld,  page 2.
Hexadecimal  [32-Bits]

Area                                    Addr        Size        Decimal Bytes (Attributes)
--------------------------------        ----        ----        ------- ----- ------------
.  .ABS.                            00000000    00000000 =           0. bytes (ABS,CON)

      Value  Global                              Global Defined In Module
      -----  --------------------------------   ------------------------
     00000000  s__HRAM12                       
     00000001  ___bank_VM_SGB                     vm_sgb
     00000001  ___bank_bg_lencityopen_tilemap_a   bg_lencityopen_tilemap_attr
     00000001  ___bank_scene_18_sprites           scene_18_sprites
     00000001  ___bank_script_input_6             script_input_6
     00000001  b_core_reset                       core
     00000001  b_core_run                         core
     00000001  b_ui_draw_frame                    ui
     00000001  b_ui_draw_text_buffer_char         ui
     00000001  b_ui_init                          ui
     00000001  b_ui_load_tiles                    ui
     00000001  b_ui_run_menu                      ui
     00000001  b_ui_run_modal                     ui
     00000001  b_ui_set_start_tile                ui
     00000001  l__GSFINAL                      
     00000001  l__HEADER0                      
     00000001  l__HEADER5                      
     00000001  l__HEADERa                      
     00000001  l__HEADERb                      
     00000001  l__HEADERc                      
     00000001  l__HEADERe                      
     00000001  l__HEADERf                      
     00000002  ___bank_bg_shillycityopen_copy_1   bg_shillycityopen_copy_1_til
     00000002  ___bank_scene_101_sprites          scene_101_sprites
     00000002  ___bank_song_newmegalovania_Data   song_newmegalovania_Data
     00000002  b_remove_LCD_ISRs                  interrupts
     00000002  l__HEADER10                     
     00000002  l__HEADER6                      
     00000002  l__HEADERd                      
     00000003  ___bank_bg_area_dhilly_city_lair   bg_area_dhilly_city_lair_la_
     00000003  ___bank_bg_controls_gb_copy__til   bg_controls_gb_copy__tileset
     00000003  ___bank_bg_lencityopen_tilemap     bg_lencityopen_tilemap
     00000003  ___bank_scene_93_sprites           scene_93_sprites
     00000003  l__HEADER9                      
     00000003  l__HEADER_LCD0                  
     00000003  l__HRAM12                       
     00000004  ___bank_bg_area_dhilly_city_lair   bg_area_dhilly_city_lair_la_
     00000004  ___bank_bg_controls_gba_copy__ti   bg_controls_gba_copy__tilese
     00000004  ___bank_scene_18_collisions        scene_18_collisions
     00000004  ___bank_scene_94_sprites           scene_94_sprites
     00000004  l__CRASH_HEADER1                
     00000004  l__HEADER_SIO0                  
     00000004  l__HEADER_TIMER0                
     00000005  ___bank_bg_controls_gba_copy_0_t   bg_controls_gba_copy_0_tiles
     00000005  ___bank_scene_101_triggers         scene_101_triggers
     00000005  ___bank_scene_34_collisions        scene_34_collisions
     00000005  ___bank_scene_65_collisions        scene_65_collisions
     00000005  l__CRASH_HEADER0                
     00000005  l__HEADER1                      
     00000006  ___bank_bg_controls_gbc_copy__ti   bg_controls_gbc_copy__tilese
     00000006  ___bank_bg_init_copy_1_tileset     bg_init_copy_1_tileset
ASxxxx Linker V03.00/V05.40 + sdld,  page 3.
Hexadecimal  [32-Bits]

Area                                    Addr        Size        Decimal Bytes (Attributes)
--------------------------------        ----        ----        ------- ----- ------------
.  .ABS.                            00000000    00000000 =           0. bytes (ABS,CON)

      Value  Global                              Global Defined In Module
      -----  --------------------------------   ------------------------
     00000006  ___bank_scene_34_init              scene_34_init
     00000006  ___bank_scene_58_collisions        scene_58_collisions
     00000006  l__HEADER8                      
     00000007  ___bank_bg_controls_mobile_copy_   bg_controls_mobile_copy__til
     00000007  ___bank_bg_lencityopen_copy__til   bg_lencityopen_copy__tileset
     00000007  ___bank_scene_58_init              scene_58_init
     00000007  ___bank_scene_62_collisions        scene_62_collisions
     00000007  l__HEADER2                      
     00000008  ___bank_SGB_border_chr             border
     00000008  ___bank_SGB_border_map             border
     00000008  ___bank_SGB_border_pal             border
     00000008  ___bank_actor_31_interact          actor_31_interact
     00000008  ___bank_bg_controls_mobile_copy_   bg_controls_mobile_copy_0_ti
     00000008  ___bank_bg_placeholder_copy_copy   bg_placeholder_copy_copy_co_
     00000008  l__HEADER3                      
     00000009  ___bank_bg_announcer_tilemap_att   bg_announcer_tilemap_attr
     00000009  ___bank_bg_options_copy__tileset   bg_options_copy__tileset
     00000009  ___bank_bg_shillycityopen_copy_1   bg_shillycityopen_copy_1_til
     00000009  ___bank_bg_title_tileset           bg_title_tileset
     0000000A  ___bank_ACTOR                      actor
     0000000A  ___bank_bg_iceos_login_2_copy__t   bg_iceos_login_2_copy__tiles
     0000000A  ___bank_scene_102_sprites          scene_102_sprites
     0000000A  ___bank_scene_99_collisions        scene_99_collisions
     0000000A  b_activate_actor                   actor
     0000000A  b_activate_actors_in_col           actor
     0000000A  b_activate_actors_in_row           actor
     0000000A  b_actor_at_tile                    actor
     0000000A  b_actor_get_frame_offset           actor
     0000000A  b_actor_in_front_of_player         actor
     0000000A  b_actor_overlapping_bb             actor
     0000000A  b_actor_overlapping_player         actor
     0000000A  b_actor_set_anim_idle              actor
     0000000A  b_actor_set_anim_moving            actor
     0000000A  b_actor_set_dir                    actor
     0000000A  b_actor_set_frame_offset           actor
     0000000A  b_actor_set_frames                 actor
     0000000A  b_actors_handle_player_collision   actor
     0000000A  b_actors_init                      actor
     0000000A  b_check_collision_in_direction     actor
     0000000A  b_deactivate_actor                 actor
     0000000A  b_platform_init                    platform
     0000000A  b_platform_update                  platform
     0000000A  b_player_init                      actor
     0000000B  ___bank_VM_ACTOR                   vm_actor
     0000000B  ___bank_VM_MAIN                    vm
     0000000B  ___bank_bg_lencityopen_copy_0_ti   bg_lencityopen_copy_0_tilema
     0000000B  ___bank_bg_ui_screens_title_copy   bg_ui_screens_title_copy__ti
     0000000B  ___bank_scene_102_triggers         scene_102_triggers
     0000000B  ___bank_scene_64_init              scene_64_init
     0000000B  b_script_detach_hthread            vm
     0000000B  b_script_execute                   vm
ASxxxx Linker V03.00/V05.40 + sdld,  page 4.
Hexadecimal  [32-Bits]

Area                                    Addr        Size        Decimal Bytes (Attributes)
--------------------------------        ----        ----        ------- ----- ------------
.  .ABS.                            00000000    00000000 =           0. bytes (ABS,CON)

      Value  Global                              Global Defined In Module
      -----  --------------------------------   ------------------------
     0000000B  b_script_runner_init               vm
     0000000B  b_script_terminate                 vm
     0000000B  b_vm_actor_activate                vm_actor
     0000000B  b_vm_actor_begin_update            vm_actor
     0000000B  b_vm_actor_deactivate              vm_actor
     0000000B  b_vm_actor_emote                   vm_actor
     0000000B  b_vm_actor_get_angle               vm_actor
     0000000B  b_vm_actor_get_anim_frame          vm_actor
     0000000B  b_vm_actor_get_dir                 vm_actor
     0000000B  b_vm_actor_get_pos                 vm_actor
     0000000B  b_vm_actor_move_cancel             vm_actor
     0000000B  b_vm_actor_move_to                 vm_actor
     0000000B  b_vm_actor_replace_tile            vm_actor
     0000000B  b_vm_actor_set_anim                vm_actor
     0000000B  b_vm_actor_set_anim_frame          vm_actor
     0000000B  b_vm_actor_set_anim_set            vm_actor
     0000000B  b_vm_actor_set_anim_tick           vm_actor
     0000000B  b_vm_actor_set_bounds              vm_actor
     0000000B  b_vm_actor_set_dir                 vm_actor
     0000000B  b_vm_actor_set_flags               vm_actor
     0000000B  b_vm_actor_set_move_speed          vm_actor
     0000000B  b_vm_actor_set_pos                 vm_actor
     0000000B  b_vm_actor_set_spritesheet         vm_actor
     0000000B  b_vm_actor_set_spritesheet_by_re   vm_actor
     0000000B  b_vm_actor_terminate_update        vm_actor
     0000000B  b_vm_call                          vm
     0000000B  b_vm_call_far                      vm
     0000000B  b_vm_get_indirect                  vm
     0000000B  b_vm_get_tlocal                    vm
     0000000B  b_vm_idle                          vm
     0000000B  b_vm_if                            vm
     0000000B  b_vm_if_const                      vm
     0000000B  b_vm_init_rng                      vm
     0000000B  b_vm_invoke                        vm
     0000000B  b_vm_join                          vm
     0000000B  b_vm_jump                          vm
     0000000B  b_vm_lock                          vm
     0000000B  b_vm_loop                          vm
     0000000B  b_vm_memcpy                        vm
     0000000B  b_vm_memset                        vm
     0000000B  b_vm_poll_loaded                   vm
     0000000B  b_vm_pop                           vm
     0000000B  b_vm_push                          vm
     0000000B  b_vm_push_reference                vm
     0000000B  b_vm_push_value                    vm
     0000000B  b_vm_push_value_ind                vm
     0000000B  b_vm_raise                         vm
     0000000B  b_vm_rand                          vm
     0000000B  b_vm_reserve                       vm
     0000000B  b_vm_ret                           vm
     0000000B  b_vm_ret_far                       vm
ASxxxx Linker V03.00/V05.40 + sdld,  page 5.
Hexadecimal  [32-Bits]

Area                                    Addr        Size        Decimal Bytes (Attributes)
--------------------------------        ----        ----        ------- ----- ------------
.  .ABS.                            00000000    00000000 =           0. bytes (ABS,CON)

      Value  Global                              Global Defined In Module
      -----  --------------------------------   ------------------------
     0000000B  b_vm_set                           vm
     0000000B  b_vm_set_const                     vm
     0000000B  b_vm_set_indirect                  vm
     0000000B  b_vm_terminate                     vm
     0000000B  b_vm_test_terminate                vm
     0000000B  b_vm_unlock                        vm
     0000000B  b_wait_frames                      vm
     0000000C  ___bank_bg_lencityopen_copy_0_ti   bg_lencityopen_copy_0_tilema
     0000000C  ___bank_bg_pixil_frame_0_31_tile   bg_pixil_frame_0_31_tilemap_
     0000000C  ___bank_bg_title_copy__tileset     bg_title_copy__tileset
     0000000C  ___bank_font_gbs_variable_width    font_gbs_variable_width
     0000000C  ___bank_scene_52_collisions        scene_52_collisions
     0000000C  ___bank_scene_53_collisions        scene_53_collisions
     0000000C  ___bank_scene_86_init              scene_86_init
     0000000D  ___bank_bg_pixil_frame_0_31_tile   bg_pixil_frame_0_31_tilemap
     0000000D  ___bank_bg_placeholder_copy_copy   bg_placeholder_copy_copy_co_
     0000000D  ___bank_scene_31_collisions        scene_31_collisions
     0000000D  ___bank_scene_52_init              scene_52_init
     0000000D  ___bank_scene_61_init              scene_61_init
     0000000D  ___bank_scene_86_collisions        scene_86_collisions
     0000000D  b_do_load_palette                  data_manager
     0000000D  b_load_background                  data_manager
     0000000D  b_load_bkg_tileset                 data_manager
     0000000D  b_load_bounds                      data_manager
     0000000D  b_load_emote                       data_manager
     0000000D  b_load_init                        data_manager
     0000000D  b_load_player                      data_manager
     0000000D  b_load_scene                       data_manager
     0000000D  b_load_sprite                      data_manager
     0000000E  ___bank_actor_64_interact          actor_64_interact
     0000000E  ___bank_bg_dhilly_game_1_tileset   bg_dhilly_game_1_tileset
     0000000E  ___bank_bg_endingscene2_tileset    bg_endingscene2_tileset
     0000000E  ___bank_bg_endingscene_tileset     bg_endingscene_tileset
     0000000E  ___bank_bg_pixil_frame_0_31_tile   bg_pixil_frame_0_31_tileset
     0000000E  ___bank_bg_pixil_frame_23_0_tile   bg_pixil_frame_23_0_tilemap_
     0000000E  ___bank_scene_15_triggers          scene_15_triggers
     0000000E  ___bank_scene_46_init              scene_46_init
     0000000E  ___bank_trigger_1_interact         trigger_1_interact
     0000000F  ___bank_VM_UI                      vm_ui
     0000000F  ___bank_bg_dhilly_game_8_tileset   bg_dhilly_game_8_tileset
     0000000F  ___bank_bg_fieldlazy_tilemap       bg_fieldlazy_tilemap
     0000000F  ___bank_bg_fieldlazy_tilemap_att   bg_fieldlazy_tilemap_attr
     0000000F  ___bank_bg_init_copy_0_tileset     bg_init_copy_0_tileset
     0000000F  ___bank_bg_intro_scenary_copy__t   bg_intro_scenary_copy__tilem
     0000000F  ___bank_bg_pixil_frame_23_0_tile   bg_pixil_frame_23_0_tilemap
     0000000F  ___bank_scene_22_init              scene_22_init
     0000000F  ___bank_scene_49_collisions        scene_49_collisions
     0000000F  b_scroll_init                      scroll
     0000000F  b_scroll_repaint                   scroll
     0000000F  b_scroll_reset                     scroll
     0000000F  b_scroll_update                    scroll
ASxxxx Linker V03.00/V05.40 + sdld,  page 6.
Hexadecimal  [32-Bits]

Area                                    Addr        Size        Decimal Bytes (Attributes)
--------------------------------        ----        ----        ------- ----- ------------
.  .ABS.                            00000000    00000000 =           0. bytes (ABS,CON)

      Value  Global                              Global Defined In Module
      -----  --------------------------------   ------------------------
     0000000F  b_vm_choice                        vm_ui
     0000000F  b_vm_display_text                  vm_ui
     0000000F  b_vm_overlay_clear                 vm_ui
     0000000F  b_vm_overlay_move_to               vm_ui
     0000000F  b_vm_overlay_scroll                vm_ui
     0000000F  b_vm_overlay_set_map               vm_ui
     0000000F  b_vm_overlay_set_scroll            vm_ui
     0000000F  b_vm_overlay_set_submap            vm_ui
     0000000F  b_vm_overlay_set_submap_ex         vm_ui
     0000000F  b_vm_overlay_setpos                vm_ui
     0000000F  b_vm_overlay_show                  vm_ui
     0000000F  b_vm_overlay_wait                  vm_ui
     0000000F  b_vm_set_font                      vm_ui
     0000000F  b_vm_set_text_sound                vm_ui
     0000000F  b_vm_switch_text_layer             vm_ui
     00000010  ___bank_VM_GAMEBOY                 vm_gameboy
     00000010  ___bank_bg_dhillyhubdown_tileset   bg_dhillyhubdown_tileset
     00000010  ___bank_bg_endingscene_0_tileset   bg_endingscene_0_tileset
     00000010  ___bank_bg_intro_scenary_copy__t   bg_intro_scenary_copy__tilem
     00000010  ___bank_bg_pixil_frame_0_24_tile   bg_pixil_frame_0_24_tileset
     00000010  ___bank_bg_title_copy_2_tileset    bg_title_copy_2_tileset
     00000010  ___bank_scene_17_collisions        scene_17_collisions
     00000010  ___bank_scene_28_collisions        scene_28_collisions
     00000010  ___bank_scene_90_collisions        scene_90_collisions
     00000010  ___bank_scene_93_init              scene_93_init
     00000010  b_topdown_init                     topdown
     00000010  b_topdown_update                   topdown
     00000010  b_vm_context_prepare               vm_gameboy
     00000010  b_vm_fade                          vm_gameboy
     00000010  b_vm_get_tile_xy                   vm_gameboy
     00000010  b_vm_input_attach                  vm_gameboy
     00000010  b_vm_input_detach                  vm_gameboy
     00000010  b_vm_input_get                     vm_gameboy
     00000010  b_vm_input_wait                    vm_gameboy
     00000010  b_vm_load_tileset                  vm_gameboy
     00000010  b_vm_poll                          vm_gameboy
     00000010  b_vm_replace_tile                  vm_gameboy
     00000010  b_vm_replace_tile_xy               vm_gameboy
     00000010  b_vm_rumble                        vm_gameboy
     00000010  b_vm_set_sprite_mode               vm_gameboy
     00000010  b_vm_set_sprites_visible           vm_gameboy
     00000010  b_vm_timer_prepare                 vm_gameboy
     00000010  b_vm_timer_reset                   vm_gameboy
     00000010  b_vm_timer_set                     vm_gameboy
     00000010  b_vm_timer_stop                    vm_gameboy
     00000011  ___bank_bg_cave_ladder_copy_0_ti   bg_cave_ladder_copy_0_tilema
     00000011  ___bank_bg_cave_ladder_copy_0_ti   bg_cave_ladder_copy_0_tilema
     00000011  ___bank_bg_chase_shilly_tilemap    bg_chase_shilly_tilemap
     00000011  ___bank_bg_chase_shilly_tilemap_   bg_chase_shilly_tilemap_attr
     00000011  ___bank_bg_dhilly_game_10_tilese   bg_dhilly_game_10_tileset
     00000011  ___bank_bg_dhilly_game_11_tilese   bg_dhilly_game_11_tileset
ASxxxx Linker V03.00/V05.40 + sdld,  page 7.
Hexadecimal  [32-Bits]

Area                                    Addr        Size        Decimal Bytes (Attributes)
--------------------------------        ----        ----        ------- ----- ------------
.  .ABS.                            00000000    00000000 =           0. bytes (ABS,CON)

      Value  Global                              Global Defined In Module
      -----  --------------------------------   ------------------------
     00000011  ___bank_bg_pixil_frame_0_33_tile   bg_pixil_frame_0_33_tilemap
     00000011  ___bank_bg_pixil_frame_0_33_tile   bg_pixil_frame_0_33_tilemap_
     00000011  ___bank_scene_17_sprites           scene_17_sprites
     00000011  ___bank_scene_50_collisions        scene_50_collisions
     00000011  ___bank_scene_54_init              scene_54_init
     00000011  ___bank_scene_55_collisions        scene_55_collisions
     00000011  ___bank_scene_88_collisions        scene_88_collisions
     00000012  ___bank_bg_cave_ladder_copy__til   bg_cave_ladder_copy__tilemap
     00000012  ___bank_bg_cave_ladder_copy__til   bg_cave_ladder_copy__tilemap
     00000012  ___bank_bg_fall_to_shilly_area_c   bg_fall_to_shilly_area_copy_
     00000012  ___bank_bg_fall_to_shilly_area_c   bg_fall_to_shilly_area_copy_
     00000012  ___bank_bg_init_copy_0_tilemap     bg_init_copy_0_tilemap
     00000012  ___bank_bg_init_copy_0_tilemap_a   bg_init_copy_0_tilemap_attr
     00000012  ___bank_bg_lair_right_3_tileset    bg_lair_right_3_tileset
     00000012  ___bank_bg_lencityopen_copy__til   bg_lencityopen_copy__tilemap
     00000012  ___bank_bg_lencityopen_copy__til   bg_lencityopen_copy__tilemap
     00000012  ___bank_bg_lencityopen_tileset     bg_lencityopen_tileset
     00000012  ___bank_scene_20_sprites           scene_20_sprites
     00000012  ___bank_scene_32_collisions        scene_32_collisions
     00000012  ___bank_scene_47_collisions        scene_47_collisions
     00000012  ___bank_scene_51_collisions        scene_51_collisions
     00000012  ___bank_scene_57_collisions        scene_57_collisions
     00000013  ___bank_actor_11_interact          actor_11_interact
     00000013  ___bank_actor_19_interact          actor_19_interact
     00000013  ___bank_bg_announcer               bg_announcer
     00000013  ___bank_bg_announcer_tileset       bg_announcer_tileset
     00000013  ___bank_bg_init_copy_2_tilemap     bg_init_copy_2_tilemap
     00000013  ___bank_bg_init_copy_2_tilemap_a   bg_init_copy_2_tilemap_attr
     00000013  ___bank_bg_pixil_frame_0_30_tile   bg_pixil_frame_0_30_tileset
     00000013  ___bank_bg_placeholder_copy_copy   bg_placeholder_copy_copy_co_
     00000013  ___bank_scene_56_collisions        scene_56_collisions
     00000013  ___bank_scene_77_collisions        scene_77_collisions
     00000013  ___bank_scene_91_collisions        scene_91_collisions
     00000013  ___bank_scene_91_init              scene_91_init
     00000013  ___bank_scene_93_collisions        scene_93_collisions
     00000013  ___bank_scene_94_collisions        scene_94_collisions
     00000013  ___bank_trigger_95_interact        trigger_95_interact
     00000013  b_projectile_launch                projectiles
     00000013  b_projectiles_init                 projectiles
     00000014  ___bank_VM_CAMERA                  vm_camera
     00000014  ___bank_actor_6_interact           actor_6_interact
     00000014  ___bank_bg_area_dhilly_city_lair   bg_area_dhilly_city_lair_la_
     00000014  ___bank_bg_controls_gb_copy_0_ti   bg_controls_gb_copy_0_tilema
     00000014  ___bank_bg_controls_gb_copy_0_ti   bg_controls_gb_copy_0_tilema
     00000014  ___bank_bg_dhilly_bridge_tilemap   bg_dhilly_bridge_tilemap
     00000014  ___bank_bg_dhilly_bridge_tilemap   bg_dhilly_bridge_tilemap_att
     00000014  ___bank_bg_endingscene3_tileset    bg_endingscene3_tileset
     00000014  ___bank_bg_init_copy__tilemap      bg_init_copy__tilemap
     00000014  ___bank_bg_init_copy__tilemap_at   bg_init_copy__tilemap_attr
     00000014  ___bank_bg_pixil_frame_0_33_tile   bg_pixil_frame_0_33_tileset
     00000014  ___bank_bg_pixil_frame_23_0_tile   bg_pixil_frame_23_0_tileset
ASxxxx Linker V03.00/V05.40 + sdld,  page 8.
Hexadecimal  [32-Bits]

Area                                    Addr        Size        Decimal Bytes (Attributes)
--------------------------------        ----        ----        ------- ----- ------------
.  .ABS.                            00000000    00000000 =           0. bytes (ABS,CON)

      Value  Global                              Global Defined In Module
      -----  --------------------------------   ------------------------
     00000014  ___bank_bg_placeholder_copy_copy   bg_placeholder_copy_copy_co_
     00000014  ___bank_scene_0_collisions         scene_0_collisions
     00000014  ___bank_scene_76_collisions        scene_76_collisions
     00000014  ___bank_script_input_5             script_input_5
     00000014  b_camera_init                      camera
     00000014  b_camera_shake_frames              vm_camera
     00000014  b_data_clear                       load_save
     00000014  b_data_init                        load_save
     00000014  b_data_load                        load_save
     00000014  b_data_peek                        load_save
     00000014  b_data_save                        load_save
     00000014  b_vm_camera_move_to                vm_camera
     00000014  b_vm_camera_set_pos                vm_camera
     00000015  ___bank_bg_dhilly_game_9_tileset   bg_dhilly_game_9_tileset
     00000015  ___bank_bg_lair_right_5_tileset    bg_lair_right_5_tileset
     00000015  ___bank_bg_pixil_frame_0_24_tile   bg_pixil_frame_0_24_tilemap
     00000015  ___bank_bg_pixil_frame_0_24_tile   bg_pixil_frame_0_24_tilemap_
     00000015  ___bank_bg_pixil_frame_0_30_tile   bg_pixil_frame_0_30_tilemap
     00000015  ___bank_bg_pixil_frame_0_30_tile   bg_pixil_frame_0_30_tilemap_
     00000015  ___bank_bg_pixil_frame_0_copy_co   bg_pixil_frame_0_copy_copy__
     00000015  ___bank_bg_ui_screens_title_copy   bg_ui_screens_title_copy__ti
     00000015  ___bank_bg_ui_screens_title_copy   bg_ui_screens_title_copy__ti
     00000015  ___bank_scene_103_collisions       scene_103_collisions
     00000015  ___bank_scene_15_collisions        scene_15_collisions
     00000015  ___bank_scene_29_collisions        scene_29_collisions
     00000015  ___bank_scene_30_collisions        scene_30_collisions
     00000015  ___bank_scene_89_collisions        scene_89_collisions
     00000015  ___bank_script_input_2             script_input_2
     00000015  b___HandleCrash_banked             
     00000015  b_fade_applypalettechange          fade_manager
     00000015  b_fade_in                          fade_manager
     00000015  b_fade_in_modal                    fade_manager
     00000015  b_fade_init                        fade_manager
     00000015  b_fade_out                         fade_manager
     00000015  b_fade_out_modal                   fade_manager
     00000015  b_fade_setspeed                    fade_manager
     00000015  b_fade_update                      fade_manager
     00000015  b_pointnclick_init                 pointnclick
     00000015  b_pointnclick_update               pointnclick
     00000015  b_trigger_activate_at              trigger
     00000015  b_trigger_activate_at_intersecti   trigger
     00000015  b_trigger_at_intersection          trigger
     00000015  b_trigger_at_tile                  trigger
     00000015  b_trigger_interact                 trigger
     00000015  b_trigger_reset                    trigger
     00000016  ___bank_VM_PALETTE                 vm_palette
     00000016  ___bank_VM_SIO                     vm_sio
     00000016  ___bank_actor_16_interact          actor_16_interact
     00000016  ___bank_avatar_font_0              avatar_font_0
     00000016  ___bank_bg_chase_shilly_tileset    bg_chase_shilly_tileset
     00000016  ___bank_bg_pixil_frame_0_23_tile   bg_pixil_frame_0_23_tileset
ASxxxx Linker V03.00/V05.40 + sdld,  page 9.
Hexadecimal  [32-Bits]

Area                                    Addr        Size        Decimal Bytes (Attributes)
--------------------------------        ----        ----        ------- ----- ------------
.  .ABS.                            00000000    00000000 =           0. bytes (ABS,CON)

      Value  Global                              Global Defined In Module
      -----  --------------------------------   ------------------------
     00000016  ___bank_bg_samsam_copy_tileset     bg_samsam_copy_tileset
     00000016  ___bank_bg_shillycity_sara_house   bg_shillycity_sara_house_co_
     00000016  ___bank_bg_shillycityopen_copy_0   bg_shillycityopen_copy_0_til
     00000016  ___bank_bg_shillycityopen_copy_0   bg_shillycityopen_copy_0_til
     00000016  ___bank_bg_shillycityopen_copy_1   bg_shillycityopen_copy_1_til
     00000016  ___bank_bg_shillycityopen_copy__   bg_shillycityopen_copy__tile
     00000016  ___bank_bg_square_frozen_future_   bg_square_frozen_future_tile
     00000016  ___bank_bg_theatre_tilemap_attr    bg_theatre_tilemap_attr
     00000016  ___bank_bg_theatre_tileset         bg_theatre_tileset
     00000016  ___bank_bg_title_copy_0_tileset    bg_title_copy_0_tileset
     00000016  ___bank_scene_14_init              scene_14_init
     00000016  ___bank_scene_27_init              scene_27_init
     00000016  ___bank_scene_7_init               scene_7_init
     00000016  ___bank_scene_99_init              scene_99_init
     00000016  ___bank_sprite_pixelperfectvoti_   sprite_pixelperfectvoti_cop_
     00000016  ___bank_sprite_pixelperfectvoti_   sprite_pixelperfectvoti_tile
     00000016  ___bank_trigger_61_interact        trigger_61_interact
     00000016  ___bank_trigger_81_interact        trigger_81_interact
     00000016  b_atan2                            math_atan2
     00000016  b_gbprinter_detect                 gbprinter
     00000016  b_gbprinter_print_overlay          gbprinter
     00000016  b_vm_load_palette                  vm_palette
     00000016  b_vm_sio_exchange                  vm_sio
     00000016  b_vm_sio_set_mode                  vm_sio
     00000017  ___bank_actor_25_interact          actor_25_interact
     00000017  ___bank_bg_announcer_tilemap       bg_announcer_tilemap
     00000017  ___bank_bg_area_dhilly_city_lair   bg_area_dhilly_city_lair_la_
     00000017  ___bank_bg_area_dhilly_city_lair   bg_area_dhilly_city_lair_la_
     00000017  ___bank_bg_area_dhilly_city_lair   bg_area_dhilly_city_lair_la_
     00000017  ___bank_bg_area_dhilly_city_lair   bg_area_dhilly_city_lair_la_
     00000017  ___bank_bg_area_dhilly_city_lair   bg_area_dhilly_city_lair_la_
     00000017  ___bank_bg_area_dhilly_city_lair   bg_area_dhilly_city_lair_la_
     00000017  ___bank_bg_area_dhilly_city_lair   bg_area_dhilly_city_lair_la_
     00000017  ___bank_bg_area_dhilly_city_lair   bg_area_dhilly_city_lair_la_
     00000017  ___bank_bg_area_dhilly_city_lair   bg_area_dhilly_city_lair_la_
     00000017  ___bank_bg_area_dhilly_city_lair   bg_area_dhilly_city_lair_la_
     00000017  ___bank_bg_area_dhilly_city_lair   bg_area_dhilly_city_lair_la_
     00000017  ___bank_bg_area_len_city_eve_hou   bg_area_len_city_eve_house__
     00000017  ___bank_bg_area_len_city_eve_hou   bg_area_len_city_eve_house__
     00000017  ___bank_bg_cinema_tilemap          bg_cinema_tilemap
     00000017  ___bank_bg_cinema_tilemap_attr     bg_cinema_tilemap_attr
     00000017  ___bank_bg_controls_gb_copy__til   bg_controls_gb_copy__tilemap
     00000017  ___bank_bg_dhilly_game_5_tileset   bg_dhilly_game_5_tileset
     00000017  ___bank_bg_iceos_desktop_copy__t   bg_iceos_desktop_copy__tiles
     00000017  ___bank_bg_iceos_platformer4_til   bg_iceos_platformer4_tileset
     00000017  ___bank_bg_lencity_trainstation_   bg_lencity_trainstation_cop_
     00000017  ___bank_bg_lencity_trainstation_   bg_lencity_trainstation_tile
     00000017  ___bank_bg_lencity_trainstation_   bg_lencity_trainstation_tile
     00000017  ___bank_bg_shillycityopen_copy_0   bg_shillycityopen_copy_0_til
     00000017  ___bank_bg_square_frozen_future_   bg_square_frozen_future_tile
     00000017  ___bank_bg_square_frozen_future_   bg_square_frozen_future_tile
ASxxxx Linker V03.00/V05.40 + sdld,  page 10.
Hexadecimal  [32-Bits]

Area                                    Addr        Size        Decimal Bytes (Attributes)
--------------------------------        ----        ----        ------- ----- ------------
.  .ABS.                            00000000    00000000 =           0. bytes (ABS,CON)

      Value  Global                              Global Defined In Module
      -----  --------------------------------   ------------------------
     00000017  ___bank_bg_theatre_tilemap         bg_theatre_tilemap
     00000017  ___bank_scene_100_init             scene_100_init
     00000017  ___bank_scene_19_collisions        scene_19_collisions
     00000017  ___bank_scene_20_collisions        scene_20_collisions
     00000017  ___bank_scene_24_init              scene_24_init
     00000017  ___bank_scene_27_collisions        scene_27_collisions
     00000017  ___bank_scene_35_collisions        scene_35_collisions
     00000017  ___bank_scene_3_sprites            scene_3_sprites
     00000017  ___bank_scene_45_collisions        scene_45_collisions
     00000017  ___bank_scene_46_collisions        scene_46_collisions
     00000017  ___bank_scene_48_collisions        scene_48_collisions
     00000017  ___bank_scene_63_collisions        scene_63_collisions
     00000017  ___bank_trigger_121_interact       trigger_121_interact
     00000017  b_set_sgb_border                   sgb_border
     00000018  ___bank_bg_controls_gb_copy__til   bg_controls_gb_copy__tilemap
     00000018  ___bank_bg_controls_gba_copy_0_t   bg_controls_gba_copy_0_tilem
     00000018  ___bank_bg_controls_gba_copy_0_t   bg_controls_gba_copy_0_tilem
     00000018  ___bank_bg_controls_gba_copy__ti   bg_controls_gba_copy__tilema
     00000018  ___bank_bg_controls_gba_copy__ti   bg_controls_gba_copy__tilema
     00000018  ___bank_bg_controls_gbc_copy__ti   bg_controls_gbc_copy__tilema
     00000018  ___bank_bg_controls_gbc_copy__ti   bg_controls_gbc_copy__tilema
     00000018  ___bank_bg_controls_mobile_copy_   bg_controls_mobile_copy_0_ti
     00000018  ___bank_bg_controls_mobile_copy_   bg_controls_mobile_copy_0_ti
     00000018  ___bank_bg_controls_mobile_copy_   bg_controls_mobile_copy__til
     00000018  ___bank_bg_controls_mobile_copy_   bg_controls_mobile_copy__til
     00000018  ___bank_bg_dhilly_game_10_tilema   bg_dhilly_game_10_tilemap
     00000018  ___bank_bg_dhilly_game_10_tilema   bg_dhilly_game_10_tilemap_at
     00000018  ___bank_bg_dhilly_game_11_tilema   bg_dhilly_game_11_tilemap
     00000018  ___bank_bg_dhilly_game_11_tilema   bg_dhilly_game_11_tilemap_at
     00000018  ___bank_bg_dhilly_game_1_tilemap   bg_dhilly_game_1_tilemap
     00000018  ___bank_bg_dhilly_game_1_tilemap   bg_dhilly_game_1_tilemap_att
     00000018  ___bank_bg_dhilly_game_4_tilemap   bg_dhilly_game_4_tilemap
     00000018  ___bank_bg_dhilly_game_4_tilemap   bg_dhilly_game_4_tilemap_att
     00000018  ___bank_bg_dhilly_game_5_tilemap   bg_dhilly_game_5_tilemap
     00000018  ___bank_bg_dhilly_game_5_tilemap   bg_dhilly_game_5_tilemap_att
     00000018  ___bank_bg_dhilly_game_8_tilemap   bg_dhilly_game_8_tilemap
     00000018  ___bank_bg_dhilly_game_8_tilemap   bg_dhilly_game_8_tilemap_att
     00000018  ___bank_bg_dhilly_game_9_tilemap   bg_dhilly_game_9_tilemap
     00000018  ___bank_bg_dhilly_game_9_tilemap   bg_dhilly_game_9_tilemap_att
     00000018  ___bank_bg_dhillyhubdown_tilemap   bg_dhillyhubdown_tilemap
     00000018  ___bank_bg_dhillyhubdown_tilemap   bg_dhillyhubdown_tilemap_att
     00000018  ___bank_bg_elevator_tilemap        bg_elevator_tilemap
     00000018  ___bank_bg_elevator_tilemap_attr   bg_elevator_tilemap_attr
     00000018  ___bank_bg_endingscene2_tilemap    bg_endingscene2_tilemap
     00000018  ___bank_bg_endingscene2_tilemap_   bg_endingscene2_tilemap_attr
     00000018  ___bank_bg_endingscene3_tilemap    bg_endingscene3_tilemap
     00000018  ___bank_bg_endingscene3_tilemap_   bg_endingscene3_tilemap_attr
     00000018  ___bank_bg_endingscene_0_tilemap   bg_endingscene_0_tilemap
     00000018  ___bank_bg_endingscene_0_tilemap   bg_endingscene_0_tilemap_att
     00000018  ___bank_bg_endingscene_tilemap     bg_endingscene_tilemap
     00000018  ___bank_bg_endingscene_tilemap_a   bg_endingscene_tilemap_attr
ASxxxx Linker V03.00/V05.40 + sdld,  page 11.
Hexadecimal  [32-Bits]

Area                                    Addr        Size        Decimal Bytes (Attributes)
--------------------------------        ----        ----        ------- ----- ------------
.  .ABS.                            00000000    00000000 =           0. bytes (ABS,CON)

      Value  Global                              Global Defined In Module
      -----  --------------------------------   ------------------------
     00000018  ___bank_bg_iceos_desktop_copy__t   bg_iceos_desktop_copy__tilem
     00000018  ___bank_bg_iceos_desktop_copy__t   bg_iceos_desktop_copy__tilem
     00000018  ___bank_bg_iceos_login_2_copy__t   bg_iceos_login_2_copy__tilem
     00000018  ___bank_bg_iceos_login_2_copy__t   bg_iceos_login_2_copy__tilem
     00000018  ___bank_bg_iceos_login_copy__til   bg_iceos_login_copy__tilemap
     00000018  ___bank_bg_iceos_login_copy__til   bg_iceos_login_copy__tilemap
     00000018  ___bank_bg_iceos_platformer2_cop   bg_iceos_platformer2_copy__t
     00000018  ___bank_bg_iceos_platformer2_cop   bg_iceos_platformer2_copy__t
     00000018  ___bank_trigger_120_interact       trigger_120_interact
     00000019  ___bank_bg_iceos_platformer3_cop   bg_iceos_platformer3_copy__t
     00000019  ___bank_bg_iceos_platformer3_cop   bg_iceos_platformer3_copy__t
     00000019  ___bank_bg_iceos_platformer4_til   bg_iceos_platformer4_tilemap
     00000019  ___bank_bg_iceos_platformer4_til   bg_iceos_platformer4_tilemap
     00000019  ___bank_bg_init_copy_1_tilemap     bg_init_copy_1_tilemap
     00000019  ___bank_bg_init_copy_1_tilemap_a   bg_init_copy_1_tilemap_attr
     00000019  ___bank_bg_intro_weather_copy__t   bg_intro_weather_copy__tilem
     00000019  ___bank_bg_intro_weather_copy__t   bg_intro_weather_copy__tilem
     00000019  ___bank_bg_lair_hub_tilemap        bg_lair_hub_tilemap
     00000019  ___bank_bg_lair_hub_tilemap_attr   bg_lair_hub_tilemap_attr
     00000019  ___bank_bg_lair_right_3_copy__ti   bg_lair_right_3_copy__tilema
     00000019  ___bank_bg_lair_right_3_copy__ti   bg_lair_right_3_copy__tilema
     00000019  ___bank_bg_lair_right_3_copy__ti   bg_lair_right_3_copy__tilese
     00000019  ___bank_bg_lair_right_3_tilemap    bg_lair_right_3_tilemap
     00000019  ___bank_bg_lair_right_3_tilemap_   bg_lair_right_3_tilemap_attr
     00000019  ___bank_bg_lair_right_4_copy__ti   bg_lair_right_4_copy__tilema
     00000019  ___bank_bg_lair_right_4_copy__ti   bg_lair_right_4_copy__tilema
     00000019  ___bank_bg_lair_right_5_tilemap    bg_lair_right_5_tilemap
     00000019  ___bank_bg_lair_right_5_tilemap_   bg_lair_right_5_tilemap_attr
     00000019  ___bank_bg_lencity_dhillybuildin   bg_lencity_dhillybuilding_c_
     00000019  ___bank_bg_lencity_dhillybuildin   bg_lencity_dhillybuilding_c_
     00000019  ___bank_bg_lencity_dhillybuildin   bg_lencity_dhillybuilding_f_
     00000019  ___bank_bg_lencity_dhillybuildin   bg_lencity_dhillybuilding_f_
     00000019  ___bank_bg_lencity_trainstation_   bg_lencity_trainstation_cop_
     00000019  ___bank_bg_lencity_trainstation_   bg_lencity_trainstation_cop_
     00000019  ___bank_bg_options_copy__tilemap   bg_options_copy__tilemap
     00000019  ___bank_bg_options_copy__tilemap   bg_options_copy__tilemap_att
     00000019  ___bank_bg_pixil_frame_0_23_tile   bg_pixil_frame_0_23_tilemap
     00000019  ___bank_bg_pixil_frame_0_23_tile   bg_pixil_frame_0_23_tilemap_
     00000019  ___bank_bg_pixil_frame_0_copy_co   bg_pixil_frame_0_copy_copy__
     00000019  ___bank_bg_pixil_frame_0_copy_co   bg_pixil_frame_0_copy_copy__
     00000019  ___bank_bg_placeholder_copy_copy   bg_placeholder_copy_copy_co_
     00000019  ___bank_bg_placeholder_copy_copy   bg_placeholder_copy_copy_co_
     00000019  ___bank_bg_samsam_copy_tilemap     bg_samsam_copy_tilemap
     00000019  ___bank_bg_samsam_copy_tilemap_a   bg_samsam_copy_tilemap_attr
     00000019  ___bank_bg_shillycity_sara_house   bg_shillycity_sara_house_co_
     00000019  ___bank_bg_shillycity_sara_house   bg_shillycity_sara_house_co_
     00000019  ___bank_bg_shillycityopen_copy__   bg_shillycityopen_copy__tile
     00000019  ___bank_bg_shillycityopen_copy__   bg_shillycityopen_copy__tile
     00000019  ___bank_bg_title_copy_0_tilemap    bg_title_copy_0_tilemap
     00000019  ___bank_bg_title_copy_0_tilemap_   bg_title_copy_0_tilemap_attr
     00000019  ___bank_bg_title_copy_1_tilemap    bg_title_copy_1_tilemap
ASxxxx Linker V03.00/V05.40 + sdld,  page 12.
Hexadecimal  [32-Bits]

Area                                    Addr        Size        Decimal Bytes (Attributes)
--------------------------------        ----        ----        ------- ----- ------------
.  .ABS.                            00000000    00000000 =           0. bytes (ABS,CON)

      Value  Global                              Global Defined In Module
      -----  --------------------------------   ------------------------
     00000019  ___bank_bg_title_copy_1_tilemap_   bg_title_copy_1_tilemap_attr
     00000019  ___bank_bg_title_copy_2_tilemap_   bg_title_copy_2_tilemap_attr
     00000019  ___bank_bg_title_copy__tilemap     bg_title_copy__tilemap
     00000019  ___bank_bg_title_copy__tilemap_a   bg_title_copy__tilemap_attr
     00000019  ___bank_scene_22_sprites           scene_22_sprites
     00000019  l__INITIALIZED                  
     00000019  l__INITIALIZER                  
     0000001A  ___bank_bg_title_copy_2_tilemap    bg_title_copy_2_tilemap
     0000001A  ___bank_bg_title_tilemap           bg_title_tilemap
     0000001A  ___bank_bg_title_tilemap_attr      bg_title_tilemap_attr
     0000001A  ___bank_bg_wakeupsquare_1_tilema   bg_wakeupsquare_1_tilemap
     0000001A  ___bank_bg_wakeupsquare_1_tilema   bg_wakeupsquare_1_tilemap_at
     0000001A  ___bank_bg_wakeupsquare_3_copy__   bg_wakeupsquare_3_copy__tile
     0000001A  ___bank_bg_wakeupsquare_3_copy__   bg_wakeupsquare_3_copy__tile
     0000001A  ___bank_bootstrap_script           
     0000001A  ___bank_scene_100_collisions       scene_100_collisions
     0000001A  ___bank_scene_101_collisions       scene_101_collisions
     0000001A  ___bank_scene_102_collisions       scene_102_collisions
     0000001A  ___bank_scene_10_collisions        scene_10_collisions
     0000001A  ___bank_scene_11_collisions        scene_11_collisions
     0000001A  ___bank_scene_12_collisions        scene_12_collisions
     0000001A  ___bank_scene_13_collisions        scene_13_collisions
     0000001A  ___bank_scene_14_collisions        scene_14_collisions
     0000001A  ___bank_scene_16_collisions        scene_16_collisions
     0000001A  ___bank_scene_1_collisions         scene_1_collisions
     0000001A  ___bank_scene_21_collisions        scene_21_collisions
     0000001A  ___bank_scene_22_collisions        scene_22_collisions
     0000001A  ___bank_scene_23_collisions        scene_23_collisions
     0000001A  ___bank_scene_23_init              scene_23_init
     0000001A  ___bank_scene_24_collisions        scene_24_collisions
     0000001A  ___bank_scene_25_collisions        scene_25_collisions
     0000001A  ___bank_scene_26_collisions        scene_26_collisions
     0000001A  ___bank_scene_2_collisions         scene_2_collisions
     0000001A  ___bank_scene_33_collisions        scene_33_collisions
     0000001A  ___bank_scene_37_collisions        scene_37_collisions
     0000001A  ___bank_scene_38_collisions        scene_38_collisions
     0000001A  ___bank_scene_39_collisions        scene_39_collisions
     0000001A  ___bank_scene_3_collisions         scene_3_collisions
     0000001A  ___bank_scene_40_collisions        scene_40_collisions
     0000001A  ___bank_scene_41_collisions        scene_41_collisions
     0000001A  ___bank_scene_42_collisions        scene_42_collisions
     0000001A  ___bank_scene_43_collisions        scene_43_collisions
     0000001A  ___bank_scene_44_collisions        scene_44_collisions
     0000001A  ___bank_scene_4_collisions         scene_4_collisions
     0000001A  ___bank_scene_54_collisions        scene_54_collisions
     0000001A  ___bank_scene_59_collisions        scene_59_collisions
     0000001A  ___bank_scene_5_collisions         scene_5_collisions
     0000001A  ___bank_scene_60_collisions        scene_60_collisions
     0000001A  ___bank_scene_61_collisions        scene_61_collisions
     0000001A  ___bank_scene_64_collisions        scene_64_collisions
     0000001A  ___bank_scene_66_collisions        scene_66_collisions
ASxxxx Linker V03.00/V05.40 + sdld,  page 13.
Hexadecimal  [32-Bits]

Area                                    Addr        Size        Decimal Bytes (Attributes)
--------------------------------        ----        ----        ------- ----- ------------
.  .ABS.                            00000000    00000000 =           0. bytes (ABS,CON)

      Value  Global                              Global Defined In Module
      -----  --------------------------------   ------------------------
     0000001A  ___bank_scene_67_collisions        scene_67_collisions
     0000001A  ___bank_scene_68_collisions        scene_68_collisions
     0000001A  ___bank_scene_6_collisions         scene_6_collisions
     0000001B  ___bank_VM_MATH                    vm_math
     0000001B  ___bank_VM_MUSIC                   vm_music
     0000001B  ___bank_bg_area_dhilly_city_lair   bg_area_dhilly_city_lair_la_
     0000001B  ___bank_bg_area_len_city_eve_hou   bg_area_len_city_eve_house__
     0000001B  ___bank_bg_cave_ladder_copy__til   bg_cave_ladder_copy__tileset
     0000001B  ___bank_bg_cinema_tileset          bg_cinema_tileset
     0000001B  ___bank_bg_controls_gb_copy_0_ti   bg_controls_gb_copy_0_tilese
     0000001B  ___bank_bg_dhilly_bridge_tileset   bg_dhilly_bridge_tileset
     0000001B  ___bank_bg_elevator_tileset        bg_elevator_tileset
     0000001B  ___bank_bg_fall_to_shilly_area_c   bg_fall_to_shilly_area_copy_
     0000001B  ___bank_bg_iceos_platformer2_cop   bg_iceos_platformer2_copy__t
     0000001B  ___bank_bg_iceos_platformer3_cop   bg_iceos_platformer3_copy__t
     0000001B  ___bank_bg_init_copy_2_tileset     bg_init_copy_2_tileset
     0000001B  ___bank_bg_lair_hub_tileset        bg_lair_hub_tileset
     0000001B  ___bank_bg_lencity_dhillybuildin   bg_lencity_dhillybuilding_c_
     0000001B  ___bank_bg_lencity_dhillybuildin   bg_lencity_dhillybuilding_f_
     0000001B  ___bank_bg_lencity_trainstation_   bg_lencity_trainstation_tile
     0000001B  ___bank_bg_lencityopen_copy_0_ti   bg_lencityopen_copy_0_tilese
     0000001B  ___bank_scene_17_init              scene_17_init
     0000001B  ___bank_scene_52_actors            scene_52_actors
     0000001B  ___bank_scene_53_actors            scene_53_actors
     0000001B  ___bank_scene_69_collisions        scene_69_collisions
     0000001B  ___bank_scene_70_collisions        scene_70_collisions
     0000001B  ___bank_scene_71_collisions        scene_71_collisions
     0000001B  ___bank_scene_72_collisions        scene_72_collisions
     0000001B  ___bank_scene_73_collisions        scene_73_collisions
     0000001B  ___bank_scene_74_collisions        scene_74_collisions
     0000001B  ___bank_scene_75_collisions        scene_75_collisions
     0000001B  ___bank_scene_78_collisions        scene_78_collisions
     0000001B  ___bank_scene_79_collisions        scene_79_collisions
     0000001B  ___bank_scene_7_collisions         scene_7_collisions
     0000001B  ___bank_scene_80_collisions        scene_80_collisions
     0000001B  ___bank_scene_81_collisions        scene_81_collisions
     0000001B  ___bank_scene_82_collisions        scene_82_collisions
     0000001B  ___bank_scene_83_collisions        scene_83_collisions
     0000001B  ___bank_scene_84_collisions        scene_84_collisions
     0000001B  ___bank_scene_85_collisions        scene_85_collisions
     0000001B  ___bank_scene_87_collisions        scene_87_collisions
     0000001B  ___bank_scene_8_collisions         scene_8_collisions
     0000001B  ___bank_scene_92_collisions        scene_92_collisions
     0000001B  ___bank_scene_92_init              scene_92_init
     0000001B  ___bank_scene_95_collisions        scene_95_collisions
     0000001B  ___bank_scene_96_collisions        scene_96_collisions
     0000001B  ___bank_scene_97_collisions        scene_97_collisions
     0000001B  ___bank_scene_97_init              scene_97_init
     0000001B  ___bank_scene_98_collisions        scene_98_collisions
     0000001B  ___bank_scene_98_init              scene_98_init
     0000001B  ___bank_scene_9_collisions         scene_9_collisions
ASxxxx Linker V03.00/V05.40 + sdld,  page 14.
Hexadecimal  [32-Bits]

Area                                    Addr        Size        Decimal Bytes (Attributes)
--------------------------------        ----        ----        ------- ----- ------------
.  .ABS.                            00000000    00000000 =           0. bytes (ABS,CON)

      Value  Global                              Global Defined In Module
      -----  --------------------------------   ------------------------
     0000001B  ___bank_trigger_122_interact       trigger_122_interact
     0000001B  ___bank_trigger_52_interact        trigger_52_interact
     0000001B  b_erase_flash                      
     0000001B  b_save_sram_banks                  
     0000001B  b_vm_cos_scale                     vm_math
     0000001B  b_vm_music_mute                    vm_music
     0000001B  b_vm_music_play                    vm_music
     0000001B  b_vm_music_routine                 vm_music
     0000001B  b_vm_music_setpos                  vm_music
     0000001B  b_vm_music_stop                    vm_music
     0000001B  b_vm_sfx_play                      vm_music
     0000001B  b_vm_sin_scale                     vm_math
     0000001B  b_vm_sound_mastervol               vm_music
     0000001C  ___bank_VM_GBPRINTER               vm_gbprinter
     0000001C  ___bank_VM_LOAD_SAVE               vm_load_save
     0000001C  ___bank_VM_PROJECTILE              vm_projectiles
     0000001C  ___bank_VM_RTC                     vm_rtc
     0000001C  ___bank_VM_SCENE                   vm_scene
     0000001C  ___bank_actor_18_interact          actor_18_interact
     0000001C  ___bank_actor_21_interact          actor_21_interact
     0000001C  ___bank_actor_33_interact          actor_33_interact
     0000001C  ___bank_actor_34_interact          actor_34_interact
     0000001C  ___bank_actor_35_interact          actor_35_interact
     0000001C  ___bank_actor_38_interact          actor_38_interact
     0000001C  ___bank_actor_39_interact          actor_39_interact
     0000001C  ___bank_actor_41_interact          actor_41_interact
     0000001C  ___bank_actor_42_interact          actor_42_interact
     0000001C  ___bank_actor_60_interact          actor_60_interact
     0000001C  ___bank_actor_61_interact          actor_61_interact
     0000001C  ___bank_actor_65_interact          actor_65_interact
     0000001C  ___bank_bg_area_dhilly_city_lair   bg_area_dhilly_city_lair_la_
     0000001C  ___bank_bg_area_dhilly_city_lair   bg_area_dhilly_city_lair_la_
     0000001C  ___bank_bg_cave_ladder_copy_0_ti   bg_cave_ladder_copy_0_tilese
     0000001C  ___bank_bg_dhilly_game_4_tileset   bg_dhilly_game_4_tileset
     0000001C  ___bank_bg_fieldlazy_tileset       bg_fieldlazy_tileset
     0000001C  ___bank_bg_intro_weather_copy__t   bg_intro_weather_copy__tiles
     0000001C  ___bank_bg_lair_right_4_copy__ti   bg_lair_right_4_copy__tilese
     0000001C  ___bank_bg_wakeupsquare_3_copy__   bg_wakeupsquare_3_copy__tile
     0000001C  ___bank_frame_image                frame_image
     0000001C  ___bank_palette_0                  palette_0
     0000001C  ___bank_palette_1                  palette_1
     0000001C  ___bank_palette_10                 palette_10
     0000001C  ___bank_palette_11                 palette_11
     0000001C  ___bank_palette_12                 palette_12
     0000001C  ___bank_palette_13                 palette_13
     0000001C  ___bank_palette_14                 palette_14
     0000001C  ___bank_palette_15                 palette_15
     0000001C  ___bank_palette_16                 palette_16
     0000001C  ___bank_palette_17                 palette_17
     0000001C  ___bank_palette_18                 palette_18
     0000001C  ___bank_scene_10_init              scene_10_init
ASxxxx Linker V03.00/V05.40 + sdld,  page 15.
Hexadecimal  [32-Bits]

Area                                    Addr        Size        Decimal Bytes (Attributes)
--------------------------------        ----        ----        ------- ----- ------------
.  .ABS.                            00000000    00000000 =           0. bytes (ABS,CON)

      Value  Global                              Global Defined In Module
      -----  --------------------------------   ------------------------
     0000001C  ___bank_scene_18_actors            scene_18_actors
     0000001C  ___bank_scene_18_init              scene_18_init
     0000001C  ___bank_scene_19_init              scene_19_init
     0000001C  ___bank_scene_21_init              scene_21_init
     0000001C  ___bank_scene_22_actors            scene_22_actors
     0000001C  ___bank_scene_26_init              scene_26_init
     0000001C  ___bank_scene_2_actors             scene_2_actors
     0000001C  ___bank_scene_33_actors            scene_33_actors
     0000001C  ___bank_scene_33_init              scene_33_init
     0000001C  ___bank_scene_37_actors            scene_37_actors
     0000001C  ___bank_scene_38_init              scene_38_init
     0000001C  ___bank_scene_39_actors            scene_39_actors
     0000001C  ___bank_scene_45_actors            scene_45_actors
     0000001C  ___bank_scene_45_init              scene_45_init
     0000001C  ___bank_scene_46_actors            scene_46_actors
     0000001C  ___bank_scene_46_p_hit1            scene_46_p_hit1
     0000001C  ___bank_scene_48_p_hit1            scene_48_p_hit1
     0000001C  ___bank_scene_49_p_hit1            scene_49_p_hit1
     0000001C  ___bank_scene_4_init               scene_4_init
     0000001C  ___bank_scene_54_actors            scene_54_actors
     0000001C  ___bank_scene_62_init              scene_62_init
     0000001C  ___bank_scene_69_init              scene_69_init
     0000001C  ___bank_scene_73_actors            scene_73_actors
     0000001C  ___bank_scene_74_init              scene_74_init
     0000001C  ___bank_scene_75_init              scene_75_init
     0000001C  ___bank_scene_85_init              scene_85_init
     0000001C  ___bank_scene_86_actors            scene_86_actors
     0000001C  ___bank_scene_87_init              scene_87_init
     0000001C  ___bank_scene_91_actors            scene_91_actors
     0000001C  ___bank_scene_92_actors            scene_92_actors
     0000001C  ___bank_scene_93_p_hit1            scene_93_p_hit1
     0000001C  ___bank_scene_94_init              scene_94_init
     0000001C  ___bank_scene_94_p_hit1            scene_94_p_hit1
     0000001C  ___bank_scene_95_init              scene_95_init
     0000001C  ___bank_scene_96_init              scene_96_init
     0000001C  ___bank_scene_99_actors            scene_99_actors
     0000001C  ___bank_script_engine_init         
     0000001C  ___bank_script_input_0             script_input_0
     0000001C  ___bank_script_input_1             script_input_1
     0000001C  ___bank_script_input_3             script_input_3
     0000001C  ___bank_script_input_4             script_input_4
     0000001C  ___bank_sprite_blank_interactabl   sprite_blank_interactable_c_
     0000001C  ___bank_sprite_dhilly_5_level_co   sprite_dhilly_5_level_copy__
     0000001C  ___bank_sprite_dhilly_bridge_int   sprite_dhilly_bridge_intera_
     0000001C  ___bank_sprite_dhilly_saveselect   sprite_dhilly_saveselect
     0000001C  ___bank_sprite_highlight_options   sprite_highlight_options_co
     0000001C  ___bank_sprite_highlight_options   sprite_highlight_options_co_
     0000001C  ___bank_sprite_pixelperfectvoti    sprite_pixelperfectvoti
     0000001C  ___bank_sprite_pixelperfectvoti_   sprite_pixelperfectvoti_cop
     0000001C  ___bank_sprite_square_cart_copy_   sprite_square_cart_copy__til
     0000001C  ___bank_sprite_square_full_hitbo   sprite_square_full_hitbox_c_
ASxxxx Linker V03.00/V05.40 + sdld,  page 16.
Hexadecimal  [32-Bits]

Area                                    Addr        Size        Decimal Bytes (Attributes)
--------------------------------        ----        ----        ------- ----- ------------
.  .ABS.                            00000000    00000000 =           0. bytes (ABS,CON)

      Value  Global                              Global Defined In Module
      -----  --------------------------------   ------------------------
     0000001C  ___bank_sprite_square_full_hitbo   sprite_square_full_hitbox_c_
     0000001C  ___bank_sprite_square_full_hitbo   sprite_square_full_hitbox_c_
     0000001C  ___bank_sprite_square_full_hitbo   sprite_square_full_hitbox_c_
     0000001C  ___bank_tileset_default_frame      tileset_default_frame
     0000001C  ___bank_trigger_101_interact       trigger_101_interact
     0000001C  ___bank_trigger_102_interact       trigger_102_interact
     0000001C  ___bank_trigger_103_interact       trigger_103_interact
     0000001C  ___bank_trigger_105_interact       trigger_105_interact
     0000001C  ___bank_trigger_106_interact       trigger_106_interact
     0000001C  ___bank_trigger_108_interact       trigger_108_interact
     0000001C  ___bank_trigger_109_interact       trigger_109_interact
     0000001C  ___bank_trigger_110_interact       trigger_110_interact
     0000001C  ___bank_trigger_111_interact       trigger_111_interact
     0000001C  ___bank_trigger_112_interact       trigger_112_interact
     0000001C  ___bank_trigger_113_interact       trigger_113_interact
     0000001C  ___bank_trigger_114_interact       trigger_114_interact
     0000001C  ___bank_trigger_115_interact       trigger_115_interact
     0000001C  ___bank_trigger_123_interact       trigger_123_interact
     0000001C  ___bank_trigger_40_interact        trigger_40_interact
     0000001C  ___bank_trigger_77_interact        trigger_77_interact
     0000001C  ___bank_trigger_86_interact        trigger_86_interact
     0000001C  ___bank_trigger_89_interact        trigger_89_interact
     0000001C  ___bank_trigger_90_interact        trigger_90_interact
     0000001C  ___bank_trigger_96_interact        trigger_96_interact
     0000001C  ___bank_trigger_97_interact        trigger_97_interact
     0000001C  ___bank_trigger_99_interact        trigger_99_interact
     0000001C  __start_save                    
     0000001C  b_CGBZeroPalette                   palette
     0000001C  b_SGBTransferPalettes              palette
     0000001C  b_events_init                      events
     0000001C  b_itoa_fmt                         vm_ui_a
     0000001C  b_music_events_poll                music_manager
     0000001C  b_music_init_driver                music_manager
     0000001C  b_music_init_events                music_manager
     0000001C  b_palette_init                     palette
     0000001C  b_restore_sram                     flasher
     0000001C  b_restore_sram_bank                flasher
     0000001C  b_save_sram                        flasher
     0000001C  b_timers_init                      events
     0000001C  b_vm_print_detect                  vm_gbprinter
     0000001C  b_vm_print_overlay                 vm_gbprinter
     0000001C  b_vm_projectile_launch             vm_projectiles
     0000001C  b_vm_projectile_load_type          vm_projectiles
     0000001C  b_vm_rtc_get                       vm_rtc
     0000001C  b_vm_rtc_latch                     vm_rtc
     0000001C  b_vm_rtc_set                       vm_rtc
     0000001C  b_vm_rtc_start                     vm_rtc
     0000001C  b_vm_save_clear                    vm_load_save
     0000001C  b_vm_save_peek                     vm_load_save
     0000001C  b_vm_scene_pop                     vm_scene
     0000001C  b_vm_scene_pop_all                 vm_scene
ASxxxx Linker V03.00/V05.40 + sdld,  page 17.
Hexadecimal  [32-Bits]

Area                                    Addr        Size        Decimal Bytes (Attributes)
--------------------------------        ----        ----        ------- ----- ------------
.  .ABS.                            00000000    00000000 =           0. bytes (ABS,CON)

      Value  Global                              Global Defined In Module
      -----  --------------------------------   ------------------------
     0000001C  b_vm_scene_push                    vm_scene
     0000001C  b_vm_scene_stack_reset             vm_scene
     0000001D  ___bank_actor_14_interact          actor_14_interact
     0000001D  ___bank_actor_17_interact          actor_17_interact
     0000001D  ___bank_actor_32_interact          actor_32_interact
     0000001D  ___bank_actor_36_interact          actor_36_interact
     0000001D  ___bank_actor_37_interact          actor_37_interact
     0000001D  ___bank_actor_46_interact          actor_46_interact
     0000001D  ___bank_actor_47_interact          actor_47_interact
     0000001D  ___bank_bg_intro_scenary_copy__t   bg_intro_scenary_copy__tiles
     0000001D  ___bank_emote_shock                emote_shock
     0000001D  ___bank_palette_19                 palette_19
     0000001D  ___bank_palette_2                  palette_2
     0000001D  ___bank_palette_20                 palette_20
     0000001D  ___bank_palette_21                 palette_21
     0000001D  ___bank_palette_22                 palette_22
     0000001D  ___bank_palette_23                 palette_23
     0000001D  ___bank_palette_24                 palette_24
     0000001D  ___bank_palette_25                 palette_25
     0000001D  ___bank_palette_26                 palette_26
     0000001D  ___bank_palette_27                 palette_27
     0000001D  ___bank_palette_28                 palette_28
     0000001D  ___bank_palette_29                 palette_29
     0000001D  ___bank_palette_3                  palette_3
     0000001D  ___bank_palette_30                 palette_30
     0000001D  ___bank_palette_31                 palette_31
     0000001D  ___bank_palette_32                 palette_32
     0000001D  ___bank_palette_33                 palette_33
     0000001D  ___bank_palette_34                 palette_34
     0000001D  ___bank_palette_35                 palette_35
     0000001D  ___bank_palette_36                 palette_36
     0000001D  ___bank_palette_37                 palette_37
     0000001D  ___bank_palette_38                 palette_38
     0000001D  ___bank_palette_39                 palette_39
     0000001D  ___bank_palette_4                  palette_4
     0000001D  ___bank_palette_40                 palette_40
     0000001D  ___bank_palette_41                 palette_41
     0000001D  ___bank_palette_42                 palette_42
     0000001D  ___bank_palette_43                 palette_43
     0000001D  ___bank_palette_44                 palette_44
     0000001D  ___bank_palette_45                 palette_45
     0000001D  ___bank_palette_46                 palette_46
     0000001D  ___bank_palette_47                 palette_47
     0000001D  ___bank_palette_48                 palette_48
     0000001D  ___bank_palette_49                 palette_49
     0000001D  ___bank_palette_5                  palette_5
     0000001D  ___bank_palette_50                 palette_50
     0000001D  ___bank_palette_51                 palette_51
     0000001D  ___bank_palette_52                 palette_52
     0000001D  ___bank_palette_53                 palette_53
     0000001D  ___bank_palette_54                 palette_54
ASxxxx Linker V03.00/V05.40 + sdld,  page 18.
Hexadecimal  [32-Bits]

Area                                    Addr        Size        Decimal Bytes (Attributes)
--------------------------------        ----        ----        ------- ----- ------------
.  .ABS.                            00000000    00000000 =           0. bytes (ABS,CON)

      Value  Global                              Global Defined In Module
      -----  --------------------------------   ------------------------
     0000001D  ___bank_palette_55                 palette_55
     0000001D  ___bank_palette_56                 palette_56
     0000001D  ___bank_palette_57                 palette_57
     0000001D  ___bank_palette_58                 palette_58
     0000001D  ___bank_palette_59                 palette_59
     0000001D  ___bank_palette_6                  palette_6
     0000001D  ___bank_palette_60                 palette_60
     0000001D  ___bank_palette_61                 palette_61
     0000001D  ___bank_palette_62                 palette_62
     0000001D  ___bank_palette_63                 palette_63
     0000001D  ___bank_palette_64                 palette_64
     0000001D  ___bank_palette_65                 palette_65
     0000001D  ___bank_palette_66                 palette_66
     0000001D  ___bank_palette_67                 palette_67
     0000001D  ___bank_palette_68                 palette_68
     0000001D  ___bank_palette_69                 palette_69
     0000001D  ___bank_palette_7                  palette_7
     0000001D  ___bank_palette_70                 palette_70
     0000001D  ___bank_palette_8                  palette_8
     0000001D  ___bank_palette_9                  palette_9
     0000001D  ___bank_scene_0                    scene_0
     0000001D  ___bank_scene_1                    scene_1
     0000001D  ___bank_scene_10                   scene_10
     0000001D  ___bank_scene_100                  scene_100
     0000001D  ___bank_scene_101                  scene_101
     0000001D  ___bank_scene_102                  scene_102
     0000001D  ___bank_scene_103                  scene_103
     0000001D  ___bank_scene_11                   scene_11
     0000001D  ___bank_scene_11_init              scene_11_init
     0000001D  ___bank_scene_12                   scene_12
     0000001D  ___bank_scene_13                   scene_13
     0000001D  ___bank_scene_14                   scene_14
     0000001D  ___bank_scene_15                   scene_15
     0000001D  ___bank_scene_16                   scene_16
     0000001D  ___bank_scene_17                   scene_17
     0000001D  ___bank_scene_18                   scene_18
     0000001D  ___bank_scene_19                   scene_19
     0000001D  ___bank_scene_1_init               scene_1_init
     0000001D  ___bank_scene_2                    scene_2
     0000001D  ___bank_scene_20                   scene_20
     0000001D  ___bank_scene_21                   scene_21
     0000001D  ___bank_scene_22                   scene_22
     0000001D  ___bank_scene_23                   scene_23
     0000001D  ___bank_scene_24                   scene_24
     0000001D  ___bank_scene_25                   scene_25
     0000001D  ___bank_scene_25_init              scene_25_init
     0000001D  ___bank_scene_26                   scene_26
     0000001D  ___bank_scene_27                   scene_27
     0000001D  ___bank_scene_28                   scene_28
     0000001D  ___bank_scene_29                   scene_29
     0000001D  ___bank_scene_2_init               scene_2_init
ASxxxx Linker V03.00/V05.40 + sdld,  page 19.
Hexadecimal  [32-Bits]

Area                                    Addr        Size        Decimal Bytes (Attributes)
--------------------------------        ----        ----        ------- ----- ------------
.  .ABS.                            00000000    00000000 =           0. bytes (ABS,CON)

      Value  Global                              Global Defined In Module
      -----  --------------------------------   ------------------------
     0000001D  ___bank_scene_3                    scene_3
     0000001D  ___bank_scene_30                   scene_30
     0000001D  ___bank_scene_31                   scene_31
     0000001D  ___bank_scene_32                   scene_32
     0000001D  ___bank_scene_33                   scene_33
     0000001D  ___bank_scene_33_sprites           scene_33_sprites
     0000001D  ___bank_scene_34                   scene_34
     0000001D  ___bank_scene_35                   scene_35
     0000001D  ___bank_scene_37                   scene_37
     0000001D  ___bank_scene_38                   scene_38
     0000001D  ___bank_scene_39                   scene_39
     0000001D  ___bank_scene_3_init               scene_3_init
     0000001D  ___bank_scene_4                    scene_4
     0000001D  ___bank_scene_40                   scene_40
     0000001D  ___bank_scene_41                   scene_41
     0000001D  ___bank_scene_42                   scene_42
     0000001D  ___bank_scene_43                   scene_43
     0000001D  ___bank_scene_44                   scene_44
     0000001D  ___bank_scene_45                   scene_45
     0000001D  ___bank_scene_46                   scene_46
     0000001D  ___bank_scene_47                   scene_47
     0000001D  ___bank_scene_48                   scene_48
     0000001D  ___bank_scene_49                   scene_49
     0000001D  ___bank_scene_49_triggers          scene_49_triggers
     0000001D  ___bank_scene_5                    scene_5
     0000001D  ___bank_scene_50                   scene_50
     0000001D  ___bank_scene_51                   scene_51
     0000001D  ___bank_scene_52                   scene_52
     0000001D  ___bank_scene_53                   scene_53
     0000001D  ___bank_scene_54                   scene_54
     0000001D  ___bank_scene_55                   scene_55
     0000001D  ___bank_scene_56                   scene_56
     0000001D  ___bank_scene_57                   scene_57
     0000001D  ___bank_scene_58                   scene_58
     0000001D  ___bank_scene_59                   scene_59
     0000001D  ___bank_scene_5_init               scene_5_init
     0000001D  ___bank_scene_6                    scene_6
     0000001D  ___bank_scene_60                   scene_60
     0000001D  ___bank_scene_61                   scene_61
     0000001D  ___bank_scene_62                   scene_62
     0000001D  ___bank_scene_63                   scene_63
     0000001D  ___bank_scene_64                   scene_64
     0000001D  ___bank_scene_65                   scene_65
     0000001D  ___bank_scene_66                   scene_66
     0000001D  ___bank_scene_67                   scene_67
     0000001D  ___bank_scene_68                   scene_68
     0000001D  ___bank_scene_69                   scene_69
     0000001D  ___bank_scene_6_init               scene_6_init
     0000001D  ___bank_scene_7                    scene_7
     0000001D  ___bank_scene_70                   scene_70
     0000001D  ___bank_scene_71                   scene_71
ASxxxx Linker V03.00/V05.40 + sdld,  page 20.
Hexadecimal  [32-Bits]

Area                                    Addr        Size        Decimal Bytes (Attributes)
--------------------------------        ----        ----        ------- ----- ------------
.  .ABS.                            00000000    00000000 =           0. bytes (ABS,CON)

      Value  Global                              Global Defined In Module
      -----  --------------------------------   ------------------------
     0000001D  ___bank_scene_72                   scene_72
     0000001D  ___bank_scene_73                   scene_73
     0000001D  ___bank_scene_74                   scene_74
     0000001D  ___bank_scene_75                   scene_75
     0000001D  ___bank_scene_76                   scene_76
     0000001D  ___bank_scene_77                   scene_77
     0000001D  ___bank_scene_78                   scene_78
     0000001D  ___bank_scene_79                   scene_79
     0000001D  ___bank_scene_8                    scene_8
     0000001D  ___bank_scene_80                   scene_80
     0000001D  ___bank_scene_81                   scene_81
     0000001D  ___bank_scene_82                   scene_82
     0000001D  ___bank_scene_83                   scene_83
     0000001D  ___bank_scene_84                   scene_84
     0000001D  ___bank_scene_85                   scene_85
     0000001D  ___bank_scene_86                   scene_86
     0000001D  ___bank_scene_87                   scene_87
     0000001D  ___bank_scene_88                   scene_88
     0000001D  ___bank_scene_89                   scene_89
     0000001D  ___bank_scene_8_init               scene_8_init
     0000001D  ___bank_scene_9                    scene_9
     0000001D  ___bank_scene_90                   scene_90
     0000001D  ___bank_scene_91                   scene_91
     0000001D  ___bank_scene_92                   scene_92
     0000001D  ___bank_scene_93                   scene_93
     0000001D  ___bank_scene_94                   scene_94
     0000001D  ___bank_scene_95                   scene_95
     0000001D  ___bank_scene_96                   scene_96
     0000001D  ___bank_scene_97                   scene_97
     0000001D  ___bank_scene_98                   scene_98
     0000001D  ___bank_scene_99                   scene_99
     0000001D  ___bank_scene_9_init               scene_9_init
     0000001D  ___bank_script_timer               script_timer
     0000001D  ___bank_script_timer_0             script_timer_0
     0000001D  ___bank_script_timer_11            script_timer_11
     0000001D  ___bank_script_timer_12            script_timer_12
     0000001D  ___bank_script_timer_3             script_timer_3
     0000001D  ___bank_sprite_blank_interactabl   sprite_blank_interactable_c_
     0000001D  ___bank_sprite_blank_interactabl   sprite_blank_interactable_c_
     0000001D  ___bank_sprite_car_tileset         sprite_car_tileset
     0000001D  ___bank_sprite_cataa_tileset       sprite_cataa_tileset
     0000001D  ___bank_sprite_dhilly_5_level_co   sprite_dhilly_5_level_copy_
     0000001D  ___bank_sprite_dhilly_saveselect   sprite_dhilly_saveselect_co_
     0000001D  ___bank_sprite_iceosapp_ctf_copy   sprite_iceosapp_ctf_copy_0_t
     0000001D  ___bank_sprite_iceosapp_wveruner   sprite_iceosapp_wveruner_co_
     0000001D  ___bank_sprite_knife_down_copy__   sprite_knife_down_copy__tile
     0000001D  ___bank_sprite_mzdesigns_tileset   sprite_mzdesigns_tileset
     0000001D  ___bank_sprite_shapiro             sprite_shapiro
     0000001D  ___bank_sprite_shapiro_tileset     sprite_shapiro_tileset
     0000001D  ___bank_sprite_square_cart_copy_   sprite_square_cart_copy_
     0000001D  ___bank_sprite_square_full_hitbo   sprite_square_full_hitbox_c_
ASxxxx Linker V03.00/V05.40 + sdld,  page 21.
Hexadecimal  [32-Bits]

Area                                    Addr        Size        Decimal Bytes (Attributes)
--------------------------------        ----        ----        ------- ----- ------------
.  .ABS.                            00000000    00000000 =           0. bytes (ABS,CON)

      Value  Global                              Global Defined In Module
      -----  --------------------------------   ------------------------
     0000001D  ___bank_sprite_square_full_hitbo   sprite_square_full_hitbox_c_
     0000001D  ___bank_sprite_static_copy_0_til   sprite_static_copy_0_tileset
     0000001D  ___bank_sprite_static_copy_tiles   sprite_static_copy_tileset
     0000001D  ___bank_trigger_0_interact         trigger_0_interact
     0000001D  ___bank_trigger_100_interact       trigger_100_interact
     0000001D  ___bank_trigger_104_interact       trigger_104_interact
     0000001D  ___bank_trigger_107_interact       trigger_107_interact
     0000001D  ___bank_trigger_116_interact       trigger_116_interact
     0000001D  ___bank_trigger_117_interact       trigger_117_interact
     0000001D  ___bank_trigger_118_interact       trigger_118_interact
     0000001D  ___bank_trigger_119_interact       trigger_119_interact
     0000001D  ___bank_trigger_125_interact       trigger_125_interact
     0000001D  ___bank_trigger_127_interact       trigger_127_interact
     0000001D  ___bank_trigger_128_interact       trigger_128_interact
     0000001D  ___bank_trigger_12_interact        trigger_12_interact
     0000001D  ___bank_trigger_130_interact       trigger_130_interact
     0000001D  ___bank_trigger_131_interact       trigger_131_interact
     0000001D  ___bank_trigger_13_interact        trigger_13_interact
     0000001D  ___bank_trigger_15_interact        trigger_15_interact
     0000001D  ___bank_trigger_16_interact        trigger_16_interact
     0000001D  ___bank_trigger_17_interact        trigger_17_interact
     0000001D  ___bank_trigger_18_interact        trigger_18_interact
     0000001D  ___bank_trigger_19_interact        trigger_19_interact
     0000001D  ___bank_trigger_20_interact        trigger_20_interact
     0000001D  ___bank_trigger_21_interact        trigger_21_interact
     0000001D  ___bank_trigger_22_interact        trigger_22_interact
     0000001D  ___bank_trigger_23_interact        trigger_23_interact
     0000001D  ___bank_trigger_24_interact        trigger_24_interact
     0000001D  ___bank_trigger_25_interact        trigger_25_interact
     0000001D  ___bank_trigger_26_interact        trigger_26_interact
     0000001D  ___bank_trigger_27_interact        trigger_27_interact
     0000001D  ___bank_trigger_28_interact        trigger_28_interact
     0000001D  ___bank_trigger_29_interact        trigger_29_interact
     0000001D  ___bank_trigger_2_interact         trigger_2_interact
     0000001D  ___bank_trigger_30_interact        trigger_30_interact
     0000001D  ___bank_trigger_31_interact        trigger_31_interact
     0000001D  ___bank_trigger_32_interact        trigger_32_interact
     0000001D  ___bank_trigger_33_interact        trigger_33_interact
     0000001D  ___bank_trigger_34_interact        trigger_34_interact
     0000001D  ___bank_trigger_35_interact        trigger_35_interact
     0000001D  ___bank_trigger_36_interact        trigger_36_interact
     0000001D  ___bank_trigger_37_interact        trigger_37_interact
     0000001D  ___bank_trigger_38_interact        trigger_38_interact
     0000001D  ___bank_trigger_39_interact        trigger_39_interact
     0000001D  ___bank_trigger_41_interact        trigger_41_interact
     0000001D  ___bank_trigger_42_interact        trigger_42_interact
     0000001D  ___bank_trigger_43_interact        trigger_43_interact
     0000001D  ___bank_trigger_44_interact        trigger_44_interact
     0000001D  ___bank_trigger_45_interact        trigger_45_interact
     0000001D  ___bank_trigger_46_interact        trigger_46_interact
     0000001D  ___bank_trigger_47_interact        trigger_47_interact
ASxxxx Linker V03.00/V05.40 + sdld,  page 22.
Hexadecimal  [32-Bits]

Area                                    Addr        Size        Decimal Bytes (Attributes)
--------------------------------        ----        ----        ------- ----- ------------
.  .ABS.                            00000000    00000000 =           0. bytes (ABS,CON)

      Value  Global                              Global Defined In Module
      -----  --------------------------------   ------------------------
     0000001D  ___bank_trigger_48_interact        trigger_48_interact
     0000001D  ___bank_trigger_4_interact         trigger_4_interact
     0000001D  ___bank_trigger_51_interact        trigger_51_interact
     0000001D  ___bank_trigger_53_interact        trigger_53_interact
     0000001D  ___bank_trigger_54_interact        trigger_54_interact
     0000001D  ___bank_trigger_5_interact         trigger_5_interact
     0000001D  ___bank_trigger_60_interact        trigger_60_interact
     0000001D  ___bank_trigger_62_interact        trigger_62_interact
     0000001D  ___bank_trigger_63_interact        trigger_63_interact
     0000001D  ___bank_trigger_64_interact        trigger_64_interact
     0000001D  ___bank_trigger_65_interact        trigger_65_interact
     0000001D  ___bank_trigger_66_interact        trigger_66_interact
     0000001D  ___bank_trigger_67_interact        trigger_67_interact
     0000001D  ___bank_trigger_68_interact        trigger_68_interact
     0000001D  ___bank_trigger_69_interact        trigger_69_interact
     0000001D  ___bank_trigger_6_interact         trigger_6_interact
     0000001D  ___bank_trigger_70_interact        trigger_70_interact
     0000001D  ___bank_trigger_71_interact        trigger_71_interact
     0000001D  ___bank_trigger_7_interact         trigger_7_interact
     0000001D  b_scroll_rect                      
     0000001E  ___bank_bg_area_dhilly_city_lair   bg_area_dhilly_city_lair_la
     0000001E  ___bank_bg_area_dhilly_city_lair   bg_area_dhilly_city_lair_la_
     0000001E  ___bank_bg_area_dhilly_city_lair   bg_area_dhilly_city_lair_la_
     0000001E  ___bank_bg_area_dhilly_city_lair   bg_area_dhilly_city_lair_la_
     0000001E  ___bank_bg_area_dhilly_city_lair   bg_area_dhilly_city_lair_la_
     0000001E  ___bank_bg_area_dhilly_city_lair   bg_area_dhilly_city_lair_la_
     0000001E  ___bank_bg_area_dhilly_city_lair   bg_area_dhilly_city_lair_la_
     0000001E  ___bank_bg_area_len_city_eve_hou   bg_area_len_city_eve_house_
     0000001E  ___bank_bg_cave_ladder_copy_       bg_cave_ladder_copy_
     0000001E  ___bank_bg_cave_ladder_copy_0      bg_cave_ladder_copy_0
     0000001E  ___bank_bg_chase_shilly            bg_chase_shilly
     0000001E  ___bank_bg_cinema                  bg_cinema
     0000001E  ___bank_bg_controls_gb_copy_       bg_controls_gb_copy_
     0000001E  ___bank_bg_controls_gb_copy_0      bg_controls_gb_copy_0
     0000001E  ___bank_bg_controls_gba_copy_      bg_controls_gba_copy_
     0000001E  ___bank_bg_controls_gba_copy_0     bg_controls_gba_copy_0
     0000001E  ___bank_bg_controls_gbc_copy_      bg_controls_gbc_copy_
     0000001E  ___bank_bg_controls_mobile_copy_   bg_controls_mobile_copy_
     0000001E  ___bank_bg_controls_mobile_copy_   bg_controls_mobile_copy_0
     0000001E  ___bank_bg_dhilly_bridge           bg_dhilly_bridge
     0000001E  ___bank_bg_dhilly_game_1           bg_dhilly_game_1
     0000001E  ___bank_bg_dhilly_game_10          bg_dhilly_game_10
     0000001E  ___bank_bg_dhilly_game_11          bg_dhilly_game_11
     0000001E  ___bank_bg_dhilly_game_4           bg_dhilly_game_4
     0000001E  ___bank_bg_dhilly_game_5           bg_dhilly_game_5
     0000001E  ___bank_bg_dhilly_game_8           bg_dhilly_game_8
     0000001E  ___bank_bg_dhilly_game_9           bg_dhilly_game_9
     0000001E  ___bank_bg_dhillyhubdown           bg_dhillyhubdown
     0000001E  ___bank_bg_elevator                bg_elevator
     0000001E  ___bank_bg_endingscene             bg_endingscene
     0000001E  ___bank_bg_endingscene2            bg_endingscene2
ASxxxx Linker V03.00/V05.40 + sdld,  page 23.
Hexadecimal  [32-Bits]

Area                                    Addr        Size        Decimal Bytes (Attributes)
--------------------------------        ----        ----        ------- ----- ------------
.  .ABS.                            00000000    00000000 =           0. bytes (ABS,CON)

      Value  Global                              Global Defined In Module
      -----  --------------------------------   ------------------------
     0000001E  ___bank_bg_endingscene3            bg_endingscene3
     0000001E  ___bank_bg_endingscene_0           bg_endingscene_0
     0000001E  ___bank_bg_fall_to_shilly_area_c   bg_fall_to_shilly_area_copy
     0000001E  ___bank_bg_fieldlazy               bg_fieldlazy
     0000001E  ___bank_bg_iceos_desktop_copy_     bg_iceos_desktop_copy_
     0000001E  ___bank_bg_iceos_login_2_copy_     bg_iceos_login_2_copy_
     0000001E  ___bank_bg_iceos_login_copy_       bg_iceos_login_copy_
     0000001E  ___bank_bg_iceos_login_copy__til   bg_iceos_login_copy__tileset
     0000001E  ___bank_bg_iceos_platformer2_cop   bg_iceos_platformer2_copy_
     0000001E  ___bank_bg_iceos_platformer3_cop   bg_iceos_platformer3_copy_
     0000001E  ___bank_bg_iceos_platformer4       bg_iceos_platformer4
     0000001E  ___bank_bg_init_copy_              bg_init_copy_
     0000001E  ___bank_bg_init_copy_0             bg_init_copy_0
     0000001E  ___bank_bg_init_copy_1             bg_init_copy_1
     0000001E  ___bank_bg_init_copy_2             bg_init_copy_2
     0000001E  ___bank_bg_init_copy__tileset      bg_init_copy__tileset
     0000001E  ___bank_bg_intro_scenary_copy_     bg_intro_scenary_copy_
     0000001E  ___bank_bg_intro_weather_copy_     bg_intro_weather_copy_
     0000001E  ___bank_bg_lair_hub                bg_lair_hub
     0000001E  ___bank_bg_lair_right_3            bg_lair_right_3
     0000001E  ___bank_bg_lair_right_3_copy_      bg_lair_right_3_copy_
     0000001E  ___bank_bg_lair_right_4_copy_      bg_lair_right_4_copy_
     0000001E  ___bank_bg_lair_right_5            bg_lair_right_5
     0000001E  ___bank_bg_lencity_dhillybuildin   bg_lencity_dhillybuilding_c
     0000001E  ___bank_bg_lencity_dhillybuildin   bg_lencity_dhillybuilding_f
     0000001E  ___bank_bg_lencity_trainstation    bg_lencity_trainstation
     0000001E  ___bank_bg_lencity_trainstation_   bg_lencity_trainstation_cop
     0000001E  ___bank_bg_lencityopen             bg_lencityopen
     0000001E  ___bank_bg_lencityopen_copy_       bg_lencityopen_copy_
     0000001E  ___bank_bg_lencityopen_copy_0      bg_lencityopen_copy_0
     0000001E  ___bank_bg_options_copy_           bg_options_copy_
     0000001E  ___bank_bg_pixil_frame_0_23        bg_pixil_frame_0_23
     0000001E  ___bank_bg_pixil_frame_0_24        bg_pixil_frame_0_24
     0000001E  ___bank_bg_pixil_frame_0_30        bg_pixil_frame_0_30
     0000001E  ___bank_bg_pixil_frame_0_31        bg_pixil_frame_0_31
     0000001E  ___bank_bg_pixil_frame_0_33        bg_pixil_frame_0_33
     0000001E  ___bank_bg_pixil_frame_0_copy_co   bg_pixil_frame_0_copy_copy_
     0000001E  ___bank_bg_pixil_frame_23_0        bg_pixil_frame_23_0
     0000001E  ___bank_bg_placeholder_copy_copy   bg_placeholder_copy_copy_co
     0000001E  ___bank_bg_placeholder_copy_copy   bg_placeholder_copy_copy_co_
     0000001E  ___bank_bg_samsam_copy             bg_samsam_copy
     0000001E  ___bank_bg_shillycity_sara_house   bg_shillycity_sara_house_co
     0000001E  ___bank_bg_shillycityopen_copy_    bg_shillycityopen_copy_
     0000001E  ___bank_bg_shillycityopen_copy_0   bg_shillycityopen_copy_0
     0000001E  ___bank_bg_shillycityopen_copy_1   bg_shillycityopen_copy_1
     0000001E  ___bank_bg_square_frozen_future    bg_square_frozen_future
     0000001E  ___bank_bg_theatre                 bg_theatre
     0000001E  ___bank_bg_title                   bg_title
     0000001E  ___bank_bg_title_copy_             bg_title_copy_
     0000001E  ___bank_bg_title_copy_0            bg_title_copy_0
     0000001E  ___bank_bg_title_copy_1            bg_title_copy_1
ASxxxx Linker V03.00/V05.40 + sdld,  page 24.
Hexadecimal  [32-Bits]

Area                                    Addr        Size        Decimal Bytes (Attributes)
--------------------------------        ----        ----        ------- ----- ------------
.  .ABS.                            00000000    00000000 =           0. bytes (ABS,CON)

      Value  Global                              Global Defined In Module
      -----  --------------------------------   ------------------------
     0000001E  ___bank_bg_title_copy_1_tileset    bg_title_copy_1_tileset
     0000001E  ___bank_bg_title_copy_2            bg_title_copy_2
     0000001E  ___bank_bg_ui_screens_title_copy   bg_ui_screens_title_copy_
     0000001E  ___bank_bg_wakeupsquare_1          bg_wakeupsquare_1
     0000001E  ___bank_bg_wakeupsquare_1_tilese   bg_wakeupsquare_1_tileset
     0000001E  ___bank_bg_wakeupsquare_3_copy_    bg_wakeupsquare_3_copy_
     0000001E  ___bank_cursor_image               cursor_image
     0000001E  ___bank_scene_0_init               scene_0_init
     0000001E  ___bank_scene_0_triggers           scene_0_triggers
     0000001E  ___bank_scene_101_actors           scene_101_actors
     0000001E  ___bank_scene_101_init             scene_101_init
     0000001E  ___bank_scene_102_actors           scene_102_actors
     0000001E  ___bank_scene_102_init             scene_102_init
     0000001E  ___bank_scene_103_init             scene_103_init
     0000001E  ___bank_scene_12_init              scene_12_init
     0000001E  ___bank_scene_13_init              scene_13_init
     0000001E  ___bank_scene_15_init              scene_15_init
     0000001E  ___bank_scene_16_init              scene_16_init
     0000001E  ___bank_scene_17_actors            scene_17_actors
     0000001E  ___bank_scene_17_triggers          scene_17_triggers
     0000001E  ___bank_scene_18_triggers          scene_18_triggers
     0000001E  ___bank_scene_19_actors            scene_19_actors
     0000001E  ___bank_scene_19_triggers          scene_19_triggers
     0000001E  ___bank_scene_20_actors            scene_20_actors
     0000001E  ___bank_scene_20_init              scene_20_init
     0000001E  ___bank_scene_20_triggers          scene_20_triggers
     0000001E  ___bank_scene_27_triggers          scene_27_triggers
     0000001E  ___bank_scene_28_init              scene_28_init
     0000001E  ___bank_scene_28_triggers          scene_28_triggers
     0000001E  ___bank_scene_29_init              scene_29_init
     0000001E  ___bank_scene_29_triggers          scene_29_triggers
     0000001E  ___bank_scene_30_init              scene_30_init
     0000001E  ___bank_scene_30_triggers          scene_30_triggers
     0000001E  ___bank_scene_31_init              scene_31_init
     0000001E  ___bank_scene_31_triggers          scene_31_triggers
     0000001E  ___bank_scene_32_init              scene_32_init
     0000001E  ___bank_scene_32_triggers          scene_32_triggers
     0000001E  ___bank_scene_33_triggers          scene_33_triggers
     0000001E  ___bank_scene_34_actors            scene_34_actors
     0000001E  ___bank_scene_34_sprites           scene_34_sprites
     0000001E  ___bank_scene_34_triggers          scene_34_triggers
     0000001E  ___bank_scene_35_init              scene_35_init
     0000001E  ___bank_scene_35_triggers          scene_35_triggers
     0000001E  ___bank_scene_37_init              scene_37_init
     0000001E  ___bank_scene_37_sprites           scene_37_sprites
     0000001E  ___bank_scene_39_init              scene_39_init
     0000001E  ___bank_scene_39_sprites           scene_39_sprites
     0000001E  ___bank_scene_3_actors             scene_3_actors
     0000001E  ___bank_scene_40_init              scene_40_init
     0000001E  ___bank_scene_40_triggers          scene_40_triggers
     0000001E  ___bank_scene_41_init              scene_41_init
ASxxxx Linker V03.00/V05.40 + sdld,  page 25.
Hexadecimal  [32-Bits]

Area                                    Addr        Size        Decimal Bytes (Attributes)
--------------------------------        ----        ----        ------- ----- ------------
.  .ABS.                            00000000    00000000 =           0. bytes (ABS,CON)

      Value  Global                              Global Defined In Module
      -----  --------------------------------   ------------------------
     0000001E  ___bank_scene_41_triggers          scene_41_triggers
     0000001E  ___bank_scene_42_init              scene_42_init
     0000001E  ___bank_scene_43_init              scene_43_init
     0000001E  ___bank_scene_43_triggers          scene_43_triggers
     0000001E  ___bank_scene_44_init              scene_44_init
     0000001E  ___bank_scene_44_triggers          scene_44_triggers
     0000001E  ___bank_scene_45_sprites           scene_45_sprites
     0000001E  ___bank_scene_45_triggers          scene_45_triggers
     0000001E  ___bank_scene_46_projectiles       scene_46_projectiles
     0000001E  ___bank_scene_46_sprites           scene_46_sprites
     0000001E  ___bank_scene_46_triggers          scene_46_triggers
     0000001E  ___bank_scene_47_init              scene_47_init
     0000001E  ___bank_scene_47_triggers          scene_47_triggers
     0000001E  ___bank_scene_48_actors            scene_48_actors
     0000001E  ___bank_scene_48_init              scene_48_init
     0000001E  ___bank_scene_48_projectiles       scene_48_projectiles
     0000001E  ___bank_scene_48_sprites           scene_48_sprites
     0000001E  ___bank_scene_48_triggers          scene_48_triggers
     0000001E  ___bank_scene_49_actors            scene_49_actors
     0000001E  ___bank_scene_49_init              scene_49_init
     0000001E  ___bank_scene_49_projectiles       scene_49_projectiles
     0000001E  ___bank_scene_49_sprites           scene_49_sprites
     0000001E  ___bank_scene_50_actors            scene_50_actors
     0000001E  ___bank_scene_50_init              scene_50_init
     0000001E  ___bank_scene_50_projectiles       scene_50_projectiles
     0000001E  ___bank_scene_50_sprites           scene_50_sprites
     0000001E  ___bank_scene_50_triggers          scene_50_triggers
     0000001E  ___bank_scene_51_actors            scene_51_actors
     0000001E  ___bank_scene_51_init              scene_51_init
     0000001E  ___bank_scene_51_sprites           scene_51_sprites
     0000001E  ___bank_scene_51_triggers          scene_51_triggers
     0000001E  ___bank_scene_52_sprites           scene_52_sprites
     0000001E  ___bank_scene_53_init              scene_53_init
     0000001E  ___bank_scene_53_sprites           scene_53_sprites
     0000001E  ___bank_scene_53_triggers          scene_53_triggers
     0000001E  ___bank_scene_54_sprites           scene_54_sprites
     0000001E  ___bank_scene_54_triggers          scene_54_triggers
     0000001E  ___bank_scene_55_init              scene_55_init
     0000001E  ___bank_scene_55_triggers          scene_55_triggers
     0000001E  ___bank_scene_56_init              scene_56_init
     0000001E  ___bank_scene_56_triggers          scene_56_triggers
     0000001E  ___bank_scene_57_init              scene_57_init
     0000001E  ___bank_scene_57_triggers          scene_57_triggers
     0000001E  ___bank_scene_58_actors            scene_58_actors
     0000001E  ___bank_scene_58_sprites           scene_58_sprites
     0000001E  ___bank_scene_58_triggers          scene_58_triggers
     0000001E  ___bank_scene_59_init              scene_59_init
     0000001E  ___bank_scene_59_triggers          scene_59_triggers
     0000001E  ___bank_scene_60_actors            scene_60_actors
     0000001E  ___bank_scene_60_init              scene_60_init
     0000001E  ___bank_scene_60_sprites           scene_60_sprites
ASxxxx Linker V03.00/V05.40 + sdld,  page 26.
Hexadecimal  [32-Bits]

Area                                    Addr        Size        Decimal Bytes (Attributes)
--------------------------------        ----        ----        ------- ----- ------------
.  .ABS.                            00000000    00000000 =           0. bytes (ABS,CON)

      Value  Global                              Global Defined In Module
      -----  --------------------------------   ------------------------
     0000001E  ___bank_scene_60_triggers          scene_60_triggers
     0000001E  ___bank_scene_61_actors            scene_61_actors
     0000001E  ___bank_scene_61_sprites           scene_61_sprites
     0000001E  ___bank_scene_61_triggers          scene_61_triggers
     0000001E  ___bank_scene_62_triggers          scene_62_triggers
     0000001E  ___bank_scene_63_init              scene_63_init
     0000001E  ___bank_scene_63_triggers          scene_63_triggers
     0000001E  ___bank_scene_64_actors            scene_64_actors
     0000001E  ___bank_scene_64_sprites           scene_64_sprites
     0000001E  ___bank_scene_64_triggers          scene_64_triggers
     0000001E  ___bank_scene_65_init              scene_65_init
     0000001E  ___bank_scene_65_triggers          scene_65_triggers
     0000001E  ___bank_scene_66_init              scene_66_init
     0000001E  ___bank_scene_66_triggers          scene_66_triggers
     0000001E  ___bank_scene_67_init              scene_67_init
     0000001E  ___bank_scene_67_triggers          scene_67_triggers
     0000001E  ___bank_scene_68_init              scene_68_init
     0000001E  ___bank_scene_68_triggers          scene_68_triggers
     0000001E  ___bank_scene_70_init              scene_70_init
     0000001E  ___bank_scene_70_triggers          scene_70_triggers
     0000001E  ___bank_scene_71_actors            scene_71_actors
     0000001E  ___bank_scene_71_init              scene_71_init
     0000001E  ___bank_scene_71_sprites           scene_71_sprites
     0000001E  ___bank_scene_71_triggers          scene_71_triggers
     0000001E  ___bank_scene_72_init              scene_72_init
     0000001E  ___bank_scene_72_triggers          scene_72_triggers
     0000001E  ___bank_scene_73_init              scene_73_init
     0000001E  ___bank_scene_73_sprites           scene_73_sprites
     0000001E  ___bank_scene_75_triggers          scene_75_triggers
     0000001E  ___bank_scene_76_actors            scene_76_actors
     0000001E  ___bank_scene_76_init              scene_76_init
     0000001E  ___bank_scene_76_sprites           scene_76_sprites
     0000001E  ___bank_scene_76_triggers          scene_76_triggers
     0000001E  ___bank_scene_77_init              scene_77_init
     0000001E  ___bank_scene_77_triggers          scene_77_triggers
     0000001E  ___bank_scene_78_init              scene_78_init
     0000001E  ___bank_scene_78_triggers          scene_78_triggers
     0000001E  ___bank_scene_79_init              scene_79_init
     0000001E  ___bank_scene_79_triggers          scene_79_triggers
     0000001E  ___bank_scene_80_init              scene_80_init
     0000001E  ___bank_scene_80_triggers          scene_80_triggers
     0000001E  ___bank_scene_81_init              scene_81_init
     0000001E  ___bank_scene_81_triggers          scene_81_triggers
     0000001E  ___bank_scene_82_init              scene_82_init
     0000001E  ___bank_scene_82_triggers          scene_82_triggers
     0000001E  ___bank_scene_83_init              scene_83_init
     0000001E  ___bank_scene_83_triggers          scene_83_triggers
     0000001E  ___bank_scene_84_init              scene_84_init
     0000001E  ___bank_scene_84_triggers          scene_84_triggers
     0000001E  ___bank_scene_86_sprites           scene_86_sprites
     0000001E  ___bank_scene_86_triggers          scene_86_triggers
ASxxxx Linker V03.00/V05.40 + sdld,  page 27.
Hexadecimal  [32-Bits]

Area                                    Addr        Size        Decimal Bytes (Attributes)
--------------------------------        ----        ----        ------- ----- ------------
.  .ABS.                            00000000    00000000 =           0. bytes (ABS,CON)

      Value  Global                              Global Defined In Module
      -----  --------------------------------   ------------------------
     0000001E  ___bank_scene_88_init              scene_88_init
     0000001E  ___bank_scene_88_triggers          scene_88_triggers
     0000001E  ___bank_scene_89_init              scene_89_init
     0000001E  ___bank_scene_89_triggers          scene_89_triggers
     0000001E  ___bank_scene_90_actors            scene_90_actors
     0000001E  ___bank_scene_90_init              scene_90_init
     0000001E  ___bank_scene_90_sprites           scene_90_sprites
     0000001E  ___bank_scene_90_triggers          scene_90_triggers
     0000001E  ___bank_scene_91_sprites           scene_91_sprites
     0000001E  ___bank_scene_91_triggers          scene_91_triggers
     0000001E  ___bank_scene_92_sprites           scene_92_sprites
     0000001E  ___bank_scene_93_actors            scene_93_actors
     0000001E  ___bank_scene_93_projectiles       scene_93_projectiles
     0000001E  ___bank_scene_93_triggers          scene_93_triggers
     0000001E  ___bank_scene_94_actors            scene_94_actors
     0000001E  ___bank_scene_94_projectiles       scene_94_projectiles
     0000001E  ___bank_scene_99_sprites           scene_99_sprites
     0000001E  ___bank_script_input               script_input
     0000001E  ___bank_script_input_12            script_input_12
     0000001E  ___bank_script_input_7             script_input_7
     0000001E  ___bank_script_timer_1             script_timer_1
     0000001E  ___bank_script_timer_5             script_timer_5
     0000001E  ___bank_sprite_blank_interactabl   sprite_blank_interactable_c
     0000001E  ___bank_sprite_car                 sprite_car
     0000001E  ___bank_sprite_cataa               sprite_cataa
     0000001E  ___bank_sprite_dhilly_bridge_int   sprite_dhilly_bridge_intera
     0000001E  ___bank_sprite_dhilly_bridge_int   sprite_dhilly_bridge_intera_
     0000001E  ___bank_sprite_dhilly_bridge_int   sprite_dhilly_bridge_intera_
     0000001E  ___bank_sprite_dhilly_saveselect   sprite_dhilly_saveselect_co
     0000001E  ___bank_sprite_dhilly_saveselect   sprite_dhilly_saveselect_co_
     0000001E  ___bank_sprite_dhilly_saveselect   sprite_dhilly_saveselect_co_
     0000001E  ___bank_sprite_dhilly_saveselect   sprite_dhilly_saveselect_co_
     0000001E  ___bank_sprite_dhilly_saveselect   sprite_dhilly_saveselect_co_
     0000001E  ___bank_sprite_dhilly_saveselect   sprite_dhilly_saveselect_til
     0000001E  ___bank_sprite_iceos_cursor_copy   sprite_iceos_cursor_copy_
     0000001E  ___bank_sprite_iceosapp_ctf_copy   sprite_iceosapp_ctf_copy_0
     0000001E  ___bank_sprite_iceosapp_pltfrmr_   sprite_iceosapp_pltfrmr_cop
     0000001E  ___bank_sprite_iceosapp_pltfrmr_   sprite_iceosapp_pltfrmr_cop_
     0000001E  ___bank_sprite_iceosapp_settings   sprite_iceosapp_settings_co
     0000001E  ___bank_sprite_iceosapp_settings   sprite_iceosapp_settings_co_
     0000001E  ___bank_sprite_iceosapp_wveruner   sprite_iceosapp_wveruner_co
     0000001E  ___bank_sprite_knife_down_copy_    sprite_knife_down_copy_
     0000001E  ___bank_sprite_len_city_dhilly_h   sprite_len_city_dhilly_hous
     0000001E  ___bank_sprite_mzdesigns           sprite_mzdesigns
     0000001E  ___bank_sprite_piece_dhilly3_ver   sprite_piece_dhilly3_ver
     0000001E  ___bank_sprite_piece_dhilly3_ver   sprite_piece_dhilly3_ver_co
     0000001E  ___bank_sprite_piece_dhilly3_ver   sprite_piece_dhilly3_ver_co_
     0000001E  ___bank_sprite_piece_dhilly3_ver   sprite_piece_dhilly3_ver_til
     0000001E  ___bank_sprite_square_full_hitbo   sprite_square_full_hitbox_c
     0000001E  ___bank_sprite_square_full_hitbo   sprite_square_full_hitbox_c_
     0000001E  ___bank_sprite_square_full_hitbo   sprite_square_full_hitbox_c_
ASxxxx Linker V03.00/V05.40 + sdld,  page 28.
Hexadecimal  [32-Bits]

Area                                    Addr        Size        Decimal Bytes (Attributes)
--------------------------------        ----        ----        ------- ----- ------------
.  .ABS.                            00000000    00000000 =           0. bytes (ABS,CON)

      Value  Global                              Global Defined In Module
      -----  --------------------------------   ------------------------
     0000001E  ___bank_sprite_square_full_hitbo   sprite_square_full_hitbox_c_
     0000001E  ___bank_sprite_square_full_hitbo   sprite_square_full_hitbox_c_
     0000001E  ___bank_sprite_square_full_hitbo   sprite_square_full_hitbox_c_
     0000001E  ___bank_sprite_square_platformin   sprite_square_platforming_c
     0000001E  ___bank_sprite_square_platformin   sprite_square_platforming_c_
     0000001E  ___bank_sprite_static_copy         sprite_static_copy
     0000001E  ___bank_sprite_static_copy_0       sprite_static_copy_0
     0000001E  ___bank_spritesheet_none           spritesheet_none
     0000001E  ___bank_trigger_10_interact        trigger_10_interact
     0000001E  ___bank_trigger_11_interact        trigger_11_interact
     0000001E  ___bank_trigger_14_interact        trigger_14_interact
     0000001E  ___bank_trigger_50_interact        trigger_50_interact
     0000001E  ___bank_trigger_55_interact        trigger_55_interact
     0000001E  ___bank_trigger_56_interact        trigger_56_interact
     0000001E  ___bank_trigger_57_interact        trigger_57_interact
     0000001E  ___bank_trigger_58_interact        trigger_58_interact
     0000001E  ___bank_trigger_59_interact        trigger_59_interact
     0000001E  ___bank_trigger_72_interact        trigger_72_interact
     0000001E  ___bank_trigger_73_interact        trigger_73_interact
     0000001E  ___bank_trigger_74_interact        trigger_74_interact
     0000001E  ___bank_trigger_75_interact        trigger_75_interact
     0000001E  ___bank_trigger_76_interact        trigger_76_interact
     0000001E  ___bank_trigger_78_interact        trigger_78_interact
     0000001E  ___bank_trigger_79_interact        trigger_79_interact
     0000001E  ___bank_trigger_80_interact        trigger_80_interact
     0000001E  ___bank_trigger_82_interact        trigger_82_interact
     0000001E  ___bank_trigger_83_interact        trigger_83_interact
     0000001E  ___bank_trigger_84_interact        trigger_84_interact
     0000001E  ___bank_trigger_85_interact        trigger_85_interact
     0000001E  ___bank_trigger_87_interact        trigger_87_interact
     0000001E  ___bank_trigger_88_interact        trigger_88_interact
     0000001E  ___bank_trigger_8_interact         trigger_8_interact
     0000001E  ___bank_trigger_91_interact        trigger_91_interact
     0000001E  ___bank_trigger_92_interact        trigger_92_interact
     0000001E  ___bank_trigger_93_interact        trigger_93_interact
     0000001E  ___bank_trigger_94_interact        trigger_94_interact
     0000001E  ___bank_trigger_98_interact        trigger_98_interact
     0000001E  ___bank_trigger_9_interact         trigger_9_interact
     0000001E  b_SIO_init                         sio
     0000001E  b_input_init                       input
     0000001E  b_logo_init                        logo
     0000001E  b_logo_update                      logo
     0000001E  b_parallax_init                    parallax
     0000002D  l__GSINIT                       
     00000030  l__HEADER7                      
     00000060  l__HEADER4                      
     00000080  ___size_SGB_border_pal             border
     000000AB  l__HEADER11                     
     000001CB  l__CRASH_SCRATCH2               
     00000200  s__CODE                         
     00000700  ___size_SGB_border_map             border
ASxxxx Linker V03.00/V05.40 + sdld,  page 29.
Hexadecimal  [32-Bits]

Area                                    Addr        Size        Decimal Bytes (Attributes)
--------------------------------        ----        ----        ------- ----- ------------
.  .ABS.                            00000000    00000000 =           0. bytes (ABS,CON)

      Value  Global                              Global Defined In Module
      -----  --------------------------------   ------------------------
     00000953  l__CODE                         
     00000B53  s__HOME                         
     00001800  ___size_SGB_border_chr             border
     0000196E  l__DATA                         
     00001E49  l__CODE_30                      
     00002000  _rROMB0                            
     00002DB5  l__HOME                         
     00003000  _rROMB1                            
     00003908  s__BASE                         
     00003908  s__CODE_0                       
     00003908  s__INITIALIZER                  
     00003908  s__LIT                          
     00003921  s__GSINIT                       
     0000394E  s__GSFINAL                      
     00003FF3  l__CODE_1                       
     00003FFE  l__CODE_14                      
     00003FFE  l__CODE_15                      
     00003FFE  l__CODE_17                      
     00003FFE  l__CODE_21                      
     00003FFE  l__CODE_29                      
     00003FFE  l__CODE_5                       
     00003FFE  l__CODE_6                       
     00003FFE  l__CODE_7                       
     00003FFF  l__CODE_11                      
     00003FFF  l__CODE_13                      
     00003FFF  l__CODE_18                      
     00003FFF  l__CODE_20                      
     00003FFF  l__CODE_22                      
     00003FFF  l__CODE_24                      
     00003FFF  l__CODE_3                       
     00003FFF  l__CODE_4                       
     00004000  _RTC_SELECT_REG                    vm_rtc
     00004000  _rRAMB                             
     00004000  l__CODE_10                      
     00004000  l__CODE_12                      
     00004000  l__CODE_16                      
     00004000  l__CODE_19                      
     00004000  l__CODE_2                       
     00004000  l__CODE_23                      
     00004000  l__CODE_25                      
     00004000  l__CODE_26                      
     00004000  l__CODE_27                      
     00004000  l__CODE_28                      
     00004000  l__CODE_8                       
     00004000  l__CODE_9                       
     00006000  _RTC_LATCH_REG                     vm_rtc
     00008000  __VRAM                             
     00008000  __VRAM8000                         
     00008800  __VRAM8800                         
     00009000  __VRAM9000                         
     00009800  __SCRN0                            
ASxxxx Linker V03.00/V05.40 + sdld,  page 30.
Hexadecimal  [32-Bits]

Area                                    Addr        Size        Decimal Bytes (Attributes)
--------------------------------        ----        ----        ------- ----- ------------
.  .ABS.                            00000000    00000000 =           0. bytes (ABS,CON)

      Value  Global                              Global Defined In Module
      -----  --------------------------------   ------------------------
     00009C00  __SCRN1                            
     0000A000  _RTC_VALUE_REG                     vm_rtc
     0000A000  __SRAM                             
     0000C000  __RAM                              
     0000C000  _shadow_OAM                     
     0000C0A0  s__DATA                         
     0000D000  __RAMBANK                          
     0000DA0E  s__BSS                          
     0000DA0E  s__INITIALIZED                  
     0000DA27  s__HEAP                         
     0000DA27  s__HEAP_END                     
     0000DF00  .STACK                          
     0000DF00  _shadow_OAM2                       absolute
     0000DFA0  _BkgPalette                        absolute
     0000DFE0  _vwf_tile_data                     absolute
     0000FE00  __OAMRAM                           
     0000FF00  _P1_REG                            
     0000FF00  __IO                               
     0000FF01  _SB_REG                            
     0000FF02  _SC_REG                            
     0000FF04  _DIV_REG                           
     0000FF05  _TIMA_REG                          
     0000FF06  _TMA_REG                           
     0000FF07  _TAC_REG                           
     0000FF0F  _IF_REG                            
     0000FF10  _NR10_REG                          
     0000FF11  _NR11_REG                          
     0000FF12  _NR12_REG                          
     0000FF13  _NR13_REG                          
     0000FF14  _NR14_REG                          
     0000FF16  _NR21_REG                          
     0000FF17  _NR22_REG                          
     0000FF18  _NR23_REG                          
     0000FF19  _NR24_REG                          
     0000FF1A  _NR30_REG                          
     0000FF1B  _NR31_REG                          
     0000FF1C  _NR32_REG                          
     0000FF1D  _NR33_REG                          
     0000FF1E  _NR34_REG                          
     0000FF20  _NR41_REG                          
     0000FF21  _NR42_REG                          
     0000FF22  _NR43_REG                          
     0000FF23  _NR44_REG                          
     0000FF24  _NR50_REG                          
     0000FF25  _NR51_REG                          
     0000FF26  _NR52_REG                          
     0000FF30  _AUD3WAVE                          
     0000FF30  _PCM_SAMPLE                        
     0000FF30  __AUD3WAVERAM                      
     0000FF40  _LCDC_REG                          
     0000FF41  _STAT_REG                          
ASxxxx Linker V03.00/V05.40 + sdld,  page 31.
Hexadecimal  [32-Bits]

Area                                    Addr        Size        Decimal Bytes (Attributes)
--------------------------------        ----        ----        ------- ----- ------------
.  .ABS.                            00000000    00000000 =           0. bytes (ABS,CON)

      Value  Global                              Global Defined In Module
      -----  --------------------------------   ------------------------
     0000FF42  _SCY_REG                           
     0000FF43  _SCX_REG                           
     0000FF44  _LY_REG                            
     0000FF45  _LYC_REG                           
     0000FF46  _DMA_REG                           
     0000FF47  _BGP_REG                           
     0000FF48  _OBP0_REG                          
     0000FF49  _OBP1_REG                          
     0000FF4A  _WY_REG                            
     0000FF4B  _WX_REG                            
     0000FF4D  _KEY1_REG                          
     0000FF4F  _VBK_REG                           
     0000FF51  _HDMA1_REG                         
     0000FF52  _HDMA2_REG                         
     0000FF53  _HDMA3_REG                         
     0000FF54  _HDMA4_REG                         
     0000FF55  _HDMA5_REG                         
     0000FF56  _RP_REG                            
     0000FF68  _BCPS_REG                          
     0000FF69  _BCPD_REG                          
     0000FF6A  _OCPS_REG                          
     0000FF6B  _OCPD_REG                          
     0000FF70  _SVBK_REG                          
     0000FF76  _PCM12_REG                         
     0000FF77  _PCM34_REG                         
     0000FF80  .refresh_OAM                    
     0000FF80  __HRAM                             
     0000FFFF  _IE_REG                            
     00014000  s__CODE_1                       
     00024000  s__CODE_2                       
     00034000  s__CODE_3                       
     00044000  s__CODE_4                       
     00054000  s__CODE_5                       
     00064000  s__CODE_6                       
     00074000  s__CODE_7                       
     00084000  s__CODE_8                       
     00094000  s__CODE_9                       
     000A4000  s__CODE_10                      
     000B4000  s__CODE_11                      
     000C4000  s__CODE_12                      
     000D4000  s__CODE_13                      
     000E4000  s__CODE_14                      
     000F4000  s__CODE_15                      
     00104000  s__CODE_16                      
     00114000  s__CODE_17                      
     00124000  s__CODE_18                      
     00134000  s__CODE_19                      
     00144000  s__CODE_20                      
     00154000  s__CODE_21                      
     00164000  s__CODE_22                      
     00174000  s__CODE_23                      
ASxxxx Linker V03.00/V05.40 + sdld,  page 32.
Hexadecimal  [32-Bits]

Area                                    Addr        Size        Decimal Bytes (Attributes)
--------------------------------        ----        ----        ------- ----- ------------
.  .ABS.                            00000000    00000000 =           0. bytes (ABS,CON)

      Value  Global                              Global Defined In Module
      -----  --------------------------------   ------------------------
     00184000  s__CODE_24                      
     00194000  s__CODE_25                      
     001A4000  s__CODE_26                      
     001B4000  s__CODE_27                      
     001C4000  s__CODE_28                      
     001D4000  s__CODE_29                      
     001E4000  s__CODE_30                      
ASxxxx Linker V03.00/V05.40 + sdld,  page 33.
Hexadecimal  [32-Bits]

Area                                    Addr        Size        Decimal Bytes (Attributes)
--------------------------------        ----        ----        ------- ----- ------------
_CODE                               00000200    00000953 =        2387. bytes (REL,CON)

      Value  Global                              Global Defined In Module
      -----  --------------------------------   ------------------------
     00000200  ___HandleCrash                     
     0000020A  _SIO_send_byte                     
     0000021D  _SIO_receive                       
     0000022E  _GetWinAddr                        
     00000236  _GetBkgAddr                        
     00000244  _state_init                        
     00000249  _state_update                      
     0000026B  _ui_time_masks                     
     00000273  _ui_print_shift_char               
     000002F6  _ui_draw_frame_row                 
     000002FF  .ui_draw_frame_row                 
     00000328  _script_cmds                       vm_instructions
     00000560  _save_signature                    game_signature
     00000564  _start_scene_x                     
     00000566  _start_scene_y                     
     00000568  _start_scene_dir                   
     00000569  _start_scene                       
     0000056C  _start_player_move_speed           
     0000056D  _start_player_anim_tick            
     0000056E  _ui_fonts                          
     00000574  _core_reset_hook                   main
     0000057C  _main                              main
     00000584  _state_start_fns                   
     00000590  _state_update_fns                  
     0000059C  _get_vram_byte                     
     000005A4  _get_win_tile_xy                   
     000005AC  _get_bkg_tile_xy                   
     000005D3  _set_sprite_palette                CGB
     000005D8  _set_bkg_palette                   CGB
     000005DB  .set_palette                       CGB
     000005FA  _set_sprite_palette_entry          CGB
     000005FF  _set_bkg_palette_entry             CGB
     00000602  .set_palette_entry                 CGB
     0000063B  gbt_get_pattern_ptr_banked         
     0000065A  _gbt_play                          
     00000715  _gbt_pause                         
     00000726  _gbt_loop                          
     0000072D  _gbt_stop                          
     00000738  _gbt_enable_channels               
     0000073F  _gbt_update                        
     00000844  _hide_sprites_range                Metasprites
     00000873  __mulsuchar                        mul
     00000876  __muluschar                        mul
     0000087F  __mulschar                         mul
     00000887  __mulint                           mul
     000008A6  __muluchar                         mul
     000008B8  _set_vram_byte                     
     000008C1  _set_win_tile_xy                   
     000008CA  _set_bkg_tile_xy                   
     000008F9  .sgb_check                         
ASxxxx Linker V03.00/V05.40 + sdld,  page 34.
Hexadecimal  [32-Bits]

Area                                    Addr        Size        Decimal Bytes (Attributes)
--------------------------------        ----        ----        ------- ----- ------------
_CODE                               00000200    00000953 =        2387. bytes (REL,CON)

      Value  Global                              Global Defined In Module
      -----  --------------------------------   ------------------------
     000008F9  _sgb_check                         
     00000941  _sgb_transfer                      
     00000946  .sgb_transfer                      
     00000987  .copy_vram                         
     0000098D  _get_data                          
     0000098D  _set_data                          
     0000098D  _vmemcpy                           
     000009DB  ___move_metasprite                 Metasprites
     00000A18  ___memcpy                          
     00000A18  _memcpy                            
     00000A4A  _cpu_slow                          CGB
     00000A65  _cpu_fast                          CGB
     00000A6C  __divsuchar                        divmod
     00000A72  __modsuchar                        divmod
     00000A7B  __divuschar                        divmod
     00000A84  __moduschar                        divmod
     00000A90  __divschar                         divmod
     00000A95  __modschar                         divmod
     00000A9C  __divsint                          divmod
     00000AA5  __modsint                          divmod
     00000AB1  __divuchar                         divmod
     00000AB6  __moduchar                         divmod
     00000ABD  __divuint                          divmod
     00000AC6  __moduint                          divmod
     00000AD2  .div8                              divmod
     00000AD2  .mod8                              divmod
     00000ADA  .div16                             divmod
     00000ADA  .mod16                             divmod
     00000B10  .divu8                             divmod
     00000B10  .modu8                             divmod
     00000B13  .divu16                            divmod
     00000B13  .modu16                            divmod

ASxxxx Linker V03.00/V05.40 + sdld,  page 35.
Hexadecimal  [32-Bits]

Area                                    Addr        Size        Decimal Bytes (Attributes)
--------------------------------        ----        ----        ------- ----- ------------
_HEADER0                            00000000    00000001 =           1. bytes (ABS,CON)

      Value  Global                              Global Defined In Module
      -----  --------------------------------   ------------------------
     00000020  .call_hl                           Runtime

ASxxxx Linker V03.00/V05.40 + sdld,  page 36.
Hexadecimal  [32-Bits]

Area                                    Addr        Size        Decimal Bytes (Attributes)
--------------------------------        ----        ----        ------- ----- ------------
_HEADER1                            00000000    00000005 =           5. bytes (ABS,CON)

      Value  Global                              Global Defined In Module
      -----  --------------------------------   ------------------------
     00000028  .MemsetSmall                       Runtime

ASxxxx Linker V03.00/V05.40 + sdld,  page 37.
Hexadecimal  [32-Bits]

Area                                    Addr        Size        Decimal Bytes (Attributes)
--------------------------------        ----        ----        ------- ----- ------------
_HEADER2                            00000000    00000007 =           7. bytes (ABS,CON)

      Value  Global                              Global Defined In Module
      -----  --------------------------------   ------------------------
     00000030  .MemcpySmall                       Runtime

ASxxxx Linker V03.00/V05.40 + sdld,  page 38.
Hexadecimal  [32-Bits]

Area                                    Addr        Size        Decimal Bytes (Attributes)
--------------------------------        ----        ----        ------- ----- ------------
_HEADER3                            00000000    00000008 =           8. bytes (ABS,CON)

      Value  Global                              Global Defined In Module
      -----  --------------------------------   ------------------------
ASxxxx Linker V03.00/V05.40 + sdld,  page 39.
Hexadecimal  [32-Bits]

Area                                    Addr        Size        Decimal Bytes (Attributes)
--------------------------------        ----        ----        ------- ----- ------------
_HEADER4                            00000000    00000060 =          96. bytes (ABS,CON)

      Value  Global                              Global Defined In Module
      -----  --------------------------------   ------------------------
     00000080  .int                               Runtime
     0000008F  _wait_int_handler                  Runtime
     0000009C  __standard_VBL_handler             Runtime
     000000AB  _refresh_OAM                       Runtime
     000000CC  _set_interrupts                    Runtime

ASxxxx Linker V03.00/V05.40 + sdld,  page 40.
Hexadecimal  [32-Bits]

Area                                    Addr        Size        Decimal Bytes (Attributes)
--------------------------------        ----        ----        ------- ----- ------------
_HEADER5                            00000000    00000001 =           1. bytes (ABS,CON)

      Value  Global                              Global Defined In Module
      -----  --------------------------------   ------------------------
ASxxxx Linker V03.00/V05.40 + sdld,  page 41.
Hexadecimal  [32-Bits]

Area                                    Addr        Size        Decimal Bytes (Attributes)
--------------------------------        ----        ----        ------- ----- ------------
_HEADER6                            00000000    00000002 =           2. bytes (ABS,CON)

      Value  Global                              Global Defined In Module
      -----  --------------------------------   ------------------------
ASxxxx Linker V03.00/V05.40 + sdld,  page 42.
Hexadecimal  [32-Bits]

Area                                    Addr        Size        Decimal Bytes (Attributes)
--------------------------------        ----        ----        ------- ----- ------------
_HEADER7                            00000000    00000030 =          48. bytes (ABS,CON)

      Value  Global                              Global Defined In Module
      -----  --------------------------------   ------------------------
ASxxxx Linker V03.00/V05.40 + sdld,  page 43.
Hexadecimal  [32-Bits]

Area                                    Addr        Size        Decimal Bytes (Attributes)
--------------------------------        ----        ----        ------- ----- ------------
_HEADER8                            00000000    00000006 =           6. bytes (ABS,CON)

      Value  Global                              Global Defined In Module
      -----  --------------------------------   ------------------------
ASxxxx Linker V03.00/V05.40 + sdld,  page 44.
Hexadecimal  [32-Bits]

Area                                    Addr        Size        Decimal Bytes (Attributes)
--------------------------------        ----        ----        ------- ----- ------------
_HEADER9                            00000000    00000003 =           3. bytes (ABS,CON)

      Value  Global                              Global Defined In Module
      -----  --------------------------------   ------------------------
ASxxxx Linker V03.00/V05.40 + sdld,  page 45.
Hexadecimal  [32-Bits]

Area                                    Addr        Size        Decimal Bytes (Attributes)
--------------------------------        ----        ----        ------- ----- ------------
_HEADERa                            00000000    00000001 =           1. bytes (ABS,CON)

      Value  Global                              Global Defined In Module
      -----  --------------------------------   ------------------------
ASxxxx Linker V03.00/V05.40 + sdld,  page 46.
Hexadecimal  [32-Bits]

Area                                    Addr        Size        Decimal Bytes (Attributes)
--------------------------------        ----        ----        ------- ----- ------------
_HEADERb                            00000000    00000001 =           1. bytes (ABS,CON)

      Value  Global                              Global Defined In Module
      -----  --------------------------------   ------------------------
ASxxxx Linker V03.00/V05.40 + sdld,  page 47.
Hexadecimal  [32-Bits]

Area                                    Addr        Size        Decimal Bytes (Attributes)
--------------------------------        ----        ----        ------- ----- ------------
_HEADERc                            00000000    00000001 =           1. bytes (ABS,CON)

      Value  Global                              Global Defined In Module
      -----  --------------------------------   ------------------------
ASxxxx Linker V03.00/V05.40 + sdld,  page 48.
Hexadecimal  [32-Bits]

Area                                    Addr        Size        Decimal Bytes (Attributes)
--------------------------------        ----        ----        ------- ----- ------------
_HEADERd                            00000000    00000002 =           2. bytes (ABS,CON)

      Value  Global                              Global Defined In Module
      -----  --------------------------------   ------------------------
ASxxxx Linker V03.00/V05.40 + sdld,  page 49.
Hexadecimal  [32-Bits]

Area                                    Addr        Size        Decimal Bytes (Attributes)
--------------------------------        ----        ----        ------- ----- ------------
_HEADERe                            00000000    00000001 =           1. bytes (ABS,CON)

      Value  Global                              Global Defined In Module
      -----  --------------------------------   ------------------------
ASxxxx Linker V03.00/V05.40 + sdld,  page 50.
Hexadecimal  [32-Bits]

Area                                    Addr        Size        Decimal Bytes (Attributes)
--------------------------------        ----        ----        ------- ----- ------------
_HEADERf                            00000000    00000001 =           1. bytes (ABS,CON)

      Value  Global                              Global Defined In Module
      -----  --------------------------------   ------------------------
ASxxxx Linker V03.00/V05.40 + sdld,  page 51.
Hexadecimal  [32-Bits]

Area                                    Addr        Size        Decimal Bytes (Attributes)
--------------------------------        ----        ----        ------- ----- ------------
_HEADER10                           00000000    00000002 =           2. bytes (ABS,CON)

      Value  Global                              Global Defined In Module
      -----  --------------------------------   ------------------------
ASxxxx Linker V03.00/V05.40 + sdld,  page 52.
Hexadecimal  [32-Bits]

Area                                    Addr        Size        Decimal Bytes (Attributes)
--------------------------------        ----        ----        ------- ----- ------------
_HEADER11                           00000000    000000AB =         171. bytes (ABS,CON)

      Value  Global                              Global Defined In Module
      -----  --------------------------------   ------------------------
     00000150  .reset                             Runtime
     00000150  _reset                             Runtime
     00000157  .code_start                        Runtime
     000001B9  _exit                              Runtime
     000001BD  .wait_vbl_done                     Runtime
     000001BD  _vsync                             Runtime
     000001BD  _wait_vbl_done                     Runtime
     000001CD  .remove_VBL                        Runtime
     000001CD  _remove_VBL                        Runtime
     000001D0  .remove_int                        Runtime
     000001ED  .add_VBL                           Runtime
     000001ED  _add_VBL                           Runtime
     000001F0  .add_int                           Runtime

ASxxxx Linker V03.00/V05.40 + sdld,  page 53.
Hexadecimal  [32-Bits]

Area                                    Addr        Size        Decimal Bytes (Attributes)
--------------------------------        ----        ----        ------- ----- ------------
_HOME                               00000B53    00002DB5 =       11701. bytes (REL,CON)

      Value  Global                              Global Defined In Module
      -----  --------------------------------   ------------------------
     00000B53  .memset_simple                     Runtime
     00000B5C  .memcpy_simple                     Runtime
     00000B79  .display_off                       Runtime
     00000B79  _display_off                       Runtime
     00000B91  _actors_update                     actor
     00000FF7  _SetBankedBkgData                  bankdata
     00001013  _SetBankedSpriteData               bankdata
     0000102F  _SetBankedBkgTiles                 bankdata
     0000104B  _SetBankedWinTiles                 bankdata
     00001067  _ReadBankedFarPtr                  bankdata
     00001089  _ReadBankedUWORD                   bankdata
     000010A3  _MemcpyBanked                      bankdata
     000010C5  _MemcpyVRAMBanked                  bankdata
     000010F4  _IndexOfFarPtr                     bankdata
     00001179  _camera_update                     camera
     000012AC  _load_animations                   data_manager
     00001305  _events_update                     events
     000013D8  _timers_update                     events
     00001461  _input_update                      input
     00001487  .sio_ISR                           
     000014E1  .timer_ISR                         
     000014F6  _simple_LCD_isr                    interrupts
     00001575  _fullscreen_LCD_isr                interrupts
     000015A1  _VBL_isr                           interrupts
     000015EB  _isqrt                             math
     00001648  _sine_wave                         math
     00001748  _dir_lookup                        math
     00001750  _dir_angle_lookup                  math
     00001754  _music_events_update               music_manager
     000017D6  _music_play_isr                    music_manager
     000018A4  _parallax_LCD_isr                  parallax
     000018E1  _projectiles_update                projectiles
     00001D62  _projectiles_render                projectiles
     00001EB7  _scroll_load_pending_row           scroll
     00001F3D  _scroll_load_row                   scroll
     00001FB2  _scroll_load_col                   scroll
     0000201B  _scroll_load_pending_col           scroll
     000020A3  _set_bkg_submap                    
     000020E6  _set_xy_win_submap                 
     00002113  .set_xy_win_submap                 
     0000211C  .set_xy_bkg_submap                 
     0000212B  .set_xy_submap                     
     00002177  _sfx_play_isr                      sfx_player
     00002250  _on_SIO_receive                    sio
     00002291  _SIO_update                        sio
     000022F8  _ui_update                         ui
     00002430  _vm_sgb_transfer                   vm_sgb
     0000247D  _vm_load_text                      vm_ui
     000026D3  _vm_switch                         vm
     00002804  _vm_beginthread                    vm
ASxxxx Linker V03.00/V05.40 + sdld,  page 54.
Hexadecimal  [32-Bits]

Area                                    Addr        Size        Decimal Bytes (Attributes)
--------------------------------        ----        ----        ------- ----- ------------
_HOME                               00000B53    00002DB5 =       11701. bytes (REL,CON)

      Value  Global                              Global Defined In Module
      -----  --------------------------------   ------------------------
     00002928  _vm_rpn                            vm
     00003340  _vm_get_far                        vm
     000033AE  _vm_call_native                    vm
     000033C1  _VM_STEP                           vm
     0000342B  _script_runner_update              vm
     00003590  _fill_win_rect                     
     000035A2  _rand                              
     000035A2  _randw                             
     000035CD  _initrand                          
     000035CF  .initrand                          
     000035D8  _get_bkg_data                      
     000035D8  _get_win_data                      
     00003625  _get_sprite_data                   
     00003658  _abs                               abs
     00003665  _set_win_tiles                     
     00003679  _set_tile_data                     
     0000367E  _set_bkg_data                      
     0000367E  _set_win_data                      
     00003686  _set_sprite_data                   
     000036B6  _reverse                           reverse
     000036EA  ___call__banked                    far_ptr
     00003707  _to_far_ptr                        far_ptr
     0000373D  .add_LCD                           
     0000373D  _add_LCD                           
     00003743  .remove_LCD                        
     00003743  _remove_LCD                        
     00003749  .fill_rect_wtt                     
     00003752  .fill_rect_btt                     
     0000379F  _joypad_init                       
     000037ED  .joypad_ex                         
     000037ED  _joypad_ex                         
     00003838  _fill_bkg_rect                     
     0000384A  ___sdcc_call_hl                    call_hl
     0000384B  _memset                            memset
     0000387E  .set_xy_wtt                        SetTileMap
     00003887  .set_xy_btt                        SetTileMap
     00003896  .set_xy_tt                         SetTileMap
     000038DA  ___sdcc_bcall_ehl                  
     000038F4  _set_bkg_tiles                     

ASxxxx Linker V03.00/V05.40 + sdld,  page 55.
Hexadecimal  [32-Bits]

Area                                    Addr        Size        Decimal Bytes (Attributes)
--------------------------------        ----        ----        ------- ----- ------------
_INITIALIZER                        00003908    00000019 =          25. bytes (REL,CON)

      Value  Global                              Global Defined In Module
      -----  --------------------------------   ------------------------
ASxxxx Linker V03.00/V05.40 + sdld,  page 56.
Hexadecimal  [32-Bits]

Area                                    Addr        Size        Decimal Bytes (Attributes)
--------------------------------        ----        ----        ------- ----- ------------
_GSINIT                             00003921    0000002D =          45. bytes (REL,CON)

      Value  Global                              Global Defined In Module
      -----  --------------------------------   ------------------------
     00003921  gsinit                             Runtime

ASxxxx Linker V03.00/V05.40 + sdld,  page 57.
Hexadecimal  [32-Bits]

Area                                    Addr        Size        Decimal Bytes (Attributes)
--------------------------------        ----        ----        ------- ----- ------------
_GSFINAL                            0000394E    00000001 =           1. bytes (REL,CON)

      Value  Global                              Global Defined In Module
      -----  --------------------------------   ------------------------
ASxxxx Linker V03.00/V05.40 + sdld,  page 58.
Hexadecimal  [32-Bits]

Area                                    Addr        Size        Decimal Bytes (Attributes)
--------------------------------        ----        ----        ------- ----- ------------
_DATA                               0000C0A0    0000196E =        6510. bytes (REL,CON)

      Value  Global                              Global Defined In Module
      -----  --------------------------------   ------------------------
     0000C0A0  __cpu                              Runtime
     0000C0A1  __is_GBA                           Runtime
     0000C0A2  .mode                              Runtime
     0000C0A3  .sys_time                          Runtime
     0000C0A3  _sys_time                          Runtime
     0000C0A5  .int_0x40                          Runtime
     0000C0B1  _actors                            actor
     0000C4F5  _actors_active_head                actor
     0000C4F7  _actors_active_tail                actor
     0000C4F9  _actors_inactive_head              actor
     0000C4FB  _screen_x                          actor
     0000C4FC  _screen_y                          actor
     0000C4FD  _invalid                           actor
     0000C4FF  _player_moving                     actor
     0000C500  _player_iframes                    actor
     0000C501  _player_collision_actor            actor
     0000C503  _emote_actor                       actor
     0000C505  _emote_timer                       actor
     0000C506  _allocated_sprite_tiles            actor
     0000C507  _allocated_hardware_sprites        actor
     0000C514  _camera_x                          camera
     0000C516  _camera_y                          camera
     0000C518  _camera_offset_x                   camera
     0000C519  _camera_offset_y                   camera
     0000C51A  _camera_deadzone_x                 camera
     0000C51B  _camera_deadzone_y                 camera
     0000C51C  _camera_settings                   camera
     0000C520  _current_scene                     data_manager
     0000C523  _image_bank                        data_manager
     0000C524  _image_ptr                         data_manager
     0000C526  _image_attr_bank                   data_manager
     0000C527  _image_attr_ptr                    data_manager
     0000C529  _collision_bank                    data_manager
     0000C52A  _collision_ptr                     data_manager
     0000C52C  _image_tile_width                  data_manager
     0000C52D  _image_tile_height                 data_manager
     0000C52E  _image_width                       data_manager
     0000C530  _image_height                      data_manager
     0000C532  _sprites_len                       data_manager
     0000C533  _actors_len                        data_manager
     0000C534  _projectiles_len                   data_manager
     0000C535  _player_sprite_len                 data_manager
     0000C536  _scene_type                        data_manager
     0000C537  _scene_LCD_type                    data_manager
     0000C538  _scene_stack                       data_manager
     0000C578  _scene_stack_ptr                   data_manager
     0000C57A  _scene_sprites_base_tiles          data_manager
     0000C5BA  _input_events                      events
     0000C5E2  _input_slots                       events
     0000C5EA  _timer_events                      events
ASxxxx Linker V03.00/V05.40 + sdld,  page 59.
Hexadecimal  [32-Bits]

Area                                    Addr        Size        Decimal Bytes (Attributes)
--------------------------------        ----        ----        ------- ----- ------------
_DATA                               0000C0A0    0000196E =        6510. bytes (REL,CON)

      Value  Global                              Global Defined In Module
      -----  --------------------------------   ------------------------
     0000C5FE  _timer_values                      events
     0000C606  _fade_running                      fade_manager
     0000C607  _fade_frames_per_step              fade_manager
     0000C608  _fade_timer                        fade_manager
     0000C610  _joypads                           input
     0000C615  _frame_joy                         input
     0000C616  _last_joy                          input
     0000C617  _recent_joy                        input
     0000C618  _SIO_status                        
     0000C619  _link_byte_sent                    
     0000C61A  _link_next_mode                    
     0000C61B  _save_blob_size                    load_save
     0000C61D  _routine_queue                     music_manager
     0000C621  _routine_queue_head                music_manager
     0000C622  _routine_queue_tail                music_manager
     0000C623  _music_events                      music_manager
     0000C637  _music_current_track_bank          music_manager
     0000C638  _music_mute_mask                   music_manager
     0000C639  _music_effective_mute              music_manager
     0000C63A  _music_next_track                  music_manager
     0000C63C  _music_current_track               music_manager
     0000C63E  _music_play_isr_counter            music_manager
     0000C63F  _music_play_isr_pause              music_manager
     0000C640  _music_global_mute_mask            music_manager
     0000C641  _music_sfx_priority                music_manager
     0000C642  _DMG_palette                       palette
     0000C645  _SprPalette                        palette
     0000C685  _parallax_rows                     parallax
     0000C697  _parallax_row                      parallax
     0000C699  _projectiles                       projectiles
     0000C752  _projectile_defs                   projectiles
     0000C7C5  _projectiles_active_head           projectiles
     0000C7C7  _projectiles_inactive_head         projectiles
     0000C7CE  _scroll_x                          scroll
     0000C7D0  _scroll_y                          scroll
     0000C7D2  _draw_scroll_x                     scroll
     0000C7D4  _draw_scroll_y                     scroll
     0000C7D6  _scroll_x_max                      scroll
     0000C7D8  _scroll_y_max                      scroll
     0000C7DA  _scroll_offset_x                   scroll
     0000C7DB  _scroll_offset_y                   scroll
     0000C7DC  _pending_h_x                       scroll
     0000C7DD  _pending_h_y                       scroll
     0000C7DE  _pending_h_i                       scroll
     0000C7DF  _pending_w_x                       scroll
     0000C7E0  _pending_w_y                       scroll
     0000C7E1  _pending_w_i                       scroll
     0000C7E2  _current_row                       scroll
     0000C7E4  _new_row                           scroll
     0000C7E6  _current_col                       scroll
     0000C7E8  _new_col                           scroll
ASxxxx Linker V03.00/V05.40 + sdld,  page 60.
Hexadecimal  [32-Bits]

Area                                    Addr        Size        Decimal Bytes (Attributes)
--------------------------------        ----        ----        ------- ----- ------------
_DATA                               0000C0A0    0000196E =        6510. bytes (REL,CON)

      Value  Global                              Global Defined In Module
      -----  --------------------------------   ------------------------
     0000C7EA  .image_tile_width                  
     0000C7EB  _sfx_play_bank                     sfx_player
     0000C7EC  _sfx_play_sample                   sfx_player
     0000C7EE  _sfx_frame_skip                    sfx_player
     0000C7EF  _link_operation_mode               sio
     0000C7F0  _link_packet                       sio
     0000C810  _link_packet_len                   sio
     0000C811  _link_packet_ptr                   sio
     0000C813  _link_packet_received              sio
     0000C814  _link_packet_snd_len               sio
     0000C815  _link_packet_snd_ptr               sio
     0000C817  _link_packet_sent                  sio
     0000C818  __is_CGB                           system
     0000C819  __is_SGB                           system
     0000C81A  __current_ram_bank                 system
     0000C81B  _triggers                          trigger
     0000C913  _last_trigger_tx                   trigger
     0000C914  _last_trigger_ty                   trigger
     0000C915  _last_trigger                      trigger
     0000C916  _win_pos_x                         ui
     0000C917  _win_dest_pos_x                    ui
     0000C918  _win_pos_y                         ui
     0000C919  _win_dest_pos_y                    ui
     0000C91A  _win_speed                         ui
     0000C91B  _text_drawn                        ui
     0000C91C  _current_text_speed                ui
     0000C91D  _text_options                      ui
     0000C91E  _text_in_speed                     ui
     0000C91F  _text_out_speed                    ui
     0000C920  _text_draw_speed                   ui
     0000C921  _text_ff_joypad                    ui
     0000C922  _text_ff                           ui
     0000C923  _text_bkg_fill                     ui
     0000C924  _ui_text_data                      ui
     0000CA2E  _vwf_current_mask                  ui
     0000CA2F  _vwf_current_rotate                ui
     0000CA30  _vwf_inverse_map                   ui
     0000CA31  _vwf_direction                     ui
     0000CA32  _vwf_current_font_desc             ui
     0000CA3A  _vwf_current_font_bank             ui
     0000CA3B  _vwf_current_font_idx              ui
     0000CA3C  _text_render_base_addr             ui
     0000CA3E  _text_scroll_addr                  ui
     0000CA40  _text_scroll_width                 ui
     0000CA41  _text_scroll_height                ui
     0000CA42  _text_scroll_fill                  ui
     0000CA43  _text_sound_mask                   ui
     0000CA44  _text_sound_bank                   ui
     0000CA45  _text_sound_data                   ui
     0000CA47  _overlay_priority                  ui
     0000CA48  _text_palette                      ui
ASxxxx Linker V03.00/V05.40 + sdld,  page 61.
Hexadecimal  [32-Bits]

Area                                    Addr        Size        Decimal Bytes (Attributes)
--------------------------------        ----        ----        ------- ----- ------------
_DATA                               0000C0A0    0000196E =        6510. bytes (REL,CON)

      Value  Global                              Global Defined In Module
      -----  --------------------------------   ------------------------
     0000CA4F  __itoa_fmt_len                     vm_ui_a
     0000CA50  .itoa_fmt_buf                      vm_ui_a
     0000CA53  _CTXS                              vm
     0000CB83  _first_ctx                         vm
     0000CB85  _free_ctxs                         vm
     0000CB87  _old_executing_ctx                 vm
     0000CB89  _executing_ctx                     vm
     0000CB8B  _vm_lock_state                     vm
     0000CB8C  _vm_loaded_state                   vm
     0000CB8D  _vm_exception_code                 vm
     0000CB8E  _vm_exception_params_length        vm
     0000CB8F  _vm_exception_params_bank          vm
     0000CB90  _vm_exception_params_offset        vm
     0000CB94  _script_memory                     vm
     0000D99A  _grounded                          platform
     0000D99B  _on_slope                          platform
     0000D99C  _slope_y                           platform
     0000D99D  _on_ladder                         platform
     0000D99E  _pl_vel_x                          platform
     0000D9A0  _pl_vel_y                          platform
     0000D9A2  _plat_min_vel                      platform
     0000D9A4  _plat_walk_vel                     platform
     0000D9A6  _plat_climb_vel                    platform
     0000D9A8  _plat_run_vel                      platform
     0000D9AA  _plat_walk_acc                     platform
     0000D9AC  _plat_run_acc                      platform
     0000D9AE  _plat_dec                          platform
     0000D9B0  _plat_jump_vel                     platform
     0000D9B2  _plat_grav                         platform
     0000D9B4  _plat_hold_grav                    platform
     0000D9B6  _plat_max_fall_vel                 platform
     0000D9B8  _topdown_grid                      topdown
     0000D9B9  ___rand_seed                       
     0000D9BB  gbt_playing                        
     0000D9BC  gbt_song                           
     0000D9BE  gbt_bank                           
     0000D9BF  gbt_speed                          
     0000D9C0  gbt_temp_play_data                 
     0000D9CC  gbt_loop_enabled                   
     0000D9CD  gbt_ticks_elapsed                  
     0000D9CE  gbt_current_step                   
     0000D9CF  gbt_current_pattern                
     0000D9D0  gbt_current_step_data_ptr          
     0000D9D2  gbt_channels_enabled               
     0000D9D3  gbt_pan                            
     0000D9D7  gbt_vol                            
     0000D9DB  gbt_instr                          
     0000D9DF  gbt_freq                           
     0000D9E5  __current_ch3_wave                 
     0000D9E5  __gbt_channel3_loaded_instrument   
     0000D9E5  gbt_channel3_loaded_instrument     
ASxxxx Linker V03.00/V05.40 + sdld,  page 62.
Hexadecimal  [32-Bits]

Area                                    Addr        Size        Decimal Bytes (Attributes)
--------------------------------        ----        ----        ------- ----- ------------
_DATA                               0000C0A0    0000196E =        6510. bytes (REL,CON)

      Value  Global                              Global Defined In Module
      -----  --------------------------------   ------------------------
     0000D9E6  gbt_arpeggio_freq_index            
     0000D9EF  gbt_arpeggio_enabled               
     0000D9F2  gbt_arpeggio_tick                  
     0000D9F5  gbt_sweep                          
     0000D9F8  gbt_cut_note_tick                  
     0000D9FC  gbt_have_to_stop_next_step         
     0000D9FD  gbt_update_pattern_pointers        
     0000D9FE  ___call_banked_addr                far_ptr
     0000D9FE  ___call_banked_ptr                 far_ptr
     0000DA00  ___call_banked_bank                far_ptr
     0000DA02  .int_0x48                          
     0000DA0A  ___current_metasprite              Metasprites
     0000DA0C  ___current_base_tile               Metasprites
     0000DA0D  ___current_base_prop               Metasprites

ASxxxx Linker V03.00/V05.40 + sdld,  page 63.
Hexadecimal  [32-Bits]

Area                                    Addr        Size        Decimal Bytes (Attributes)
--------------------------------        ----        ----        ------- ----- ------------
_INITIALIZED                        0000DA0E    00000019 =          25. bytes (REL,CON)

      Value  Global                              Global Defined In Module
      -----  --------------------------------   ------------------------
     0000DA0E  _fade_style                        fade_manager
     0000DA0F  _game_time                         game_time
     0000DA10  _PRN_PKT_START                     gbprinter
     0000DA1E  _hide_sprites                      interrupts
     0000DA1F  _show_actors_on_overlay            interrupts
     0000DA20  _overlay_cut_scanline              interrupts
     0000DA21  __submap_tile_offset               
     0000DA22  _triggers_len                      trigger
     0000DA23  _exchange_state                    vm_sio
     0000DA24  _last_hit_trigger                  pointnclick
     0000DA25  ___render_shadow_OAM               Metasprites
     0000DA26  __map_tile_offset                  SetTileMap
ASxxxx Linker V03.00/V05.40 + sdld,  page 64.
Hexadecimal  [32-Bits]

Area                                    Addr        Size        Decimal Bytes (Attributes)
--------------------------------        ----        ----        ------- ----- ------------
_HRAM12                             00000000    00000003 =           3. bytes (ABS,CON)

      Value  Global                              Global Defined In Module
      -----  --------------------------------   ------------------------
     0000FF90  __current_bank                     Runtime
     0000FF92  __shadow_OAM_base                  Runtime

ASxxxx Linker V03.00/V05.40 + sdld,  page 65.
Hexadecimal  [32-Bits]

Area                                    Addr        Size        Decimal Bytes (Attributes)
--------------------------------        ----        ----        ------- ----- ------------
_CODE_10                            000A4000    00004000 =       16384. bytes (REL,CON)

      Value  Global                              Global Defined In Module
      -----  --------------------------------   ------------------------
     000A4000  ___func_ACTOR                      actor
     000A4000  _actors_init                       actor
     000A403A  _emote_offsets                     actor
     000A4049  _emote_metasprite                  actor
     000A4055  _player_init                       actor
     000A407B  _deactivate_actor                  actor
     000A41DC  _activate_actor                    actor
     000A431B  _activate_actors_in_row            actor
     000A4412  _activate_actors_in_col            actor
     000A4563  _actor_set_frames                  actor
     000A45B9  _actor_set_frame_offset            actor
     000A45F4  _actor_get_frame_offset            actor
     000A4606  _actor_set_anim_idle               actor
     000A4634  _actor_set_anim_moving             actor
     000A4665  _actor_set_dir                     actor
     000A46CA  _actor_at_tile                     actor
     000A479E  _actor_in_front_of_player          actor
     000A4852  _actor_overlapping_player          actor
     000A4A61  _actor_overlapping_bb              actor
     000A4CDF  _actors_handle_player_collision    actor
     000A4D6B  _check_collision_in_direction      actor
     000A5589  ___func_bg_iceos_login_2_copy__t   bg_iceos_login_2_copy__tiles
     000A5589  _bg_iceos_login_2_copy__tileset    bg_iceos_login_2_copy__tiles
     000A581B  ___func_scene_102_sprites          scene_102_sprites
     000A581B  _scene_102_sprites                 scene_102_sprites
     000A581E  ___func_scene_99_collisions        scene_99_collisions
     000A581E  _scene_99_collisions               scene_99_collisions
     000A69B2  _platform_init                     platform
     000A6B2C  _platform_update                   platform

ASxxxx Linker V03.00/V05.40 + sdld,  page 66.
Hexadecimal  [32-Bits]

Area                                    Addr        Size        Decimal Bytes (Attributes)
--------------------------------        ----        ----        ------- ----- ------------
_CODE_26                            001A4000    00004000 =       16384. bytes (REL,CON)

      Value  Global                              Global Defined In Module
      -----  --------------------------------   ------------------------
     001A4000  _bootstrap_script                  
     001A400B  ___func_bg_title_copy_2_tilemap    bg_title_copy_2_tilemap
     001A400B  _bg_title_copy_2_tilemap           bg_title_copy_2_tilemap
     001A4173  ___func_bg_title_tilemap_attr      bg_title_tilemap_attr
     001A4173  _bg_title_tilemap_attr             bg_title_tilemap_attr
     001A42DB  ___func_bg_title_tilemap           bg_title_tilemap
     001A42DB  _bg_title_tilemap                  bg_title_tilemap
     001A4443  ___func_bg_wakeupsquare_1_tilema   bg_wakeupsquare_1_tilemap_at
     001A4443  _bg_wakeupsquare_1_tilemap_attr    bg_wakeupsquare_1_tilemap_at
     001A45AB  ___func_bg_wakeupsquare_1_tilema   bg_wakeupsquare_1_tilemap
     001A45AB  _bg_wakeupsquare_1_tilemap         bg_wakeupsquare_1_tilemap
     001A4713  ___func_bg_wakeupsquare_3_copy__   bg_wakeupsquare_3_copy__tile
     001A4713  _bg_wakeupsquare_3_copy__tilemap   bg_wakeupsquare_3_copy__tile
     001A487B  ___func_bg_wakeupsquare_3_copy__   bg_wakeupsquare_3_copy__tile
     001A487B  _bg_wakeupsquare_3_copy__tilemap   bg_wakeupsquare_3_copy__tile
     001A49E3  ___func_scene_1_collisions         scene_1_collisions
     001A49E3  _scene_1_collisions                scene_1_collisions
     001A4B4B  ___func_scene_10_collisions        scene_10_collisions
     001A4B4B  _scene_10_collisions               scene_10_collisions
     001A4CB3  ___func_scene_100_collisions       scene_100_collisions
     001A4CB3  _scene_100_collisions              scene_100_collisions
     001A4E1B  ___func_scene_101_collisions       scene_101_collisions
     001A4E1B  _scene_101_collisions              scene_101_collisions
     001A4F83  ___func_scene_102_collisions       scene_102_collisions
     001A4F83  _scene_102_collisions              scene_102_collisions
     001A50EB  ___func_scene_11_collisions        scene_11_collisions
     001A50EB  _scene_11_collisions               scene_11_collisions
     001A5253  ___func_scene_12_collisions        scene_12_collisions
     001A5253  _scene_12_collisions               scene_12_collisions
     001A53BB  ___func_scene_13_collisions        scene_13_collisions
     001A53BB  _scene_13_collisions               scene_13_collisions
     001A5523  ___func_scene_14_collisions        scene_14_collisions
     001A5523  _scene_14_collisions               scene_14_collisions
     001A568B  ___func_scene_16_collisions        scene_16_collisions
     001A568B  _scene_16_collisions               scene_16_collisions
     001A57F3  ___func_scene_2_collisions         scene_2_collisions
     001A57F3  _scene_2_collisions                scene_2_collisions
     001A595B  ___func_scene_21_collisions        scene_21_collisions
     001A595B  _scene_21_collisions               scene_21_collisions
     001A5AC3  ___func_scene_22_collisions        scene_22_collisions
     001A5AC3  _scene_22_collisions               scene_22_collisions
     001A5C2B  ___func_scene_23_collisions        scene_23_collisions
     001A5C2B  _scene_23_collisions               scene_23_collisions
     001A5D93  _scene_23_init                     scene_23_init
     001A5D96  GBVM$scene_23_init$ef6694f4_11af   scene_23_init
     001A5D98  GBVM$scene_23_init$autofade$a839   scene_23_init
     001A5DA3  GBVM$scene_23_init$42a485ec_fd03   scene_23_init
     001A5DAF  GBVM$scene_23_init$c33a5604_37ca   scene_23_init
     001A5E01  GBVM$scene_23_init$78d1d478_e3a7   scene_23_init
     001A5E0D  GBVM$scene_23_init$8adb6a1f_6bb9   scene_23_init
ASxxxx Linker V03.00/V05.40 + sdld,  page 67.
Hexadecimal  [32-Bits]

Area                                    Addr        Size        Decimal Bytes (Attributes)
--------------------------------        ----        ----        ------- ----- ------------
_CODE_26                            001A4000    00004000 =       16384. bytes (REL,CON)

      Value  Global                              Global Defined In Module
      -----  --------------------------------   ------------------------
     001A5E40  ___func_scene_24_collisions        scene_24_collisions
     001A5E40  _scene_24_collisions               scene_24_collisions
     001A5FA8  ___func_scene_25_collisions        scene_25_collisions
     001A5FA8  _scene_25_collisions               scene_25_collisions
     001A6110  ___func_scene_26_collisions        scene_26_collisions
     001A6110  _scene_26_collisions               scene_26_collisions
     001A6278  ___func_scene_3_collisions         scene_3_collisions
     001A6278  _scene_3_collisions                scene_3_collisions
     001A63E0  ___func_scene_33_collisions        scene_33_collisions
     001A63E0  _scene_33_collisions               scene_33_collisions
     001A6548  ___func_scene_37_collisions        scene_37_collisions
     001A6548  _scene_37_collisions               scene_37_collisions
     001A66B0  ___func_scene_38_collisions        scene_38_collisions
     001A66B0  _scene_38_collisions               scene_38_collisions
     001A6818  ___func_scene_39_collisions        scene_39_collisions
     001A6818  _scene_39_collisions               scene_39_collisions
     001A6980  ___func_scene_4_collisions         scene_4_collisions
     001A6980  _scene_4_collisions                scene_4_collisions
     001A6AE8  ___func_scene_40_collisions        scene_40_collisions
     001A6AE8  _scene_40_collisions               scene_40_collisions
     001A6C50  ___func_scene_41_collisions        scene_41_collisions
     001A6C50  _scene_41_collisions               scene_41_collisions
     001A6DB8  ___func_scene_42_collisions        scene_42_collisions
     001A6DB8  _scene_42_collisions               scene_42_collisions
     001A6F20  ___func_scene_43_collisions        scene_43_collisions
     001A6F20  _scene_43_collisions               scene_43_collisions
     001A7088  ___func_scene_44_collisions        scene_44_collisions
     001A7088  _scene_44_collisions               scene_44_collisions
     001A71F0  ___func_scene_5_collisions         scene_5_collisions
     001A71F0  _scene_5_collisions                scene_5_collisions
     001A7358  ___func_scene_54_collisions        scene_54_collisions
     001A7358  _scene_54_collisions               scene_54_collisions
     001A74C0  ___func_scene_59_collisions        scene_59_collisions
     001A74C0  _scene_59_collisions               scene_59_collisions
     001A7628  ___func_scene_6_collisions         scene_6_collisions
     001A7628  _scene_6_collisions                scene_6_collisions
     001A7790  ___func_scene_60_collisions        scene_60_collisions
     001A7790  _scene_60_collisions               scene_60_collisions
     001A78F8  ___func_scene_61_collisions        scene_61_collisions
     001A78F8  _scene_61_collisions               scene_61_collisions
     001A7A60  ___func_scene_64_collisions        scene_64_collisions
     001A7A60  _scene_64_collisions               scene_64_collisions
     001A7BC8  ___func_scene_66_collisions        scene_66_collisions
     001A7BC8  _scene_66_collisions               scene_66_collisions
     001A7D30  ___func_scene_67_collisions        scene_67_collisions
     001A7D30  _scene_67_collisions               scene_67_collisions
     001A7E98  ___func_scene_68_collisions        scene_68_collisions
     001A7E98  _scene_68_collisions               scene_68_collisions

ASxxxx Linker V03.00/V05.40 + sdld,  page 68.
Hexadecimal  [32-Bits]

Area                                    Addr        Size        Decimal Bytes (Attributes)
--------------------------------        ----        ----        ------- ----- ------------
_CODE_20                            00144000    00003FFF =       16383. bytes (REL,CON)

      Value  Global                              Global Defined In Module
      -----  --------------------------------   ------------------------
     00144000  _camera_init                       camera
     00144026  _data_init                         load_save
     00144071  _save_points                       load_save
     001440D1  _data_slot_address                 load_save
     00144149  _data_save                         load_save
     0014420A  _data_load                         load_save
     0014431E  _data_clear                        load_save
     0014434B  _data_peek                         load_save
     001443EC  ___func_VM_CAMERA                  vm_camera
     001443EC  _vm_camera_move_to                 vm_camera
     0014463F  _vm_camera_set_pos                 vm_camera
     00144686  _camera_shake_frames               vm_camera
     001447B5  _actor_6_interact                  actor_6_interact
     001447B8  GBVM$actor_6_interact$56cf4c83_7   actor_6_interact
     001447CA  GBVM$actor_6_interact$59654b28_c   actor_6_interact
     001447FF  GBVM$actor_6_interact$d59e252c_2   actor_6_interact
     00144839  GBVM$actor_6_interact$2c32c49a_0   actor_6_interact
     00144842  GBVM$actor_6_interact$b2bede53_7   actor_6_interact
     00144854  GBVM$actor_6_interact$77653c6d_5   actor_6_interact
     0014489F  GBVM$actor_6_interact$e9887081_f   actor_6_interact
     001448A4  GBVM$actor_6_interact$3f375ce8_7   actor_6_interact
     001448AD  GBVM$actor_6_interact$406da35e_4   actor_6_interact
     001448BF  GBVM$actor_6_interact$dc1baad9_c   actor_6_interact
     0014490D  GBVM$actor_6_interact$b8cfbe49_5   actor_6_interact
     00144918  GBVM_END$actor_6_interact$406da3   actor_6_interact
     0014491B  GBVM$actor_6_interact$e46515e3_8   actor_6_interact
     00144926  GBVM$actor_6_interact$49c230c6_f   actor_6_interact
     00144930  GBVM$actor_6_interact$511b2bfa_a   actor_6_interact
     00144946  GBVM$actor_6_interact$c38458c6_b   actor_6_interact
     00144969  GBVM$actor_6_interact$b68c0ca2_4   actor_6_interact
     0014498C  GBVM$actor_6_interact$1fbe127e_f   actor_6_interact
     001449AF  GBVM$actor_6_interact$406a4f03_2   actor_6_interact
     001449B4  GBVM$actor_6_interact$0936d447_9   actor_6_interact
     001449B4  GBVM$actor_6_interact$b1c00b78_d   actor_6_interact
     001449E6  GBVM_END$actor_6_interact$3f375c   actor_6_interact
     001449E9  GBVM$actor_6_interact$bed24b14_a   actor_6_interact
     001449F4  GBVM_END$actor_6_interact$b2bede   actor_6_interact
     001449F7  GBVM$actor_6_interact$3ae4184f_5   actor_6_interact
     00144A02  GBVM$actor_6_interact$c245c75a_a   actor_6_interact
     00144A0C  GBVM$actor_6_interact$5644c2d7_4   actor_6_interact
     00144A22  GBVM$actor_6_interact$9e2f8347_e   actor_6_interact
     00144A45  GBVM$actor_6_interact$cebea94a_f   actor_6_interact
     00144A68  GBVM$actor_6_interact$7c4c2944_b   actor_6_interact
     00144A8B  GBVM$actor_6_interact$c67ce9d0_a   actor_6_interact
     00144A90  GBVM$actor_6_interact$0b1dad75_e   actor_6_interact
     00144A90  GBVM$actor_6_interact$1d5b5926_f   actor_6_interact
     00144AC2  GBVM_END$actor_6_interact$2c32c4   actor_6_interact
     00144AC5  GBVM$actor_6_interact$c64389d8_8   actor_6_interact
     00144BB1  GBVM$actor_6_interact$c4cc7c6e_2   actor_6_interact
     00144BB1  GBVM_END$actor_6_interact$56cf4c   actor_6_interact
ASxxxx Linker V03.00/V05.40 + sdld,  page 69.
Hexadecimal  [32-Bits]

Area                                    Addr        Size        Decimal Bytes (Attributes)
--------------------------------        ----        ----        ------- ----- ------------
_CODE_20                            00144000    00003FFF =       16383. bytes (REL,CON)

      Value  Global                              Global Defined In Module
      -----  --------------------------------   ------------------------
     00144BB2  ___func_bg_area_dhilly_city_lair   bg_area_dhilly_city_lair_la_
     00144BB2  _bg_area_dhilly_city_lair_la_0_t   bg_area_dhilly_city_lair_la_
     00144FB4  ___func_bg_controls_gb_copy_0_ti   bg_controls_gb_copy_0_tilema
     00144FB4  _bg_controls_gb_copy_0_tilemap_a   bg_controls_gb_copy_0_tilema
     0014534A  ___func_bg_controls_gb_copy_0_ti   bg_controls_gb_copy_0_tilema
     0014534A  _bg_controls_gb_copy_0_tilemap     bg_controls_gb_copy_0_tilema
     001456E0  ___func_bg_dhilly_bridge_tilemap   bg_dhilly_bridge_tilemap_att
     001456E0  _bg_dhilly_bridge_tilemap_attr     bg_dhilly_bridge_tilemap_att
     00145AC8  ___func_bg_dhilly_bridge_tilemap   bg_dhilly_bridge_tilemap
     00145AC8  _bg_dhilly_bridge_tilemap          bg_dhilly_bridge_tilemap
     00145EB0  ___func_bg_endingscene3_tileset    bg_endingscene3_tileset
     00145EB0  _bg_endingscene3_tileset           bg_endingscene3_tileset
     00146252  ___func_bg_init_copy__tilemap_at   bg_init_copy__tilemap_attr
     00146252  _bg_init_copy__tilemap_attr        bg_init_copy__tilemap_attr
     001465EA  ___func_bg_init_copy__tilemap      bg_init_copy__tilemap
     001465EA  _bg_init_copy__tilemap             bg_init_copy__tilemap
     00146982  ___func_bg_pixil_frame_0_33_tile   bg_pixil_frame_0_33_tileset
     00146982  _bg_pixil_frame_0_33_tileset       bg_pixil_frame_0_33_tileset
     00146D54  ___func_bg_pixil_frame_23_0_tile   bg_pixil_frame_23_0_tileset
     00146D54  _bg_pixil_frame_23_0_tileset       bg_pixil_frame_23_0_tileset
     00147086  ___func_bg_placeholder_copy_copy   bg_placeholder_copy_copy_co_
     00147086  _bg_placeholder_copy_copy_co_0_t   bg_placeholder_copy_copy_co_
     00147478  ___func_scene_0_collisions         scene_0_collisions
     00147478  _scene_0_collisions                scene_0_collisions
     00147810  ___func_scene_76_collisions        scene_76_collisions
     00147810  _scene_76_collisions               scene_76_collisions
     00147BF8  _script_input_5                    script_input_5
     00147BFA  GBVM$script_input_5$26e09350_147   script_input_5
     00147C06  GBVM$script_input_5$1c4ae581_5d6   script_input_5
     00147C80  GBVM$script_input_5$5c51c236_02d   script_input_5
     00147C95  GBVM$script_input_5$5e634b95_ab9   script_input_5
     00147C97  GBVM$script_input_5$2cd0efdf_325   script_input_5
     00147C99  GBVM$script_input_5$24d14534_8b9   script_input_5
     00147C9B  GBVM$script_input_5$6fa2f185_ae5   script_input_5
     00147CCB  GBVM$script_input_5$deff1e8e_798   script_input_5
     00147CCB  GBVM_END$script_input_5$26e09350   script_input_5
     00147CCB  GBVM_END$script_input_5$5c51c236   script_input_5
     00147CE0  GBVM$script_input_5$472871e0_ca6   script_input_5
     00147CE0  GBVM_END$script_input_5$deff1e8e   script_input_5
     00147CF5  GBVM$script_input_5$ae63155b_3bb   script_input_5
     00147D07  GBVM$script_input_5$23510e5b_f7f   script_input_5
     00147D19  GBVM$script_input_5$69ae116a_225   script_input_5
     00147D2B  GBVM$script_input_5$7b9e6fd9_309   script_input_5
     00147D63  GBVM$script_input_5$47654bd1_8af   script_input_5
     00147D75  GBVM$script_input_5$92cae9c7_a2d   script_input_5
     00147DAB  GBVM$script_input_5$9b14389c_71c   script_input_5
     00147DBD  GBVM$script_input_5$225ca5d4_791   script_input_5
     00147DF3  GBVM$script_input_5$3d22e4bb_0e1   script_input_5
     00147E20  GBVM_END$script_input_5$47654bd1   script_input_5
     00147E20  GBVM_END$script_input_5$69ae116a   script_input_5
     00147E20  GBVM_END$script_input_5$9b14389c   script_input_5
ASxxxx Linker V03.00/V05.40 + sdld,  page 70.
Hexadecimal  [32-Bits]

Area                                    Addr        Size        Decimal Bytes (Attributes)
--------------------------------        ----        ----        ------- ----- ------------
_CODE_20                            00144000    00003FFF =       16383. bytes (REL,CON)

      Value  Global                              Global Defined In Module
      -----  --------------------------------   ------------------------
     00147E23  GBVM$script_input_5$49803dfa_939   script_input_5
     00147E68  GBVM$script_input_5$4893b62d_5b1   script_input_5
     00147E68  GBVM_END$script_input_5$23510e5b   script_input_5
     00147E7A  GBVM$script_input_5$60e30f04_ad2   script_input_5
     00147EB2  GBVM$script_input_5$9f301dd1_0c0   script_input_5
     00147EC4  GBVM$script_input_5$9ebfaa13_928   script_input_5
     00147EFA  GBVM$script_input_5$cf380b9b_1e4   script_input_5
     00147F0C  GBVM$script_input_5$75e89b32_8e4   script_input_5
     00147F42  GBVM$script_input_5$33127132_7ba   script_input_5
     00147F6F  GBVM_END$script_input_5$4893b62d   script_input_5
     00147F6F  GBVM_END$script_input_5$9f301dd1   script_input_5
     00147F6F  GBVM_END$script_input_5$cf380b9b   script_input_5
     00147F72  GBVM$script_input_5$33e8ca53_477   script_input_5
     00147FB7  GBVM$script_input_5$bf610301_8aa   script_input_5
     00147FB7  GBVM_END$script_input_5$472871e0   script_input_5
     00147FB7  GBVM_END$script_input_5$ae63155b   script_input_5
     00147FCC  GBVM$script_input_5$0bfdc793_454   script_input_5
     00147FFE  GBVM_END$script_input_5$bf610301   script_input_5

ASxxxx Linker V03.00/V05.40 + sdld,  page 71.
Hexadecimal  [32-Bits]

Area                                    Addr        Size        Decimal Bytes (Attributes)
--------------------------------        ----        ----        ------- ----- ------------
_CODE_1                             00014000    00003FF3 =       16371. bytes (REL,CON)

      Value  Global                              Global Defined In Module
      -----  --------------------------------   ------------------------
     00014000  _core_reset                        core
     00014075  _process_VM                        core
     000142F3  _core_run                          core
     00014417  _ui_swap_tiles                     
     00014461  _ui_print_make_mask_lr             
     0001447D  _ui_print_make_mask_rl             
     00014499  _ui_init                           ui
     0001456A  _ui_load_tiles                     ui
     000145C1  _ui_draw_frame                     ui
     0001465B  _ui_print_reset                    ui
     000146AC  _ui_set_start_tile                 ui
     000146D8  _ui_print_render                   ui
     0001496E  _ui_draw_text_buffer_char          ui
     00014E58  _ui_run_menu                       ui
     0001502F  _ui_run_modal                      ui
     000150E9  ___func_VM_SGB                     vm_sgb
     000150E9  ___func_bg_lencityopen_tilemap_a   bg_lencityopen_tilemap_attr
     000150E9  _bg_lencityopen_tilemap_attr       bg_lencityopen_tilemap_attr
     000177F9  ___func_scene_18_sprites           scene_18_sprites
     000177F9  _scene_18_sprites                  scene_18_sprites
     000177FF  GBVM$script_input_6$be5ab726_cce   script_input_6
     000177FF  _script_input_6                    script_input_6
     0001791C  gbt_channel_1_handle               
     00017AF6  gbt_channel_2_handle               
     00017CC8  gbt_channel_3_handle               
     00017EA1  gbt_channel_4_handle               
     00017FBA  gbt_update_bank1                   
     00017FD6  gbt_update_effects_bank1           

ASxxxx Linker V03.00/V05.40 + sdld,  page 72.
Hexadecimal  [32-Bits]

Area                                    Addr        Size        Decimal Bytes (Attributes)
--------------------------------        ----        ----        ------- ----- ------------
_CRASH_HEADER0                      00000000    00000005 =           5. bytes (ABS,CON)

      Value  Global                              Global Defined In Module
      -----  --------------------------------   ------------------------
ASxxxx Linker V03.00/V05.40 + sdld,  page 73.
Hexadecimal  [32-Bits]

Area                                    Addr        Size        Decimal Bytes (Attributes)
--------------------------------        ----        ----        ------- ----- ------------
_CRASH_HEADER1                      00000000    00000004 =           4. bytes (ABS,CON)

      Value  Global                              Global Defined In Module
      -----  --------------------------------   ------------------------
ASxxxx Linker V03.00/V05.40 + sdld,  page 74.
Hexadecimal  [32-Bits]

Area                                    Addr        Size        Decimal Bytes (Attributes)
--------------------------------        ----        ----        ------- ----- ------------
_CODE_21                            00154000    00003FFE =       16382. bytes (REL,CON)

      Value  Global                              Global Defined In Module
      -----  --------------------------------   ------------------------
     00154000  ___HandleCrash_banked              
     00154368  _CGBFadeToWhiteStep                fade_manager
     001543A1  _CGBFadeToBlackStep                fade_manager
     001543DC  _ApplyPaletteChangeColor           fade_manager
     00154419  _fade_speeds                       fade_manager
     00154420  _DMGFadeToWhiteStep                fade_manager
     00154441  _DMGFadeToBlackStep                fade_manager
     00154464  _ApplyPaletteChangeDMG             fade_manager
     001544BA  _fade_init                         fade_manager
     001544DB  _fade_in                           fade_manager
     00154513  _fade_out                          fade_manager
     0015454C  _fade_update                       fade_manager
     0015459F  _fade_applypalettechange           fade_manager
     001545B1  _fade_setspeed                     fade_manager
     001545C1  _fade_in_modal                     fade_manager
     001545DB  _fade_out_modal                    fade_manager
     001545F5  _trigger_reset                     trigger
     00154605  _trigger_interact                  trigger
     00154644  _trigger_activate_at               trigger
     0015468F  _trigger_at_intersection           trigger
     001547B6  _trigger_activate_at_intersectio   trigger
     001548F7  _trigger_at_tile                   trigger
     00154988  ___func_bg_dhilly_game_9_tileset   bg_dhilly_game_9_tileset
     00154988  _bg_dhilly_game_9_tileset          bg_dhilly_game_9_tileset
     00154CAA  ___func_bg_lair_right_5_tileset    bg_lair_right_5_tileset
     00154CAA  _bg_lair_right_5_tileset           bg_lair_right_5_tileset
     0015501C  ___func_bg_pixil_frame_0_24_tile   bg_pixil_frame_0_24_tilemap_
     0015501C  _bg_pixil_frame_0_24_tilemap_att   bg_pixil_frame_0_24_tilemap_
     00155346  ___func_bg_pixil_frame_0_24_tile   bg_pixil_frame_0_24_tilemap
     00155346  _bg_pixil_frame_0_24_tilemap       bg_pixil_frame_0_24_tilemap
     00155670  ___func_bg_pixil_frame_0_30_tile   bg_pixil_frame_0_30_tilemap_
     00155670  _bg_pixil_frame_0_30_tilemap_att   bg_pixil_frame_0_30_tilemap_
     001559F4  ___func_bg_pixil_frame_0_30_tile   bg_pixil_frame_0_30_tilemap
     001559F4  _bg_pixil_frame_0_30_tilemap       bg_pixil_frame_0_30_tilemap
     00155D78  ___func_bg_pixil_frame_0_copy_co   bg_pixil_frame_0_copy_copy__
     00155D78  _bg_pixil_frame_0_copy_copy__til   bg_pixil_frame_0_copy_copy__
     001560FA  ___func_bg_ui_screens_title_copy   bg_ui_screens_title_copy__ti
     001560FA  _bg_ui_screens_title_copy__tilem   bg_ui_screens_title_copy__ti
     0015646A  ___func_bg_ui_screens_title_copy   bg_ui_screens_title_copy__ti
     0015646A  _bg_ui_screens_title_copy__tilem   bg_ui_screens_title_copy__ti
     001567DA  ___func_scene_103_collisions       scene_103_collisions
     001567DA  _scene_103_collisions              scene_103_collisions
     00156B4A  ___func_scene_15_collisions        scene_15_collisions
     00156B4A  _scene_15_collisions               scene_15_collisions
     00156EE0  ___func_scene_29_collisions        scene_29_collisions
     00156EE0  _scene_29_collisions               scene_29_collisions
     0015720A  ___func_scene_30_collisions        scene_30_collisions
     0015720A  _scene_30_collisions               scene_30_collisions
     0015758E  ___func_scene_89_collisions        scene_89_collisions
     0015758E  _scene_89_collisions               scene_89_collisions
ASxxxx Linker V03.00/V05.40 + sdld,  page 75.
Hexadecimal  [32-Bits]

Area                                    Addr        Size        Decimal Bytes (Attributes)
--------------------------------        ----        ----        ------- ----- ------------
_CODE_21                            00154000    00003FFE =       16382. bytes (REL,CON)

      Value  Global                              Global Defined In Module
      -----  --------------------------------   ------------------------
     00157924  _script_input_2                    script_input_2
     00157926  GBVM$script_input_2$55c83d82_487   script_input_2
     00157932  GBVM$script_input_2$a123a214_013   script_input_2
     00157945  GBVM$script_input_2$68a1a8e5_243   script_input_2
     00157987  GBVM$script_input_2$9f8440a1_e14   script_input_2
     0015798C  GBVM$script_input_2$7cd4a2bb_cd6   script_input_2
     001579A1  GBVM$script_input_2$8874a317_a58   script_input_2
     001579D3  GBVM_END$script_input_2$7cd4a2bb   script_input_2
     001579D6  GBVM$script_input_2$9de9af64_935   script_input_2
     00157A1D  GBVM$script_input_2$dc285c28_a5e   script_input_2
     00157A22  GBVM$script_input_2$62d228f0_d69   script_input_2
     00157A37  GBVM$script_input_2$f5579410_554   script_input_2
     00157A39  GBVM$script_input_2$8d06284f_0dd   script_input_2
     00157A3D  GBVM$script_input_2$a3c32d5f_d34   script_input_2
     00157A3D  GBVM_END$script_input_2$55c83d82   script_input_2
     00157A3D  GBVM_END$script_input_2$62d228f0   script_input_2
     00157A3D  GBVM_END$script_input_2$a123a214   script_input_2
     00157A52  GBVM$script_input_2$761b08aa_792   script_input_2
     00157A65  GBVM$script_input_2$dc2fbdd8_a70   script_input_2
     00157AA7  GBVM$script_input_2$4fb90156_88a   script_input_2
     00157AAC  GBVM$script_input_2$221af5e9_3d8   script_input_2
     00157AC1  GBVM$script_input_2$1b2ff2de_5d8   script_input_2
     00157AF3  GBVM_END$script_input_2$221af5e9   script_input_2
     00157AF6  GBVM$script_input_2$ecc51592_28a   script_input_2
     00157B3D  GBVM$script_input_2$516efec1_0a0   script_input_2
     00157B42  GBVM$script_input_2$5d33b9cf_afc   script_input_2
     00157B57  GBVM$script_input_2$96313b76_69b   script_input_2
     00157B59  GBVM$script_input_2$136171f6_3e3   script_input_2
     00157B5D  GBVM$script_input_2$130ff29f_6b9   script_input_2
     00157B5D  GBVM_END$script_input_2$5d33b9cf   script_input_2
     00157B5D  GBVM_END$script_input_2$761b08aa   script_input_2
     00157B5D  GBVM_END$script_input_2$a3c32d5f   script_input_2
     00157B72  GBVM$script_input_2$5d6112cd_c56   script_input_2
     00157B85  GBVM$script_input_2$0746de00_0d6   script_input_2
     00157BC7  GBVM$script_input_2$487a2ddc_9bd   script_input_2
     00157BCC  GBVM$script_input_2$aaa31f96_858   script_input_2
     00157BE1  GBVM$script_input_2$4cd17205_f1a   script_input_2
     00157C13  GBVM_END$script_input_2$aaa31f96   script_input_2
     00157C16  GBVM$script_input_2$ecfcf6a5_686   script_input_2
     00157C5D  GBVM$script_input_2$2213368f_86b   script_input_2
     00157C62  GBVM$script_input_2$78320308_cf0   script_input_2
     00157C77  GBVM$script_input_2$4e157ea2_141   script_input_2
     00157C79  GBVM$script_input_2$6df45fbb_2d5   script_input_2
     00157C7D  GBVM_END$script_input_2$130ff29f   script_input_2
     00157C7D  GBVM_END$script_input_2$5d6112cd   script_input_2
     00157C7D  GBVM_END$script_input_2$78320308   script_input_2
     00157C7E  _pointnclick_init                  pointnclick
     00157CB7  _pointnclick_update                pointnclick

ASxxxx Linker V03.00/V05.40 + sdld,  page 76.
Hexadecimal  [32-Bits]

Area                                    Addr        Size        Decimal Bytes (Attributes)
--------------------------------        ----        ----        ------- ----- ------------
_CRASH_SCRATCH2                     00000000    000001CB =         459. bytes (ABS,CON)

      Value  Global                              Global Defined In Module
      -----  --------------------------------   ------------------------
ASxxxx Linker V03.00/V05.40 + sdld,  page 77.
Hexadecimal  [32-Bits]

Area                                    Addr        Size        Decimal Bytes (Attributes)
--------------------------------        ----        ----        ------- ----- ------------
_CODE_13                            000D4000    00003FFF =       16383. bytes (REL,CON)

      Value  Global                              Global Defined In Module
      -----  --------------------------------   ------------------------
     000D4000  _load_init                         data_manager
     000D4013  _spritesheet_none_far              data_manager
     000D4016  _load_bkg_tileset                  data_manager
     000D40F3  _load_background                   data_manager
     000D41B9  _load_sprite                       data_manager
     000D428F  _load_bounds                       data_manager
     000D42AC  _do_load_palette                   data_manager
     000D4331  _load_scene                        data_manager
     000D49BD  _load_player                       data_manager
     000D4A06  _load_emote                        data_manager
     000D4A1F  ___func_bg_pixil_frame_0_31_tile   bg_pixil_frame_0_31_tilemap
     000D4A1F  _bg_pixil_frame_0_31_tilemap       bg_pixil_frame_0_31_tilemap
     000D5505  ___func_bg_placeholder_copy_copy   bg_placeholder_copy_copy_co_
     000D5505  _bg_placeholder_copy_copy_co_til   bg_placeholder_copy_copy_co_
     000D5EC9  ___func_scene_31_collisions        scene_31_collisions
     000D5EC9  _scene_31_collisions               scene_31_collisions
     000D69AF  _scene_52_init                     scene_52_init
     000D69B2  GBVM$scene_52_init$autofade$0bdf   scene_52_init
     000D69BD  GBVM$scene_52_init$2e7e813e_479e   scene_52_init
     000D69E0  GBVM$scene_52_init$027b7477_7797   scene_52_init
     000D6A53  GBVM$scene_52_init$380be75a_7d48   scene_52_init
     000D6A76  GBVM$scene_52_init$221ca81e_d7b5   scene_52_init
     000D6B68  GBVM$scene_52_init$51f9cdd0_1cd8   scene_52_init
     000D6BD0  GBVM$scene_52_init$24e00350_a0de   scene_52_init
     000D6BF3  GBVM$scene_52_init$54f4a1c1_9982   scene_52_init
     000D6D38  GBVM$scene_52_init$cc09ac5e_c50b   scene_52_init
     000D6D6B  _scene_61_init                     scene_61_init
     000D6D6E  GBVM$scene_61_init$autofade$8127   scene_61_init
     000D6D79  GBVM$scene_61_init$fb3ea0aa_331a   scene_61_init
     000D6D85  GBVM$scene_61_init$98367c59_c2ed   scene_61_init
     000D6D91  GBVM$scene_61_init$ac05ebe6_542f   scene_61_init
     000D6E56  GBVM$scene_61_init$91d922f4_c896   scene_61_init
     000D6E9F  GBVM$scene_61_init$b5a1ae24_5af0   scene_61_init
     000D6EC2  GBVM$scene_61_init$ec41c41a_73d1   scene_61_init
     000D6ECB  GBVM$scene_61_init$a0cda12c_32a8   scene_61_init
     000D6F29  GBVM$scene_61_init$8ca7bafe_669e   scene_61_init
     000D6F8D  GBVM$scene_61_init$81627faf_c13b   scene_61_init
     000D6FCF  GBVM$scene_61_init$21429fc1_c20e   scene_61_init
     000D703F  GBVM$scene_61_init$f72ba775_11d5   scene_61_init
     000D7051  GBVM$scene_61_init$f30f573f_7b19   scene_61_init
     000D70DA  GBVM$scene_61_init$3e2beb71_68bc   scene_61_init
     000D717F  GBVM$scene_61_init$a347cbc6_95b0   scene_61_init
     000D717F  GBVM_END$scene_61_init$f72ba775_   scene_61_init
     000D71FB  GBVM$scene_61_init$dd4d5267_efe9   scene_61_init
     000D724D  GBVM$scene_61_init$2e16fcc2_9842   scene_61_init
     000D7256  GBVM$scene_61_init$444709c7_79d5   scene_61_init
     000D72B1  GBVM$scene_61_init$ebd45b0b_7e4e   scene_61_init
     000D730F  GBVM$scene_61_init$3d735b9a_af4a   scene_61_init
     000D734D  GBVM$scene_61_init$458dd584_00b5   scene_61_init
     000D73B0  GBVM$scene_61_init$3604b350_305c   scene_61_init
ASxxxx Linker V03.00/V05.40 + sdld,  page 78.
Hexadecimal  [32-Bits]

Area                                    Addr        Size        Decimal Bytes (Attributes)
--------------------------------        ----        ----        ------- ----- ------------
_CODE_13                            000D4000    00003FFF =       16383. bytes (REL,CON)

      Value  Global                              Global Defined In Module
      -----  --------------------------------   ------------------------
     000D73C2  GBVM$scene_61_init$bb9c59d8_15cf   scene_61_init
     000D7469  GBVM$scene_61_init$95896111_57cf   scene_61_init
     000D752C  GBVM$scene_61_init$2dd18a17_bed1   scene_61_init
     000D752C  GBVM_END$scene_61_init$3604b350_   scene_61_init
     000D7538  GBVM$scene_61_init$cabc86d3_58c4   scene_61_init
     000D7544  GBVM$scene_61_init$1d02f938_132e   scene_61_init
     000D759B  GBVM$scene_61_init$286e74db_358b   scene_61_init
     000D75A6  GBVM$scene_61_init$28e24f63_f983   scene_61_init
     000D75E5  GBVM$scene_61_init$857834e1_dc0d   scene_61_init
     000D75EA  GBVM$scene_61_init$48f97692_8a61   scene_61_init
     000D75EA  GBVM_END$scene_61_init$2dd18a17_   scene_61_init
     000D75EA  GBVM_END$scene_61_init$2e16fcc2_   scene_61_init
     000D75EA  GBVM_END$scene_61_init$cabc86d3_   scene_61_init
     000D75EA  GBVM_END$scene_61_init$ec41c41a_   scene_61_init
     000D75EF  GBVM$scene_61_init$869f66ab_94bb   scene_61_init
     000D763A  GBVM_END$scene_61_init$fb3ea0aa_   scene_61_init
     000D763B  ___func_scene_86_collisions        scene_86_collisions
     000D763B  _scene_86_collisions               scene_86_collisions

ASxxxx Linker V03.00/V05.40 + sdld,  page 79.
Hexadecimal  [32-Bits]

Area                                    Addr        Size        Decimal Bytes (Attributes)
--------------------------------        ----        ----        ------- ----- ------------
_CODE_28                            001C4000    00004000 =       16384. bytes (REL,CON)

      Value  Global                              Global Defined In Module
      -----  --------------------------------   ------------------------
     001C4000  _events_init                       events
     001C4040  _timers_init                       events
     001C4080  _restore_sram_bank                 flasher
     001C40B6  _restore_sram                      flasher
     001C40CC  _save_sram                         flasher
     001C40F8  _music_init_driver                 music_manager
     001C415B  _music_init_events                 music_manager
     001C4197  _music_events_poll                 music_manager
     001C41BF  _music_pause                       music_manager
     001C41E1  _palette_init                      palette
     001C4218  _CGBZeroPalette                    palette
     001C422D  _SGBTransferPalettes               palette
     001C42A5  ___func_VM_GBPRINTER               vm_gbprinter
     001C42A5  _vm_print_detect                   vm_gbprinter
     001C42F4  _vm_print_overlay                  vm_gbprinter
     001C4349  ___func_VM_LOAD_SAVE               vm_load_save
     001C4349  _vm_save_clear                     vm_load_save
     001C4358  _vm_save_peek                      vm_load_save
     001C43DA  ___func_VM_PROJECTILE              vm_projectiles
     001C43DA  _vm_projectile_launch              vm_projectiles
     001C441B  _vm_projectile_load_type           vm_projectiles
     001C44AD  ___func_VM_RTC                     vm_rtc
     001C44AD  _vm_rtc_latch                      vm_rtc
     001C44B5  _vm_rtc_get                        vm_rtc
     001C451C  _vm_rtc_set                        vm_rtc
     001C457A  _vm_rtc_start                      vm_rtc
     001C459D  ___func_VM_SCENE                   vm_scene
     001C459D  _vm_scene_push                     vm_scene
     001C4613  _vm_scene_pop                      vm_scene
     001C4621  _vm_scene_pop_all                  vm_scene
     001C462C  _vm_scene_stack_reset              vm_scene
     001C4635  _itoa_fmt                          vm_ui_a
     001C4669  .utoa_fmt                          vm_ui_a
     001C4713  _actor_18_interact                 actor_18_interact
     001C4714  GBVM$actor_18_interact$c825261d_   actor_18_interact
     001C47BE  _actor_21_interact                 actor_21_interact
     001C47C1  GBVM$actor_21_interact$ba42fe0a_   actor_21_interact
     001C47CA  GBVM$actor_21_interact$92f1f7bb_   actor_21_interact
     001C47ED  GBVM$actor_21_interact$8520dd38_   actor_21_interact
     001C4810  GBVM$actor_21_interact$c10e2420_   actor_21_interact
     001C4843  _actor_33_interact                 actor_33_interact
     001C4844  GBVM$actor_33_interact$a67beaa1_   actor_33_interact
     001C48E1  _actor_34_interact                 actor_34_interact
     001C48E2  GBVM$actor_34_interact$17e9f54c_   actor_34_interact
     001C497F  _actor_35_interact                 actor_35_interact
     001C4980  GBVM$actor_35_interact$3c5f8f94_   actor_35_interact
     001C4A1B  _actor_38_interact                 actor_38_interact
     001C4A1E  GBVM$actor_38_interact$89a4fb37_   actor_38_interact
     001C4A82  GBVM$actor_38_interact$946b2e7c_   actor_38_interact
     001C4AB5  _actor_39_interact                 actor_39_interact
ASxxxx Linker V03.00/V05.40 + sdld,  page 80.
Hexadecimal  [32-Bits]

Area                                    Addr        Size        Decimal Bytes (Attributes)
--------------------------------        ----        ----        ------- ----- ------------
_CODE_28                            001C4000    00004000 =       16384. bytes (REL,CON)

      Value  Global                              Global Defined In Module
      -----  --------------------------------   ------------------------
     001C4AB8  GBVM$actor_39_interact$d368d088_   actor_39_interact
     001C4B1C  GBVM$actor_39_interact$1f2dbf95_   actor_39_interact
     001C4B4F  _actor_41_interact                 actor_41_interact
     001C4B52  GBVM$actor_41_interact$db5288b9_   actor_41_interact
     001C4B5B  GBVM$actor_41_interact$3b768aea_   actor_41_interact
     001C4B97  GBVM$actor_41_interact$962b166a_   actor_41_interact
     001C4BD8  GBVM$actor_41_interact$de6e1b4e_   actor_41_interact
     001C4BF1  GBVM$actor_41_interact$b452ad40_   actor_41_interact
     001C4BF6  GBVM_END$actor_41_interact$db528   actor_41_interact
     001C4BF7  _actor_42_interact                 actor_42_interact
     001C4BFA  GBVM$actor_42_interact$63768d5b_   actor_42_interact
     001C4C03  GBVM$actor_42_interact$5f10e037_   actor_42_interact
     001C4C48  GBVM$actor_42_interact$a21dbd82_   actor_42_interact
     001C4C7A  GBVM_END$actor_42_interact$63768   actor_42_interact
     001C4C7B  _actor_60_interact                 actor_60_interact
     001C4C8E  GBVM$actor_60_interact$7101973d_   actor_60_interact
     001C4C99  GBVM$actor_60_interact$5e1bef0f_   actor_60_interact
     001C4CA2  GBVM$actor_60_interact$8dd9e55e_   actor_60_interact
     001C4CE1  GBVM$actor_60_interact$ca98d14c_   actor_60_interact
     001C4CE3  GBVM$actor_60_interact$6372ab8f_   actor_60_interact
     001C4CED  GBVM$actor_60_interact$b4899d65_   actor_60_interact
     001C4D06  GBVM$actor_60_interact$ab368065_   actor_60_interact
     001C4D38  GBVM_END$actor_60_interact$5e1be   actor_60_interact
     001C4D3A  _actor_61_interact                 actor_61_interact
     001C4D4D  GBVM$actor_61_interact$3c02ddcb_   actor_61_interact
     001C4D58  GBVM$actor_61_interact$87012482_   actor_61_interact
     001C4D61  GBVM$actor_61_interact$45e7e69a_   actor_61_interact
     001C4DA0  GBVM$actor_61_interact$695ad03f_   actor_61_interact
     001C4DA2  GBVM$actor_61_interact$d57f0ec0_   actor_61_interact
     001C4DAC  GBVM$actor_61_interact$d71152b7_   actor_61_interact
     001C4DC5  GBVM$actor_61_interact$f4c553b7_   actor_61_interact
     001C4DF7  GBVM_END$actor_61_interact$87012   actor_61_interact
     001C4DF9  _actor_65_interact                 actor_65_interact
     001C4DFA  GBVM$actor_65_interact$39711e3e_   actor_65_interact
     001C4E5C  ___func_bg_area_dhilly_city_lair   bg_area_dhilly_city_lair_la_
     001C4E5C  _bg_area_dhilly_city_lair_la_1_t   bg_area_dhilly_city_lair_la_
     001C4F1E  ___func_bg_area_dhilly_city_lair   bg_area_dhilly_city_lair_la_
     001C4F1E  _bg_area_dhilly_city_lair_la_3_t   bg_area_dhilly_city_lair_la_
     001C4F90  ___func_bg_cave_ladder_copy_0_ti   bg_cave_ladder_copy_0_tilese
     001C4F90  _bg_cave_ladder_copy_0_tileset     bg_cave_ladder_copy_0_tilese
     001C5062  ___func_bg_dhilly_game_4_tileset   bg_dhilly_game_4_tileset
     001C5062  _bg_dhilly_game_4_tileset          bg_dhilly_game_4_tileset
     001C50C4  ___func_bg_fieldlazy_tileset       bg_fieldlazy_tileset
     001C50C4  _bg_fieldlazy_tileset              bg_fieldlazy_tileset
     001C51B6  ___func_bg_intro_weather_copy__t   bg_intro_weather_copy__tiles
     001C51B6  _bg_intro_weather_copy__tileset    bg_intro_weather_copy__tiles
     001C5208  ___func_bg_lair_right_4_copy__ti   bg_lair_right_4_copy__tilese
     001C5208  _bg_lair_right_4_copy__tileset     bg_lair_right_4_copy__tilese
     001C528A  ___func_bg_wakeupsquare_3_copy__   bg_wakeupsquare_3_copy__tile
     001C528A  _bg_wakeupsquare_3_copy__tileset   bg_wakeupsquare_3_copy__tile
     001C52FC  ___func_frame_image                frame_image
ASxxxx Linker V03.00/V05.40 + sdld,  page 81.
Hexadecimal  [32-Bits]

Area                                    Addr        Size        Decimal Bytes (Attributes)
--------------------------------        ----        ----        ------- ----- ------------
_CODE_28                            001C4000    00004000 =       16384. bytes (REL,CON)

      Value  Global                              Global Defined In Module
      -----  --------------------------------   ------------------------
     001C52FC  _frame_image                       frame_image
     001C538C  ___func_palette_0                  palette_0
     001C538C  _palette_0                         palette_0
     001C53CF  ___func_palette_1                  palette_1
     001C53CF  _palette_1                         palette_1
     001C5412  ___func_palette_10                 palette_10
     001C5412  _palette_10                        palette_10
     001C5455  ___func_palette_11                 palette_11
     001C5455  _palette_11                        palette_11
     001C5498  ___func_palette_12                 palette_12
     001C5498  _palette_12                        palette_12
     001C54DB  ___func_palette_13                 palette_13
     001C54DB  _palette_13                        palette_13
     001C551E  ___func_palette_14                 palette_14
     001C551E  _palette_14                        palette_14
     001C5561  ___func_palette_15                 palette_15
     001C5561  _palette_15                        palette_15
     001C55A4  ___func_palette_16                 palette_16
     001C55A4  _palette_16                        palette_16
     001C55E7  ___func_palette_17                 palette_17
     001C55E7  _palette_17                        palette_17
     001C562A  ___func_palette_18                 palette_18
     001C562A  _palette_18                        palette_18
     001C566D  _scene_10_init                     scene_10_init
     001C5670  GBVM$scene_10_init$0ebd6202_1a75   scene_10_init
     001C5670  GBVM$scene_10_init$5b4533a4_b5d0   scene_10_init
     001C5675  GBVM$scene_10_init$autofade$3443   scene_10_init
     001C5680  GBVM$scene_10_init$28df34de_4d51   scene_10_init
     001C5682  GBVM$scene_10_init$d42f2841_346b   scene_10_init
     001C56B5  ___func_scene_18_actors            scene_18_actors
     001C56B5  _scene_18_actors                   scene_18_actors
     001C571D  _scene_18_init                     scene_18_init
     001C5720  GBVM$scene_18_init$fd2ab878_1d85   scene_18_init
     001C5735  GBVM$scene_18_init$1e879541_be5a   scene_18_init
     001C573F  GBVM$scene_18_init$16eafe3c_93ce   scene_18_init
     001C5749  GBVM$scene_18_init$06ffe308_f7bf   scene_18_init
     001C5749  GBVM$scene_18_init$b8a154ae_2f34   scene_18_init
     001C5749  GBVM_END$scene_18_init$fd2ab878_   scene_18_init
     001C574E  GBVM$scene_18_init$b43cd252_5218   scene_18_init
     001C5756  GBVM$scene_18_init$autofade$6a94   scene_18_init
     001C5756  GBVM_END$scene_18_init$b43cd252_   scene_18_init
     001C5762  _scene_19_init                     scene_19_init
     001C5765  GBVM$scene_19_init$f022d835_d14e   scene_19_init
     001C576F  GBVM$scene_19_init$autofade$5fb5   scene_19_init
     001C577A  GBVM$scene_19_init$5e339b41_06ea   scene_19_init
     001C579D  GBVM$scene_19_init$18a9dd7f_fb2d   scene_19_init
     001C57A7  GBVM$scene_19_init$09bb1942_818d   scene_19_init
     001C57B3  ___func_scene_2_actors             scene_2_actors
     001C57B3  _scene_2_actors                    scene_2_actors
     001C584F  _scene_21_init                     scene_21_init
     001C5852  GBVM$scene_21_init$autofade$824c   scene_21_init
ASxxxx Linker V03.00/V05.40 + sdld,  page 82.
Hexadecimal  [32-Bits]

Area                                    Addr        Size        Decimal Bytes (Attributes)
--------------------------------        ----        ----        ------- ----- ------------
_CODE_28                            001C4000    00004000 =       16384. bytes (REL,CON)

      Value  Global                              Global Defined In Module
      -----  --------------------------------   ------------------------
     001C585D  GBVM$scene_21_init$bdeaf0ed_5b6c   scene_21_init
     001C58A5  GBVM$scene_21_init$6c451027_4798   scene_21_init
     001C58E2  GBVM$scene_21_init$d829eb56_ede9   scene_21_init
     001C58EB  GBVM$scene_21_init$ae46eb13_d939   scene_21_init
     001C58ED  GBVM$scene_21_init$6743a28b_d165   scene_21_init
     001C58F0  GBVM$scene_21_init$efe9653e_83df   scene_21_init
     001C58F2  GBVM$scene_21_init$787be04a_3a1c   scene_21_init
     001C58F2  GBVM_END$scene_21_init$d829eb56_   scene_21_init
     001C58F3  ___func_scene_22_actors            scene_22_actors
     001C58F3  _scene_22_actors                   scene_22_actors
     001C595B  _scene_26_init                     scene_26_init
     001C595E  GBVM$scene_26_init$autofade$3cbe   scene_26_init
     001C5969  GBVM$scene_26_init$254f12a9_f041   scene_26_init
     001C59CF  GBVM$scene_26_init$ef63553c_124e   scene_26_init
     001C5A02  ___func_scene_33_actors            scene_33_actors
     001C5A02  _scene_33_actors                   scene_33_actors
     001C5A6A  _scene_33_init                     scene_33_init
     001C5A6D  GBVM$scene_33_init$bbece732_fb3d   scene_33_init
     001C5A77  GBVM$scene_33_init$cdfbb1cd_1f65   scene_33_init
     001C5A81  GBVM$scene_33_init$c2ffcbf6_d80c   scene_33_init
     001C5A8B  GBVM$scene_33_init$autofade$5a8e   scene_33_init
     001C5A97  ___func_scene_37_actors            scene_37_actors
     001C5A97  _scene_37_actors                   scene_37_actors
     001C5B33  _scene_38_init                     scene_38_init
     001C5B36  GBVM$scene_38_init$autofade$d017   scene_38_init
     001C5B41  GBVM$scene_38_init$35ab9158_b602   scene_38_init
     001C5B78  GBVM$scene_38_init$e2b81bd2_87df   scene_38_init
     001C5BAB  ___func_scene_39_actors            scene_39_actors
     001C5BAB  _scene_39_actors                   scene_39_actors
     001C5C7B  _scene_4_init                      scene_4_init
     001C5C7E  GBVM$scene_4_init$0371bad1_8dab_   scene_4_init
     001C5C7E  GBVM$scene_4_init$0513d5e4_da11_   scene_4_init
     001C5C83  GBVM$scene_4_init$autofade$a81f7   scene_4_init
     001C5C8E  GBVM$scene_4_init$c9427941_78fd_   scene_4_init
     001C5C90  GBVM$scene_4_init$803cbdb0_5452_   scene_4_init
     001C5CC3  ___func_scene_45_actors            scene_45_actors
     001C5CC3  _scene_45_actors                   scene_45_actors
     001C5D2B  _scene_45_init                     scene_45_init
     001C5D2E  GBVM$scene_45_init$autofade$8273   scene_45_init
     001C5D39  GBVM$scene_45_init$1f86a1f2_2951   scene_45_init
     001C5D44  GBVM$scene_45_init$4264318b_9bb6   scene_45_init
     001C5E06  ___func_scene_46_actors            scene_46_actors
     001C5E06  _scene_46_actors                   scene_46_actors
     001C5E6E  _scene_46_p_hit1                   scene_46_p_hit1
     001C5E81  GBVM$scene_46_p_hit1$b831451e_65   scene_46_p_hit1
     001C5EB5  _scene_48_p_hit1                   scene_48_p_hit1
     001C5EC8  GBVM$scene_48_p_hit1$3b47ba51_e6   scene_48_p_hit1
     001C5EFC  _scene_49_p_hit1                   scene_49_p_hit1
     001C5F0F  GBVM$scene_49_p_hit1$51de444a_5b   scene_49_p_hit1
     001C5F43  ___func_scene_54_actors            scene_54_actors
     001C5F43  _scene_54_actors                   scene_54_actors
ASxxxx Linker V03.00/V05.40 + sdld,  page 83.
Hexadecimal  [32-Bits]

Area                                    Addr        Size        Decimal Bytes (Attributes)
--------------------------------        ----        ----        ------- ----- ------------
_CODE_28                            001C4000    00004000 =       16384. bytes (REL,CON)

      Value  Global                              Global Defined In Module
      -----  --------------------------------   ------------------------
     001C5FAB  _scene_62_init                     scene_62_init
     001C5FAC  GBVM$scene_62_init$eee0145f_4e81   scene_62_init
     001C5FB1  GBVM$scene_62_init$35fa002e_9419   scene_62_init
     001C5FB9  GBVM$scene_62_init$autofade$9fcd   scene_62_init
     001C5FB9  GBVM_END$scene_62_init$35fa002e_   scene_62_init
     001C5FC4  GBVM$scene_62_init$9b374350_0a4c   scene_62_init
     001C5FD0  GBVM$scene_62_init$fd42cba2_ed23   scene_62_init
     001C5FDC  GBVM$scene_62_init$69558264_ebc7   scene_62_init
     001C5FE0  GBVM$scene_62_init$7767be8c_005c   scene_62_init
     001C6049  GBVM$scene_62_init$b52bf8c0_df9c   scene_62_init
     001C604E  GBVM$scene_62_init$63087300_9ed6   scene_62_init
     001C6059  GBVM$scene_62_init$1f863b9f_fc3b   scene_62_init
     001C6098  GBVM_END$scene_62_init$9b374350_   scene_62_init
     001C6098  GBVM_END$scene_62_init$fd42cba2_   scene_62_init
     001C6099  _scene_69_init                     scene_69_init
     001C609C  GBVM$scene_69_init$dcbbac9e_1560   scene_69_init
     001C609E  GBVM$scene_69_init$autofade$51c9   scene_69_init
     001C60A9  GBVM$scene_69_init$c408e6d6_c717   scene_69_init
     001C6102  GBVM$scene_69_init$3a186f9a_040d   scene_69_init
     001C6135  ___func_scene_73_actors            scene_73_actors
     001C6135  _scene_73_actors                   scene_73_actors
     001C619D  _scene_74_init                     scene_74_init
     001C61A0  GBVM$scene_74_init$4cdc8b03_3c8e   scene_74_init
     001C61A2  GBVM$scene_74_init$autofade$c114   scene_74_init
     001C61AD  GBVM$scene_74_init$529236ff_8701   scene_74_init
     001C6203  GBVM$scene_74_init$35c55f96_9345   scene_74_init
     001C6208  GBVM$scene_74_init$c5fe1ab8_6251   scene_74_init
     001C623B  _scene_75_init                     scene_75_init
     001C623C  GBVM$scene_75_init$42582032_0008   scene_75_init
     001C623E  GBVM$scene_75_init$autofade$9684   scene_75_init
     001C6249  GBVM$scene_75_init$99938c16_75d3   scene_75_init
     001C6255  GBVM$scene_75_init$547c208c_fba7   scene_75_init
     001C6261  GBVM$scene_75_init$ff1331df_1e1d   scene_75_init
     001C626C  GBVM$scene_75_init$35f0e6cf_1458   scene_75_init
     001C62E3  GBVM_END$scene_75_init$547c208c_   scene_75_init
     001C62E3  GBVM_END$scene_75_init$99938c16_   scene_75_init
     001C62E4  _scene_85_init                     scene_85_init
     001C62E7  GBVM$scene_85_init$55b7ac1c_1f2c   scene_85_init
     001C62E9  GBVM$scene_85_init$autofade$4426   scene_85_init
     001C62F4  GBVM$scene_85_init$a8c71478_9174   scene_85_init
     001C6333  GBVM$scene_85_init$8ad86c3a_d96a   scene_85_init
     001C6366  ___func_scene_86_actors            scene_86_actors
     001C6366  _scene_86_actors                   scene_86_actors
     001C6402  _scene_87_init                     scene_87_init
     001C6405  GBVM$scene_87_init$f771dd2f_b8c6   scene_87_init
     001C6407  GBVM$scene_87_init$autofade$e7bf   scene_87_init
     001C6412  GBVM$scene_87_init$b5d843a5_1b83   scene_87_init
     001C6446  GBVM$scene_87_init$8af9a273_2421   scene_87_init
     001C6479  ___func_scene_91_actors            scene_91_actors
     001C6479  _scene_91_actors                   scene_91_actors
     001C6549  ___func_scene_92_actors            scene_92_actors
ASxxxx Linker V03.00/V05.40 + sdld,  page 84.
Hexadecimal  [32-Bits]

Area                                    Addr        Size        Decimal Bytes (Attributes)
--------------------------------        ----        ----        ------- ----- ------------
_CODE_28                            001C4000    00004000 =       16384. bytes (REL,CON)

      Value  Global                              Global Defined In Module
      -----  --------------------------------   ------------------------
     001C6549  _scene_92_actors                   scene_92_actors
     001C65E5  _scene_93_p_hit1                   scene_93_p_hit1
     001C65F8  GBVM$scene_93_p_hit1$b91b26b7_69   scene_93_p_hit1
     001C6603  GBVM$scene_93_p_hit1$dc718dc0_05   scene_93_p_hit1
     001C660C  GBVM$scene_93_p_hit1$475d0adc_2e   scene_93_p_hit1
     001C664B  GBVM$scene_93_p_hit1$9282fe03_17   scene_93_p_hit1
     001C667C  GBVM$scene_93_p_hit1$eef473a3_45   scene_93_p_hit1
     001C66AE  GBVM_END$scene_93_p_hit1$dc718dc   scene_93_p_hit1
     001C66B0  _scene_94_init                     scene_94_init
     001C66B3  GBVM$scene_94_init$autofade$4fde   scene_94_init
     001C66BE  GBVM$scene_94_init$dd0c04e4_23b7   scene_94_init
     001C66CF  GBVM$scene_94_init$a13c3c65_8a51   scene_94_init
     001C66F2  GBVM$scene_94_init$9665cdc7_e79d   scene_94_init
     001C66FE  GBVM$scene_94_init$63ac437a_978e   scene_94_init
     001C6706  GBVM$scene_94_init$f0ffbd1e_46ce   scene_94_init
     001C6706  GBVM_END$scene_94_init$63ac437a_   scene_94_init
     001C670E  GBVM$scene_94_init$e2b70224_370e   scene_94_init
     001C670E  GBVM_END$scene_94_init$f0ffbd1e_   scene_94_init
     001C6713  GBVM$scene_94_init$29e649b3_84a9   scene_94_init
     001C6718  GBVM$scene_94_init$52f2c40a_fee8   scene_94_init
     001C6757  _scene_94_p_hit1                   scene_94_p_hit1
     001C676A  GBVM$scene_94_p_hit1$e11165bf_a9   scene_94_p_hit1
     001C6775  GBVM$scene_94_p_hit1$d221c700_f5   scene_94_p_hit1
     001C677E  GBVM$scene_94_p_hit1$175c4453_c8   scene_94_p_hit1
     001C67BD  GBVM$scene_94_p_hit1$4b947e5b_25   scene_94_p_hit1
     001C67EE  GBVM$scene_94_p_hit1$dd1dab78_c3   scene_94_p_hit1
     001C6820  GBVM_END$scene_94_p_hit1$d221c70   scene_94_p_hit1
     001C6822  _scene_95_init                     scene_95_init
     001C6825  GBVM$scene_95_init$autofade$8049   scene_95_init
     001C6830  GBVM$scene_95_init$e6eafc5b_6de3   scene_95_init
     001C683C  GBVM$scene_95_init$6bc03639_3cd1   scene_95_init
     001C686F  _scene_96_init                     scene_96_init
     001C6872  GBVM$scene_96_init$autofade$a4f2   scene_96_init
     001C687D  GBVM$scene_96_init$f1e4cd1d_daa0   scene_96_init
     001C6889  GBVM$scene_96_init$a66f5265_f130   scene_96_init
     001C68BC  ___func_scene_99_actors            scene_99_actors
     001C68BC  _scene_99_actors                   scene_99_actors
     001C6924  _script_engine_init                
     001C699B  _script_input_0                    script_input_0
     001C699D  GBVM$script_input_0$50c02aeb_686   script_input_0
     001C69A6  GBVM$script_input_0$84a21f62_f29   script_input_0
     001C69BB  GBVM$script_input_0$c5becf71_5ab   script_input_0
     001C69C0  GBVM$script_input_0$3c22b84e_0e2   script_input_0
     001C69CB  GBVM$script_input_0$787bdba0_440   script_input_0
     001C69D6  GBVM_END$script_input_0$84a21f62   script_input_0
     001C69D9  GBVM$script_input_0$88e7216f_245   script_input_0
     001C69DE  GBVM$script_input_0$4a737eef_c67   script_input_0
     001C69E9  GBVM$script_input_0$6165b955_582   script_input_0
     001C69F4  GBVM_END$script_input_0$50c02aeb   script_input_0
     001C69F5  _script_input_1                    script_input_1
     001C69F7  GBVM$script_input_1$02285956_566   script_input_1
ASxxxx Linker V03.00/V05.40 + sdld,  page 85.
Hexadecimal  [32-Bits]

Area                                    Addr        Size        Decimal Bytes (Attributes)
--------------------------------        ----        ----        ------- ----- ------------
_CODE_28                            001C4000    00004000 =       16384. bytes (REL,CON)

      Value  Global                              Global Defined In Module
      -----  --------------------------------   ------------------------
     001C6A0C  GBVM$script_input_1$690d3392_3c9   script_input_1
     001C6A11  GBVM$script_input_1$ed742847_5e9   script_input_1
     001C6A1C  GBVM$script_input_1$9893fa36_ce0   script_input_1
     001C6A27  GBVM$script_input_1$1b701583_e26   script_input_1
     001C6A27  GBVM_END$script_input_1$02285956   script_input_1
     001C6A3C  GBVM$script_input_1$b9ed33fd_2b7   script_input_1
     001C6A41  GBVM$script_input_1$eb60c7af_e73   script_input_1
     001C6A4C  GBVM$script_input_1$93c31e0a_836   script_input_1
     001C6A57  GBVM_END$script_input_1$1b701583   script_input_1
     001C6A58  _script_input_3                    script_input_3
     001C6A5A  GBVM$script_input_3$c00cd98d_873   script_input_3
     001C6A6F  GBVM$script_input_3$5b6e42f9_5b0   script_input_3
     001C6A7A  GBVM$script_input_3$c9a1137d_359   script_input_3
     001C6ACD  GBVM_END$script_input_3$c00cd98d   script_input_3
     001C6ACE  _script_input_4                    script_input_4
     001C6AD0  GBVM$script_input_4$ad324b78_922   script_input_4
     001C6AE5  GBVM$script_input_4$a4f46b84_893   script_input_4
     001C6AF0  GBVM$script_input_4$79f15f8c_642   script_input_4
     001C6B43  GBVM_END$script_input_4$ad324b78   script_input_4
     001C6B44  ___func_sprite_blank_interactabl   sprite_blank_interactable_c_
     001C6B44  _sprite_blank_interactable_c_0_t   sprite_blank_interactable_c_
     001C6BC6  ___func_sprite_dhilly_5_level_co   sprite_dhilly_5_level_copy__
     001C6BC6  _sprite_dhilly_5_level_copy__til   sprite_dhilly_5_level_copy__
     001C6C88  ___func_sprite_dhilly_bridge_int   sprite_dhilly_bridge_intera_
     001C6C88  _sprite_dhilly_bridge_intera_0_m   sprite_dhilly_bridge_intera_
     001C6C94  _sprite_dhilly_bridge_intera_0_m   sprite_dhilly_bridge_intera_
     001C6CA0  _sprite_dhilly_bridge_intera_0_m   sprite_dhilly_bridge_intera_
     001C6CAC  _sprite_dhilly_bridge_intera_0_m   sprite_dhilly_bridge_intera_
     001C6CB8  _sprite_dhilly_bridge_intera_0_m   sprite_dhilly_bridge_intera_
     001C6CC4  _sprite_dhilly_bridge_intera_0_m   sprite_dhilly_bridge_intera_
     001C6CD4  _sprite_dhilly_bridge_intera_0_a   sprite_dhilly_bridge_intera_
     001C6CE4  _sprite_dhilly_bridge_intera_0_a   sprite_dhilly_bridge_intera_
     001C6CE6  _sprite_dhilly_bridge_intera_0     sprite_dhilly_bridge_intera_
     001C6CF9  ___func_sprite_dhilly_saveselect   sprite_dhilly_saveselect
     001C6CF9  _sprite_dhilly_saveselect_metasp   sprite_dhilly_saveselect
     001C6D05  _sprite_dhilly_saveselect_metasp   sprite_dhilly_saveselect
     001C6D11  _sprite_dhilly_saveselect_metasp   sprite_dhilly_saveselect
     001C6D1D  _sprite_dhilly_saveselect_metasp   sprite_dhilly_saveselect
     001C6D29  _sprite_dhilly_saveselect_metasp   sprite_dhilly_saveselect
     001C6D35  _sprite_dhilly_saveselect_metasp   sprite_dhilly_saveselect
     001C6D45  _sprite_dhilly_saveselect_animat   sprite_dhilly_saveselect
     001C6D55  _sprite_dhilly_saveselect_animat   sprite_dhilly_saveselect
     001C6D57  _sprite_dhilly_saveselect          sprite_dhilly_saveselect
     001C6D6A  ___func_sprite_highlight_options   sprite_highlight_options_co_
     001C6D6A  _sprite_highlight_options_co_til   sprite_highlight_options_co_
     001C6E4C  ___func_sprite_highlight_options   sprite_highlight_options_co
     001C6E4C  _sprite_highlight_options_co_met   sprite_highlight_options_co
     001C6E50  _sprite_highlight_options_co_met   sprite_highlight_options_co
     001C6E74  _sprite_highlight_options_co_met   sprite_highlight_options_co
     001C6E90  _sprite_highlight_options_co_met   sprite_highlight_options_co
     001C6E96  _sprite_highlight_options_co_ani   sprite_highlight_options_co
ASxxxx Linker V03.00/V05.40 + sdld,  page 86.
Hexadecimal  [32-Bits]

Area                                    Addr        Size        Decimal Bytes (Attributes)
--------------------------------        ----        ----        ------- ----- ------------
_CODE_28                            001C4000    00004000 =       16384. bytes (REL,CON)

      Value  Global                              Global Defined In Module
      -----  --------------------------------   ------------------------
     001C6EA6  _sprite_highlight_options_co_ani   sprite_highlight_options_co
     001C6EA8  _sprite_highlight_options_co       sprite_highlight_options_co
     001C6EBB  ___func_sprite_pixelperfectvoti_   sprite_pixelperfectvoti_cop
     001C6EBB  _sprite_pixelperfectvoti_cop_met   sprite_pixelperfectvoti_cop
     001C6EC7  _sprite_pixelperfectvoti_cop_met   sprite_pixelperfectvoti_cop
     001C6ED3  _sprite_pixelperfectvoti_cop_met   sprite_pixelperfectvoti_cop
     001C6EDF  _sprite_pixelperfectvoti_cop_met   sprite_pixelperfectvoti_cop
     001C6EEB  _sprite_pixelperfectvoti_cop_met   sprite_pixelperfectvoti_cop
     001C6EF7  _sprite_pixelperfectvoti_cop_met   sprite_pixelperfectvoti_cop
     001C6F03  _sprite_pixelperfectvoti_cop_met   sprite_pixelperfectvoti_cop
     001C6F0F  _sprite_pixelperfectvoti_cop_met   sprite_pixelperfectvoti_cop
     001C6F1B  _sprite_pixelperfectvoti_cop_met   sprite_pixelperfectvoti_cop
     001C6F27  _sprite_pixelperfectvoti_cop_met   sprite_pixelperfectvoti_cop
     001C6F33  _sprite_pixelperfectvoti_cop_met   sprite_pixelperfectvoti_cop
     001C6F3F  _sprite_pixelperfectvoti_cop_met   sprite_pixelperfectvoti_cop
     001C6F4B  _sprite_pixelperfectvoti_cop_met   sprite_pixelperfectvoti_cop
     001C6F57  _sprite_pixelperfectvoti_cop_met   sprite_pixelperfectvoti_cop
     001C6F63  _sprite_pixelperfectvoti_cop_met   sprite_pixelperfectvoti_cop
     001C6F7F  _sprite_pixelperfectvoti_cop_ani   sprite_pixelperfectvoti_cop
     001C6F8F  _sprite_pixelperfectvoti_cop_ani   sprite_pixelperfectvoti_cop
     001C6F91  _sprite_pixelperfectvoti_cop       sprite_pixelperfectvoti_cop
     001C6FA4  ___func_sprite_pixelperfectvoti    sprite_pixelperfectvoti
     001C6FA4  _sprite_pixelperfectvoti_metaspr   sprite_pixelperfectvoti
     001C6FB0  _sprite_pixelperfectvoti_metaspr   sprite_pixelperfectvoti
     001C6FBC  _sprite_pixelperfectvoti_metaspr   sprite_pixelperfectvoti
     001C6FC8  _sprite_pixelperfectvoti_metaspr   sprite_pixelperfectvoti
     001C6FD4  _sprite_pixelperfectvoti_metaspr   sprite_pixelperfectvoti
     001C6FE0  _sprite_pixelperfectvoti_metaspr   sprite_pixelperfectvoti
     001C6FEC  _sprite_pixelperfectvoti_metaspr   sprite_pixelperfectvoti
     001C6FF8  _sprite_pixelperfectvoti_metaspr   sprite_pixelperfectvoti
     001C7004  _sprite_pixelperfectvoti_metaspr   sprite_pixelperfectvoti
     001C7010  _sprite_pixelperfectvoti_metaspr   sprite_pixelperfectvoti
     001C701C  _sprite_pixelperfectvoti_metaspr   sprite_pixelperfectvoti
     001C7028  _sprite_pixelperfectvoti_metaspr   sprite_pixelperfectvoti
     001C7034  _sprite_pixelperfectvoti_metaspr   sprite_pixelperfectvoti
     001C7040  _sprite_pixelperfectvoti_metaspr   sprite_pixelperfectvoti
     001C704C  _sprite_pixelperfectvoti_metaspr   sprite_pixelperfectvoti
     001C7068  _sprite_pixelperfectvoti_animati   sprite_pixelperfectvoti
     001C7078  _sprite_pixelperfectvoti_animati   sprite_pixelperfectvoti
     001C707A  _sprite_pixelperfectvoti           sprite_pixelperfectvoti
     001C708D  ___func_sprite_square_cart_copy_   sprite_square_cart_copy__til
     001C708D  _sprite_square_cart_copy__tilese   sprite_square_cart_copy__til
     001C70EF  ___func_sprite_square_full_hitbo   sprite_square_full_hitbox_c_
     001C70EF  _sprite_square_full_hitbox_c_2_t   sprite_square_full_hitbox_c_
     001C7151  ___func_sprite_square_full_hitbo   sprite_square_full_hitbox_c_
     001C7151  _sprite_square_full_hitbox_c_2_m   sprite_square_full_hitbox_c_
     001C7175  _sprite_square_full_hitbox_c_2_m   sprite_square_full_hitbox_c_
     001C7177  _sprite_square_full_hitbox_c_2_a   sprite_square_full_hitbox_c_
     001C7187  _sprite_square_full_hitbox_c_2_a   sprite_square_full_hitbox_c_
     001C7189  _sprite_square_full_hitbox_c_2     sprite_square_full_hitbox_c_
     001C719C  ___func_sprite_square_full_hitbo   sprite_square_full_hitbox_c_
ASxxxx Linker V03.00/V05.40 + sdld,  page 87.
Hexadecimal  [32-Bits]

Area                                    Addr        Size        Decimal Bytes (Attributes)
--------------------------------        ----        ----        ------- ----- ------------
_CODE_28                            001C4000    00004000 =       16384. bytes (REL,CON)

      Value  Global                              Global Defined In Module
      -----  --------------------------------   ------------------------
     001C719C  _sprite_square_full_hitbox_c_3_m   sprite_square_full_hitbox_c_
     001C71C0  _sprite_square_full_hitbox_c_3_m   sprite_square_full_hitbox_c_
     001C71C2  _sprite_square_full_hitbox_c_3_a   sprite_square_full_hitbox_c_
     001C71D2  _sprite_square_full_hitbox_c_3_a   sprite_square_full_hitbox_c_
     001C71D4  _sprite_square_full_hitbox_c_3     sprite_square_full_hitbox_c_
     001C71E7  ___func_sprite_square_full_hitbo   sprite_square_full_hitbox_c_
     001C71E7  _sprite_square_full_hitbox_c_5_t   sprite_square_full_hitbox_c_
     001C7249  ___func_tileset_default_frame      tileset_default_frame
     001C7249  _tileset_default_frame             tileset_default_frame
     001C72DB  _trigger_101_interact              trigger_101_interact
     001C72DE  GBVM$trigger_101_interact$abeccb   trigger_101_interact
     001C7324  GBVM$trigger_101_interact$3b50e7   trigger_101_interact
     001C7357  _trigger_102_interact              trigger_102_interact
     001C735A  GBVM$trigger_102_interact$bb84ae   trigger_102_interact
     001C73A0  GBVM$trigger_102_interact$91b5d0   trigger_102_interact
     001C73D3  _trigger_103_interact              trigger_103_interact
     001C73D6  GBVM$trigger_103_interact$3a050a   trigger_103_interact
     001C741C  GBVM$trigger_103_interact$25e67a   trigger_103_interact
     001C744F  _trigger_105_interact              trigger_105_interact
     001C7452  GBVM$trigger_105_interact$f42f49   trigger_105_interact
     001C745C  GBVM$trigger_105_interact$1e04ba   trigger_105_interact
     001C7466  GBVM$trigger_105_interact$550cea   trigger_105_interact
     001C7470  GBVM$trigger_105_interact$7fdac4   trigger_105_interact
     001C747C  GBVM$trigger_105_interact$21b717   trigger_105_interact
     001C74B9  GBVM$trigger_105_interact$df9202   trigger_105_interact
     001C74EC  _trigger_106_interact              trigger_106_interact
     001C74EF  GBVM$trigger_106_interact$f1bd39   trigger_106_interact
     001C7540  GBVM$trigger_106_interact$a0ab72   trigger_106_interact
     001C7573  _trigger_108_interact              trigger_108_interact
     001C7576  GBVM$trigger_108_interact$297198   trigger_108_interact
     001C75BB  GBVM$trigger_108_interact$22bfc5   trigger_108_interact
     001C75EE  _trigger_109_interact              trigger_109_interact
     001C75F1  GBVM$trigger_109_interact$3e6e2d   trigger_109_interact
     001C7637  GBVM$trigger_109_interact$b45d89   trigger_109_interact
     001C766A  _trigger_110_interact              trigger_110_interact
     001C766D  GBVM$trigger_110_interact$fa5a45   trigger_110_interact
     001C76B3  GBVM$trigger_110_interact$3b7c66   trigger_110_interact
     001C76E6  _trigger_111_interact              trigger_111_interact
     001C76E9  GBVM$trigger_111_interact$49437f   trigger_111_interact
     001C772F  GBVM$trigger_111_interact$a9e5a3   trigger_111_interact
     001C7762  _trigger_112_interact              trigger_112_interact
     001C7765  GBVM$trigger_112_interact$e40a4a   trigger_112_interact
     001C777A  GBVM$trigger_112_interact$f7df9c   trigger_112_interact
     001C777F  GBVM$trigger_112_interact$d68eb7   trigger_112_interact
     001C778A  GBVM$trigger_112_interact$5a54e5   trigger_112_interact
     001C779C  GBVM$trigger_112_interact$ac3d68   trigger_112_interact
     001C77DD  GBVM$trigger_112_interact$167975   trigger_112_interact
     001C7822  GBVM$trigger_112_interact$3ce6db   trigger_112_interact
     001C7854  GBVM_END$trigger_112_interact$5a   trigger_112_interact
     001C7854  GBVM_END$trigger_112_interact$e4   trigger_112_interact
     001C7855  _trigger_113_interact              trigger_113_interact
ASxxxx Linker V03.00/V05.40 + sdld,  page 88.
Hexadecimal  [32-Bits]

Area                                    Addr        Size        Decimal Bytes (Attributes)
--------------------------------        ----        ----        ------- ----- ------------
_CODE_28                            001C4000    00004000 =       16384. bytes (REL,CON)

      Value  Global                              Global Defined In Module
      -----  --------------------------------   ------------------------
     001C7858  GBVM$trigger_113_interact$a8aedd   trigger_113_interact
     001C786D  GBVM$trigger_113_interact$2c9f1f   trigger_113_interact
     001C7872  GBVM$trigger_113_interact$dbc066   trigger_113_interact
     001C787D  GBVM$trigger_113_interact$3bf2de   trigger_113_interact
     001C788F  GBVM$trigger_113_interact$34e561   trigger_113_interact
     001C78D0  GBVM$trigger_113_interact$941aae   trigger_113_interact
     001C7915  GBVM$trigger_113_interact$229378   trigger_113_interact
     001C7947  GBVM_END$trigger_113_interact$3b   trigger_113_interact
     001C7947  GBVM_END$trigger_113_interact$a8   trigger_113_interact
     001C7948  _trigger_114_interact              trigger_114_interact
     001C794B  GBVM$trigger_114_interact$6f50ae   trigger_114_interact
     001C7960  GBVM$trigger_114_interact$3878d4   trigger_114_interact
     001C7965  GBVM$trigger_114_interact$9dd3ce   trigger_114_interact
     001C7970  GBVM$trigger_114_interact$9700d0   trigger_114_interact
     001C7982  GBVM$trigger_114_interact$5a8630   trigger_114_interact
     001C79C3  GBVM$trigger_114_interact$61db24   trigger_114_interact
     001C7A08  GBVM$trigger_114_interact$2b595a   trigger_114_interact
     001C7A3A  GBVM_END$trigger_114_interact$6f   trigger_114_interact
     001C7A3A  GBVM_END$trigger_114_interact$97   trigger_114_interact
     001C7A3B  _trigger_115_interact              trigger_115_interact
     001C7A3E  GBVM$trigger_115_interact$c56c3f   trigger_115_interact
     001C7A57  GBVM$trigger_115_interact$f12700   trigger_115_interact
     001C7A8B  GBVM$trigger_115_interact$c457e1   trigger_115_interact
     001C7ABE  _trigger_123_interact              trigger_123_interact
     001C7ABF  GBVM$trigger_123_interact$a19598   trigger_123_interact
     001C7ACB  GBVM$trigger_123_interact$b37486   trigger_123_interact
     001C7AD7  GBVM$trigger_123_interact$86f1f8   trigger_123_interact
     001C7ADC  GBVM$trigger_123_interact$36f547   trigger_123_interact
     001C7AE7  GBVM$trigger_123_interact$7cabe5   trigger_123_interact
     001C7BAD  GBVM_END$trigger_123_interact$a1   trigger_123_interact
     001C7BAD  GBVM_END$trigger_123_interact$b3   trigger_123_interact
     001C7BAE  _trigger_40_interact               trigger_40_interact
     001C7BB1  GBVM$trigger_40_interact$d999d4a   trigger_40_interact
     001C7BBA  GBVM$trigger_40_interact$95e68fb   trigger_40_interact
     001C7C46  GBVM$trigger_40_interact$234a960   trigger_40_interact
     001C7C46  GBVM_END$trigger_40_interact$d99   trigger_40_interact
     001C7C79  _trigger_77_interact               trigger_77_interact
     001C7C7A  GBVM$trigger_77_interact$4947ab6   trigger_77_interact
     001C7CDC  _trigger_86_interact               trigger_86_interact
     001C7CDF  GBVM$trigger_86_interact$8104522   trigger_86_interact
     001C7CE8  GBVM$trigger_86_interact$21de95a   trigger_86_interact
     001C7D4C  GBVM$trigger_86_interact$b188c92   trigger_86_interact
     001C7D7E  GBVM_END$trigger_86_interact$810   trigger_86_interact
     001C7D7F  _trigger_89_interact               trigger_89_interact
     001C7D82  GBVM$trigger_89_interact$8c370b8   trigger_89_interact
     001C7D8B  GBVM$trigger_89_interact$cc59362   trigger_89_interact
     001C7DC6  GBVM$trigger_89_interact$066c399   trigger_89_interact
     001C7E45  GBVM_END$trigger_89_interact$8c3   trigger_89_interact
     001C7E46  _trigger_90_interact               trigger_90_interact
     001C7E49  GBVM$trigger_90_interact$22edd77   trigger_90_interact
     001C7E52  GBVM$trigger_90_interact$47ca1a6   trigger_90_interact
ASxxxx Linker V03.00/V05.40 + sdld,  page 89.
Hexadecimal  [32-Bits]

Area                                    Addr        Size        Decimal Bytes (Attributes)
--------------------------------        ----        ----        ------- ----- ------------
_CODE_28                            001C4000    00004000 =       16384. bytes (REL,CON)

      Value  Global                              Global Defined In Module
      -----  --------------------------------   ------------------------
     001C7E87  GBVM$trigger_90_interact$5d2fe49   trigger_90_interact
     001C7EB9  GBVM_END$trigger_90_interact$22e   trigger_90_interact
     001C7EBA  _trigger_96_interact               trigger_96_interact
     001C7EBD  GBVM$trigger_96_interact$aece970   trigger_96_interact
     001C7F08  _trigger_97_interact               trigger_97_interact
     001C7F0B  GBVM$trigger_97_interact$c44a4e5   trigger_97_interact
     001C7F51  GBVM$trigger_97_interact$fa093a4   trigger_97_interact
     001C7F84  _trigger_99_interact               trigger_99_interact
     001C7F87  GBVM$trigger_99_interact$423a9d8   trigger_99_interact
     001C7FCD  GBVM$trigger_99_interact$981adc2   trigger_99_interact
ASxxxx Linker V03.00/V05.40 + sdld,  page 90.
Hexadecimal  [32-Bits]

Area                                    Addr        Size        Decimal Bytes (Attributes)
--------------------------------        ----        ----        ------- ----- ------------
_CODE_27                            001B4000    00004000 =       16384. bytes (REL,CON)

      Value  Global                              Global Defined In Module
      -----  --------------------------------   ------------------------
     001B4068  _save_sram_banks                   
     001B40F0  _erase_flash                       
     001B4106  ___func_VM_MATH                    vm_math
     001B4106  _vm_sin_scale                      vm_math
     001B41A2  _vm_cos_scale                      vm_math
     001B4240  ___func_VM_MUSIC                   vm_music
     001B4240  _vm_music_play                     vm_music
     001B4297  _vm_music_stop                     vm_music
     001B42B9  _vm_music_mute                     vm_music
     001B4301  _vm_music_routine                  vm_music
     001B4328  _vm_music_setpos                   vm_music
     001B4329  _vm_sound_mastervol                vm_music
     001B432F  _vm_sfx_play                       vm_music
     001B43A2  ___func_bg_area_dhilly_city_lair   bg_area_dhilly_city_lair_la_
     001B43A2  _bg_area_dhilly_city_lair_la_til   bg_area_dhilly_city_lair_la_
     001B44B4  ___func_bg_area_len_city_eve_hou   bg_area_len_city_eve_house__
     001B44B4  _bg_area_len_city_eve_house__til   bg_area_len_city_eve_house__
     001B4616  ___func_bg_cave_ladder_copy__til   bg_cave_ladder_copy__tileset
     001B4616  _bg_cave_ladder_copy__tileset      bg_cave_ladder_copy__tileset
     001B4758  ___func_bg_cinema_tileset          bg_cinema_tileset
     001B4758  _bg_cinema_tileset                 bg_cinema_tileset
     001B489A  ___func_bg_controls_gb_copy_0_ti   bg_controls_gb_copy_0_tilese
     001B489A  _bg_controls_gb_copy_0_tileset     bg_controls_gb_copy_0_tilese
     001B49BC  ___func_bg_dhilly_bridge_tileset   bg_dhilly_bridge_tileset
     001B49BC  _bg_dhilly_bridge_tileset          bg_dhilly_bridge_tileset
     001B4ADE  ___func_bg_elevator_tileset        bg_elevator_tileset
     001B4ADE  _bg_elevator_tileset               bg_elevator_tileset
     001B4BE0  ___func_bg_fall_to_shilly_area_c   bg_fall_to_shilly_area_copy_
     001B4BE0  _bg_fall_to_shilly_area_copy_til   bg_fall_to_shilly_area_copy_
     001B4D32  ___func_bg_iceos_platformer2_cop   bg_iceos_platformer2_copy__t
     001B4D32  _bg_iceos_platformer2_copy__tile   bg_iceos_platformer2_copy__t
     001B4E84  ___func_bg_iceos_platformer3_cop   bg_iceos_platformer3_copy__t
     001B4E84  _bg_iceos_platformer3_copy__tile   bg_iceos_platformer3_copy__t
     001B4FE6  ___func_bg_init_copy_2_tileset     bg_init_copy_2_tileset
     001B4FE6  _bg_init_copy_2_tileset            bg_init_copy_2_tileset
     001B50E8  ___func_bg_lair_hub_tileset        bg_lair_hub_tileset
     001B50E8  _bg_lair_hub_tileset               bg_lair_hub_tileset
     001B51FA  ___func_bg_lencity_dhillybuildin   bg_lencity_dhillybuilding_c_
     001B51FA  _bg_lencity_dhillybuilding_c_til   bg_lencity_dhillybuilding_c_
     001B531C  ___func_bg_lencity_dhillybuildin   bg_lencity_dhillybuilding_f_
     001B531C  _bg_lencity_dhillybuilding_f_til   bg_lencity_dhillybuilding_f_
     001B544E  ___func_bg_lencity_trainstation_   bg_lencity_trainstation_tile
     001B544E  _bg_lencity_trainstation_tileset   bg_lencity_trainstation_tile
     001B55A0  ___func_bg_lencityopen_copy_0_ti   bg_lencityopen_copy_0_tilese
     001B55A0  _bg_lencityopen_copy_0_tileset     bg_lencityopen_copy_0_tilese
     001B5702  _scene_17_init                     scene_17_init
     001B5703  GBVM$scene_17_init$52cb8907_0394   scene_17_init
     001B5703  GBVM$scene_17_init$cefb32c8_e934   scene_17_init
     001B570B  GBVM$scene_17_init$46f9034a_ca1e   scene_17_init
     001B570B  GBVM_END$scene_17_init$52cb8907_   scene_17_init
ASxxxx Linker V03.00/V05.40 + sdld,  page 91.
Hexadecimal  [32-Bits]

Area                                    Addr        Size        Decimal Bytes (Attributes)
--------------------------------        ----        ----        ------- ----- ------------
_CODE_27                            001B4000    00004000 =       16384. bytes (REL,CON)

      Value  Global                              Global Defined In Module
      -----  --------------------------------   ------------------------
     001B5717  ___func_scene_52_actors            scene_52_actors
     001B5717  _scene_52_actors                   scene_52_actors
     001B581B  ___func_scene_53_actors            scene_53_actors
     001B581B  _scene_53_actors                   scene_53_actors
     001B591F  ___func_scene_69_collisions        scene_69_collisions
     001B591F  _scene_69_collisions               scene_69_collisions
     001B5A87  ___func_scene_7_collisions         scene_7_collisions
     001B5A87  _scene_7_collisions                scene_7_collisions
     001B5BEF  ___func_scene_70_collisions        scene_70_collisions
     001B5BEF  _scene_70_collisions               scene_70_collisions
     001B5D57  ___func_scene_71_collisions        scene_71_collisions
     001B5D57  _scene_71_collisions               scene_71_collisions
     001B5EBF  ___func_scene_72_collisions        scene_72_collisions
     001B5EBF  _scene_72_collisions               scene_72_collisions
     001B6027  ___func_scene_73_collisions        scene_73_collisions
     001B6027  _scene_73_collisions               scene_73_collisions
     001B618F  ___func_scene_74_collisions        scene_74_collisions
     001B618F  _scene_74_collisions               scene_74_collisions
     001B62F7  ___func_scene_75_collisions        scene_75_collisions
     001B62F7  _scene_75_collisions               scene_75_collisions
     001B645F  ___func_scene_78_collisions        scene_78_collisions
     001B645F  _scene_78_collisions               scene_78_collisions
     001B65C7  ___func_scene_79_collisions        scene_79_collisions
     001B65C7  _scene_79_collisions               scene_79_collisions
     001B672F  ___func_scene_8_collisions         scene_8_collisions
     001B672F  _scene_8_collisions                scene_8_collisions
     001B6897  ___func_scene_80_collisions        scene_80_collisions
     001B6897  _scene_80_collisions               scene_80_collisions
     001B69FF  ___func_scene_81_collisions        scene_81_collisions
     001B69FF  _scene_81_collisions               scene_81_collisions
     001B6B67  ___func_scene_82_collisions        scene_82_collisions
     001B6B67  _scene_82_collisions               scene_82_collisions
     001B6CCF  ___func_scene_83_collisions        scene_83_collisions
     001B6CCF  _scene_83_collisions               scene_83_collisions
     001B6E37  ___func_scene_84_collisions        scene_84_collisions
     001B6E37  _scene_84_collisions               scene_84_collisions
     001B6F9F  ___func_scene_85_collisions        scene_85_collisions
     001B6F9F  _scene_85_collisions               scene_85_collisions
     001B7107  ___func_scene_87_collisions        scene_87_collisions
     001B7107  _scene_87_collisions               scene_87_collisions
     001B726F  ___func_scene_9_collisions         scene_9_collisions
     001B726F  _scene_9_collisions                scene_9_collisions
     001B73D7  ___func_scene_92_collisions        scene_92_collisions
     001B73D7  _scene_92_collisions               scene_92_collisions
     001B753F  _scene_92_init                     scene_92_init
     001B7542  GBVM$scene_92_init$889aa170_6729   scene_92_init
     001B754C  GBVM$scene_92_init$0bc671ee_a3e3   scene_92_init
     001B7556  GBVM$scene_92_init$c9ea0215_0ddf   scene_92_init
     001B7560  GBVM$scene_92_init$999a0919_c39a   scene_92_init
     001B756A  GBVM$scene_92_init$autofade$af3d   scene_92_init
     001B7575  GBVM$scene_92_init$9e82a076_89df   scene_92_init
ASxxxx Linker V03.00/V05.40 + sdld,  page 92.
Hexadecimal  [32-Bits]

Area                                    Addr        Size        Decimal Bytes (Attributes)
--------------------------------        ----        ----        ------- ----- ------------
_CODE_27                            001B4000    00004000 =       16384. bytes (REL,CON)

      Value  Global                              Global Defined In Module
      -----  --------------------------------   ------------------------
     001B7581  GBVM$scene_92_init$04c0e42c_8d5c   scene_92_init
     001B758B  GBVM$scene_92_init$463e25b2_ac5c   scene_92_init
     001B7597  GBVM$scene_92_init$785b28fd_1794   scene_92_init
     001B75A1  GBVM$scene_92_init$feb5a7d5_e3cf   scene_92_init
     001B75AD  GBVM$scene_92_init$16637bd7_f74c   scene_92_init
     001B75B7  GBVM$scene_92_init$2cd516e3_ead7   scene_92_init
     001B75D0  GBVM$scene_92_init$a7758eba_174b   scene_92_init
     001B761B  GBVM$scene_92_init$a53c3e67_1dd6   scene_92_init
     001B764E  ___func_scene_95_collisions        scene_95_collisions
     001B764E  _scene_95_collisions               scene_95_collisions
     001B77B6  ___func_scene_96_collisions        scene_96_collisions
     001B77B6  _scene_96_collisions               scene_96_collisions
     001B791E  ___func_scene_97_collisions        scene_97_collisions
     001B791E  _scene_97_collisions               scene_97_collisions
     001B7A86  _scene_97_init                     scene_97_init
     001B7A89  GBVM$scene_97_init$fd8d848f_6597   scene_97_init
     001B7A8B  GBVM$scene_97_init$autofade$399d   scene_97_init
     001B7A96  GBVM$scene_97_init$943e5521_f6fb   scene_97_init
     001B7AA2  GBVM$scene_97_init$246a8094_1f82   scene_97_init
     001B7AAD  GBVM$scene_97_init$74d48c08_1507   scene_97_init
     001B7AB8  GBVM$scene_97_init$5256e2c4_f79b   scene_97_init
     001B7AC3  GBVM$scene_97_init$38341c68_01f9   scene_97_init
     001B7B3C  GBVM$scene_97_init$0b1eb191_03a4   scene_97_init
     001B7B3C  GBVM_END$scene_97_init$943e5521_   scene_97_init
     001B7B48  GBVM$scene_97_init$cf500c93_e529   scene_97_init
     001B7B7B  ___func_scene_98_collisions        scene_98_collisions
     001B7B7B  _scene_98_collisions               scene_98_collisions
     001B7CE3  _scene_98_init                     scene_98_init
     001B7CE6  GBVM$scene_98_init$autofade$c478   scene_98_init
     001B7CF1  GBVM$scene_98_init$ff244a0f_7df9   scene_98_init
     001B7D0A  GBVM$scene_98_init$dbeaff57_7fce   scene_98_init
     001B7D16  GBVM$scene_98_init$8c5be76d_c157   scene_98_init
     001B7D21  GBVM$scene_98_init$d516f9e8_aa1e   scene_98_init
     001B7DA8  GBVM$scene_98_init$646cd7bd_e40b   scene_98_init
     001B7DA8  GBVM_END$scene_98_init$dbeaff57_   scene_98_init
     001B7DDB  _trigger_122_interact              trigger_122_interact
     001B7DDC  GBVM$trigger_122_interact$9ded70   trigger_122_interact
     001B7DE8  GBVM$trigger_122_interact$638a02   trigger_122_interact
     001B7DF4  GBVM$trigger_122_interact$68d84e   trigger_122_interact
     001B7E98  GBVM$trigger_122_interact$0617e4   trigger_122_interact
     001B7E9D  GBVM$trigger_122_interact$192b31   trigger_122_interact
     001B7EA8  GBVM$trigger_122_interact$93a651   trigger_122_interact
     001B7EE7  GBVM_END$trigger_122_interact$63   trigger_122_interact
     001B7EE7  GBVM_END$trigger_122_interact$9d   trigger_122_interact
     001B7EE8  _trigger_52_interact               trigger_52_interact
     001B7EEB  GBVM$trigger_52_interact$a39a14d   trigger_52_interact
     001B7F4E  GBVM$trigger_52_interact$ab76e17   trigger_52_interact
     001B7F5A  GBVM$trigger_52_interact$87e5b62   trigger_52_interact
     001B7F6D  GBVM$trigger_52_interact$8a77ac9   trigger_52_interact
     001B7F77  GBVM$trigger_52_interact$5886999   trigger_52_interact
     001B7F83  GBVM$trigger_52_interact$2d25371   trigger_52_interact
ASxxxx Linker V03.00/V05.40 + sdld,  page 93.
Hexadecimal  [32-Bits]

Area                                    Addr        Size        Decimal Bytes (Attributes)
--------------------------------        ----        ----        ------- ----- ------------
_CODE_27                            001B4000    00004000 =       16384. bytes (REL,CON)

      Value  Global                              Global Defined In Module
      -----  --------------------------------   ------------------------
     001B7FA2  GBVM$trigger_52_interact$f9cdcca   trigger_52_interact
     001B7FF7  GBVM$trigger_52_interact$a91b94f   trigger_52_interact
     001B7FFF  GBVM_END$trigger_52_interact$a91   trigger_52_interact

ASxxxx Linker V03.00/V05.40 + sdld,  page 94.
Hexadecimal  [32-Bits]

Area                                    Addr        Size        Decimal Bytes (Attributes)
--------------------------------        ----        ----        ------- ----- ------------
_CODE_22                            00164000    00003FFF =       16383. bytes (REL,CON)

      Value  Global                              Global Defined In Module
      -----  --------------------------------   ------------------------
     00164000  _printer_send_receive              gbprinter
     00164036  _printer_send_byte                 gbprinter
     00164049  _printer_send_command              gbprinter
     0016406C  _printer_print_tile                gbprinter
     001640FD  _printer_wait                      gbprinter
     0016412F  _gbprinter_detect                  gbprinter
     00164149  _gbprinter_print_overlay           gbprinter
     00164316  _atan2                             math_atan2
     001644AF  _atan2_table                       math_atan2
     00164617  ___func_VM_PALETTE                 vm_palette
     00164617  _vm_load_palette                   vm_palette
     0016480E  ___func_VM_SIO                     vm_sio
     0016480E  _vm_sio_set_mode                   vm_sio
     00164820  _vm_sio_exchange                   vm_sio
     00164B02  _actor_16_interact                 actor_16_interact
     00164B03  GBVM$actor_16_interact$0146af00_   actor_16_interact
     00164B5C  GBVM$actor_16_interact$49f0aca1_   actor_16_interact
     00164B68  GBVM$actor_16_interact$ec87208f_   actor_16_interact
     00164B74  GBVM$actor_16_interact$6cf44fc6_   actor_16_interact
     00164BCD  GBVM$actor_16_interact$e09a8491_   actor_16_interact
     00164BD2  GBVM$actor_16_interact$0c508880_   actor_16_interact
     00164BDD  GBVM$actor_16_interact$2ee1bf3e_   actor_16_interact
     00164BE8  GBVM$actor_16_interact$c43a1820_   actor_16_interact
     00164C27  GBVM$actor_16_interact$33c19133_   actor_16_interact
     00164C27  GBVM_END$actor_16_interact$49f0a   actor_16_interact
     00164C27  GBVM_END$actor_16_interact$ec872   actor_16_interact
     00164C71  ___func_avatar_font_0              avatar_font_0
     00164F19  _avatar_font_0                     avatar_font_0
     00164F21  ___func_bg_chase_shilly_tileset    bg_chase_shilly_tileset
     00164F21  _bg_chase_shilly_tileset           bg_chase_shilly_tileset
     001651F3  ___func_bg_pixil_frame_0_23_tile   bg_pixil_frame_0_23_tileset
     001651F3  _bg_pixil_frame_0_23_tileset       bg_pixil_frame_0_23_tileset
     001654A5  ___func_bg_samsam_copy_tileset     bg_samsam_copy_tileset
     001654A5  _bg_samsam_copy_tileset            bg_samsam_copy_tileset
     00165747  ___func_bg_shillycity_sara_house   bg_shillycity_sara_house_co_
     00165747  _bg_shillycity_sara_house_co_til   bg_shillycity_sara_house_co_
     00165949  ___func_bg_shillycityopen_copy__   bg_shillycityopen_copy__tile
     00165949  _bg_shillycityopen_copy__tileset   bg_shillycityopen_copy__tile
     00165B4B  ___func_bg_shillycityopen_copy_0   bg_shillycityopen_copy_0_til
     00165B4B  _bg_shillycityopen_copy_0_tilema   bg_shillycityopen_copy_0_til
     00165D3F  ___func_bg_shillycityopen_copy_0   bg_shillycityopen_copy_0_til
     00165D3F  _bg_shillycityopen_copy_0_tilema   bg_shillycityopen_copy_0_til
     00165F33  ___func_bg_shillycityopen_copy_1   bg_shillycityopen_copy_1_til
     00165F33  _bg_shillycityopen_copy_1_tilese   bg_shillycityopen_copy_1_til
     001661B5  ___func_bg_square_frozen_future_   bg_square_frozen_future_tile
     001661B5  _bg_square_frozen_future_tileset   bg_square_frozen_future_tile
     00166477  ___func_bg_theatre_tilemap_attr    bg_theatre_tilemap_attr
     00166477  _bg_theatre_tilemap_attr           bg_theatre_tilemap_attr
     0016666B  ___func_bg_theatre_tileset         bg_theatre_tileset
     0016666B  _bg_theatre_tileset                bg_theatre_tileset
ASxxxx Linker V03.00/V05.40 + sdld,  page 95.
Hexadecimal  [32-Bits]

Area                                    Addr        Size        Decimal Bytes (Attributes)
--------------------------------        ----        ----        ------- ----- ------------
_CODE_22                            00164000    00003FFF =       16383. bytes (REL,CON)

      Value  Global                              Global Defined In Module
      -----  --------------------------------   ------------------------
     001668ED  ___func_bg_title_copy_0_tileset    bg_title_copy_0_tileset
     001668ED  _bg_title_copy_0_tileset           bg_title_copy_0_tileset
     00166B7F  _scene_14_init                     scene_14_init
     00166B82  GBVM$scene_14_init$9c352026_c96a   scene_14_init
     00166B8C  GBVM$scene_14_init$autofade$bb79   scene_14_init
     00166B97  GBVM$scene_14_init$a9202b4d_c1e5   scene_14_init
     00166BA9  GBVM$scene_14_init$74f815b4_edc1   scene_14_init
     00166CB4  GBVM$scene_14_init$9fa14a7c_13ed   scene_14_init
     00166DC7  GBVM$scene_14_init$e2e7282e_93b4   scene_14_init
     00166DC7  GBVM_END$scene_14_init$a9202b4d_   scene_14_init
     00166DFA  _scene_27_init                     scene_27_init
     00166DFD  GBVM$scene_27_init$f6db9430_269d   scene_27_init
     00166DFF  GBVM$scene_27_init$autofade$4d8c   scene_27_init
     00166E0A  GBVM$scene_27_init$f045196f_3bd2   scene_27_init
     00166E16  GBVM$scene_27_init$62385220_ef2b   scene_27_init
     00166E28  GBVM$scene_27_init$097f8f6e_6022   scene_27_init
     00166EE6  GBVM$scene_27_init$31d8ae29_d956   scene_27_init
     00166F77  GBVM$scene_27_init$60ab27dc_903a   scene_27_init
     00166F77  GBVM_END$scene_27_init$62385220_   scene_27_init
     00166F79  GBVM$scene_27_init$92ea26af_3cb6   scene_27_init
     00166F92  GBVM$scene_27_init$d5e1dca6_3b3c   scene_27_init
     00166F9E  GBVM$scene_27_init$365f7133_b168   scene_27_init
     00166FF8  GBVM$scene_27_init$d50ccc8a_61e1   scene_27_init
     00166FFA  GBVM$scene_27_init$40c79bb1_1dfa   scene_27_init
     00167013  GBVM$scene_27_init$cf7b8698_a9c3   scene_27_init
     0016701F  GBVM$scene_27_init$91028f6c_8b49   scene_27_init
     00167065  GBVM$scene_27_init$ab5eabbd_fa91   scene_27_init
     00167067  GBVM$scene_27_init$b03fb982_44a9   scene_27_init
     00167080  GBVM$scene_27_init$86d0fdad_6ad9   scene_27_init
     0016708C  GBVM$scene_27_init$a15aa6e4_ee48   scene_27_init
     001670D1  GBVM$scene_27_init$5e2ff3cd_9468   scene_27_init
     001670D3  GBVM$scene_27_init$0db791bc_ca55   scene_27_init
     001670EC  GBVM$scene_27_init$38c554e3_2410   scene_27_init
     001670F9  _scene_7_init                      scene_7_init
     001670FC  GBVM$scene_7_init$a28f898c_1a47_   scene_7_init
     001670FE  GBVM$scene_7_init$autofade$a3571   scene_7_init
     00167109  GBVM$scene_7_init$a8a9ea39_582e_   scene_7_init
     0016711B  GBVM$scene_7_init$db2f5a6b_be6f_   scene_7_init
     00167150  GBVM$scene_7_init$c68c1476_e6de_   scene_7_init
     00167162  GBVM$scene_7_init$4acdde8b_f7d8_   scene_7_init
     00167197  GBVM$scene_7_init$24408b02_f7d8_   scene_7_init
     00167296  GBVM$scene_7_init$d6f16c20_137d_   scene_7_init
     001672A8  GBVM$scene_7_init$3c77fa29_4a0a_   scene_7_init
     001672DD  GBVM$scene_7_init$2c9926e3_3e60_   scene_7_init
     0016730F  GBVM$scene_7_init$9d8e7023_49cf_   scene_7_init
     0016730F  GBVM_END$scene_7_init$a8a9ea39_5   scene_7_init
     0016730F  GBVM_END$scene_7_init$c68c1476_e   scene_7_init
     0016730F  GBVM_END$scene_7_init$d6f16c20_1   scene_7_init
     00167342  _scene_99_init                     scene_99_init
     00167345  GBVM$scene_99_init$f0e7601a_31b6   scene_99_init
     00167347  GBVM$scene_99_init$658aaedb_e4f5   scene_99_init
ASxxxx Linker V03.00/V05.40 + sdld,  page 96.
Hexadecimal  [32-Bits]

Area                                    Addr        Size        Decimal Bytes (Attributes)
--------------------------------        ----        ----        ------- ----- ------------
_CODE_22                            00164000    00003FFF =       16383. bytes (REL,CON)

      Value  Global                              Global Defined In Module
      -----  --------------------------------   ------------------------
     00167351  GBVM$scene_99_init$b88d3a46_fc7a   scene_99_init
     00167362  GBVM$scene_99_init$49bd3f66_2a0f   scene_99_init
     0016736D  GBVM$scene_99_init$7eedae8b_899e   scene_99_init
     00167380  GBVM$scene_99_init$d547cc20_1926   scene_99_init
     0016738C  GBVM$scene_99_init$c9598ea5_3f29   scene_99_init
     001673F3  GBVM$scene_99_init$5c055f98_43a1   scene_99_init
     00167449  GBVM$scene_99_init$295e1186_fac5   scene_99_init
     00167455  GBVM$scene_99_init$f09b0747_5271   scene_99_init
     00167468  GBVM$scene_99_init$c805c7ea_5b74   scene_99_init
     0016758E  GBVM$scene_99_init$43e89bc6_7a7f   scene_99_init
     0016759A  GBVM$scene_99_init$6fafe1e7_8c33   scene_99_init
     001675CD  ___func_sprite_pixelperfectvoti_   sprite_pixelperfectvoti_cop_
     001675CD  _sprite_pixelperfectvoti_cop_til   sprite_pixelperfectvoti_cop_
     0016780F  ___func_sprite_pixelperfectvoti_   sprite_pixelperfectvoti_tile
     0016780F  _sprite_pixelperfectvoti_tileset   sprite_pixelperfectvoti_tile
     00167A31  _trigger_61_interact               trigger_61_interact
     00167A34  GBVM$trigger_61_interact$f00d71c   trigger_61_interact
     00167A4D  GBVM$trigger_61_interact$88f4b74   trigger_61_interact
     00167A88  GBVM$trigger_61_interact$eae0880   trigger_61_interact
     00167A94  GBVM$trigger_61_interact$01f0b36   trigger_61_interact
     00167A9E  GBVM$trigger_61_interact$bd23a18   trigger_61_interact
     00167AC1  GBVM$trigger_61_interact$ebf4382   trigger_61_interact
     00167B62  GBVM$trigger_61_interact$61f0c73   trigger_61_interact
     00167BED  GBVM$trigger_61_interact$bd71447   trigger_61_interact
     00167C91  GBVM$trigger_61_interact$bfa2947   trigger_61_interact
     00167CB4  GBVM$trigger_61_interact$1f3323c   trigger_61_interact
     00167CBE  GBVM$trigger_61_interact$f92b93e   trigger_61_interact
     00167CE1  GBVM$trigger_61_interact$271884d   trigger_61_interact
     00167D14  _trigger_81_interact               trigger_81_interact
     00167D17  GBVM$trigger_81_interact$96f3457   trigger_81_interact
     00167D64  GBVM$trigger_81_interact$4b85dae   trigger_81_interact
     00167D87  GBVM$trigger_81_interact$c55b39d   trigger_81_interact
     00167DAA  GBVM$trigger_81_interact$7d34401   trigger_81_interact
     00167DC0  GBVM$trigger_81_interact$7b54a7a   trigger_81_interact
     00167DD9  GBVM$trigger_81_interact$91085c9   trigger_81_interact
     00167FCC  GBVM$trigger_81_interact$f9db94d   trigger_81_interact

ASxxxx Linker V03.00/V05.40 + sdld,  page 97.
Hexadecimal  [32-Bits]

Area                                    Addr        Size        Decimal Bytes (Attributes)
--------------------------------        ----        ----        ------- ----- ------------
_CODE_30                            001E4000    00001E49 =        7753. bytes (REL,CON)

      Value  Global                              Global Defined In Module
      -----  --------------------------------   ------------------------
     001E4000  _input_init                        input
     001E402B  _parallax_init                     parallax
     001E404B  _SIO_init                          sio
     001E4074  ___func_bg_area_dhilly_city_lair   bg_area_dhilly_city_lair_la_
     001E4074  _bg_area_dhilly_city_lair_la_0     bg_area_dhilly_city_lair_la_
     001E4082  ___func_bg_area_dhilly_city_lair   bg_area_dhilly_city_lair_la_
     001E4082  _bg_area_dhilly_city_lair_la_1     bg_area_dhilly_city_lair_la_
     001E4090  ___func_bg_area_dhilly_city_lair   bg_area_dhilly_city_lair_la_
     001E4090  _bg_area_dhilly_city_lair_la_2_t   bg_area_dhilly_city_lair_la_
     001E40C2  ___func_bg_area_dhilly_city_lair   bg_area_dhilly_city_lair_la_
     001E40C2  _bg_area_dhilly_city_lair_la_2     bg_area_dhilly_city_lair_la_
     001E40D0  ___func_bg_area_dhilly_city_lair   bg_area_dhilly_city_lair_la_
     001E40D0  _bg_area_dhilly_city_lair_la_3     bg_area_dhilly_city_lair_la_
     001E40DE  ___func_bg_area_dhilly_city_lair   bg_area_dhilly_city_lair_la_
     001E40DE  _bg_area_dhilly_city_lair_la_4     bg_area_dhilly_city_lair_la_
     001E40EC  ___func_bg_area_dhilly_city_lair   bg_area_dhilly_city_lair_la
     001E40EC  _bg_area_dhilly_city_lair_la       bg_area_dhilly_city_lair_la
     001E40FA  ___func_bg_area_len_city_eve_hou   bg_area_len_city_eve_house_
     001E40FA  _bg_area_len_city_eve_house_       bg_area_len_city_eve_house_
     001E4108  ___func_bg_cave_ladder_copy_       bg_cave_ladder_copy_
     001E4108  _bg_cave_ladder_copy_              bg_cave_ladder_copy_
     001E4116  ___func_bg_cave_ladder_copy_0      bg_cave_ladder_copy_0
     001E4116  _bg_cave_ladder_copy_0             bg_cave_ladder_copy_0
     001E4124  ___func_bg_chase_shilly            bg_chase_shilly
     001E4124  _bg_chase_shilly                   bg_chase_shilly
     001E4132  ___func_bg_cinema                  bg_cinema
     001E4132  _bg_cinema                         bg_cinema
     001E4140  ___func_bg_controls_gb_copy_       bg_controls_gb_copy_
     001E4140  _bg_controls_gb_copy_              bg_controls_gb_copy_
     001E414E  ___func_bg_controls_gb_copy_0      bg_controls_gb_copy_0
     001E414E  _bg_controls_gb_copy_0             bg_controls_gb_copy_0
     001E415C  ___func_bg_controls_gba_copy_      bg_controls_gba_copy_
     001E415C  _bg_controls_gba_copy_             bg_controls_gba_copy_
     001E416A  ___func_bg_controls_gba_copy_0     bg_controls_gba_copy_0
     001E416A  _bg_controls_gba_copy_0            bg_controls_gba_copy_0
     001E4178  ___func_bg_controls_gbc_copy_      bg_controls_gbc_copy_
     001E4178  _bg_controls_gbc_copy_             bg_controls_gbc_copy_
     001E4186  ___func_bg_controls_mobile_copy_   bg_controls_mobile_copy_
     001E4186  _bg_controls_mobile_copy_          bg_controls_mobile_copy_
     001E4194  ___func_bg_controls_mobile_copy_   bg_controls_mobile_copy_0
     001E4194  _bg_controls_mobile_copy_0         bg_controls_mobile_copy_0
     001E41A2  ___func_bg_dhilly_bridge           bg_dhilly_bridge
     001E41A2  _bg_dhilly_bridge                  bg_dhilly_bridge
     001E41B0  ___func_bg_dhilly_game_1           bg_dhilly_game_1
     001E41B0  _bg_dhilly_game_1                  bg_dhilly_game_1
     001E41BE  ___func_bg_dhilly_game_10          bg_dhilly_game_10
     001E41BE  _bg_dhilly_game_10                 bg_dhilly_game_10
     001E41CC  ___func_bg_dhilly_game_11          bg_dhilly_game_11
     001E41CC  _bg_dhilly_game_11                 bg_dhilly_game_11
     001E41DA  ___func_bg_dhilly_game_4           bg_dhilly_game_4
ASxxxx Linker V03.00/V05.40 + sdld,  page 98.
Hexadecimal  [32-Bits]

Area                                    Addr        Size        Decimal Bytes (Attributes)
--------------------------------        ----        ----        ------- ----- ------------
_CODE_30                            001E4000    00001E49 =        7753. bytes (REL,CON)

      Value  Global                              Global Defined In Module
      -----  --------------------------------   ------------------------
     001E41DA  _bg_dhilly_game_4                  bg_dhilly_game_4
     001E41E8  ___func_bg_dhilly_game_5           bg_dhilly_game_5
     001E41E8  _bg_dhilly_game_5                  bg_dhilly_game_5
     001E41F6  ___func_bg_dhilly_game_8           bg_dhilly_game_8
     001E41F6  _bg_dhilly_game_8                  bg_dhilly_game_8
     001E4204  ___func_bg_dhilly_game_9           bg_dhilly_game_9
     001E4204  _bg_dhilly_game_9                  bg_dhilly_game_9
     001E4212  ___func_bg_dhillyhubdown           bg_dhillyhubdown
     001E4212  _bg_dhillyhubdown                  bg_dhillyhubdown
     001E4220  ___func_bg_elevator                bg_elevator
     001E4220  _bg_elevator                       bg_elevator
     001E422E  ___func_bg_endingscene_0           bg_endingscene_0
     001E422E  _bg_endingscene_0                  bg_endingscene_0
     001E423C  ___func_bg_endingscene             bg_endingscene
     001E423C  _bg_endingscene                    bg_endingscene
     001E424A  ___func_bg_endingscene2            bg_endingscene2
     001E424A  _bg_endingscene2                   bg_endingscene2
     001E4258  ___func_bg_endingscene3            bg_endingscene3
     001E4258  _bg_endingscene3                   bg_endingscene3
     001E4266  ___func_bg_fall_to_shilly_area_c   bg_fall_to_shilly_area_copy
     001E4266  _bg_fall_to_shilly_area_copy       bg_fall_to_shilly_area_copy
     001E4274  ___func_bg_fieldlazy               bg_fieldlazy
     001E4274  _bg_fieldlazy                      bg_fieldlazy
     001E4282  ___func_bg_iceos_desktop_copy_     bg_iceos_desktop_copy_
     001E4282  _bg_iceos_desktop_copy_            bg_iceos_desktop_copy_
     001E4290  ___func_bg_iceos_login_2_copy_     bg_iceos_login_2_copy_
     001E4290  _bg_iceos_login_2_copy_            bg_iceos_login_2_copy_
     001E429E  ___func_bg_iceos_login_copy__til   bg_iceos_login_copy__tileset
     001E429E  _bg_iceos_login_copy__tileset      bg_iceos_login_copy__tileset
     001E42B0  ___func_bg_iceos_login_copy_       bg_iceos_login_copy_
     001E42B0  _bg_iceos_login_copy_              bg_iceos_login_copy_
     001E42BE  ___func_bg_iceos_platformer2_cop   bg_iceos_platformer2_copy_
     001E42BE  _bg_iceos_platformer2_copy_        bg_iceos_platformer2_copy_
     001E42CC  ___func_bg_iceos_platformer3_cop   bg_iceos_platformer3_copy_
     001E42CC  _bg_iceos_platformer3_copy_        bg_iceos_platformer3_copy_
     001E42DA  ___func_bg_iceos_platformer4       bg_iceos_platformer4
     001E42DA  _bg_iceos_platformer4              bg_iceos_platformer4
     001E42E8  ___func_bg_init_copy__tileset      bg_init_copy__tileset
     001E42E8  _bg_init_copy__tileset             bg_init_copy__tileset
     001E430A  ___func_bg_init_copy_              bg_init_copy_
     001E430A  _bg_init_copy_                     bg_init_copy_
     001E4318  ___func_bg_init_copy_0             bg_init_copy_0
     001E4318  _bg_init_copy_0                    bg_init_copy_0
     001E4326  ___func_bg_init_copy_1             bg_init_copy_1
     001E4326  _bg_init_copy_1                    bg_init_copy_1
     001E4334  ___func_bg_init_copy_2             bg_init_copy_2
     001E4334  _bg_init_copy_2                    bg_init_copy_2
     001E4342  ___func_bg_intro_scenary_copy_     bg_intro_scenary_copy_
     001E4342  _bg_intro_scenary_copy_            bg_intro_scenary_copy_
     001E4350  ___func_bg_intro_weather_copy_     bg_intro_weather_copy_
     001E4350  _bg_intro_weather_copy_            bg_intro_weather_copy_
ASxxxx Linker V03.00/V05.40 + sdld,  page 99.
Hexadecimal  [32-Bits]

Area                                    Addr        Size        Decimal Bytes (Attributes)
--------------------------------        ----        ----        ------- ----- ------------
_CODE_30                            001E4000    00001E49 =        7753. bytes (REL,CON)

      Value  Global                              Global Defined In Module
      -----  --------------------------------   ------------------------
     001E435E  ___func_bg_lair_hub                bg_lair_hub
     001E435E  _bg_lair_hub                       bg_lair_hub
     001E436C  ___func_bg_lair_right_3_copy_      bg_lair_right_3_copy_
     001E436C  _bg_lair_right_3_copy_             bg_lair_right_3_copy_
     001E437A  ___func_bg_lair_right_3            bg_lair_right_3
     001E437A  _bg_lair_right_3                   bg_lair_right_3
     001E4388  ___func_bg_lair_right_4_copy_      bg_lair_right_4_copy_
     001E4388  _bg_lair_right_4_copy_             bg_lair_right_4_copy_
     001E4396  ___func_bg_lair_right_5            bg_lair_right_5
     001E4396  _bg_lair_right_5                   bg_lair_right_5
     001E43A4  ___func_bg_lencity_dhillybuildin   bg_lencity_dhillybuilding_c
     001E43A4  _bg_lencity_dhillybuilding_c       bg_lencity_dhillybuilding_c
     001E43B2  ___func_bg_lencity_dhillybuildin   bg_lencity_dhillybuilding_f
     001E43B2  _bg_lencity_dhillybuilding_f       bg_lencity_dhillybuilding_f
     001E43C0  ___func_bg_lencity_trainstation_   bg_lencity_trainstation_cop
     001E43C0  _bg_lencity_trainstation_cop       bg_lencity_trainstation_cop
     001E43CE  ___func_bg_lencity_trainstation    bg_lencity_trainstation
     001E43CE  _bg_lencity_trainstation           bg_lencity_trainstation
     001E43DC  ___func_bg_lencityopen_copy_       bg_lencityopen_copy_
     001E43DC  _bg_lencityopen_copy_              bg_lencityopen_copy_
     001E43EA  ___func_bg_lencityopen_copy_0      bg_lencityopen_copy_0
     001E43EA  _bg_lencityopen_copy_0             bg_lencityopen_copy_0
     001E43F8  ___func_bg_lencityopen             bg_lencityopen
     001E43F8  _bg_lencityopen                    bg_lencityopen
     001E4406  ___func_bg_options_copy_           bg_options_copy_
     001E4406  _bg_options_copy_                  bg_options_copy_
     001E4414  ___func_bg_pixil_frame_0_23        bg_pixil_frame_0_23
     001E4414  _bg_pixil_frame_0_23               bg_pixil_frame_0_23
     001E4422  ___func_bg_pixil_frame_0_24        bg_pixil_frame_0_24
     001E4422  _bg_pixil_frame_0_24               bg_pixil_frame_0_24
     001E4430  ___func_bg_pixil_frame_0_30        bg_pixil_frame_0_30
     001E4430  _bg_pixil_frame_0_30               bg_pixil_frame_0_30
     001E443E  ___func_bg_pixil_frame_0_31        bg_pixil_frame_0_31
     001E443E  _bg_pixil_frame_0_31               bg_pixil_frame_0_31
     001E444C  ___func_bg_pixil_frame_0_33        bg_pixil_frame_0_33
     001E444C  _bg_pixil_frame_0_33               bg_pixil_frame_0_33
     001E445A  ___func_bg_pixil_frame_0_copy_co   bg_pixil_frame_0_copy_copy_
     001E445A  _bg_pixil_frame_0_copy_copy_       bg_pixil_frame_0_copy_copy_
     001E4468  ___func_bg_pixil_frame_23_0        bg_pixil_frame_23_0
     001E4468  _bg_pixil_frame_23_0               bg_pixil_frame_23_0
     001E4476  ___func_bg_placeholder_copy_copy   bg_placeholder_copy_copy_co_
     001E4476  _bg_placeholder_copy_copy_co_0     bg_placeholder_copy_copy_co_
     001E4484  ___func_bg_placeholder_copy_copy   bg_placeholder_copy_copy_co
     001E4484  _bg_placeholder_copy_copy_co       bg_placeholder_copy_copy_co
     001E4492  ___func_bg_samsam_copy             bg_samsam_copy
     001E4492  _bg_samsam_copy                    bg_samsam_copy
     001E44A0  ___func_bg_shillycity_sara_house   bg_shillycity_sara_house_co
     001E44A0  _bg_shillycity_sara_house_co       bg_shillycity_sara_house_co
     001E44AE  ___func_bg_shillycityopen_copy_    bg_shillycityopen_copy_
     001E44AE  _bg_shillycityopen_copy_           bg_shillycityopen_copy_
     001E44BC  ___func_bg_shillycityopen_copy_0   bg_shillycityopen_copy_0
ASxxxx Linker V03.00/V05.40 + sdld,  page 100.
Hexadecimal  [32-Bits]

Area                                    Addr        Size        Decimal Bytes (Attributes)
--------------------------------        ----        ----        ------- ----- ------------
_CODE_30                            001E4000    00001E49 =        7753. bytes (REL,CON)

      Value  Global                              Global Defined In Module
      -----  --------------------------------   ------------------------
     001E44BC  _bg_shillycityopen_copy_0          bg_shillycityopen_copy_0
     001E44CA  ___func_bg_shillycityopen_copy_1   bg_shillycityopen_copy_1
     001E44CA  _bg_shillycityopen_copy_1          bg_shillycityopen_copy_1
     001E44D8  ___func_bg_square_frozen_future    bg_square_frozen_future
     001E44D8  _bg_square_frozen_future           bg_square_frozen_future
     001E44E6  ___func_bg_theatre                 bg_theatre
     001E44E6  _bg_theatre                        bg_theatre
     001E44F4  ___func_bg_title_copy_             bg_title_copy_
     001E44F4  _bg_title_copy_                    bg_title_copy_
     001E4502  ___func_bg_title_copy_0            bg_title_copy_0
     001E4502  _bg_title_copy_0                   bg_title_copy_0
     001E4510  ___func_bg_title_copy_1_tileset    bg_title_copy_1_tileset
     001E4510  _bg_title_copy_1_tileset           bg_title_copy_1_tileset
     001E4522  ___func_bg_title_copy_1            bg_title_copy_1
     001E4522  _bg_title_copy_1                   bg_title_copy_1
     001E4530  ___func_bg_title_copy_2            bg_title_copy_2
     001E4530  _bg_title_copy_2                   bg_title_copy_2
     001E453E  ___func_bg_title                   bg_title
     001E453E  _bg_title                          bg_title
     001E454C  ___func_bg_ui_screens_title_copy   bg_ui_screens_title_copy_
     001E454C  _bg_ui_screens_title_copy_         bg_ui_screens_title_copy_
     001E455A  ___func_bg_wakeupsquare_1_tilese   bg_wakeupsquare_1_tileset
     001E455A  _bg_wakeupsquare_1_tileset         bg_wakeupsquare_1_tileset
     001E457C  ___func_bg_wakeupsquare_1          bg_wakeupsquare_1
     001E457C  _bg_wakeupsquare_1                 bg_wakeupsquare_1
     001E458A  ___func_bg_wakeupsquare_3_copy_    bg_wakeupsquare_3_copy_
     001E458A  _bg_wakeupsquare_3_copy_           bg_wakeupsquare_3_copy_
     001E4598  ___func_cursor_image               cursor_image
     001E4598  _cursor_image                      cursor_image
     001E45A8  _scene_0_init                      scene_0_init
     001E45A9  GBVM$scene_0_init$405297da_84b0_   scene_0_init
     001E45B1  GBVM$scene_0_init$9bbe38e7_e671_   scene_0_init
     001E45B1  GBVM_END$scene_0_init$405297da_8   scene_0_init
     001E45B4  GBVM$scene_0_init$autofade$b07ff   scene_0_init
     001E45C0  ___func_scene_0_triggers           scene_0_triggers
     001E45C0  _scene_0_triggers                  scene_0_triggers
     001E45E8  ___func_scene_101_actors           scene_101_actors
     001E45E8  _scene_101_actors                  scene_101_actors
     001E461C  _scene_101_init                    scene_101_init
     001E461D  GBVM$scene_101_init$autofade$dab   scene_101_init
     001E4629  ___func_scene_102_actors           scene_102_actors
     001E4629  _scene_102_actors                  scene_102_actors
     001E465D  _scene_102_init                    scene_102_init
     001E465E  GBVM$scene_102_init$autofade$5c0   scene_102_init
     001E466A  _scene_103_init                    scene_103_init
     001E466D  GBVM$scene_103_init$de6eba55_f3f   scene_103_init
     001E466F  GBVM$scene_103_init$autofade$f7b   scene_103_init
     001E467A  GBVM$scene_103_init$5d5222c2_260   scene_103_init
     001E468E  _scene_12_init                     scene_12_init
     001E468F  GBVM$scene_12_init$autofade$8ab2   scene_12_init
     001E469B  _scene_13_init                     scene_13_init
ASxxxx Linker V03.00/V05.40 + sdld,  page 101.
Hexadecimal  [32-Bits]

Area                                    Addr        Size        Decimal Bytes (Attributes)
--------------------------------        ----        ----        ------- ----- ------------
_CODE_30                            001E4000    00001E49 =        7753. bytes (REL,CON)

      Value  Global                              Global Defined In Module
      -----  --------------------------------   ------------------------
     001E469C  GBVM$scene_13_init$autofade$1a3b   scene_13_init
     001E46A8  _scene_15_init                     scene_15_init
     001E46A9  GBVM$scene_15_init$625cb4a5_29bc   scene_15_init
     001E46AE  GBVM$scene_15_init$726c7601_78a5   scene_15_init
     001E46B3  GBVM$scene_15_init$8be0500c_e3ac   scene_15_init
     001E46BB  GBVM$scene_15_init$b54057a1_f427   scene_15_init
     001E46BB  GBVM_END$scene_15_init$8be0500c_   scene_15_init
     001E46C7  _scene_16_init                     scene_16_init
     001E46C8  GBVM$scene_16_init$autofade$3642   scene_16_init
     001E46C8  GBVM$scene_16_init$c01c134d_b431   scene_16_init
     001E46D4  ___func_scene_17_actors            scene_17_actors
     001E46D4  _scene_17_actors                   scene_17_actors
     001E4708  ___func_scene_17_triggers          scene_17_triggers
     001E4708  _scene_17_triggers                 scene_17_triggers
     001E4718  ___func_scene_18_triggers          scene_18_triggers
     001E4718  _scene_18_triggers                 scene_18_triggers
     001E4738  ___func_scene_19_actors            scene_19_actors
     001E4738  _scene_19_actors                   scene_19_actors
     001E476C  ___func_scene_19_triggers          scene_19_triggers
     001E476C  _scene_19_triggers                 scene_19_triggers
     001E4774  ___func_scene_20_actors            scene_20_actors
     001E4774  _scene_20_actors                   scene_20_actors
     001E47A8  _scene_20_init                     scene_20_init
     001E47A9  GBVM$scene_20_init$5487a0a2_b6d4   scene_20_init
     001E47A9  GBVM$scene_20_init$autofade$8a38   scene_20_init
     001E47B5  ___func_scene_20_triggers          scene_20_triggers
     001E47B5  _scene_20_triggers                 scene_20_triggers
     001E47BD  ___func_scene_27_triggers          scene_27_triggers
     001E47BD  _scene_27_triggers                 scene_27_triggers
     001E47C5  _scene_28_init                     scene_28_init
     001E47C6  GBVM$scene_28_init$autofade$f1ca   scene_28_init
     001E47D2  ___func_scene_28_triggers          scene_28_triggers
     001E47D2  _scene_28_triggers                 scene_28_triggers
     001E47FA  _scene_29_init                     scene_29_init
     001E47FB  GBVM$scene_29_init$autofade$44fe   scene_29_init
     001E4807  ___func_scene_29_triggers          scene_29_triggers
     001E4807  _scene_29_triggers                 scene_29_triggers
     001E480F  ___func_scene_3_actors             scene_3_actors
     001E480F  _scene_3_actors                    scene_3_actors
     001E4843  _scene_30_init                     scene_30_init
     001E4844  GBVM$scene_30_init$autofade$e0ce   scene_30_init
     001E4850  ___func_scene_30_triggers          scene_30_triggers
     001E4850  _scene_30_triggers                 scene_30_triggers
     001E4860  _scene_31_init                     scene_31_init
     001E4861  GBVM$scene_31_init$autofade$6f00   scene_31_init
     001E486D  ___func_scene_31_triggers          scene_31_triggers
     001E486D  _scene_31_triggers                 scene_31_triggers
     001E488D  _scene_32_init                     scene_32_init
     001E488E  GBVM$scene_32_init$autofade$6187   scene_32_init
     001E489A  ___func_scene_32_triggers          scene_32_triggers
     001E489A  _scene_32_triggers                 scene_32_triggers
ASxxxx Linker V03.00/V05.40 + sdld,  page 102.
Hexadecimal  [32-Bits]

Area                                    Addr        Size        Decimal Bytes (Attributes)
--------------------------------        ----        ----        ------- ----- ------------
_CODE_30                            001E4000    00001E49 =        7753. bytes (REL,CON)

      Value  Global                              Global Defined In Module
      -----  --------------------------------   ------------------------
     001E48A2  ___func_scene_33_triggers          scene_33_triggers
     001E48A2  _scene_33_triggers                 scene_33_triggers
     001E48AA  ___func_scene_34_actors            scene_34_actors
     001E48AA  _scene_34_actors                   scene_34_actors
     001E48DE  ___func_scene_34_sprites           scene_34_sprites
     001E48DE  _scene_34_sprites                  scene_34_sprites
     001E48E1  ___func_scene_34_triggers          scene_34_triggers
     001E48E1  _scene_34_triggers                 scene_34_triggers
     001E4901  _scene_35_init                     scene_35_init
     001E4902  GBVM$scene_35_init$aecaed7a_c476   scene_35_init
     001E4902  GBVM$scene_35_init$autofade$22f6   scene_35_init
     001E490E  ___func_scene_35_triggers          scene_35_triggers
     001E490E  _scene_35_triggers                 scene_35_triggers
     001E4916  _scene_37_init                     scene_37_init
     001E4917  GBVM$scene_37_init$autofade$37b5   scene_37_init
     001E4923  ___func_scene_37_sprites           scene_37_sprites
     001E4923  _scene_37_sprites                  scene_37_sprites
     001E4926  _scene_39_init                     scene_39_init
     001E4927  GBVM$scene_39_init$autofade$5937   scene_39_init
     001E4933  ___func_scene_39_sprites           scene_39_sprites
     001E4933  _scene_39_sprites                  scene_39_sprites
     001E493F  _scene_40_init                     scene_40_init
     001E4940  GBVM$scene_40_init$601668df_1452   scene_40_init
     001E4948  GBVM$scene_40_init$autofade$9ee2   scene_40_init
     001E4948  GBVM_END$scene_40_init$601668df_   scene_40_init
     001E4954  ___func_scene_40_triggers          scene_40_triggers
     001E4954  _scene_40_triggers                 scene_40_triggers
     001E496C  _scene_41_init                     scene_41_init
     001E496D  GBVM$scene_41_init$57d21853_f0ae   scene_41_init
     001E4975  GBVM$scene_41_init$autofade$57f8   scene_41_init
     001E4975  GBVM_END$scene_41_init$57d21853_   scene_41_init
     001E4981  ___func_scene_41_triggers          scene_41_triggers
     001E4981  _scene_41_triggers                 scene_41_triggers
     001E49A9  _scene_42_init                     scene_42_init
     001E49AA  GBVM$scene_42_init$8b695d08_d1d1   scene_42_init
     001E49B2  GBVM$scene_42_init$autofade$d358   scene_42_init
     001E49B2  GBVM_END$scene_42_init$8b695d08_   scene_42_init
     001E49BE  _scene_43_init                     scene_43_init
     001E49BF  GBVM$scene_43_init$dda00c65_f444   scene_43_init
     001E49C7  GBVM$scene_43_init$autofade$8ed2   scene_43_init
     001E49C7  GBVM_END$scene_43_init$dda00c65_   scene_43_init
     001E49D3  ___func_scene_43_triggers          scene_43_triggers
     001E49D3  _scene_43_triggers                 scene_43_triggers
     001E4A03  _scene_44_init                     scene_44_init
     001E4A04  GBVM$scene_44_init$07cf6cd3_6dad   scene_44_init
     001E4A0C  GBVM$scene_44_init$autofade$3d85   scene_44_init
     001E4A0C  GBVM_END$scene_44_init$07cf6cd3_   scene_44_init
     001E4A18  ___func_scene_44_triggers          scene_44_triggers
     001E4A18  _scene_44_triggers                 scene_44_triggers
     001E4A20  ___func_scene_45_sprites           scene_45_sprites
     001E4A20  _scene_45_sprites                  scene_45_sprites
ASxxxx Linker V03.00/V05.40 + sdld,  page 103.
Hexadecimal  [32-Bits]

Area                                    Addr        Size        Decimal Bytes (Attributes)
--------------------------------        ----        ----        ------- ----- ------------
_CODE_30                            001E4000    00001E49 =        7753. bytes (REL,CON)

      Value  Global                              Global Defined In Module
      -----  --------------------------------   ------------------------
     001E4A26  ___func_scene_45_triggers          scene_45_triggers
     001E4A26  _scene_45_triggers                 scene_45_triggers
     001E4A2E  ___func_scene_46_projectiles       scene_46_projectiles
     001E4A2E  _scene_46_projectiles              scene_46_projectiles
     001E4A45  ___func_scene_46_sprites           scene_46_sprites
     001E4A45  _scene_46_sprites                  scene_46_sprites
     001E4A4B  ___func_scene_46_triggers          scene_46_triggers
     001E4A4B  _scene_46_triggers                 scene_46_triggers
     001E4A53  _scene_47_init                     scene_47_init
     001E4A54  GBVM$scene_47_init$autofade$bf9e   scene_47_init
     001E4A60  ___func_scene_47_triggers          scene_47_triggers
     001E4A60  _scene_47_triggers                 scene_47_triggers
     001E4A68  ___func_scene_48_actors            scene_48_actors
     001E4A68  _scene_48_actors                   scene_48_actors
     001E4A9C  _scene_48_init                     scene_48_init
     001E4A9D  GBVM$scene_48_init$236009b7_9d0c   scene_48_init
     001E4AA5  GBVM$scene_48_init$autofade$73c1   scene_48_init
     001E4AA5  GBVM_END$scene_48_init$236009b7_   scene_48_init
     001E4AB1  ___func_scene_48_projectiles       scene_48_projectiles
     001E4AB1  _scene_48_projectiles              scene_48_projectiles
     001E4AC8  ___func_scene_48_sprites           scene_48_sprites
     001E4AC8  _scene_48_sprites                  scene_48_sprites
     001E4ACE  ___func_scene_48_triggers          scene_48_triggers
     001E4ACE  _scene_48_triggers                 scene_48_triggers
     001E4AD6  ___func_scene_49_actors            scene_49_actors
     001E4AD6  _scene_49_actors                   scene_49_actors
     001E4B0A  _scene_49_init                     scene_49_init
     001E4B0B  GBVM$scene_49_init$8861a7c2_fc58   scene_49_init
     001E4B13  GBVM$scene_49_init$autofade$40bc   scene_49_init
     001E4B13  GBVM_END$scene_49_init$8861a7c2_   scene_49_init
     001E4B1F  ___func_scene_49_projectiles       scene_49_projectiles
     001E4B1F  _scene_49_projectiles              scene_49_projectiles
     001E4B36  ___func_scene_49_sprites           scene_49_sprites
     001E4B36  _scene_49_sprites                  scene_49_sprites
     001E4B3C  ___func_scene_50_actors            scene_50_actors
     001E4B3C  _scene_50_actors                   scene_50_actors
     001E4B70  _scene_50_init                     scene_50_init
     001E4B73  GBVM$scene_50_init$dc06e429_6c9e   scene_50_init
     001E4B7D  GBVM$scene_50_init$autofade$8493   scene_50_init
     001E4B89  ___func_scene_50_projectiles       scene_50_projectiles
     001E4B89  _scene_50_projectiles              scene_50_projectiles
     001E4BA0  ___func_scene_50_sprites           scene_50_sprites
     001E4BA0  _scene_50_sprites                  scene_50_sprites
     001E4BA6  ___func_scene_50_triggers          scene_50_triggers
     001E4BA6  _scene_50_triggers                 scene_50_triggers
     001E4BB6  ___func_scene_51_actors            scene_51_actors
     001E4BB6  _scene_51_actors                   scene_51_actors
     001E4BEA  _scene_51_init                     scene_51_init
     001E4BED  GBVM$scene_51_init$d15fa5fe_937c   scene_51_init
     001E4BF7  GBVM$scene_51_init$autofade$ec3a   scene_51_init
     001E4C03  ___func_scene_51_sprites           scene_51_sprites
ASxxxx Linker V03.00/V05.40 + sdld,  page 104.
Hexadecimal  [32-Bits]

Area                                    Addr        Size        Decimal Bytes (Attributes)
--------------------------------        ----        ----        ------- ----- ------------
_CODE_30                            001E4000    00001E49 =        7753. bytes (REL,CON)

      Value  Global                              Global Defined In Module
      -----  --------------------------------   ------------------------
     001E4C03  _scene_51_sprites                  scene_51_sprites
     001E4C06  ___func_scene_51_triggers          scene_51_triggers
     001E4C06  _scene_51_triggers                 scene_51_triggers
     001E4C0E  ___func_scene_52_sprites           scene_52_sprites
     001E4C0E  _scene_52_sprites                  scene_52_sprites
     001E4C14  _scene_53_init                     scene_53_init
     001E4C15  GBVM$scene_53_init$autofade$282e   scene_53_init
     001E4C21  ___func_scene_53_sprites           scene_53_sprites
     001E4C21  _scene_53_sprites                  scene_53_sprites
     001E4C27  ___func_scene_53_triggers          scene_53_triggers
     001E4C27  _scene_53_triggers                 scene_53_triggers
     001E4C2F  ___func_scene_54_sprites           scene_54_sprites
     001E4C2F  _scene_54_sprites                  scene_54_sprites
     001E4C35  ___func_scene_54_triggers          scene_54_triggers
     001E4C35  _scene_54_triggers                 scene_54_triggers
     001E4C3D  _scene_55_init                     scene_55_init
     001E4C3E  GBVM$scene_55_init$autofade$4dfe   scene_55_init
     001E4C4A  ___func_scene_55_triggers          scene_55_triggers
     001E4C4A  _scene_55_triggers                 scene_55_triggers
     001E4C52  _scene_56_init                     scene_56_init
     001E4C53  GBVM$scene_56_init$autofade$5071   scene_56_init
     001E4C5F  ___func_scene_56_triggers          scene_56_triggers
     001E4C5F  _scene_56_triggers                 scene_56_triggers
     001E4C67  _scene_57_init                     scene_57_init
     001E4C68  GBVM$scene_57_init$autofade$9708   scene_57_init
     001E4C74  ___func_scene_57_triggers          scene_57_triggers
     001E4C74  _scene_57_triggers                 scene_57_triggers
     001E4C84  ___func_scene_58_actors            scene_58_actors
     001E4C84  _scene_58_actors                   scene_58_actors
     001E4CB8  ___func_scene_58_sprites           scene_58_sprites
     001E4CB8  _scene_58_sprites                  scene_58_sprites
     001E4CBB  ___func_scene_58_triggers          scene_58_triggers
     001E4CBB  _scene_58_triggers                 scene_58_triggers
     001E4CCB  _scene_59_init                     scene_59_init
     001E4CCC  GBVM$scene_59_init$autofade$fec9   scene_59_init
     001E4CD8  ___func_scene_59_triggers          scene_59_triggers
     001E4CD8  _scene_59_triggers                 scene_59_triggers
     001E4CE0  ___func_scene_60_actors            scene_60_actors
     001E4CE0  _scene_60_actors                   scene_60_actors
     001E4D14  _scene_60_init                     scene_60_init
     001E4D15  GBVM$scene_60_init$autofade$70c7   scene_60_init
     001E4D21  ___func_scene_60_sprites           scene_60_sprites
     001E4D21  _scene_60_sprites                  scene_60_sprites
     001E4D24  ___func_scene_60_triggers          scene_60_triggers
     001E4D24  _scene_60_triggers                 scene_60_triggers
     001E4D2C  ___func_scene_61_actors            scene_61_actors
     001E4D2C  _scene_61_actors                   scene_61_actors
     001E4D60  ___func_scene_61_sprites           scene_61_sprites
     001E4D60  _scene_61_sprites                  scene_61_sprites
     001E4D63  ___func_scene_61_triggers          scene_61_triggers
     001E4D63  _scene_61_triggers                 scene_61_triggers
ASxxxx Linker V03.00/V05.40 + sdld,  page 105.
Hexadecimal  [32-Bits]

Area                                    Addr        Size        Decimal Bytes (Attributes)
--------------------------------        ----        ----        ------- ----- ------------
_CODE_30                            001E4000    00001E49 =        7753. bytes (REL,CON)

      Value  Global                              Global Defined In Module
      -----  --------------------------------   ------------------------
     001E4D6B  ___func_scene_62_triggers          scene_62_triggers
     001E4D6B  _scene_62_triggers                 scene_62_triggers
     001E4D93  _scene_63_init                     scene_63_init
     001E4D94  GBVM$scene_63_init$autofade$8588   scene_63_init
     001E4DA0  ___func_scene_63_triggers          scene_63_triggers
     001E4DA0  _scene_63_triggers                 scene_63_triggers
     001E4DA8  ___func_scene_64_actors            scene_64_actors
     001E4DA8  _scene_64_actors                   scene_64_actors
     001E4DDC  ___func_scene_64_sprites           scene_64_sprites
     001E4DDC  _scene_64_sprites                  scene_64_sprites
     001E4DDF  ___func_scene_64_triggers          scene_64_triggers
     001E4DDF  _scene_64_triggers                 scene_64_triggers
     001E4DF7  _scene_65_init                     scene_65_init
     001E4DF8  GBVM$scene_65_init$autofade$40f2   scene_65_init
     001E4E04  ___func_scene_65_triggers          scene_65_triggers
     001E4E04  _scene_65_triggers                 scene_65_triggers
     001E4E14  _scene_66_init                     scene_66_init
     001E4E15  GBVM$scene_66_init$autofade$6bed   scene_66_init
     001E4E21  ___func_scene_66_triggers          scene_66_triggers
     001E4E21  _scene_66_triggers                 scene_66_triggers
     001E4E31  _scene_67_init                     scene_67_init
     001E4E32  GBVM$scene_67_init$autofade$7fa3   scene_67_init
     001E4E3E  ___func_scene_67_triggers          scene_67_triggers
     001E4E3E  _scene_67_triggers                 scene_67_triggers
     001E4E46  _scene_68_init                     scene_68_init
     001E4E47  GBVM$scene_68_init$autofade$6b0d   scene_68_init
     001E4E53  ___func_scene_68_triggers          scene_68_triggers
     001E4E53  _scene_68_triggers                 scene_68_triggers
     001E4E5B  _scene_70_init                     scene_70_init
     001E4E5C  GBVM$scene_70_init$768e6c88_9ae7   scene_70_init
     001E4E61  GBVM$scene_70_init$014f9e83_2e61   scene_70_init
     001E4E63  GBVM$scene_70_init$autofade$4d84   scene_70_init
     001E4E6F  ___func_scene_70_triggers          scene_70_triggers
     001E4E6F  _scene_70_triggers                 scene_70_triggers
     001E4E77  ___func_scene_71_actors            scene_71_actors
     001E4E77  _scene_71_actors                   scene_71_actors
     001E4EAB  _scene_71_init                     scene_71_init
     001E4EAE  GBVM$scene_71_init$248594c9_755a   scene_71_init
     001E4EB8  GBVM$scene_71_init$f9b9cd2b_9d25   scene_71_init
     001E4EB9  GBVM$scene_71_init$autofade$4c04   scene_71_init
     001E4EC5  ___func_scene_71_sprites           scene_71_sprites
     001E4EC5  _scene_71_sprites                  scene_71_sprites
     001E4EC8  ___func_scene_71_triggers          scene_71_triggers
     001E4EC8  _scene_71_triggers                 scene_71_triggers
     001E4EE0  _scene_72_init                     scene_72_init
     001E4EE1  GBVM$scene_72_init$autofade$2a33   scene_72_init
     001E4EED  ___func_scene_72_triggers          scene_72_triggers
     001E4EED  _scene_72_triggers                 scene_72_triggers
     001E4F05  _scene_73_init                     scene_73_init
     001E4F06  GBVM$scene_73_init$autofade$faa6   scene_73_init
     001E4F12  ___func_scene_73_sprites           scene_73_sprites
ASxxxx Linker V03.00/V05.40 + sdld,  page 106.
Hexadecimal  [32-Bits]

Area                                    Addr        Size        Decimal Bytes (Attributes)
--------------------------------        ----        ----        ------- ----- ------------
_CODE_30                            001E4000    00001E49 =        7753. bytes (REL,CON)

      Value  Global                              Global Defined In Module
      -----  --------------------------------   ------------------------
     001E4F12  _scene_73_sprites                  scene_73_sprites
     001E4F15  ___func_scene_75_triggers          scene_75_triggers
     001E4F15  _scene_75_triggers                 scene_75_triggers
     001E4F1D  ___func_scene_76_actors            scene_76_actors
     001E4F1D  _scene_76_actors                   scene_76_actors
     001E4F51  _scene_76_init                     scene_76_init
     001E4F54  GBVM$scene_76_init$780a3648_225e   scene_76_init
     001E4F5E  GBVM$scene_76_init$autofade$691e   scene_76_init
     001E4F6A  ___func_scene_76_sprites           scene_76_sprites
     001E4F6A  _scene_76_sprites                  scene_76_sprites
     001E4F6D  ___func_scene_76_triggers          scene_76_triggers
     001E4F6D  _scene_76_triggers                 scene_76_triggers
     001E4F75  _scene_77_init                     scene_77_init
     001E4F76  GBVM$scene_77_init$55f815ef_f6c1   scene_77_init
     001E4F79  GBVM$scene_77_init$autofade$5984   scene_77_init
     001E4F85  ___func_scene_77_triggers          scene_77_triggers
     001E4F85  _scene_77_triggers                 scene_77_triggers
     001E4F8D  _scene_78_init                     scene_78_init
     001E4F8E  GBVM$scene_78_init$autofade$fb5c   scene_78_init
     001E4F9A  ___func_scene_78_triggers          scene_78_triggers
     001E4F9A  _scene_78_triggers                 scene_78_triggers
     001E4FA2  _scene_79_init                     scene_79_init
     001E4FA3  GBVM$scene_79_init$autofade$863a   scene_79_init
     001E4FAF  ___func_scene_79_triggers          scene_79_triggers
     001E4FAF  _scene_79_triggers                 scene_79_triggers
     001E4FB7  _scene_80_init                     scene_80_init
     001E4FB8  GBVM$scene_80_init$autofade$e22a   scene_80_init
     001E4FC4  ___func_scene_80_triggers          scene_80_triggers
     001E4FC4  _scene_80_triggers                 scene_80_triggers
     001E4FD4  _scene_81_init                     scene_81_init
     001E4FD5  GBVM$scene_81_init$autofade$22f8   scene_81_init
     001E4FE1  ___func_scene_81_triggers          scene_81_triggers
     001E4FE1  _scene_81_triggers                 scene_81_triggers
     001E4FF9  _scene_82_init                     scene_82_init
     001E4FFA  GBVM$scene_82_init$autofade$9fda   scene_82_init
     001E5006  ___func_scene_82_triggers          scene_82_triggers
     001E5006  _scene_82_triggers                 scene_82_triggers
     001E5016  _scene_83_init                     scene_83_init
     001E5017  GBVM$scene_83_init$autofade$c58b   scene_83_init
     001E5023  ___func_scene_83_triggers          scene_83_triggers
     001E5023  _scene_83_triggers                 scene_83_triggers
     001E5033  _scene_84_init                     scene_84_init
     001E5034  GBVM$scene_84_init$autofade$f208   scene_84_init
     001E5040  ___func_scene_84_triggers          scene_84_triggers
     001E5040  _scene_84_triggers                 scene_84_triggers
     001E5058  ___func_scene_86_sprites           scene_86_sprites
     001E5058  _scene_86_sprites                  scene_86_sprites
     001E505B  ___func_scene_86_triggers          scene_86_triggers
     001E505B  _scene_86_triggers                 scene_86_triggers
     001E5073  _scene_88_init                     scene_88_init
     001E5074  GBVM$scene_88_init$e63cc807_e085   scene_88_init
ASxxxx Linker V03.00/V05.40 + sdld,  page 107.
Hexadecimal  [32-Bits]

Area                                    Addr        Size        Decimal Bytes (Attributes)
--------------------------------        ----        ----        ------- ----- ------------
_CODE_30                            001E4000    00001E49 =        7753. bytes (REL,CON)

      Value  Global                              Global Defined In Module
      -----  --------------------------------   ------------------------
     001E5076  GBVM$scene_88_init$autofade$a281   scene_88_init
     001E5082  ___func_scene_88_triggers          scene_88_triggers
     001E5082  _scene_88_triggers                 scene_88_triggers
     001E509A  _scene_89_init                     scene_89_init
     001E509B  GBVM$scene_89_init$0422a9e2_2a1c   scene_89_init
     001E50A0  GBVM$scene_89_init$1fa0f01a_d3ee   scene_89_init
     001E50A5  GBVM$scene_89_init$d11e478d_1e25   scene_89_init
     001E50AD  GBVM$scene_89_init$0346e57e_0895   scene_89_init
     001E50AD  GBVM_END$scene_89_init$d11e478d_   scene_89_init
     001E50B9  ___func_scene_89_triggers          scene_89_triggers
     001E50B9  _scene_89_triggers                 scene_89_triggers
     001E50C1  ___func_scene_90_actors            scene_90_actors
     001E50C1  _scene_90_actors                   scene_90_actors
     001E50F5  _scene_90_init                     scene_90_init
     001E50F6  GBVM$scene_90_init$fa746752_91d8   scene_90_init
     001E50F6  GBVM$scene_90_init$fb9c9014_bb2c   scene_90_init
     001E50FE  GBVM$scene_90_init$f3b7cb72_7611   scene_90_init
     001E50FE  GBVM_END$scene_90_init$fa746752_   scene_90_init
     001E510A  ___func_scene_90_sprites           scene_90_sprites
     001E510A  _scene_90_sprites                  scene_90_sprites
     001E510D  ___func_scene_90_triggers          scene_90_triggers
     001E510D  _scene_90_triggers                 scene_90_triggers
     001E511D  ___func_scene_91_sprites           scene_91_sprites
     001E511D  _scene_91_sprites                  scene_91_sprites
     001E5123  ___func_scene_91_triggers          scene_91_triggers
     001E5123  _scene_91_triggers                 scene_91_triggers
     001E512B  ___func_scene_92_sprites           scene_92_sprites
     001E512B  _scene_92_sprites                  scene_92_sprites
     001E512E  ___func_scene_93_actors            scene_93_actors
     001E512E  _scene_93_actors                   scene_93_actors
     001E5162  ___func_scene_93_projectiles       scene_93_projectiles
     001E5162  _scene_93_projectiles              scene_93_projectiles
     001E5190  ___func_scene_93_triggers          scene_93_triggers
     001E5190  _scene_93_triggers                 scene_93_triggers
     001E5198  ___func_scene_94_actors            scene_94_actors
     001E5198  _scene_94_actors                   scene_94_actors
     001E51CC  ___func_scene_94_projectiles       scene_94_projectiles
     001E51CC  _scene_94_projectiles              scene_94_projectiles
     001E51FA  ___func_scene_99_sprites           scene_99_sprites
     001E51FA  _scene_99_sprites                  scene_99_sprites
     001E5200  _script_input_12                   script_input_12
     001E5202  GBVM$script_input_12$033f28e7_d5   script_input_12
     001E521F  _script_input_7                    script_input_7
     001E5221  GBVM$script_input_7$33739dd6_245   script_input_7
     001E5254  _script_input                      script_input
     001E5256  GBVM$script_input$ce017bc0_26a8_   script_input
     001E5289  GBVM$script_timer_1$76bb2971_1a2   script_timer_1
     001E5289  _script_timer_1                    script_timer_1
     001E5291  GBVM$script_timer_1$5f2e621c_241   script_timer_1
     001E52A3  GBVM$script_timer_1$04a550a3_fa0   script_timer_1
     001E52AB  GBVM$script_timer_1$34fcb5b5_5cf   script_timer_1
ASxxxx Linker V03.00/V05.40 + sdld,  page 108.
Hexadecimal  [32-Bits]

Area                                    Addr        Size        Decimal Bytes (Attributes)
--------------------------------        ----        ----        ------- ----- ------------
_CODE_30                            001E4000    00001E49 =        7753. bytes (REL,CON)

      Value  Global                              Global Defined In Module
      -----  --------------------------------   ------------------------
     001E52B0  GBVM_END$script_timer_1$5f2e621c   script_timer_1
     001E52B1  _script_timer_5                    script_timer_5
     001E52B3  GBVM$script_timer_5$07caf72c_887   script_timer_5
     001E52D0  ___func_sprite_blank_interactabl   sprite_blank_interactable_c
     001E52D0  _sprite_blank_interactable_c_met   sprite_blank_interactable_c
     001E52DC  _sprite_blank_interactable_c_met   sprite_blank_interactable_c
     001E52DE  _sprite_blank_interactable_c_ani   sprite_blank_interactable_c
     001E52EE  _sprite_blank_interactable_c_ani   sprite_blank_interactable_c
     001E52F0  _sprite_blank_interactable_c       sprite_blank_interactable_c
     001E5303  ___func_sprite_car                 sprite_car
     001E5303  _sprite_car_metasprite_0           sprite_car
     001E530F  _sprite_car_metasprites            sprite_car
     001E5311  _sprite_car_animations             sprite_car
     001E5321  _sprite_car_animations_lookup      sprite_car
     001E5323  _sprite_car                        sprite_car
     001E5336  ___func_sprite_cataa               sprite_cataa
     001E5336  _sprite_cataa_metasprite_0         sprite_cataa
     001E5342  _sprite_cataa_metasprites          sprite_cataa
     001E5344  _sprite_cataa_animations           sprite_cataa
     001E5354  _sprite_cataa_animations_lookup    sprite_cataa
     001E5356  _sprite_cataa                      sprite_cataa
     001E5369  ___func_sprite_dhilly_bridge_int   sprite_dhilly_bridge_intera_
     001E5369  _sprite_dhilly_bridge_intera_0_t   sprite_dhilly_bridge_intera_
     001E538B  ___func_sprite_dhilly_bridge_int   sprite_dhilly_bridge_intera_
     001E538B  _sprite_dhilly_bridge_intera_til   sprite_dhilly_bridge_intera_
     001E53AD  ___func_sprite_dhilly_bridge_int   sprite_dhilly_bridge_intera
     001E53AD  _sprite_dhilly_bridge_intera_met   sprite_dhilly_bridge_intera
     001E53B9  _sprite_dhilly_bridge_intera_met   sprite_dhilly_bridge_intera
     001E53BB  _sprite_dhilly_bridge_intera_ani   sprite_dhilly_bridge_intera
     001E53CB  _sprite_dhilly_bridge_intera_ani   sprite_dhilly_bridge_intera
     001E53CD  _sprite_dhilly_bridge_intera       sprite_dhilly_bridge_intera
     001E53E0  ___func_sprite_dhilly_saveselect   sprite_dhilly_saveselect_co_
     001E53E0  _sprite_dhilly_saveselect_co_0_t   sprite_dhilly_saveselect_co_
     001E5402  ___func_sprite_dhilly_saveselect   sprite_dhilly_saveselect_co_
     001E5402  _sprite_dhilly_saveselect_co_0_m   sprite_dhilly_saveselect_co_
     001E540E  _sprite_dhilly_saveselect_co_0_m   sprite_dhilly_saveselect_co_
     001E5410  _sprite_dhilly_saveselect_co_0_a   sprite_dhilly_saveselect_co_
     001E5420  _sprite_dhilly_saveselect_co_0_a   sprite_dhilly_saveselect_co_
     001E5422  _sprite_dhilly_saveselect_co_0     sprite_dhilly_saveselect_co_
     001E5435  ___func_sprite_dhilly_saveselect   sprite_dhilly_saveselect_co_
     001E5435  _sprite_dhilly_saveselect_co_1_m   sprite_dhilly_saveselect_co_
     001E5441  _sprite_dhilly_saveselect_co_1_m   sprite_dhilly_saveselect_co_
     001E5443  _sprite_dhilly_saveselect_co_1_a   sprite_dhilly_saveselect_co_
     001E5453  _sprite_dhilly_saveselect_co_1_a   sprite_dhilly_saveselect_co_
     001E5455  _sprite_dhilly_saveselect_co_1     sprite_dhilly_saveselect_co_
     001E5468  ___func_sprite_dhilly_saveselect   sprite_dhilly_saveselect_co_
     001E5468  _sprite_dhilly_saveselect_co_til   sprite_dhilly_saveselect_co_
     001E548A  ___func_sprite_dhilly_saveselect   sprite_dhilly_saveselect_co
     001E548A  _sprite_dhilly_saveselect_co_met   sprite_dhilly_saveselect_co
     001E5496  _sprite_dhilly_saveselect_co_met   sprite_dhilly_saveselect_co
     001E5498  _sprite_dhilly_saveselect_co_ani   sprite_dhilly_saveselect_co
ASxxxx Linker V03.00/V05.40 + sdld,  page 109.
Hexadecimal  [32-Bits]

Area                                    Addr        Size        Decimal Bytes (Attributes)
--------------------------------        ----        ----        ------- ----- ------------
_CODE_30                            001E4000    00001E49 =        7753. bytes (REL,CON)

      Value  Global                              Global Defined In Module
      -----  --------------------------------   ------------------------
     001E54A8  _sprite_dhilly_saveselect_co_ani   sprite_dhilly_saveselect_co
     001E54AA  _sprite_dhilly_saveselect_co       sprite_dhilly_saveselect_co
     001E54BD  ___func_sprite_dhilly_saveselect   sprite_dhilly_saveselect_til
     001E54BD  _sprite_dhilly_saveselect_tilese   sprite_dhilly_saveselect_til
     001E54DF  ___func_sprite_iceos_cursor_copy   sprite_iceos_cursor_copy_
     001E54DF  _sprite_iceos_cursor_copy__metas   sprite_iceos_cursor_copy_
     001E54E3  _sprite_iceos_cursor_copy__metas   sprite_iceos_cursor_copy_
     001E54E5  _sprite_iceos_cursor_copy__anima   sprite_iceos_cursor_copy_
     001E54F5  _sprite_iceos_cursor_copy__anima   sprite_iceos_cursor_copy_
     001E54F7  _sprite_iceos_cursor_copy_         sprite_iceos_cursor_copy_
     001E550A  ___func_sprite_iceosapp_ctf_copy   sprite_iceosapp_ctf_copy_0
     001E550A  _sprite_iceosapp_ctf_copy_0_meta   sprite_iceosapp_ctf_copy_0
     001E5516  _sprite_iceosapp_ctf_copy_0_meta   sprite_iceosapp_ctf_copy_0
     001E5518  _sprite_iceosapp_ctf_copy_0_anim   sprite_iceosapp_ctf_copy_0
     001E5528  _sprite_iceosapp_ctf_copy_0_anim   sprite_iceosapp_ctf_copy_0
     001E552A  _sprite_iceosapp_ctf_copy_0        sprite_iceosapp_ctf_copy_0
     001E553D  ___func_sprite_iceosapp_pltfrmr_   sprite_iceosapp_pltfrmr_cop_
     001E553D  _sprite_iceosapp_pltfrmr_cop_til   sprite_iceosapp_pltfrmr_cop_
     001E555F  ___func_sprite_iceosapp_pltfrmr_   sprite_iceosapp_pltfrmr_cop
     001E555F  _sprite_iceosapp_pltfrmr_cop_met   sprite_iceosapp_pltfrmr_cop
     001E556B  _sprite_iceosapp_pltfrmr_cop_met   sprite_iceosapp_pltfrmr_cop
     001E556D  _sprite_iceosapp_pltfrmr_cop_ani   sprite_iceosapp_pltfrmr_cop
     001E557D  _sprite_iceosapp_pltfrmr_cop_ani   sprite_iceosapp_pltfrmr_cop
     001E557F  _sprite_iceosapp_pltfrmr_cop       sprite_iceosapp_pltfrmr_cop
     001E5592  ___func_sprite_iceosapp_settings   sprite_iceosapp_settings_co_
     001E5592  _sprite_iceosapp_settings_co_til   sprite_iceosapp_settings_co_
     001E55B4  ___func_sprite_iceosapp_settings   sprite_iceosapp_settings_co
     001E55B4  _sprite_iceosapp_settings_co_met   sprite_iceosapp_settings_co
     001E55C0  _sprite_iceosapp_settings_co_met   sprite_iceosapp_settings_co
     001E55C2  _sprite_iceosapp_settings_co_ani   sprite_iceosapp_settings_co
     001E55D2  _sprite_iceosapp_settings_co_ani   sprite_iceosapp_settings_co
     001E55D4  _sprite_iceosapp_settings_co       sprite_iceosapp_settings_co
     001E55E7  ___func_sprite_iceosapp_wveruner   sprite_iceosapp_wveruner_co
     001E55E7  _sprite_iceosapp_wveruner_co_met   sprite_iceosapp_wveruner_co
     001E55F3  _sprite_iceosapp_wveruner_co_met   sprite_iceosapp_wveruner_co
     001E55F5  _sprite_iceosapp_wveruner_co_ani   sprite_iceosapp_wveruner_co
     001E5605  _sprite_iceosapp_wveruner_co_ani   sprite_iceosapp_wveruner_co
     001E5607  _sprite_iceosapp_wveruner_co       sprite_iceosapp_wveruner_co
     001E561A  ___func_sprite_knife_down_copy_    sprite_knife_down_copy_
     001E561A  _sprite_knife_down_copy__metaspr   sprite_knife_down_copy_
     001E5626  _sprite_knife_down_copy__metaspr   sprite_knife_down_copy_
     001E5628  _sprite_knife_down_copy__animati   sprite_knife_down_copy_
     001E5638  _sprite_knife_down_copy__animati   sprite_knife_down_copy_
     001E563A  _sprite_knife_down_copy_           sprite_knife_down_copy_
     001E564D  ___func_sprite_len_city_dhilly_h   sprite_len_city_dhilly_hous
     001E564D  _sprite_len_city_dhilly_hous_met   sprite_len_city_dhilly_hous
     001E5651  _sprite_len_city_dhilly_hous_met   sprite_len_city_dhilly_hous
     001E5653  _sprite_len_city_dhilly_hous_ani   sprite_len_city_dhilly_hous
     001E5663  _sprite_len_city_dhilly_hous_ani   sprite_len_city_dhilly_hous
     001E5665  _sprite_len_city_dhilly_hous       sprite_len_city_dhilly_hous
     001E5678  ___func_sprite_mzdesigns           sprite_mzdesigns
ASxxxx Linker V03.00/V05.40 + sdld,  page 110.
Hexadecimal  [32-Bits]

Area                                    Addr        Size        Decimal Bytes (Attributes)
--------------------------------        ----        ----        ------- ----- ------------
_CODE_30                            001E4000    00001E49 =        7753. bytes (REL,CON)

      Value  Global                              Global Defined In Module
      -----  --------------------------------   ------------------------
     001E5678  _sprite_mzdesigns_metasprite_0     sprite_mzdesigns
     001E5684  _sprite_mzdesigns_metasprites      sprite_mzdesigns
     001E5686  _sprite_mzdesigns_animations       sprite_mzdesigns
     001E5696  _sprite_mzdesigns_animations_loo   sprite_mzdesigns
     001E5698  _sprite_mzdesigns                  sprite_mzdesigns
     001E56AB  ___func_sprite_piece_dhilly3_ver   sprite_piece_dhilly3_ver_co_
     001E56AB  _sprite_piece_dhilly3_ver_co_til   sprite_piece_dhilly3_ver_co_
     001E56CD  ___func_sprite_piece_dhilly3_ver   sprite_piece_dhilly3_ver_co
     001E56CD  _sprite_piece_dhilly3_ver_co_met   sprite_piece_dhilly3_ver_co
     001E56D9  _sprite_piece_dhilly3_ver_co_met   sprite_piece_dhilly3_ver_co
     001E56DB  _sprite_piece_dhilly3_ver_co_ani   sprite_piece_dhilly3_ver_co
     001E56EB  _sprite_piece_dhilly3_ver_co_ani   sprite_piece_dhilly3_ver_co
     001E56ED  _sprite_piece_dhilly3_ver_co       sprite_piece_dhilly3_ver_co
     001E5700  ___func_sprite_piece_dhilly3_ver   sprite_piece_dhilly3_ver_til
     001E5700  _sprite_piece_dhilly3_ver_tilese   sprite_piece_dhilly3_ver_til
     001E5722  ___func_sprite_piece_dhilly3_ver   sprite_piece_dhilly3_ver
     001E5722  _sprite_piece_dhilly3_ver_metasp   sprite_piece_dhilly3_ver
     001E572E  _sprite_piece_dhilly3_ver_metasp   sprite_piece_dhilly3_ver
     001E5730  _sprite_piece_dhilly3_ver_animat   sprite_piece_dhilly3_ver
     001E5740  _sprite_piece_dhilly3_ver_animat   sprite_piece_dhilly3_ver
     001E5742  _sprite_piece_dhilly3_ver          sprite_piece_dhilly3_ver
     001E5755  ___func_sprite_square_full_hitbo   sprite_square_full_hitbox_c_
     001E5755  _sprite_square_full_hitbox_c_1_t   sprite_square_full_hitbox_c_
     001E5777  ___func_sprite_square_full_hitbo   sprite_square_full_hitbox_c_
     001E5777  _sprite_square_full_hitbox_c_1_m   sprite_square_full_hitbox_c_
     001E5783  _sprite_square_full_hitbox_c_1_m   sprite_square_full_hitbox_c_
     001E5785  _sprite_square_full_hitbox_c_1_a   sprite_square_full_hitbox_c_
     001E5795  _sprite_square_full_hitbox_c_1_a   sprite_square_full_hitbox_c_
     001E5797  _sprite_square_full_hitbox_c_1     sprite_square_full_hitbox_c_
     001E57AA  ___func_sprite_square_full_hitbo   sprite_square_full_hitbox_c_
     001E57AA  _sprite_square_full_hitbox_c_4_t   sprite_square_full_hitbox_c_
     001E57CC  ___func_sprite_square_full_hitbo   sprite_square_full_hitbox_c_
     001E57CC  _sprite_square_full_hitbox_c_4_m   sprite_square_full_hitbox_c_
     001E57D8  _sprite_square_full_hitbox_c_4_m   sprite_square_full_hitbox_c_
     001E57DA  _sprite_square_full_hitbox_c_4_a   sprite_square_full_hitbox_c_
     001E57EA  _sprite_square_full_hitbox_c_4_a   sprite_square_full_hitbox_c_
     001E57EC  _sprite_square_full_hitbox_c_4     sprite_square_full_hitbox_c_
     001E57FF  ___func_sprite_square_full_hitbo   sprite_square_full_hitbox_c_
     001E57FF  _sprite_square_full_hitbox_c_til   sprite_square_full_hitbox_c_
     001E5821  ___func_sprite_square_full_hitbo   sprite_square_full_hitbox_c
     001E5821  _sprite_square_full_hitbox_c_met   sprite_square_full_hitbox_c
     001E5829  _sprite_square_full_hitbox_c_met   sprite_square_full_hitbox_c
     001E582B  _sprite_square_full_hitbox_c_ani   sprite_square_full_hitbox_c
     001E583B  _sprite_square_full_hitbox_c_ani   sprite_square_full_hitbox_c
     001E583D  _sprite_square_full_hitbox_c       sprite_square_full_hitbox_c
     001E5850  ___func_sprite_square_platformin   sprite_square_platforming_c_
     001E5850  _sprite_square_platforming_c_til   sprite_square_platforming_c_
     001E5872  ___func_sprite_square_platformin   sprite_square_platforming_c
     001E5872  _sprite_square_platforming_c_met   sprite_square_platforming_c
     001E587E  _sprite_square_platforming_c_met   sprite_square_platforming_c
     001E5880  _sprite_square_platforming_c_ani   sprite_square_platforming_c
ASxxxx Linker V03.00/V05.40 + sdld,  page 111.
Hexadecimal  [32-Bits]

Area                                    Addr        Size        Decimal Bytes (Attributes)
--------------------------------        ----        ----        ------- ----- ------------
_CODE_30                            001E4000    00001E49 =        7753. bytes (REL,CON)

      Value  Global                              Global Defined In Module
      -----  --------------------------------   ------------------------
     001E5890  _sprite_square_platforming_c_ani   sprite_square_platforming_c
     001E5892  _sprite_square_platforming_c       sprite_square_platforming_c
     001E58A5  ___func_sprite_static_copy_0       sprite_static_copy_0
     001E58A5  _sprite_static_copy_0_metasprite   sprite_static_copy_0
     001E58B1  _sprite_static_copy_0_metasprite   sprite_static_copy_0
     001E58B3  _sprite_static_copy_0_animations   sprite_static_copy_0
     001E58C3  _sprite_static_copy_0_animations   sprite_static_copy_0
     001E58C5  _sprite_static_copy_0              sprite_static_copy_0
     001E58D8  ___func_sprite_static_copy         sprite_static_copy
     001E58D8  _sprite_static_copy_metasprite_0   sprite_static_copy
     001E58E4  _sprite_static_copy_metasprites    sprite_static_copy
     001E58E6  _sprite_static_copy_animations     sprite_static_copy
     001E58F6  _sprite_static_copy_animations_l   sprite_static_copy
     001E58F8  _sprite_static_copy                sprite_static_copy
     001E590B  _spritesheet_none_metasprite       spritesheet_none
     001E590F  _spritesheet_none_metasprites      spritesheet_none
     001E5911  _spritesheet_none                  spritesheet_none
     001E5924  _trigger_10_interact               trigger_10_interact
     001E5925  GBVM$trigger_10_interact$a9b7672   trigger_10_interact
     001E5930  GBVM$trigger_10_interact$5fb992e   trigger_10_interact
     001E593C  _trigger_11_interact               trigger_11_interact
     001E593D  GBVM$trigger_11_interact$846dbf8   trigger_11_interact
     001E5950  GBVM$trigger_11_interact$2f35445   trigger_11_interact
     001E595C  _trigger_14_interact               trigger_14_interact
     001E595F  GBVM$trigger_14_interact$c0f03dd   trigger_14_interact
     001E596A  GBVM$trigger_14_interact$035d83a   trigger_14_interact
     001E5976  _trigger_50_interact               trigger_50_interact
     001E5979  GBVM$trigger_50_interact$18df773   trigger_50_interact
     001E5981  GBVM$trigger_50_interact$b1c72e3   trigger_50_interact
     001E5984  _trigger_55_interact               trigger_55_interact
     001E5987  GBVM$trigger_55_interact$fa58eef   trigger_55_interact
     001E599E  _trigger_56_interact               trigger_56_interact
     001E59A1  GBVM$trigger_56_interact$ce8cb17   trigger_56_interact
     001E59B8  _trigger_57_interact               trigger_57_interact
     001E59BB  GBVM$trigger_57_interact$219dce1   trigger_57_interact
     001E59D2  _trigger_58_interact               trigger_58_interact
     001E59D5  GBVM$trigger_58_interact$26e7e3f   trigger_58_interact
     001E59EC  _trigger_59_interact               trigger_59_interact
     001E59EF  GBVM$trigger_59_interact$7236c4d   trigger_59_interact
     001E5A06  _trigger_72_interact               trigger_72_interact
     001E5A09  GBVM$trigger_72_interact$1e9ac54   trigger_72_interact
     001E5A3C  _trigger_73_interact               trigger_73_interact
     001E5A3F  GBVM$trigger_73_interact$2e46f4b   trigger_73_interact
     001E5A72  _trigger_74_interact               trigger_74_interact
     001E5A75  GBVM$trigger_74_interact$72bf148   trigger_74_interact
     001E5AA8  _trigger_75_interact               trigger_75_interact
     001E5AAB  GBVM$trigger_75_interact$d2c9178   trigger_75_interact
     001E5ADE  _trigger_76_interact               trigger_76_interact
     001E5AE1  GBVM$trigger_76_interact$73b65c1   trigger_76_interact
     001E5B14  _trigger_78_interact               trigger_78_interact
     001E5B17  GBVM$trigger_78_interact$1feeadd   trigger_78_interact
ASxxxx Linker V03.00/V05.40 + sdld,  page 112.
Hexadecimal  [32-Bits]

Area                                    Addr        Size        Decimal Bytes (Attributes)
--------------------------------        ----        ----        ------- ----- ------------
_CODE_30                            001E4000    00001E49 =        7753. bytes (REL,CON)

      Value  Global                              Global Defined In Module
      -----  --------------------------------   ------------------------
     001E5B4A  _trigger_79_interact               trigger_79_interact
     001E5B4D  GBVM$trigger_79_interact$a673b68   trigger_79_interact
     001E5B80  _trigger_8_interact                trigger_8_interact
     001E5B81  GBVM$trigger_8_interact$56f43454   trigger_8_interact
     001E5B8C  GBVM$trigger_8_interact$2fab958f   trigger_8_interact
     001E5B98  _trigger_80_interact               trigger_80_interact
     001E5B9B  GBVM$trigger_80_interact$af24421   trigger_80_interact
     001E5BCE  _trigger_82_interact               trigger_82_interact
     001E5BD1  GBVM$trigger_82_interact$4ef2d41   trigger_82_interact
     001E5C04  _trigger_83_interact               trigger_83_interact
     001E5C07  GBVM$trigger_83_interact$21f9104   trigger_83_interact
     001E5C3A  _trigger_84_interact               trigger_84_interact
     001E5C3D  GBVM$trigger_84_interact$af61af1   trigger_84_interact
     001E5C70  _trigger_85_interact               trigger_85_interact
     001E5C73  GBVM$trigger_85_interact$d2c6acd   trigger_85_interact
     001E5CA6  _trigger_87_interact               trigger_87_interact
     001E5CA9  GBVM$trigger_87_interact$5e1ea60   trigger_87_interact
     001E5CDC  _trigger_88_interact               trigger_88_interact
     001E5CDF  GBVM$trigger_88_interact$f3f101d   trigger_88_interact
     001E5D12  _trigger_9_interact                trigger_9_interact
     001E5D13  GBVM$trigger_9_interact$e3ff0ade   trigger_9_interact
     001E5D1E  GBVM$trigger_9_interact$bccca52d   trigger_9_interact
     001E5D2A  _trigger_91_interact               trigger_91_interact
     001E5D2D  GBVM$trigger_91_interact$682889e   trigger_91_interact
     001E5D60  _trigger_92_interact               trigger_92_interact
     001E5D63  GBVM$trigger_92_interact$5646e46   trigger_92_interact
     001E5D96  _trigger_93_interact               trigger_93_interact
     001E5D99  GBVM$trigger_93_interact$c9361a6   trigger_93_interact
     001E5DCC  _trigger_94_interact               trigger_94_interact
     001E5DCF  GBVM$trigger_94_interact$571909c   trigger_94_interact
     001E5E02  _trigger_98_interact               trigger_98_interact
     001E5E05  GBVM$trigger_98_interact$d9c1bb7   trigger_98_interact
     001E5E38  _logo_init                         logo
     001E5E48  _logo_update                       logo
ASxxxx Linker V03.00/V05.40 + sdld,  page 113.
Hexadecimal  [32-Bits]

Area                                    Addr        Size        Decimal Bytes (Attributes)
--------------------------------        ----        ----        ------- ----- ------------
_HEADER_SIO0                        00000000    00000004 =           4. bytes (ABS,CON)

      Value  Global                              Global Defined In Module
      -----  --------------------------------   ------------------------
ASxxxx Linker V03.00/V05.40 + sdld,  page 114.
Hexadecimal  [32-Bits]

Area                                    Addr        Size        Decimal Bytes (Attributes)
--------------------------------        ----        ----        ------- ----- ------------
_HEADER_TIMER0                      00000000    00000004 =           4. bytes (ABS,CON)

      Value  Global                              Global Defined In Module
      -----  --------------------------------   ------------------------
ASxxxx Linker V03.00/V05.40 + sdld,  page 115.
Hexadecimal  [32-Bits]

Area                                    Addr        Size        Decimal Bytes (Attributes)
--------------------------------        ----        ----        ------- ----- ------------
_CODE_2                             00024000    00004000 =       16384. bytes (REL,CON)

      Value  Global                              Global Defined In Module
      -----  --------------------------------   ------------------------
     00024000  _remove_LCD_ISRs                   interrupts
     0002401B  ___func_bg_shillycityopen_copy_1   bg_shillycityopen_copy_1_til
     0002401B  _bg_shillycityopen_copy_1_tilema   bg_shillycityopen_copy_1_til
     000251AF  ___func_song_newmegalovania_Data   song_newmegalovania_Data
     000251AF  _song_newmegalovania0              song_newmegalovania_Data
     000252C4  _song_newmegalovania1              song_newmegalovania_Data
     000253D8  _song_newmegalovania2              song_newmegalovania_Data
     00025502  _song_newmegalovania3              song_newmegalovania_Data
     0002562C  _song_newmegalovania4              song_newmegalovania_Data
     0002576D  _song_newmegalovania5              song_newmegalovania_Data
     000258AF  _song_newmegalovania6              song_newmegalovania_Data
     000259EF  _song_newmegalovania7              song_newmegalovania_Data
     00025B31  _song_newmegalovania8              song_newmegalovania_Data
     00025C46  _song_newmegalovania9              song_newmegalovania_Data
     00025D5C  _song_newmegalovania10             song_newmegalovania_Data
     00025E85  _song_newmegalovania11             song_newmegalovania_Data
     00025FAF  _song_newmegalovania12             song_newmegalovania_Data
     000260F4  _song_newmegalovania13             song_newmegalovania_Data
     00026243  _song_newmegalovania14             song_newmegalovania_Data
     00026377  _song_newmegalovania15             song_newmegalovania_Data
     00026496  _song_newmegalovania16             song_newmegalovania_Data
     000265DC  _song_newmegalovania17             song_newmegalovania_Data
     0002672B  _song_newmegalovania18             song_newmegalovania_Data
     0002685F  _song_newmegalovania19             song_newmegalovania_Data
     0002697E  _song_newmegalovania20             song_newmegalovania_Data
     00026A94  _song_newmegalovania21             song_newmegalovania_Data
     00026BAA  _song_newmegalovania22             song_newmegalovania_Data
     00026CC0  _song_newmegalovania23             song_newmegalovania_Data
     00026DD6  _song_newmegalovania24             song_newmegalovania_Data
     00026F00  _song_newmegalovania25             song_newmegalovania_Data
     00027044  _song_newmegalovania26             song_newmegalovania_Data
     00027176  _song_newmegalovania27             song_newmegalovania_Data
     000272AB  _song_newmegalovania28             song_newmegalovania_Data
     000273C1  _song_newmegalovania29             song_newmegalovania_Data
     000274D7  _song_newmegalovania30             song_newmegalovania_Data
     000275ED  _song_newmegalovania31             song_newmegalovania_Data
     00027703  _song_newmegalovania32             song_newmegalovania_Data
     00027819  _song_newmegalovania33             song_newmegalovania_Data
     0002792F  _song_newmegalovania34             song_newmegalovania_Data
     00027A45  _song_newmegalovania35             song_newmegalovania_Data
     00027B6F  _song_newmegalovania36             song_newmegalovania_Data
     00027C83  _song_newmegalovania37             song_newmegalovania_Data
     00027D97  _song_newmegalovania38             song_newmegalovania_Data
     00027EAB  _song_newmegalovania39             song_newmegalovania_Data
     00027FAB  _song_newmegalovania_Data          song_newmegalovania_Data
     00027FFD  ___func_scene_101_sprites          scene_101_sprites
     00027FFD  _scene_101_sprites                 scene_101_sprites

ASxxxx Linker V03.00/V05.40 + sdld,  page 116.
Hexadecimal  [32-Bits]

Area                                    Addr        Size        Decimal Bytes (Attributes)
--------------------------------        ----        ----        ------- ----- ------------
_CODE_19                            00134000    00004000 =       16384. bytes (REL,CON)

      Value  Global                              Global Defined In Module
      -----  --------------------------------   ------------------------
     00134000  _projectiles_init                  projectiles
     0013402F  _projectile_launch                 projectiles
     00134429  _actor_11_interact                 actor_11_interact
     0013442C  GBVM$actor_11_interact$2f57631d_   actor_11_interact
     0013443E  GBVM$actor_11_interact$6db135a1_   actor_11_interact
     00134568  GBVM$actor_11_interact$faac8125_   actor_11_interact
     001346AE  GBVM$actor_11_interact$03ee4182_   actor_11_interact
     001346AE  GBVM_END$actor_11_interact$2f576   actor_11_interact
     00134704  GBVM$actor_11_interact$4ec2a023_   actor_11_interact
     0013470D  GBVM$actor_11_interact$8c3f6520_   actor_11_interact
     001347B0  GBVM$actor_11_interact$1031c574_   actor_11_interact
     0013482D  GBVM$actor_11_interact$0c81dd0f_   actor_11_interact
     0013487D  GBVM_END$actor_11_interact$4ec2a   actor_11_interact
     0013487E  _actor_19_interact                 actor_19_interact
     00134881  GBVM$actor_19_interact$dd7c1f19_   actor_19_interact
     0013488A  GBVM$actor_19_interact$e54995c6_   actor_19_interact
     001348F8  GBVM$actor_19_interact$ce919703_   actor_19_interact
     00134C6B  GBVM$actor_19_interact$83741991_   actor_19_interact
     00134CA6  GBVM$actor_19_interact$8b126717_   actor_19_interact
     00134CC9  GBVM$actor_19_interact$b9d5a0e7_   actor_19_interact
     00134CCE  GBVM_END$actor_19_interact$dd7c1   actor_19_interact
     00134CCF  ___func_bg_announcer_tileset       bg_announcer_tileset
     00134CCF  _bg_announcer_tileset              bg_announcer_tileset
     00135151  ___func_bg_announcer               bg_announcer
     00135151  _bg_announcer                      bg_announcer
     0013515F  ___func_bg_init_copy_2_tilemap_a   bg_init_copy_2_tilemap_attr
     0013515F  _bg_init_copy_2_tilemap_attr       bg_init_copy_2_tilemap_attr
     001355D3  ___func_bg_init_copy_2_tilemap     bg_init_copy_2_tilemap
     001355D3  _bg_init_copy_2_tilemap            bg_init_copy_2_tilemap
     00135A47  ___func_bg_pixil_frame_0_30_tile   bg_pixil_frame_0_30_tileset
     00135A47  _bg_pixil_frame_0_30_tileset       bg_pixil_frame_0_30_tileset
     00135BE9  ___func_bg_placeholder_copy_copy   bg_placeholder_copy_copy_co_
     00135BE9  _bg_placeholder_copy_copy_co_til   bg_placeholder_copy_copy_co_
     0013608B  ___func_scene_56_collisions        scene_56_collisions
     0013608B  _scene_56_collisions               scene_56_collisions
     0013653B  ___func_scene_77_collisions        scene_77_collisions
     0013653B  _scene_77_collisions               scene_77_collisions
     001369EB  ___func_scene_91_collisions        scene_91_collisions
     001369EB  _scene_91_collisions               scene_91_collisions
     00136E5F  _scene_91_init                     scene_91_init
     00136E62  GBVM$scene_91_init$e2e2b94a_4d61   scene_91_init
     00136E6C  GBVM$scene_91_init$70348248_2f63   scene_91_init
     00136E76  GBVM$scene_91_init$99f9177a_e1f8   scene_91_init
     00136E80  GBVM$scene_91_init$autofade$7936   scene_91_init
     00136E8B  GBVM$scene_91_init$f0af8fa9_5954   scene_91_init
     00136E97  GBVM$scene_91_init$e02d5b37_e6d2   scene_91_init
     00137033  GBVM$scene_91_init$468966f6_1b1e   scene_91_init
     0013703E  GBVM$scene_91_init$6666d375_ee09   scene_91_init
     00137057  GBVM$scene_91_init$1a30f6ca_3b26   scene_91_init
     0013724F  GBVM$scene_91_init$db1b0bec_431b   scene_91_init
ASxxxx Linker V03.00/V05.40 + sdld,  page 117.
Hexadecimal  [32-Bits]

Area                                    Addr        Size        Decimal Bytes (Attributes)
--------------------------------        ----        ----        ------- ----- ------------
_CODE_19                            00134000    00004000 =       16384. bytes (REL,CON)

      Value  Global                              Global Defined In Module
      -----  --------------------------------   ------------------------
     0013725B  GBVM$scene_91_init$4fbf6707_3a78   scene_91_init
     00137265  GBVM$scene_91_init$472270da_5ec5   scene_91_init
     0013727E  GBVM$scene_91_init$6d348af8_1efd   scene_91_init
     0013728A  GBVM$scene_91_init$77038ecd_9c69   scene_91_init
     00137294  GBVM$scene_91_init$fe8b3be6_6be5   scene_91_init
     0013729E  GBVM$scene_91_init$4655ecd7_8eda   scene_91_init
     001372A9  ___func_scene_93_collisions        scene_93_collisions
     001372A9  _scene_93_collisions               scene_93_collisions
     0013771D  ___func_scene_94_collisions        scene_94_collisions
     0013771D  _scene_94_collisions               scene_94_collisions
     00137B91  _trigger_95_interact               trigger_95_interact
     00137B94  GBVM$trigger_95_interact$ed1195f   trigger_95_interact
     00137BA7  GBVM$trigger_95_interact$ab08f0d   trigger_95_interact
     00137BB3  GBVM$trigger_95_interact$8520651   trigger_95_interact
     00137BBD  GBVM$trigger_95_interact$a3f7415   trigger_95_interact
     00137BC9  GBVM$trigger_95_interact$ae2eb50   trigger_95_interact
     00137D20  GBVM$trigger_95_interact$cf9beee   trigger_95_interact
     00137D2C  GBVM$trigger_95_interact$8d4379e   trigger_95_interact
     00137D38  GBVM$trigger_95_interact$8381f7d   trigger_95_interact
     00137DD1  GBVM$trigger_95_interact$50c852d   trigger_95_interact
     00137E1B  GBVM$trigger_95_interact$03e8837   trigger_95_interact
     00137EA1  GBVM$trigger_95_interact$db4df7c   trigger_95_interact
     00137EA6  GBVM$trigger_95_interact$dea51d1   trigger_95_interact
     00137EB1  GBVM$trigger_95_interact$b53f7f1   trigger_95_interact
     00137EF0  GBVM$trigger_95_interact$484c522   trigger_95_interact
     00137EF0  GBVM_END$trigger_95_interact$8d4   trigger_95_interact
     00137EF0  GBVM_END$trigger_95_interact$cf9   trigger_95_interact
     00137EFC  GBVM$trigger_95_interact$1cbcf34   trigger_95_interact
     00137F01  GBVM$trigger_95_interact$226d49a   trigger_95_interact
     00137F0D  GBVM$trigger_95_interact$b243a9b   trigger_95_interact
     00137F12  GBVM$trigger_95_interact$64d7bc2   trigger_95_interact
     00137F1E  GBVM$trigger_95_interact$4fe9e81   trigger_95_interact
     00137F23  GBVM$trigger_95_interact$7a3013b   trigger_95_interact
     00137F2F  GBVM$trigger_95_interact$5db9280   trigger_95_interact
     00137F34  GBVM$trigger_95_interact$ff1ec57   trigger_95_interact
     00137F40  GBVM$trigger_95_interact$3db92a2   trigger_95_interact
     00137F45  GBVM$trigger_95_interact$1948217   trigger_95_interact
     00137F51  GBVM$trigger_95_interact$816440b   trigger_95_interact
     00137F56  GBVM$trigger_95_interact$fefd17e   trigger_95_interact
     00137F62  GBVM$trigger_95_interact$4f99721   trigger_95_interact
     00137F67  GBVM$trigger_95_interact$c8e8ac9   trigger_95_interact
     00137F73  GBVM$trigger_95_interact$7d7c4dd   trigger_95_interact
     00137F78  GBVM$trigger_95_interact$68bf7c7   trigger_95_interact
     00137F84  GBVM$trigger_95_interact$d8253eb   trigger_95_interact
     00137F89  GBVM$trigger_95_interact$e4be23c   trigger_95_interact
     00137F95  GBVM$trigger_95_interact$04cae2b   trigger_95_interact
     00137F9A  GBVM$trigger_95_interact$4e3aba3   trigger_95_interact
     00137FA6  GBVM$trigger_95_interact$79ad486   trigger_95_interact
     00137FAB  GBVM$trigger_95_interact$c2da34e   trigger_95_interact
     00137FB7  GBVM$trigger_95_interact$f8bd9a5   trigger_95_interact
     00137FBC  GBVM$trigger_95_interact$2053af6   trigger_95_interact
ASxxxx Linker V03.00/V05.40 + sdld,  page 118.
Hexadecimal  [32-Bits]

Area                                    Addr        Size        Decimal Bytes (Attributes)
--------------------------------        ----        ----        ------- ----- ------------
_CODE_19                            00134000    00004000 =       16384. bytes (REL,CON)

      Value  Global                              Global Defined In Module
      -----  --------------------------------   ------------------------
     00137FC8  GBVM$trigger_95_interact$f96f83e   trigger_95_interact
     00137FCD  GBVM$trigger_95_interact$1cfa489   trigger_95_interact

ASxxxx Linker V03.00/V05.40 + sdld,  page 119.
Hexadecimal  [32-Bits]

Area                                    Addr        Size        Decimal Bytes (Attributes)
--------------------------------        ----        ----        ------- ----- ------------
_CODE_29                            001D4000    00003FFE =       16382. bytes (REL,CON)

      Value  Global                              Global Defined In Module
      -----  --------------------------------   ------------------------
     001D4000  _scroll_rect                       
     001D403D  _actor_14_interact                 actor_14_interact
     001D4040  GBVM$actor_14_interact$b19a546f_   actor_14_interact
     001D4073  _actor_17_interact                 actor_17_interact
     001D4076  GBVM$actor_17_interact$20918770_   actor_17_interact
     001D40A9  _actor_32_interact                 actor_32_interact
     001D40AA  GBVM$actor_32_interact$61c485fd_   actor_32_interact
     001D40E3  _actor_36_interact                 actor_36_interact
     001D40E4  GBVM$actor_36_interact$e1469949_   actor_36_interact
     001D411D  _actor_37_interact                 actor_37_interact
     001D411E  GBVM$actor_37_interact$4a71bbeb_   actor_37_interact
     001D4157  _actor_46_interact                 actor_46_interact
     001D415A  GBVM$actor_46_interact$210d807d_   actor_46_interact
     001D418D  _actor_47_interact                 actor_47_interact
     001D4190  GBVM$actor_47_interact$faa7bf45_   actor_47_interact
     001D41C3  ___func_bg_intro_scenary_copy__t   bg_intro_scenary_copy__tiles
     001D41C3  _bg_intro_scenary_copy__tileset    bg_intro_scenary_copy__tiles
     001D4205  ___func_emote_shock                emote_shock
     001D4205  _emote_shock                       emote_shock
     001D4245  ___func_palette_19                 palette_19
     001D4245  _palette_19                        palette_19
     001D4288  ___func_palette_2                  palette_2
     001D4288  _palette_2                         palette_2
     001D42CB  ___func_palette_20                 palette_20
     001D42CB  _palette_20                        palette_20
     001D430E  ___func_palette_21                 palette_21
     001D430E  _palette_21                        palette_21
     001D4351  ___func_palette_22                 palette_22
     001D4351  _palette_22                        palette_22
     001D4394  ___func_palette_23                 palette_23
     001D4394  _palette_23                        palette_23
     001D43D7  ___func_palette_24                 palette_24
     001D43D7  _palette_24                        palette_24
     001D441A  ___func_palette_25                 palette_25
     001D441A  _palette_25                        palette_25
     001D445D  ___func_palette_26                 palette_26
     001D445D  _palette_26                        palette_26
     001D44A0  ___func_palette_27                 palette_27
     001D44A0  _palette_27                        palette_27
     001D44E3  ___func_palette_28                 palette_28
     001D44E3  _palette_28                        palette_28
     001D4526  ___func_palette_29                 palette_29
     001D4526  _palette_29                        palette_29
     001D4569  ___func_palette_3                  palette_3
     001D4569  _palette_3                         palette_3
     001D45AC  ___func_palette_30                 palette_30
     001D45AC  _palette_30                        palette_30
     001D45EF  ___func_palette_31                 palette_31
     001D45EF  _palette_31                        palette_31
     001D4632  ___func_palette_32                 palette_32
ASxxxx Linker V03.00/V05.40 + sdld,  page 120.
Hexadecimal  [32-Bits]

Area                                    Addr        Size        Decimal Bytes (Attributes)
--------------------------------        ----        ----        ------- ----- ------------
_CODE_29                            001D4000    00003FFE =       16382. bytes (REL,CON)

      Value  Global                              Global Defined In Module
      -----  --------------------------------   ------------------------
     001D4632  _palette_32                        palette_32
     001D4675  ___func_palette_33                 palette_33
     001D4675  _palette_33                        palette_33
     001D46B8  ___func_palette_34                 palette_34
     001D46B8  _palette_34                        palette_34
     001D46FB  ___func_palette_35                 palette_35
     001D46FB  _palette_35                        palette_35
     001D473E  ___func_palette_36                 palette_36
     001D473E  _palette_36                        palette_36
     001D4781  ___func_palette_37                 palette_37
     001D4781  _palette_37                        palette_37
     001D47C4  ___func_palette_38                 palette_38
     001D47C4  _palette_38                        palette_38
     001D4807  ___func_palette_39                 palette_39
     001D4807  _palette_39                        palette_39
     001D484A  ___func_palette_4                  palette_4
     001D484A  _palette_4                         palette_4
     001D488D  ___func_palette_40                 palette_40
     001D488D  _palette_40                        palette_40
     001D48D0  ___func_palette_41                 palette_41
     001D48D0  _palette_41                        palette_41
     001D4913  ___func_palette_42                 palette_42
     001D4913  _palette_42                        palette_42
     001D4956  ___func_palette_43                 palette_43
     001D4956  _palette_43                        palette_43
     001D4999  ___func_palette_44                 palette_44
     001D4999  _palette_44                        palette_44
     001D49DC  ___func_palette_45                 palette_45
     001D49DC  _palette_45                        palette_45
     001D4A1F  ___func_palette_46                 palette_46
     001D4A1F  _palette_46                        palette_46
     001D4A62  ___func_palette_47                 palette_47
     001D4A62  _palette_47                        palette_47
     001D4AA5  ___func_palette_48                 palette_48
     001D4AA5  _palette_48                        palette_48
     001D4AE8  ___func_palette_49                 palette_49
     001D4AE8  _palette_49                        palette_49
     001D4B2B  ___func_palette_5                  palette_5
     001D4B2B  _palette_5                         palette_5
     001D4B6E  ___func_palette_50                 palette_50
     001D4B6E  _palette_50                        palette_50
     001D4BB1  ___func_palette_51                 palette_51
     001D4BB1  _palette_51                        palette_51
     001D4BF4  ___func_palette_52                 palette_52
     001D4BF4  _palette_52                        palette_52
     001D4C37  ___func_palette_53                 palette_53
     001D4C37  _palette_53                        palette_53
     001D4C7A  ___func_palette_54                 palette_54
     001D4C7A  _palette_54                        palette_54
     001D4CBD  ___func_palette_55                 palette_55
     001D4CBD  _palette_55                        palette_55
ASxxxx Linker V03.00/V05.40 + sdld,  page 121.
Hexadecimal  [32-Bits]

Area                                    Addr        Size        Decimal Bytes (Attributes)
--------------------------------        ----        ----        ------- ----- ------------
_CODE_29                            001D4000    00003FFE =       16382. bytes (REL,CON)

      Value  Global                              Global Defined In Module
      -----  --------------------------------   ------------------------
     001D4D00  ___func_palette_56                 palette_56
     001D4D00  _palette_56                        palette_56
     001D4D43  ___func_palette_57                 palette_57
     001D4D43  _palette_57                        palette_57
     001D4D86  ___func_palette_58                 palette_58
     001D4D86  _palette_58                        palette_58
     001D4DC9  ___func_palette_59                 palette_59
     001D4DC9  _palette_59                        palette_59
     001D4E0C  ___func_palette_6                  palette_6
     001D4E0C  _palette_6                         palette_6
     001D4E4F  ___func_palette_60                 palette_60
     001D4E4F  _palette_60                        palette_60
     001D4E92  ___func_palette_61                 palette_61
     001D4E92  _palette_61                        palette_61
     001D4ED5  ___func_palette_62                 palette_62
     001D4ED5  _palette_62                        palette_62
     001D4F18  ___func_palette_63                 palette_63
     001D4F18  _palette_63                        palette_63
     001D4F5B  ___func_palette_64                 palette_64
     001D4F5B  _palette_64                        palette_64
     001D4F9E  ___func_palette_65                 palette_65
     001D4F9E  _palette_65                        palette_65
     001D4FE1  ___func_palette_66                 palette_66
     001D4FE1  _palette_66                        palette_66
     001D5024  ___func_palette_67                 palette_67
     001D5024  _palette_67                        palette_67
     001D5067  ___func_palette_68                 palette_68
     001D5067  _palette_68                        palette_68
     001D50AA  ___func_palette_69                 palette_69
     001D50AA  _palette_69                        palette_69
     001D50ED  ___func_palette_7                  palette_7
     001D50ED  _palette_7                         palette_7
     001D5130  ___func_palette_70                 palette_70
     001D5130  _palette_70                        palette_70
     001D5173  ___func_palette_8                  palette_8
     001D5173  _palette_8                         palette_8
     001D51B6  ___func_palette_9                  palette_9
     001D51B6  _palette_9                         palette_9
     001D51F9  ___func_scene_0                    scene_0
     001D51F9  _scene_0                           scene_0
     001D5234  _scene_1_init                      scene_1_init
     001D5237  GBVM$scene_1_init$autofade$acbf8   scene_1_init
     001D5242  GBVM$scene_1_init$90878362_b6c9_   scene_1_init
     001D5244  GBVM$scene_1_init$e0ece37a_2cb7_   scene_1_init
     001D5277  ___func_scene_1                    scene_1
     001D5277  _scene_1                           scene_1
     001D52B2  ___func_scene_10                   scene_10
     001D52B2  _scene_10                          scene_10
     001D52ED  ___func_scene_100                  scene_100
     001D52ED  _scene_100                         scene_100
     001D5328  ___func_scene_101                  scene_101
ASxxxx Linker V03.00/V05.40 + sdld,  page 122.
Hexadecimal  [32-Bits]

Area                                    Addr        Size        Decimal Bytes (Attributes)
--------------------------------        ----        ----        ------- ----- ------------
_CODE_29                            001D4000    00003FFE =       16382. bytes (REL,CON)

      Value  Global                              Global Defined In Module
      -----  --------------------------------   ------------------------
     001D5328  _scene_101                         scene_101
     001D5363  ___func_scene_102                  scene_102
     001D5363  _scene_102                         scene_102
     001D539E  ___func_scene_103                  scene_103
     001D539E  _scene_103                         scene_103
     001D53D9  _scene_11_init                     scene_11_init
     001D53DC  GBVM$scene_11_init$autofade$d3df   scene_11_init
     001D53E7  GBVM$scene_11_init$7c0e35e0_e9bc   scene_11_init
     001D53E9  GBVM$scene_11_init$be180146_714d   scene_11_init
     001D541C  ___func_scene_11                   scene_11
     001D541C  _scene_11                          scene_11
     001D5457  ___func_scene_12                   scene_12
     001D5457  _scene_12                          scene_12
     001D5492  ___func_scene_13                   scene_13
     001D5492  _scene_13                          scene_13
     001D54CD  ___func_scene_14                   scene_14
     001D54CD  _scene_14                          scene_14
     001D5508  ___func_scene_15                   scene_15
     001D5508  _scene_15                          scene_15
     001D5543  ___func_scene_16                   scene_16
     001D5543  _scene_16                          scene_16
     001D557E  ___func_scene_17                   scene_17
     001D557E  _scene_17                          scene_17
     001D55B9  ___func_scene_18                   scene_18
     001D55B9  _scene_18                          scene_18
     001D55F4  ___func_scene_19                   scene_19
     001D55F4  _scene_19                          scene_19
     001D562F  _scene_2_init                      scene_2_init
     001D5632  GBVM$scene_2_init$cfcfe412_89ac_   scene_2_init
     001D5637  GBVM$scene_2_init$6794814f_caef_   scene_2_init
     001D5639  GBVM$scene_2_init$fe03defa_8c2c_   scene_2_init
     001D5643  GBVM$scene_2_init$11b74723_07ec_   scene_2_init
     001D564B  GBVM$scene_2_init$b916dd51_674c_   scene_2_init
     001D564B  GBVM_END$scene_2_init$11b74723_0   scene_2_init
     001D5653  GBVM$scene_2_init$4b99ebdd_1a30_   scene_2_init
     001D5653  GBVM_END$scene_2_init$b916dd51_6   scene_2_init
     001D565B  GBVM$scene_2_init$20f47ec9_9ac5_   scene_2_init
     001D565B  GBVM_END$scene_2_init$4b99ebdd_1   scene_2_init
     001D5663  GBVM$scene_2_init$autofade$bbb2e   scene_2_init
     001D5663  GBVM_END$scene_2_init$20f47ec9_9   scene_2_init
     001D566F  ___func_scene_2                    scene_2
     001D566F  _scene_2                           scene_2
     001D56AA  ___func_scene_20                   scene_20
     001D56AA  _scene_20                          scene_20
     001D56E5  ___func_scene_21                   scene_21
     001D56E5  _scene_21                          scene_21
     001D5720  ___func_scene_22                   scene_22
     001D5720  _scene_22                          scene_22
     001D575B  ___func_scene_23                   scene_23
     001D575B  _scene_23                          scene_23
     001D5796  ___func_scene_24                   scene_24
ASxxxx Linker V03.00/V05.40 + sdld,  page 123.
Hexadecimal  [32-Bits]

Area                                    Addr        Size        Decimal Bytes (Attributes)
--------------------------------        ----        ----        ------- ----- ------------
_CODE_29                            001D4000    00003FFE =       16382. bytes (REL,CON)

      Value  Global                              Global Defined In Module
      -----  --------------------------------   ------------------------
     001D5796  _scene_24                          scene_24
     001D57D1  _scene_25_init                     scene_25_init
     001D57D4  GBVM$scene_25_init$autofade$6191   scene_25_init
     001D57DF  GBVM$scene_25_init$2e962bb2_156d   scene_25_init
     001D57E1  GBVM$scene_25_init$6e92f275_c8ee   scene_25_init
     001D5814  ___func_scene_25                   scene_25
     001D5814  _scene_25                          scene_25
     001D584F  ___func_scene_26                   scene_26
     001D584F  _scene_26                          scene_26
     001D588A  ___func_scene_27                   scene_27
     001D588A  _scene_27                          scene_27
     001D58C5  ___func_scene_28                   scene_28
     001D58C5  _scene_28                          scene_28
     001D5900  ___func_scene_29                   scene_29
     001D5900  _scene_29                          scene_29
     001D593B  _scene_3_init                      scene_3_init
     001D593E  GBVM$scene_3_init$46e05d9d_ab4a_   scene_3_init
     001D593E  GBVM$scene_3_init$9f2deb81_2104_   scene_3_init
     001D5948  GBVM$scene_3_init$8540f10f_090c_   scene_3_init
     001D594D  GBVM$scene_3_init$2b0579bc_b076_   scene_3_init
     001D5956  GBVM$scene_3_init$fd0fba91_0f36_   scene_3_init
     001D595E  GBVM$scene_3_init$1637301d_7d81_   scene_3_init
     001D595E  GBVM_END$scene_3_init$fd0fba91_0   scene_3_init
     001D5966  GBVM$scene_3_init$71340fd5_92f2_   scene_3_init
     001D5966  GBVM_END$scene_3_init$1637301d_7   scene_3_init
     001D596E  GBVM$scene_3_init$autofade$b4341   scene_3_init
     001D596E  GBVM_END$scene_3_init$71340fd5_9   scene_3_init
     001D597A  ___func_scene_3                    scene_3
     001D597A  _scene_3                           scene_3
     001D59B5  ___func_scene_30                   scene_30
     001D59B5  _scene_30                          scene_30
     001D59F0  ___func_scene_31                   scene_31
     001D59F0  _scene_31                          scene_31
     001D5A2B  ___func_scene_32                   scene_32
     001D5A2B  _scene_32                          scene_32
     001D5A66  ___func_scene_33_sprites           scene_33_sprites
     001D5A66  _scene_33_sprites                  scene_33_sprites
     001D5A69  ___func_scene_33                   scene_33
     001D5A69  _scene_33                          scene_33
     001D5AA4  ___func_scene_34                   scene_34
     001D5AA4  _scene_34                          scene_34
     001D5ADF  ___func_scene_35                   scene_35
     001D5ADF  _scene_35                          scene_35
     001D5B1A  ___func_scene_37                   scene_37
     001D5B1A  _scene_37                          scene_37
     001D5B55  ___func_scene_38                   scene_38
     001D5B55  _scene_38                          scene_38
     001D5B90  ___func_scene_39                   scene_39
     001D5B90  _scene_39                          scene_39
     001D5BCB  ___func_scene_4                    scene_4
     001D5BCB  _scene_4                           scene_4
ASxxxx Linker V03.00/V05.40 + sdld,  page 124.
Hexadecimal  [32-Bits]

Area                                    Addr        Size        Decimal Bytes (Attributes)
--------------------------------        ----        ----        ------- ----- ------------
_CODE_29                            001D4000    00003FFE =       16382. bytes (REL,CON)

      Value  Global                              Global Defined In Module
      -----  --------------------------------   ------------------------
     001D5C06  ___func_scene_40                   scene_40
     001D5C06  _scene_40                          scene_40
     001D5C41  ___func_scene_41                   scene_41
     001D5C41  _scene_41                          scene_41
     001D5C7C  ___func_scene_42                   scene_42
     001D5C7C  _scene_42                          scene_42
     001D5CB7  ___func_scene_43                   scene_43
     001D5CB7  _scene_43                          scene_43
     001D5CF2  ___func_scene_44                   scene_44
     001D5CF2  _scene_44                          scene_44
     001D5D2D  ___func_scene_45                   scene_45
     001D5D2D  _scene_45                          scene_45
     001D5D68  ___func_scene_46                   scene_46
     001D5D68  _scene_46                          scene_46
     001D5DA3  ___func_scene_47                   scene_47
     001D5DA3  _scene_47                          scene_47
     001D5DDE  ___func_scene_48                   scene_48
     001D5DDE  _scene_48                          scene_48
     001D5E19  ___func_scene_49_triggers          scene_49_triggers
     001D5E19  _scene_49_triggers                 scene_49_triggers
     001D5E59  ___func_scene_49                   scene_49
     001D5E59  _scene_49                          scene_49
     001D5E94  _scene_5_init                      scene_5_init
     001D5E97  GBVM$scene_5_init$autofade$dd30a   scene_5_init
     001D5EA2  GBVM$scene_5_init$c354a602_0ca0_   scene_5_init
     001D5EA4  GBVM$scene_5_init$0583ea31_1033_   scene_5_init
     001D5ED7  ___func_scene_5                    scene_5
     001D5ED7  _scene_5                           scene_5
     001D5F12  ___func_scene_50                   scene_50
     001D5F12  _scene_50                          scene_50
     001D5F4D  ___func_scene_51                   scene_51
     001D5F4D  _scene_51                          scene_51
     001D5F88  ___func_scene_52                   scene_52
     001D5F88  _scene_52                          scene_52
     001D5FC3  ___func_scene_53                   scene_53
     001D5FC3  _scene_53                          scene_53
     001D5FFE  ___func_scene_54                   scene_54
     001D5FFE  _scene_54                          scene_54
     001D6039  ___func_scene_55                   scene_55
     001D6039  _scene_55                          scene_55
     001D6074  ___func_scene_56                   scene_56
     001D6074  _scene_56                          scene_56
     001D60AF  ___func_scene_57                   scene_57
     001D60AF  _scene_57                          scene_57
     001D60EA  ___func_scene_58                   scene_58
     001D60EA  _scene_58                          scene_58
     001D6125  ___func_scene_59                   scene_59
     001D6125  _scene_59                          scene_59
     001D6160  _scene_6_init                      scene_6_init
     001D6163  GBVM$scene_6_init$autofade$dfecf   scene_6_init
     001D616E  GBVM$scene_6_init$335c1883_ea5f_   scene_6_init
ASxxxx Linker V03.00/V05.40 + sdld,  page 125.
Hexadecimal  [32-Bits]

Area                                    Addr        Size        Decimal Bytes (Attributes)
--------------------------------        ----        ----        ------- ----- ------------
_CODE_29                            001D4000    00003FFE =       16382. bytes (REL,CON)

      Value  Global                              Global Defined In Module
      -----  --------------------------------   ------------------------
     001D6170  GBVM$scene_6_init$658a8332_3df7_   scene_6_init
     001D61A3  ___func_scene_6                    scene_6
     001D61A3  _scene_6                           scene_6
     001D61DE  ___func_scene_60                   scene_60
     001D61DE  _scene_60                          scene_60
     001D6219  ___func_scene_61                   scene_61
     001D6219  _scene_61                          scene_61
     001D6254  ___func_scene_62                   scene_62
     001D6254  _scene_62                          scene_62
     001D628F  ___func_scene_63                   scene_63
     001D628F  _scene_63                          scene_63
     001D62CA  ___func_scene_64                   scene_64
     001D62CA  _scene_64                          scene_64
     001D6305  ___func_scene_65                   scene_65
     001D6305  _scene_65                          scene_65
     001D6340  ___func_scene_66                   scene_66
     001D6340  _scene_66                          scene_66
     001D637B  ___func_scene_67                   scene_67
     001D637B  _scene_67                          scene_67
     001D63B6  ___func_scene_68                   scene_68
     001D63B6  _scene_68                          scene_68
     001D63F1  ___func_scene_69                   scene_69
     001D63F1  _scene_69                          scene_69
     001D642C  ___func_scene_7                    scene_7
     001D642C  _scene_7                           scene_7
     001D6467  ___func_scene_70                   scene_70
     001D6467  _scene_70                          scene_70
     001D64A2  ___func_scene_71                   scene_71
     001D64A2  _scene_71                          scene_71
     001D64DD  ___func_scene_72                   scene_72
     001D64DD  _scene_72                          scene_72
     001D6518  ___func_scene_73                   scene_73
     001D6518  _scene_73                          scene_73
     001D6553  ___func_scene_74                   scene_74
     001D6553  _scene_74                          scene_74
     001D658E  ___func_scene_75                   scene_75
     001D658E  _scene_75                          scene_75
     001D65C9  ___func_scene_76                   scene_76
     001D65C9  _scene_76                          scene_76
     001D6604  ___func_scene_77                   scene_77
     001D6604  _scene_77                          scene_77
     001D663F  ___func_scene_78                   scene_78
     001D663F  _scene_78                          scene_78
     001D667A  ___func_scene_79                   scene_79
     001D667A  _scene_79                          scene_79
     001D66B5  _scene_8_init                      scene_8_init
     001D66B8  GBVM$scene_8_init$autofade$4e26a   scene_8_init
     001D66C3  GBVM$scene_8_init$aa7e2909_2949_   scene_8_init
     001D66C5  GBVM$scene_8_init$a8b1a889_3124_   scene_8_init
     001D66F8  ___func_scene_8                    scene_8
     001D66F8  _scene_8                           scene_8
ASxxxx Linker V03.00/V05.40 + sdld,  page 126.
Hexadecimal  [32-Bits]

Area                                    Addr        Size        Decimal Bytes (Attributes)
--------------------------------        ----        ----        ------- ----- ------------
_CODE_29                            001D4000    00003FFE =       16382. bytes (REL,CON)

      Value  Global                              Global Defined In Module
      -----  --------------------------------   ------------------------
     001D6733  ___func_scene_80                   scene_80
     001D6733  _scene_80                          scene_80
     001D676E  ___func_scene_81                   scene_81
     001D676E  _scene_81                          scene_81
     001D67A9  ___func_scene_82                   scene_82
     001D67A9  _scene_82                          scene_82
     001D67E4  ___func_scene_83                   scene_83
     001D67E4  _scene_83                          scene_83
     001D681F  ___func_scene_84                   scene_84
     001D681F  _scene_84                          scene_84
     001D685A  ___func_scene_85                   scene_85
     001D685A  _scene_85                          scene_85
     001D6895  ___func_scene_86                   scene_86
     001D6895  _scene_86                          scene_86
     001D68D0  ___func_scene_87                   scene_87
     001D68D0  _scene_87                          scene_87
     001D690B  ___func_scene_88                   scene_88
     001D690B  _scene_88                          scene_88
     001D6946  ___func_scene_89                   scene_89
     001D6946  _scene_89                          scene_89
     001D6981  _scene_9_init                      scene_9_init
     001D6984  GBVM$scene_9_init$autofade$5627d   scene_9_init
     001D698F  GBVM$scene_9_init$2f89926b_d846_   scene_9_init
     001D6991  GBVM$scene_9_init$4d4fe2a0_e360_   scene_9_init
     001D69C4  ___func_scene_9                    scene_9
     001D69C4  _scene_9                           scene_9
     001D69FF  ___func_scene_90                   scene_90
     001D69FF  _scene_90                          scene_90
     001D6A3A  ___func_scene_91                   scene_91
     001D6A3A  _scene_91                          scene_91
     001D6A75  ___func_scene_92                   scene_92
     001D6A75  _scene_92                          scene_92
     001D6AB0  ___func_scene_93                   scene_93
     001D6AB0  _scene_93                          scene_93
     001D6AEB  ___func_scene_94                   scene_94
     001D6AEB  _scene_94                          scene_94
     001D6B26  ___func_scene_95                   scene_95
     001D6B26  _scene_95                          scene_95
     001D6B61  ___func_scene_96                   scene_96
     001D6B61  _scene_96                          scene_96
     001D6B9C  ___func_scene_97                   scene_97
     001D6B9C  _scene_97                          scene_97
     001D6BD7  ___func_scene_98                   scene_98
     001D6BD7  _scene_98                          scene_98
     001D6C12  ___func_scene_99                   scene_99
     001D6C12  _scene_99                          scene_99
     001D6C4D  GBVM$script_timer_0$2f5b301e_889   script_timer_0
     001D6C4D  _script_timer_0                    script_timer_0
     001D6C55  GBVM$script_timer_0$0f8abb82_152   script_timer_0
     001D6C5D  GBVM$script_timer_0$d4f918fc_f37   script_timer_0
     001D6C6F  GBVM$script_timer_0$182f11e3_e74   script_timer_0
ASxxxx Linker V03.00/V05.40 + sdld,  page 127.
Hexadecimal  [32-Bits]

Area                                    Addr        Size        Decimal Bytes (Attributes)
--------------------------------        ----        ----        ------- ----- ------------
_CODE_29                            001D4000    00003FFE =       16382. bytes (REL,CON)

      Value  Global                              Global Defined In Module
      -----  --------------------------------   ------------------------
     001D6C74  GBVM$script_timer_0$9be5b23c_52a   script_timer_0
     001D6C7C  GBVM$script_timer_0$63b7fefa_27e   script_timer_0
     001D6C81  GBVM$script_timer_0$46cb08d0_a14   script_timer_0
     001D6C86  GBVM_END$script_timer_0$d4f918fc   script_timer_0
     001D6C87  _script_timer_11                   script_timer_11
     001D6C89  GBVM$script_timer_11$3f0f6a6d_16   script_timer_11
     001D6C90  GBVM$script_timer_11$f0f10dd3_98   script_timer_11
     001D6CAA  GBVM$script_timer_11$0737bfb4_0c   script_timer_11
     001D6CC7  _script_timer_12                   script_timer_12
     001D6CC9  GBVM$script_timer_12$99299a70_08   script_timer_12
     001D6CD0  GBVM$script_timer_12$58b89161_f1   script_timer_12
     001D6CEA  GBVM$script_timer_12$bec85140_44   script_timer_12
     001D6D07  _script_timer_3                    script_timer_3
     001D6D09  GBVM$script_timer_3$fa984c70_65f   script_timer_3
     001D6D25  GBVM$script_timer_3$1324658c_d03   script_timer_3
     001D6D41  GBVM$script_timer$3f1f2645_84f6_   script_timer
     001D6D41  _script_timer                      script_timer
     001D6D49  GBVM$script_timer$a2f80124_cdda_   script_timer
     001D6D51  GBVM$script_timer$09017a49_e1d0_   script_timer
     001D6D63  GBVM$script_timer$d2966a0b_5232_   script_timer
     001D6D68  GBVM$script_timer$2c7c07e2_0e6a_   script_timer
     001D6D70  GBVM$script_timer$eb1b15b1_4f02_   script_timer
     001D6D75  GBVM$script_timer$1c12bf3f_173d_   script_timer
     001D6D7A  GBVM_END$script_timer$09017a49_e   script_timer
     001D6D7B  ___func_sprite_blank_interactabl   sprite_blank_interactable_c_
     001D6D7B  _sprite_blank_interactable_c_0_m   sprite_blank_interactable_c_
     001D6D97  _sprite_blank_interactable_c_0_m   sprite_blank_interactable_c_
     001D6D99  _sprite_blank_interactable_c_0_a   sprite_blank_interactable_c_
     001D6DA9  _sprite_blank_interactable_c_0_a   sprite_blank_interactable_c_
     001D6DAB  _sprite_blank_interactable_c_0     sprite_blank_interactable_c_
     001D6DBE  ___func_sprite_blank_interactabl   sprite_blank_interactable_c_
     001D6DBE  _sprite_blank_interactable_c_til   sprite_blank_interactable_c_
     001D6E00  ___func_sprite_car_tileset         sprite_car_tileset
     001D6E00  _sprite_car_tileset                sprite_car_tileset
     001D6E42  ___func_sprite_cataa_tileset       sprite_cataa_tileset
     001D6E42  _sprite_cataa_tileset              sprite_cataa_tileset
     001D6E84  ___func_sprite_dhilly_5_level_co   sprite_dhilly_5_level_copy_
     001D6E84  _sprite_dhilly_5_level_copy__met   sprite_dhilly_5_level_copy_
     001D6EA0  _sprite_dhilly_5_level_copy__met   sprite_dhilly_5_level_copy_
     001D6EA2  _sprite_dhilly_5_level_copy__ani   sprite_dhilly_5_level_copy_
     001D6EB2  _sprite_dhilly_5_level_copy__ani   sprite_dhilly_5_level_copy_
     001D6EB4  _sprite_dhilly_5_level_copy_       sprite_dhilly_5_level_copy_
     001D6EC7  ___func_sprite_dhilly_saveselect   sprite_dhilly_saveselect_co_
     001D6EC7  _sprite_dhilly_saveselect_co_1_t   sprite_dhilly_saveselect_co_
     001D6F09  ___func_sprite_iceosapp_ctf_copy   sprite_iceosapp_ctf_copy_0_t
     001D6F09  _sprite_iceosapp_ctf_copy_0_tile   sprite_iceosapp_ctf_copy_0_t
     001D6F4B  ___func_sprite_iceosapp_wveruner   sprite_iceosapp_wveruner_co_
     001D6F4B  _sprite_iceosapp_wveruner_co_til   sprite_iceosapp_wveruner_co_
     001D6F8D  ___func_sprite_knife_down_copy__   sprite_knife_down_copy__tile
     001D6F8D  _sprite_knife_down_copy__tileset   sprite_knife_down_copy__tile
     001D6FCF  ___func_sprite_mzdesigns_tileset   sprite_mzdesigns_tileset
ASxxxx Linker V03.00/V05.40 + sdld,  page 128.
Hexadecimal  [32-Bits]

Area                                    Addr        Size        Decimal Bytes (Attributes)
--------------------------------        ----        ----        ------- ----- ------------
_CODE_29                            001D4000    00003FFE =       16382. bytes (REL,CON)

      Value  Global                              Global Defined In Module
      -----  --------------------------------   ------------------------
     001D6FCF  _sprite_mzdesigns_tileset          sprite_mzdesigns_tileset
     001D7011  ___func_sprite_shapiro_tileset     sprite_shapiro_tileset
     001D7011  _sprite_shapiro_tileset            sprite_shapiro_tileset
     001D7053  ___func_sprite_shapiro             sprite_shapiro
     001D7053  _sprite_shapiro_metasprite_0       sprite_shapiro
     001D705F  _sprite_shapiro_metasprite_1       sprite_shapiro
     001D7063  _sprite_shapiro_metasprites        sprite_shapiro
     001D7067  _sprite_shapiro_animations         sprite_shapiro
     001D7077  _sprite_shapiro_animations_looku   sprite_shapiro
     001D7079  _sprite_shapiro                    sprite_shapiro
     001D708C  ___func_sprite_square_cart_copy_   sprite_square_cart_copy_
     001D708C  _sprite_square_cart_copy__metasp   sprite_square_cart_copy_
     001D70A8  _sprite_square_cart_copy__metasp   sprite_square_cart_copy_
     001D70AA  _sprite_square_cart_copy__animat   sprite_square_cart_copy_
     001D70BA  _sprite_square_cart_copy__animat   sprite_square_cart_copy_
     001D70BC  _sprite_square_cart_copy_          sprite_square_cart_copy_
     001D70CF  ___func_sprite_square_full_hitbo   sprite_square_full_hitbox_c_
     001D70CF  _sprite_square_full_hitbox_c_3_t   sprite_square_full_hitbox_c_
     001D7111  ___func_sprite_square_full_hitbo   sprite_square_full_hitbox_c_
     001D7111  _sprite_square_full_hitbox_c_5_m   sprite_square_full_hitbox_c_
     001D7125  _sprite_square_full_hitbox_c_5_m   sprite_square_full_hitbox_c_
     001D7127  _sprite_square_full_hitbox_c_5_a   sprite_square_full_hitbox_c_
     001D7137  _sprite_square_full_hitbox_c_5_a   sprite_square_full_hitbox_c_
     001D7139  _sprite_square_full_hitbox_c_5     sprite_square_full_hitbox_c_
     001D714C  ___func_sprite_static_copy_0_til   sprite_static_copy_0_tileset
     001D714C  _sprite_static_copy_0_tileset      sprite_static_copy_0_tileset
     001D718E  ___func_sprite_static_copy_tiles   sprite_static_copy_tileset
     001D718E  _sprite_static_copy_tileset        sprite_static_copy_tileset
     001D71D0  _trigger_0_interact                trigger_0_interact
     001D71D3  GBVM$trigger_0_interact$e044ddc5   trigger_0_interact
     001D7206  _trigger_100_interact              trigger_100_interact
     001D7209  GBVM$trigger_100_interact$21da02   trigger_100_interact
     001D723C  _trigger_104_interact              trigger_104_interact
     001D723F  GBVM$trigger_104_interact$01e2c8   trigger_104_interact
     001D7272  _trigger_107_interact              trigger_107_interact
     001D7275  GBVM$trigger_107_interact$041e9b   trigger_107_interact
     001D72A8  _trigger_116_interact              trigger_116_interact
     001D72AB  GBVM$trigger_116_interact$617696   trigger_116_interact
     001D72DE  _trigger_117_interact              trigger_117_interact
     001D72E1  GBVM$trigger_117_interact$cfe9fc   trigger_117_interact
     001D7314  _trigger_118_interact              trigger_118_interact
     001D7317  GBVM$trigger_118_interact$3d9ecb   trigger_118_interact
     001D734A  _trigger_119_interact              trigger_119_interact
     001D734D  GBVM$trigger_119_interact$131028   trigger_119_interact
     001D7380  _trigger_12_interact               trigger_12_interact
     001D7383  GBVM$trigger_12_interact$25a4b66   trigger_12_interact
     001D73B6  _trigger_125_interact              trigger_125_interact
     001D73B9  GBVM$trigger_125_interact$1568ab   trigger_125_interact
     001D73EC  _trigger_127_interact              trigger_127_interact
     001D73EF  GBVM$trigger_127_interact$da9b7d   trigger_127_interact
     001D7422  _trigger_128_interact              trigger_128_interact
ASxxxx Linker V03.00/V05.40 + sdld,  page 129.
Hexadecimal  [32-Bits]

Area                                    Addr        Size        Decimal Bytes (Attributes)
--------------------------------        ----        ----        ------- ----- ------------
_CODE_29                            001D4000    00003FFE =       16382. bytes (REL,CON)

      Value  Global                              Global Defined In Module
      -----  --------------------------------   ------------------------
     001D7425  GBVM$trigger_128_interact$122aec   trigger_128_interact
     001D7458  _trigger_13_interact               trigger_13_interact
     001D745B  GBVM$trigger_13_interact$3ee20ca   trigger_13_interact
     001D748E  _trigger_130_interact              trigger_130_interact
     001D7491  GBVM$trigger_130_interact$3a24fd   trigger_130_interact
     001D74C4  _trigger_131_interact              trigger_131_interact
     001D74C7  GBVM$trigger_131_interact$58c63f   trigger_131_interact
     001D74FA  _trigger_15_interact               trigger_15_interact
     001D74FD  GBVM$trigger_15_interact$10c11a2   trigger_15_interact
     001D7530  _trigger_16_interact               trigger_16_interact
     001D7533  GBVM$trigger_16_interact$3eb0a32   trigger_16_interact
     001D7566  _trigger_17_interact               trigger_17_interact
     001D7569  GBVM$trigger_17_interact$a9b8c56   trigger_17_interact
     001D759C  _trigger_18_interact               trigger_18_interact
     001D759F  GBVM$trigger_18_interact$9eef5b8   trigger_18_interact
     001D75D2  _trigger_19_interact               trigger_19_interact
     001D75D5  GBVM$trigger_19_interact$8fda88b   trigger_19_interact
     001D7608  _trigger_2_interact                trigger_2_interact
     001D760B  GBVM$trigger_2_interact$56862952   trigger_2_interact
     001D763E  _trigger_20_interact               trigger_20_interact
     001D7641  GBVM$trigger_20_interact$83aa293   trigger_20_interact
     001D7674  _trigger_21_interact               trigger_21_interact
     001D7677  GBVM$trigger_21_interact$b9bf450   trigger_21_interact
     001D76AA  _trigger_22_interact               trigger_22_interact
     001D76AD  GBVM$trigger_22_interact$2710379   trigger_22_interact
     001D76E0  _trigger_23_interact               trigger_23_interact
     001D76E3  GBVM$trigger_23_interact$38b7672   trigger_23_interact
     001D7716  _trigger_24_interact               trigger_24_interact
     001D7719  GBVM$trigger_24_interact$a4dd1ab   trigger_24_interact
     001D774C  _trigger_25_interact               trigger_25_interact
     001D774F  GBVM$trigger_25_interact$79d6d5e   trigger_25_interact
     001D7782  _trigger_26_interact               trigger_26_interact
     001D7785  GBVM$trigger_26_interact$71a2187   trigger_26_interact
     001D77B8  _trigger_27_interact               trigger_27_interact
     001D77BB  GBVM$trigger_27_interact$b61bc51   trigger_27_interact
     001D77EE  _trigger_28_interact               trigger_28_interact
     001D77F1  GBVM$trigger_28_interact$3a8d810   trigger_28_interact
     001D7824  _trigger_29_interact               trigger_29_interact
     001D7827  GBVM$trigger_29_interact$6e36158   trigger_29_interact
     001D785A  _trigger_30_interact               trigger_30_interact
     001D785D  GBVM$trigger_30_interact$0292255   trigger_30_interact
     001D7890  _trigger_31_interact               trigger_31_interact
     001D7893  GBVM$trigger_31_interact$c57ba6a   trigger_31_interact
     001D78C6  _trigger_32_interact               trigger_32_interact
     001D78C9  GBVM$trigger_32_interact$f299054   trigger_32_interact
     001D78FC  _trigger_33_interact               trigger_33_interact
     001D78FF  GBVM$trigger_33_interact$587f0d3   trigger_33_interact
     001D7932  _trigger_34_interact               trigger_34_interact
     001D7935  GBVM$trigger_34_interact$ad5edec   trigger_34_interact
     001D7968  _trigger_35_interact               trigger_35_interact
     001D796B  GBVM$trigger_35_interact$8fc0739   trigger_35_interact
ASxxxx Linker V03.00/V05.40 + sdld,  page 130.
Hexadecimal  [32-Bits]

Area                                    Addr        Size        Decimal Bytes (Attributes)
--------------------------------        ----        ----        ------- ----- ------------
_CODE_29                            001D4000    00003FFE =       16382. bytes (REL,CON)

      Value  Global                              Global Defined In Module
      -----  --------------------------------   ------------------------
     001D799E  _trigger_36_interact               trigger_36_interact
     001D79A1  GBVM$trigger_36_interact$08926b7   trigger_36_interact
     001D79D4  _trigger_37_interact               trigger_37_interact
     001D79D7  GBVM$trigger_37_interact$0ccf826   trigger_37_interact
     001D7A0A  _trigger_38_interact               trigger_38_interact
     001D7A0D  GBVM$trigger_38_interact$f5dad4a   trigger_38_interact
     001D7A40  _trigger_39_interact               trigger_39_interact
     001D7A43  GBVM$trigger_39_interact$07bb2f2   trigger_39_interact
     001D7A76  _trigger_4_interact                trigger_4_interact
     001D7A79  GBVM$trigger_4_interact$b44a8b08   trigger_4_interact
     001D7AAC  _trigger_41_interact               trigger_41_interact
     001D7AAF  GBVM$trigger_41_interact$85ea0ef   trigger_41_interact
     001D7AE2  _trigger_42_interact               trigger_42_interact
     001D7AE5  GBVM$trigger_42_interact$9d3d6c8   trigger_42_interact
     001D7B18  _trigger_43_interact               trigger_43_interact
     001D7B1B  GBVM$trigger_43_interact$da65b24   trigger_43_interact
     001D7B4E  _trigger_44_interact               trigger_44_interact
     001D7B51  GBVM$trigger_44_interact$52682d5   trigger_44_interact
     001D7B84  _trigger_45_interact               trigger_45_interact
     001D7B87  GBVM$trigger_45_interact$82a870c   trigger_45_interact
     001D7BBA  _trigger_46_interact               trigger_46_interact
     001D7BBD  GBVM$trigger_46_interact$e400edc   trigger_46_interact
     001D7BF0  _trigger_47_interact               trigger_47_interact
     001D7BF3  GBVM$trigger_47_interact$b77a64f   trigger_47_interact
     001D7C26  _trigger_48_interact               trigger_48_interact
     001D7C29  GBVM$trigger_48_interact$71315c6   trigger_48_interact
     001D7C5C  _trigger_5_interact                trigger_5_interact
     001D7C5F  GBVM$trigger_5_interact$297a463a   trigger_5_interact
     001D7C92  _trigger_51_interact               trigger_51_interact
     001D7C95  GBVM$trigger_51_interact$4cea9f1   trigger_51_interact
     001D7CC8  _trigger_53_interact               trigger_53_interact
     001D7CCB  GBVM$trigger_53_interact$5655ac3   trigger_53_interact
     001D7CFE  _trigger_54_interact               trigger_54_interact
     001D7D01  GBVM$trigger_54_interact$87ec8de   trigger_54_interact
     001D7D34  _trigger_6_interact                trigger_6_interact
     001D7D37  GBVM$trigger_6_interact$e5629228   trigger_6_interact
     001D7D6A  _trigger_60_interact               trigger_60_interact
     001D7D6D  GBVM$trigger_60_interact$d4592df   trigger_60_interact
     001D7DA0  _trigger_62_interact               trigger_62_interact
     001D7DA3  GBVM$trigger_62_interact$bcf7284   trigger_62_interact
     001D7DD6  _trigger_63_interact               trigger_63_interact
     001D7DD9  GBVM$trigger_63_interact$c1d3876   trigger_63_interact
     001D7E0C  _trigger_64_interact               trigger_64_interact
     001D7E0F  GBVM$trigger_64_interact$170cca8   trigger_64_interact
     001D7E42  _trigger_65_interact               trigger_65_interact
     001D7E45  GBVM$trigger_65_interact$9209edf   trigger_65_interact
     001D7E78  _trigger_66_interact               trigger_66_interact
     001D7E7B  GBVM$trigger_66_interact$8de7c39   trigger_66_interact
     001D7EAE  _trigger_67_interact               trigger_67_interact
     001D7EB1  GBVM$trigger_67_interact$3da3d07   trigger_67_interact
     001D7EE4  _trigger_68_interact               trigger_68_interact
ASxxxx Linker V03.00/V05.40 + sdld,  page 131.
Hexadecimal  [32-Bits]

Area                                    Addr        Size        Decimal Bytes (Attributes)
--------------------------------        ----        ----        ------- ----- ------------
_CODE_29                            001D4000    00003FFE =       16382. bytes (REL,CON)

      Value  Global                              Global Defined In Module
      -----  --------------------------------   ------------------------
     001D7EE7  GBVM$trigger_68_interact$54b5d7c   trigger_68_interact
     001D7F1A  _trigger_69_interact               trigger_69_interact
     001D7F1D  GBVM$trigger_69_interact$7b1bf4d   trigger_69_interact
     001D7F29  GBVM$trigger_69_interact$cf39b26   trigger_69_interact
     001D7F5B  GBVM_END$trigger_69_interact$7b1   trigger_69_interact
     001D7F5C  _trigger_7_interact                trigger_7_interact
     001D7F5F  GBVM$trigger_7_interact$1f69a0bd   trigger_7_interact
     001D7F92  _trigger_70_interact               trigger_70_interact
     001D7F95  GBVM$trigger_70_interact$8abedb9   trigger_70_interact
     001D7FC8  _trigger_71_interact               trigger_71_interact
     001D7FCB  GBVM$trigger_71_interact$75d3fef   trigger_71_interact

ASxxxx Linker V03.00/V05.40 + sdld,  page 132.
Hexadecimal  [32-Bits]

Area                                    Addr        Size        Decimal Bytes (Attributes)
--------------------------------        ----        ----        ------- ----- ------------
_CODE_15                            000F4000    00003FFE =       16382. bytes (REL,CON)

      Value  Global                              Global Defined In Module
      -----  --------------------------------   ------------------------
     000F4000  _scroll_init                       scroll
     000F402A  _scroll_reset                      scroll
     000F404A  _scroll_update                     scroll
     000F4181  _scroll_viewport                   scroll
     000F461A  _scroll_repaint                    scroll
     000F462A  _scroll_render_rows                scroll
     000F46C0  _scroll_queue_row                  scroll
     000F46E2  _scroll_queue_col                  scroll
     000F472D  ___func_VM_UI                      vm_ui
     000F472D  _vm_display_text                   vm_ui
     000F4796  _vm_switch_text_layer              vm_ui
     000F47B0  _vm_overlay_setpos                 vm_ui
     000F47CA  _vm_overlay_wait                   vm_ui
     000F485A  _vm_overlay_move_to                vm_ui
     000F489E  _vm_overlay_set_scroll             vm_ui
     000F48D7  _vm_overlay_clear                  vm_ui
     000F49A9  _vm_overlay_show                   vm_ui
     000F49F7  _vm_choice                         vm_ui
     000F4B12  _vm_set_font                       vm_ui
     000F4B41  _vm_overlay_scroll                 vm_ui
     000F4BA2  _vm_overlay_set_submap             vm_ui
     000F4C0E  _vm_overlay_set_submap_ex          vm_ui
     000F4D0F  _vm_overlay_set_map                vm_ui
     000F4E6E  _vm_set_text_sound                 vm_ui
     000F4E87  ___func_bg_dhilly_game_8_tileset   bg_dhilly_game_8_tileset
     000F4E87  _bg_dhilly_game_8_tileset          bg_dhilly_game_8_tileset
     000F55D9  ___func_bg_fieldlazy_tilemap_att   bg_fieldlazy_tilemap_attr
     000F55D9  _bg_fieldlazy_tilemap_attr         bg_fieldlazy_tilemap_attr
     000F5D17  ___func_bg_fieldlazy_tilemap       bg_fieldlazy_tilemap
     000F5D17  _bg_fieldlazy_tilemap              bg_fieldlazy_tilemap
     000F6455  ___func_bg_init_copy_0_tileset     bg_init_copy_0_tileset
     000F6455  _bg_init_copy_0_tileset            bg_init_copy_0_tileset
     000F64A7  ___func_bg_intro_scenary_copy__t   bg_intro_scenary_copy__tilem
     000F64A7  _bg_intro_scenary_copy__tilemap_   bg_intro_scenary_copy__tilem
     000F6A83  ___func_bg_pixil_frame_23_0_tile   bg_pixil_frame_23_0_tilemap
     000F6A83  _bg_pixil_frame_23_0_tilemap       bg_pixil_frame_23_0_tilemap
     000F718B  _scene_22_init                     scene_22_init
     000F718E  GBVM$scene_22_init$6056ea0b_08c9   scene_22_init
     000F7198  GBVM$scene_22_init$42c09fb7_b9c7   scene_22_init
     000F71A2  GBVM$scene_22_init$autofade$d8fb   scene_22_init
     000F71AD  GBVM$scene_22_init$c8fe7447_aa50   scene_22_init
     000F71AF  GBVM$scene_22_init$f19583a4_2613   scene_22_init
     000F71D2  GBVM$scene_22_init$665ad255_374b   scene_22_init
     000F71DD  GBVM$scene_22_init$db36edc5_6d2a   scene_22_init
     000F7277  GBVM$scene_22_init$50e00df0_e484   scene_22_init
     000F72BB  GBVM$scene_22_init$d0b43725_21b9   scene_22_init
     000F72C4  GBVM$scene_22_init$406c7c51_ddac   scene_22_init
     000F73AA  GBVM$scene_22_init$e6137795_9622   scene_22_init
     000F7421  GBVM$scene_22_init$174caa07_2162   scene_22_init
     000F7421  GBVM_END$scene_22_init$d0b43725_   scene_22_init
ASxxxx Linker V03.00/V05.40 + sdld,  page 133.
Hexadecimal  [32-Bits]

Area                                    Addr        Size        Decimal Bytes (Attributes)
--------------------------------        ----        ----        ------- ----- ------------
_CODE_15                            000F4000    00003FFE =       16382. bytes (REL,CON)

      Value  Global                              Global Defined In Module
      -----  --------------------------------   ------------------------
     000F7444  GBVM$scene_22_init$289b98c3_fcae   scene_22_init
     000F7493  GBVM$scene_22_init$9a77ec11_5111   scene_22_init
     000F7495  GBVM$scene_22_init$eb5d1f69_0780   scene_22_init
     000F74B8  GBVM$scene_22_init$a9f54ed7_6950   scene_22_init
     000F74C4  GBVM$scene_22_init$3f549fd3_bbf4   scene_22_init
     000F74CE  GBVM$scene_22_init$aad20d28_30a8   scene_22_init
     000F74DA  GBVM$scene_22_init$d0c87ab4_7def   scene_22_init
     000F74EC  GBVM$scene_22_init$3f952b79_b9ef   scene_22_init
     000F7687  GBVM$scene_22_init$d0689da5_eb4a   scene_22_init
     000F787C  GBVM$scene_22_init$83fe7251_7a0d   scene_22_init
     000F787C  GBVM_END$scene_22_init$d0c87ab4_   scene_22_init
     000F7888  GBVM$scene_22_init$ff5840b5_19b5   scene_22_init
     000F788D  GBVM$scene_22_init$1bd4a06f_5fb0   scene_22_init
     000F78C0  ___func_scene_49_collisions        scene_49_collisions
     000F78C0  _scene_49_collisions               scene_49_collisions

ASxxxx Linker V03.00/V05.40 + sdld,  page 134.
Hexadecimal  [32-Bits]

Area                                    Addr        Size        Decimal Bytes (Attributes)
--------------------------------        ----        ----        ------- ----- ------------
_CODE_23                            00174000    00004000 =       16384. bytes (REL,CON)

      Value  Global                              Global Defined In Module
      -----  --------------------------------   ------------------------
     00174000  _set_sgb_border                    sgb_border
     001741EA  _actor_25_interact                 actor_25_interact
     001741EB  GBVM$actor_25_interact$a49e3cfa_   actor_25_interact
     001741F4  GBVM$actor_25_interact$607693b5_   actor_25_interact
     001741F9  GBVM$actor_25_interact$565adb43_   actor_25_interact
     00174307  GBVM$actor_25_interact$4b1ca0be_   actor_25_interact
     001743B1  GBVM_END$actor_25_interact$a49e3   actor_25_interact
     001743B2  ___func_bg_announcer_tilemap       bg_announcer_tilemap
     001743B2  _bg_announcer_tilemap              bg_announcer_tilemap
     0017451A  ___func_bg_area_dhilly_city_lair   bg_area_dhilly_city_lair_la_
     0017451A  _bg_area_dhilly_city_lair_la_0_t   bg_area_dhilly_city_lair_la_
     00174682  ___func_bg_area_dhilly_city_lair   bg_area_dhilly_city_lair_la_
     00174682  _bg_area_dhilly_city_lair_la_0_t   bg_area_dhilly_city_lair_la_
     001747EA  ___func_bg_area_dhilly_city_lair   bg_area_dhilly_city_lair_la_
     001747EA  _bg_area_dhilly_city_lair_la_1_t   bg_area_dhilly_city_lair_la_
     00174952  ___func_bg_area_dhilly_city_lair   bg_area_dhilly_city_lair_la_
     00174952  _bg_area_dhilly_city_lair_la_1_t   bg_area_dhilly_city_lair_la_
     00174ABA  ___func_bg_area_dhilly_city_lair   bg_area_dhilly_city_lair_la_
     00174ABA  _bg_area_dhilly_city_lair_la_2_t   bg_area_dhilly_city_lair_la_
     00174C22  ___func_bg_area_dhilly_city_lair   bg_area_dhilly_city_lair_la_
     00174C22  _bg_area_dhilly_city_lair_la_2_t   bg_area_dhilly_city_lair_la_
     00174D8A  ___func_bg_area_dhilly_city_lair   bg_area_dhilly_city_lair_la_
     00174D8A  _bg_area_dhilly_city_lair_la_3_t   bg_area_dhilly_city_lair_la_
     00174EF2  ___func_bg_area_dhilly_city_lair   bg_area_dhilly_city_lair_la_
     00174EF2  _bg_area_dhilly_city_lair_la_3_t   bg_area_dhilly_city_lair_la_
     0017505A  ___func_bg_area_dhilly_city_lair   bg_area_dhilly_city_lair_la_
     0017505A  _bg_area_dhilly_city_lair_la_4_t   bg_area_dhilly_city_lair_la_
     0017522C  ___func_bg_area_dhilly_city_lair   bg_area_dhilly_city_lair_la_
     0017522C  _bg_area_dhilly_city_lair_la_til   bg_area_dhilly_city_lair_la_
     00175394  ___func_bg_area_dhilly_city_lair   bg_area_dhilly_city_lair_la_
     00175394  _bg_area_dhilly_city_lair_la_til   bg_area_dhilly_city_lair_la_
     001754FC  ___func_bg_area_len_city_eve_hou   bg_area_len_city_eve_house__
     001754FC  _bg_area_len_city_eve_house__til   bg_area_len_city_eve_house__
     00175664  ___func_bg_area_len_city_eve_hou   bg_area_len_city_eve_house__
     00175664  _bg_area_len_city_eve_house__til   bg_area_len_city_eve_house__
     001757CC  ___func_bg_cinema_tilemap_attr     bg_cinema_tilemap_attr
     001757CC  _bg_cinema_tilemap_attr            bg_cinema_tilemap_attr
     001759AC  ___func_bg_cinema_tilemap          bg_cinema_tilemap
     001759AC  _bg_cinema_tilemap                 bg_cinema_tilemap
     00175B8C  ___func_bg_controls_gb_copy__til   bg_controls_gb_copy__tilemap
     00175B8C  _bg_controls_gb_copy__tilemap_at   bg_controls_gb_copy__tilemap
     00175CF4  ___func_bg_dhilly_game_5_tileset   bg_dhilly_game_5_tileset
     00175CF4  _bg_dhilly_game_5_tileset          bg_dhilly_game_5_tileset
     00175EC6  ___func_bg_iceos_desktop_copy__t   bg_iceos_desktop_copy__tiles
     00175EC6  _bg_iceos_desktop_copy__tileset    bg_iceos_desktop_copy__tiles
     001760A8  ___func_bg_iceos_platformer4_til   bg_iceos_platformer4_tileset
     001760A8  _bg_iceos_platformer4_tileset      bg_iceos_platformer4_tileset
     0017615A  ___func_bg_lencity_trainstation_   bg_lencity_trainstation_cop_
     0017615A  _bg_lencity_trainstation_cop_til   bg_lencity_trainstation_cop_
     0017630C  ___func_bg_lencity_trainstation_   bg_lencity_trainstation_tile
ASxxxx Linker V03.00/V05.40 + sdld,  page 135.
Hexadecimal  [32-Bits]

Area                                    Addr        Size        Decimal Bytes (Attributes)
--------------------------------        ----        ----        ------- ----- ------------
_CODE_23                            00174000    00004000 =       16384. bytes (REL,CON)

      Value  Global                              Global Defined In Module
      -----  --------------------------------   ------------------------
     0017630C  _bg_lencity_trainstation_tilemap   bg_lencity_trainstation_tile
     00176498  ___func_bg_lencity_trainstation_   bg_lencity_trainstation_tile
     00176498  _bg_lencity_trainstation_tilemap   bg_lencity_trainstation_tile
     00176624  ___func_bg_shillycityopen_copy_0   bg_shillycityopen_copy_0_til
     00176624  _bg_shillycityopen_copy_0_tilese   bg_shillycityopen_copy_0_til
     001767F6  ___func_bg_square_frozen_future_   bg_square_frozen_future_tile
     001767F6  _bg_square_frozen_future_tilemap   bg_square_frozen_future_tile
     00176982  ___func_bg_square_frozen_future_   bg_square_frozen_future_tile
     00176982  _bg_square_frozen_future_tilemap   bg_square_frozen_future_tile
     00176B0E  ___func_bg_theatre_tilemap         bg_theatre_tilemap
     00176B0E  _bg_theatre_tilemap                bg_theatre_tilemap
     00176D02  _scene_100_init                    scene_100_init
     00176D05  GBVM$scene_100_init$autofade$bac   scene_100_init
     00176D10  GBVM$scene_100_init$b90cc4a8_3f3   scene_100_init
     00176D1C  GBVM$scene_100_init$6d1dd74d_48e   scene_100_init
     00176D27  GBVM$scene_100_init$51fc7873_7f3   scene_100_init
     00176DB1  GBVM$scene_100_init$152fb8f0_919   scene_100_init
     00176DC6  GBVM$scene_100_init$3898e647_114   scene_100_init
     00176E0A  GBVM$scene_100_init$ed652653_bed   scene_100_init
     00176E0A  GBVM_END$scene_100_init$152fb8f0   scene_100_init
     00176E0A  GBVM_END$scene_100_init$b90cc4a8   scene_100_init
     00176E16  GBVM$scene_100_init$fbdbd630_7b4   scene_100_init
     00176E42  GBVM$scene_100_init$6e1614fe_e2f   scene_100_init
     00176E75  ___func_scene_19_collisions        scene_19_collisions
     00176E75  _scene_19_collisions               scene_19_collisions
     00177001  ___func_scene_20_collisions        scene_20_collisions
     00177001  _scene_20_collisions               scene_20_collisions
     0017718D  _scene_24_init                     scene_24_init
     0017719B  GBVM$scene_24_init$063e0517_f1a1   scene_24_init
     0017719D  GBVM$scene_24_init$6a9110c1_b048   scene_24_init
     001771AF  GBVM$scene_24_init$06252130_57f3   scene_24_init
     001771C1  GBVM$scene_24_init$60bf49dd_93d1   scene_24_init
     001771D6  GBVM$scene_24_init$34c6bdf7_b570   scene_24_init
     001771E6  GBVM$scene_24_init$02509a09_ddbf   scene_24_init
     0017722D  GBVM_END$scene_24_init$34c6bdf7_   scene_24_init
     0017722D  GBVM_END$scene_24_init$60bf49dd_   scene_24_init
     00177230  GBVM$scene_24_init$85ce138e_0794   scene_24_init
     00177240  GBVM$scene_24_init$496cf316_8687   scene_24_init
     00177287  GBVM_END$scene_24_init$06252130_   scene_24_init
     00177287  GBVM_END$scene_24_init$85ce138e_   scene_24_init
     0017728A  GBVM$scene_24_init$951fd5d5_55e0   scene_24_init
     0017729A  GBVM$scene_24_init$2dc60b51_49bf   scene_24_init
     001772D6  GBVM$scene_24_init$autofade$fc3d   scene_24_init
     001772E1  GBVM$scene_24_init$8c161540_b8da   scene_24_init
     00177313  GBVM$scene_24_init$c54199ad_7db0   scene_24_init
     00177313  GBVM_END$scene_24_init$6a9110c1_   scene_24_init
     00177313  GBVM_END$scene_24_init$951fd5d5_   scene_24_init
     00177346  ___func_scene_27_collisions        scene_27_collisions
     00177346  _scene_27_collisions               scene_27_collisions
     001774D2  ___func_scene_3_sprites            scene_3_sprites
     001774D2  _scene_3_sprites                   scene_3_sprites
ASxxxx Linker V03.00/V05.40 + sdld,  page 136.
Hexadecimal  [32-Bits]

Area                                    Addr        Size        Decimal Bytes (Attributes)
--------------------------------        ----        ----        ------- ----- ------------
_CODE_23                            00174000    00004000 =       16384. bytes (REL,CON)

      Value  Global                              Global Defined In Module
      -----  --------------------------------   ------------------------
     001774D5  ___func_scene_35_collisions        scene_35_collisions
     001774D5  _scene_35_collisions               scene_35_collisions
     00177661  ___func_scene_45_collisions        scene_45_collisions
     00177661  _scene_45_collisions               scene_45_collisions
     00177841  ___func_scene_46_collisions        scene_46_collisions
     00177841  _scene_46_collisions               scene_46_collisions
     00177A35  ___func_scene_48_collisions        scene_48_collisions
     00177A35  _scene_48_collisions               scene_48_collisions
     00177C29  ___func_scene_63_collisions        scene_63_collisions
     00177C29  _scene_63_collisions               scene_63_collisions
     00177E1D  _trigger_121_interact              trigger_121_interact
     00177E20  GBVM$trigger_121_interact$d97bdc   trigger_121_interact
     00177E2C  GBVM$trigger_121_interact$9b886c   trigger_121_interact
     00177E3F  GBVM$trigger_121_interact$74d8aa   trigger_121_interact
     00177E62  GBVM$trigger_121_interact$dcfdc9   trigger_121_interact
     00177E6E  GBVM$trigger_121_interact$30085d   trigger_121_interact
     00177FA2  GBVM$trigger_121_interact$471b82   trigger_121_interact
     00177FA7  GBVM$trigger_121_interact$8a53d6   trigger_121_interact
     00177FAF  GBVM$trigger_121_interact$597ee9   trigger_121_interact
     00177FAF  GBVM_END$trigger_121_interact$8a   trigger_121_interact
     00177FB7  GBVM$trigger_121_interact$4eb190   trigger_121_interact
     00177FB7  GBVM_END$trigger_121_interact$59   trigger_121_interact
     00177FBC  GBVM$trigger_121_interact$2885f2   trigger_121_interact
     00177FC1  GBVM$trigger_121_interact$995d42   trigger_121_interact
     00177FFF  GBVM_END$trigger_121_interact$d9   trigger_121_interact
ASxxxx Linker V03.00/V05.40 + sdld,  page 137.
Hexadecimal  [32-Bits]

Area                                    Addr        Size        Decimal Bytes (Attributes)
--------------------------------        ----        ----        ------- ----- ------------
_CODE_11                            000B4000    00003FFF =       16383. bytes (REL,CON)

      Value  Global                              Global Defined In Module
      -----  --------------------------------   ------------------------
     000B4000  ___func_VM_ACTOR                   vm_actor
     000B4000  _vm_actor_move_to                  vm_actor
     000B4A46  _vm_actor_move_cancel              vm_actor
     000B4A7C  _vm_actor_activate                 vm_actor
     000B4ACD  _vm_actor_deactivate               vm_actor
     000B4B1E  _vm_actor_begin_update             vm_actor
     000B4BA5  _vm_actor_terminate_update         vm_actor
     000B4BEC  _vm_actor_set_dir                  vm_actor
     000B4C35  _vm_actor_set_anim                 vm_actor
     000B4CC3  _vm_actor_set_pos                  vm_actor
     000B4D3D  _vm_actor_get_pos                  vm_actor
     000B4DAC  _vm_actor_get_dir                  vm_actor
     000B4E26  _vm_actor_get_angle                vm_actor
     000B4EA7  _vm_actor_emote                    vm_actor
     000B4F6B  _vm_actor_set_bounds               vm_actor
     000B4FC9  _vm_actor_set_spritesheet          vm_actor
     000B5093  _vm_actor_replace_tile             vm_actor
     000B50FE  _vm_actor_set_anim_tick            vm_actor
     000B513C  _vm_actor_set_move_speed           vm_actor
     000B517A  _vm_actor_set_anim_frame           vm_actor
     000B51BE  _vm_actor_get_anim_frame           vm_actor
     000B5208  _vm_actor_set_anim_set             vm_actor
     000B5290  _vm_actor_set_spritesheet_by_ref   vm_actor
     000B539D  _vm_actor_set_flags                vm_actor
     000B544B  ___func_VM_MAIN                    vm
     000B544B  _vm_call                           vm
     000B548D  _vm_ret                            vm
     000B54ED  _vm_call_far                       vm
     000B556C  _vm_ret_far                        vm
     000B55E4  _vm_push                           vm
     000B560F  _vm_pop                            vm
     000B564A  _vm_loop                           vm
     000B56D5  _vm_jump                           vm
     000B56E1  _wait_frames                       vm
     000B574E  _vm_invoke                         vm
     000B587B  _vm_join                           vm
     000B58DD  _vm_terminate                      vm
     000B590A  _vm_if                             vm
     000B5A4F  _vm_if_const                       vm
     000B5B64  _vm_push_value                     vm
     000B5BB6  _vm_push_value_ind                 vm
     000B5C2B  _vm_push_reference                 vm
     000B5C82  _vm_reserve                        vm
     000B5CB0  _vm_set                            vm
     000B5D11  _vm_set_const                      vm
     000B5D3D  _vm_get_tlocal                     vm
     000B5DCA  _vm_test_terminate                 vm
     000B5DD5  _vm_idle                           vm
     000B5DE1  _vm_init_rng                       vm
     000B5E0D  _vm_rand                           vm
ASxxxx Linker V03.00/V05.40 + sdld,  page 138.
Hexadecimal  [32-Bits]

Area                                    Addr        Size        Decimal Bytes (Attributes)
--------------------------------        ----        ----        ------- ----- ------------
_CODE_11                            000B4000    00003FFF =       16383. bytes (REL,CON)

      Value  Global                              Global Defined In Module
      -----  --------------------------------   ------------------------
     000B5E4F  _vm_lock                           vm
     000B5E5E  _vm_unlock                         vm
     000B5E71  _vm_raise                          vm
     000B5EB3  _vm_set_indirect                   vm
     000B5F2E  _vm_get_indirect                   vm
     000B5FA9  _vm_poll_loaded                    vm
     000B5FD9  _vm_memset                         vm
     000B6013  _vm_memcpy                         vm
     000B6090  _script_runner_init                vm
     000B6147  _script_execute                    vm
     000B62AD  _script_terminate                  vm
     000B6312  _script_detach_hthread             vm
     000B634E  ___func_bg_lencityopen_copy_0_ti   bg_lencityopen_copy_0_tilema
     000B634E  _bg_lencityopen_copy_0_tilemap_a   bg_lencityopen_copy_0_tilema
     000B6E70  ___func_bg_ui_screens_title_copy   bg_ui_screens_title_copy__ti
     000B6E70  _bg_ui_screens_title_copy__tiles   bg_ui_screens_title_copy__ti
     000B7E52  ___func_scene_102_triggers         scene_102_triggers
     000B7E52  _scene_102_triggers                scene_102_triggers
     000B7E5A  _scene_64_init                     scene_64_init
     000B7E5D  GBVM$scene_64_init$7815f32b_39ef   scene_64_init
     000B7E67  GBVM$scene_64_init$abdecb31_ec5e   scene_64_init
     000B7E7C  GBVM$scene_64_init$cb9c62d3_a729   scene_64_init
     000B7E9F  GBVM$scene_64_init$8354f8a5_725c   scene_64_init
     000B7EA9  GBVM$scene_64_init$4474c402_dd7a   scene_64_init
     000B7EB5  GBVM$scene_64_init$8400735b_bae5   scene_64_init
     000B7EBA  GBVM$scene_64_init$81e8f477_ff56   scene_64_init
     000B7ECC  GBVM$scene_64_init$9d328a68_d026   scene_64_init
     000B7EDE  GBVM$scene_64_init$c455086a_918e   scene_64_init
     000B7EF3  GBVM$scene_64_init$b6974248_76ea   scene_64_init
     000B7F03  GBVM$scene_64_init$83a880e3_4054   scene_64_init
     000B7F4A  GBVM_END$scene_64_init$b6974248_   scene_64_init
     000B7F4A  GBVM_END$scene_64_init$c455086a_   scene_64_init
     000B7F4D  GBVM$scene_64_init$d2ac2eb2_90e9   scene_64_init
     000B7F5D  GBVM$scene_64_init$9bfe52cc_e73b   scene_64_init
     000B7FA4  GBVM_END$scene_64_init$9d328a68_   scene_64_init
     000B7FA4  GBVM_END$scene_64_init$d2ac2eb2_   scene_64_init
     000B7FA7  GBVM$scene_64_init$2007c22d_adf9   scene_64_init
     000B7FB7  GBVM$scene_64_init$e231fd39_542b   scene_64_init
     000B7FF3  GBVM$scene_64_init$autofade$ad13   scene_64_init
     000B7FFE  GBVM_END$scene_64_init$2007c22d_   scene_64_init
     000B7FFE  GBVM_END$scene_64_init$4474c402_   scene_64_init
     000B7FFE  GBVM_END$scene_64_init$81e8f477_   scene_64_init

ASxxxx Linker V03.00/V05.40 + sdld,  page 139.
Hexadecimal  [32-Bits]

Area                                    Addr        Size        Decimal Bytes (Attributes)
--------------------------------        ----        ----        ------- ----- ------------
_CODE_16                            00104000    00004000 =       16384. bytes (REL,CON)

      Value  Global                              Global Defined In Module
      -----  --------------------------------   ------------------------
     00104000  ___func_VM_GAMEBOY                 vm_gameboy
     00104000  _vm_set_sprites_visible            vm_gameboy
     00104017  _vm_input_wait                     vm_gameboy
     00104040  _vm_context_prepare                vm_gameboy
     0010406B  _vm_input_attach                   vm_gameboy
     00104081  _vm_input_detach                   vm_gameboy
     00104095  _vm_input_get                      vm_gameboy
     001040C9  _vm_fade                           vm_gameboy
     001040F9  _vm_timer_prepare                  vm_gameboy
     00104124  _vm_timer_set                      vm_gameboy
     0010413F  _vm_timer_stop                     vm_gameboy
     00104153  _vm_timer_reset                    vm_gameboy
     0010416A  _vm_get_tile_xy                    vm_gameboy
     00104240  _vm_replace_tile                   vm_gameboy
     001042EB  _vm_poll                           vm_gameboy
     001043BD  _vm_set_sprite_mode                vm_gameboy
     001043D1  _vm_replace_tile_xy                vm_gameboy
     001045B1  _vm_rumble                         vm_gameboy
     001045D1  _vm_load_tileset                   vm_gameboy
     001046A2  ___func_bg_dhillyhubdown_tileset   bg_dhillyhubdown_tileset
     001046A2  _bg_dhillyhubdown_tileset          bg_dhillyhubdown_tileset
     00104CE4  ___func_bg_endingscene_0_tileset   bg_endingscene_0_tileset
     00104CE4  _bg_endingscene_0_tileset          bg_endingscene_0_tileset
     00105356  ___func_bg_intro_scenary_copy__t   bg_intro_scenary_copy__tilem
     00105356  _bg_intro_scenary_copy__tilemap    bg_intro_scenary_copy__tilem
     00105932  ___func_bg_pixil_frame_0_24_tile   bg_pixil_frame_0_24_tileset
     00105932  _bg_pixil_frame_0_24_tileset       bg_pixil_frame_0_24_tileset
     00105EE4  ___func_bg_title_copy_2_tileset    bg_title_copy_2_tileset
     00105EE4  _bg_title_copy_2_tileset           bg_title_copy_2_tileset
     00106516  ___func_scene_17_collisions        scene_17_collisions
     00106516  _scene_17_collisions               scene_17_collisions
     00106AF2  ___func_scene_28_collisions        scene_28_collisions
     00106AF2  _scene_28_collisions               scene_28_collisions
     001071FA  ___func_scene_90_collisions        scene_90_collisions
     001071FA  _scene_90_collisions               scene_90_collisions
     001077D6  _scene_93_init                     scene_93_init
     001077E4  GBVM$scene_93_init$087fd5e8_462d   scene_93_init
     001077F0  GBVM$scene_93_init$d3d85e61_fb57   scene_93_init
     001077F5  GBVM$scene_93_init$5a981c82_538b   scene_93_init
     00107807  GBVM$scene_93_init$f9ff769d_b0e3   scene_93_init
     00107819  GBVM$scene_93_init$42771d84_9f89   scene_93_init
     0010782E  GBVM$scene_93_init$b90a2de8_1bbd   scene_93_init
     0010783E  GBVM$scene_93_init$2fb6b4b9_2178   scene_93_init
     00107885  GBVM_END$scene_93_init$42771d84_   scene_93_init
     00107885  GBVM_END$scene_93_init$b90a2de8_   scene_93_init
     00107888  GBVM$scene_93_init$c732447e_029e   scene_93_init
     00107898  GBVM$scene_93_init$00104dd9_03a1   scene_93_init
     001078DF  GBVM_END$scene_93_init$c732447e_   scene_93_init
     001078DF  GBVM_END$scene_93_init$f9ff769d_   scene_93_init
     001078E2  GBVM$scene_93_init$6e3c7fdc_2084   scene_93_init
ASxxxx Linker V03.00/V05.40 + sdld,  page 140.
Hexadecimal  [32-Bits]

Area                                    Addr        Size        Decimal Bytes (Attributes)
--------------------------------        ----        ----        ------- ----- ------------
_CODE_16                            00104000    00004000 =       16384. bytes (REL,CON)

      Value  Global                              Global Defined In Module
      -----  --------------------------------   ------------------------
     001078F2  GBVM$scene_93_init$fd520668_7031   scene_93_init
     0010792E  GBVM$scene_93_init$autofade$ed30   scene_93_init
     00107939  GBVM_END$scene_93_init$087fd5e8_   scene_93_init
     00107939  GBVM_END$scene_93_init$5a981c82_   scene_93_init
     00107939  GBVM_END$scene_93_init$6e3c7fdc_   scene_93_init
     0010793A  _topdown_init                      topdown
     001079D6  _topdown_update                    topdown
ASxxxx Linker V03.00/V05.40 + sdld,  page 141.
Hexadecimal  [32-Bits]

Area                                    Addr        Size        Decimal Bytes (Attributes)
--------------------------------        ----        ----        ------- ----- ------------
_CODE_8                             00084000    00004000 =       16384. bytes (REL,CON)

      Value  Global                              Global Defined In Module
      -----  --------------------------------   ------------------------
     00084000  _actor_31_interact                 actor_31_interact
     00084001  GBVM$actor_31_interact$a910af4c_   actor_31_interact
     0008403A  ___func_bg_controls_mobile_copy_   bg_controls_mobile_copy_0_ti
     0008403A  _bg_controls_mobile_copy_0_tiles   bg_controls_mobile_copy_0_ti
     000856BC  ___func_bg_placeholder_copy_copy   bg_placeholder_copy_copy_co_
     000856BC  _bg_placeholder_copy_copy_co_til   bg_placeholder_copy_copy_co_
     00086080  _SGB_border_chr                    border
     00086080  ___func_SGB_border_chr             border
     00086080  ___func_SGB_border_map             border
     00086080  ___func_SGB_border_pal             border
     00087880  _SGB_border_map                    border
     00087F80  _SGB_border_pal                    border
ASxxxx Linker V03.00/V05.40 + sdld,  page 142.
Hexadecimal  [32-Bits]

Area                                    Addr        Size        Decimal Bytes (Attributes)
--------------------------------        ----        ----        ------- ----- ------------
_CODE_14                            000E4000    00003FFE =       16382. bytes (REL,CON)

      Value  Global                              Global Defined In Module
      -----  --------------------------------   ------------------------
     000E4000  _actor_64_interact                 actor_64_interact
     000E4001  GBVM$actor_64_interact$037d30c3_   actor_64_interact
     000E4520  GBVM$actor_64_interact$5beb9f4d_   actor_64_interact
     000E45CE  GBVM$actor_64_interact$d69282d3_   actor_64_interact
     000E4608  GBVM$actor_64_interact$1cefdf7a_   actor_64_interact
     000E4614  GBVM$actor_64_interact$a6c968a9_   actor_64_interact
     000E4728  GBVM$actor_64_interact$6fc87f1f_   actor_64_interact
     000E4734  GBVM$actor_64_interact$a0bd4c2a_   actor_64_interact
     000E4739  GBVM$actor_64_interact$6e9b018f_   actor_64_interact
     000E4745  GBVM$actor_64_interact$8c0d4b45_   actor_64_interact
     000E47BE  GBVM_END$actor_64_interact$1cefd   actor_64_interact
     000E47BE  GBVM_END$actor_64_interact$6fc87   actor_64_interact
     000E47BF  ___func_bg_dhilly_game_1_tileset   bg_dhilly_game_1_tileset
     000E47BF  _bg_dhilly_game_1_tileset          bg_dhilly_game_1_tileset
     000E4FF1  ___func_bg_endingscene_tileset     bg_endingscene_tileset
     000E4FF1  _bg_endingscene_tileset            bg_endingscene_tileset
     000E57C3  ___func_bg_endingscene2_tileset    bg_endingscene2_tileset
     000E57C3  _bg_endingscene2_tileset           bg_endingscene2_tileset
     000E6085  ___func_bg_pixil_frame_0_31_tile   bg_pixil_frame_0_31_tileset
     000E6085  _bg_pixil_frame_0_31_tileset       bg_pixil_frame_0_31_tileset
     000E6867  ___func_bg_pixil_frame_23_0_tile   bg_pixil_frame_23_0_tilemap_
     000E6867  _bg_pixil_frame_23_0_tilemap_att   bg_pixil_frame_23_0_tilemap_
     000E6F6F  ___func_scene_15_triggers          scene_15_triggers
     000E6F6F  _scene_15_triggers                 scene_15_triggers
     000E6F77  _scene_46_init                     scene_46_init
     000E6F7A  GBVM$scene_46_init$0ea2a4e8_ae35   scene_46_init
     000E6F8F  GBVM$scene_46_init$bbc510a6_e659   scene_46_init
     000E6F9A  GBVM$scene_46_init$87f1944b_9dd4   scene_46_init
     000E6F9A  GBVM_END$scene_46_init$0ea2a4e8_   scene_46_init
     000E6FA4  GBVM$scene_46_init$149a40a8_c9b0   scene_46_init
     000E6FAE  GBVM$scene_46_init$autofade$24dd   scene_46_init
     000E6FB9  GBVM$scene_46_init$3bc2cada_8ed4   scene_46_init
     000E6FDC  GBVM$scene_46_init$4aa472ba_f2a2   scene_46_init
     000E6FFF  GBVM$scene_46_init$16c29a8b_d197   scene_46_init
     000E700B  GBVM$scene_46_init$302707ca_f480   scene_46_init
     000E701E  GBVM$scene_46_init$9cb07c09_6354   scene_46_init
     000E702A  GBVM$scene_46_init$b10b88a1_7f7a   scene_46_init
     000E7034  GBVM$scene_46_init$90f55dd5_6fb8   scene_46_init
     000E7057  GBVM$scene_46_init$3181dabc_5b64   scene_46_init
     000E7063  GBVM$scene_46_init$9f0aeba9_32cd   scene_46_init
     000E7075  GBVM$scene_46_init$ec8efb11_63c4   scene_46_init
     000E7212  GBVM$scene_46_init$6ff0da5b_fe53   scene_46_init
     000E73CB  GBVM$scene_46_init$eb77abc0_9805   scene_46_init
     000E73CB  GBVM_END$scene_46_init$9f0aeba9_   scene_46_init
     000E73D7  GBVM$scene_46_init$b00386b6_e0e0   scene_46_init
     000E73E1  GBVM$scene_46_init$31b91c9f_39e5   scene_46_init
     000E7404  GBVM$scene_46_init$9602c3b9_d0ae   scene_46_init
     000E7496  GBVM$scene_46_init$4c455e39_7bd6   scene_46_init
     000E74A8  GBVM$scene_46_init$8eef0480_0276   scene_46_init
     000E752D  GBVM$scene_46_init$50df4659_1ca9   scene_46_init
ASxxxx Linker V03.00/V05.40 + sdld,  page 143.
Hexadecimal  [32-Bits]

Area                                    Addr        Size        Decimal Bytes (Attributes)
--------------------------------        ----        ----        ------- ----- ------------
_CODE_14                            000E4000    00003FFE =       16382. bytes (REL,CON)

      Value  Global                              Global Defined In Module
      -----  --------------------------------   ------------------------
     000E75CE  GBVM$scene_46_init$c0acf176_dfcf   scene_46_init
     000E75CE  GBVM_END$scene_46_init$4c455e39_   scene_46_init
     000E767D  GBVM$scene_46_init$0ea619ed_9d53   scene_46_init
     000E77CD  GBVM$scene_46_init$370f757f_dcf7   scene_46_init
     000E77F0  GBVM$scene_46_init$96165d7d_e0b1   scene_46_init
     000E77FA  GBVM$scene_46_init$fe661bc0_05f7   scene_46_init
     000E7802  GBVM$scene_46_init$6231105d_fe55   scene_46_init
     000E7802  GBVM_END$scene_46_init$fe661bc0_   scene_46_init
     000E7821  GBVM$scene_46_init$eb9c692c_a0d4   scene_46_init
     000E7845  _trigger_1_interact                trigger_1_interact
     000E7848  GBVM$trigger_1_interact$e21a431d   trigger_1_interact
     000E786B  GBVM$trigger_1_interact$d9f8fbc3   trigger_1_interact
     000E7B07  GBVM$trigger_1_interact$1f1286d8   trigger_1_interact
     000E7B65  GBVM$trigger_1_interact$0f504e86   trigger_1_interact
     000E7B77  GBVM$trigger_1_interact$e5b96354   trigger_1_interact
     000E7D26  GBVM$trigger_1_interact$510c6f77   trigger_1_interact
     000E7EEE  GBVM$trigger_1_interact$d57e49d7   trigger_1_interact
     000E7EEE  GBVM_END$trigger_1_interact$0f50   trigger_1_interact
     000E7F4A  GBVM$trigger_1_interact$644d12f5   trigger_1_interact
     000E7FB2  GBVM$trigger_1_interact$631d8410   trigger_1_interact
     000E7FCB  GBVM$trigger_1_interact$3423e295   trigger_1_interact

ASxxxx Linker V03.00/V05.40 + sdld,  page 144.
Hexadecimal  [32-Bits]

Area                                    Addr        Size        Decimal Bytes (Attributes)
--------------------------------        ----        ----        ------- ----- ------------
_CODE_9                             00094000    00004000 =       16384. bytes (REL,CON)

      Value  Global                              Global Defined In Module
      -----  --------------------------------   ------------------------
     00094000  ___func_bg_announcer_tilemap_att   bg_announcer_tilemap_attr
     00094000  _bg_announcer_tilemap_attr         bg_announcer_tilemap_attr
     00094168  ___func_bg_options_copy__tileset   bg_options_copy__tileset
     00094168  _bg_options_copy__tileset          bg_options_copy__tileset
     000957EA  ___func_bg_shillycityopen_copy_1   bg_shillycityopen_copy_1_til
     000957EA  _bg_shillycityopen_copy_1_tilema   bg_shillycityopen_copy_1_til
     0009697E  ___func_bg_title_tileset           bg_title_tileset
     0009697E  _bg_title_tileset                  bg_title_tileset

ASxxxx Linker V03.00/V05.40 + sdld,  page 145.
Hexadecimal  [32-Bits]

Area                                    Addr        Size        Decimal Bytes (Attributes)
--------------------------------        ----        ----        ------- ----- ------------
_CODE_3                             00034000    00003FFF =       16383. bytes (REL,CON)

      Value  Global                              Global Defined In Module
      -----  --------------------------------   ------------------------
     00034000  ___func_bg_area_dhilly_city_lair   bg_area_dhilly_city_lair_la_
     00034000  _bg_area_dhilly_city_lair_la_4_t   bg_area_dhilly_city_lair_la_
     00034264  ___func_bg_controls_gb_copy__til   bg_controls_gb_copy__tileset
     00034264  _bg_controls_gb_copy__tileset      bg_controls_gb_copy__tileset
     000358E6  ___func_bg_lencityopen_tilemap     bg_lencityopen_tilemap
     000358E6  _bg_lencityopen_tilemap            bg_lencityopen_tilemap
     00037FF6  ___func_scene_93_sprites           scene_93_sprites
     00037FF6  _scene_93_sprites                  scene_93_sprites

ASxxxx Linker V03.00/V05.40 + sdld,  page 146.
Hexadecimal  [32-Bits]

Area                                    Addr        Size        Decimal Bytes (Attributes)
--------------------------------        ----        ----        ------- ----- ------------
_CODE_4                             00044000    00003FFF =       16383. bytes (REL,CON)

      Value  Global                              Global Defined In Module
      -----  --------------------------------   ------------------------
     00044000  ___func_bg_area_dhilly_city_lair   bg_area_dhilly_city_lair_la_
     00044000  _bg_area_dhilly_city_lair_la_4_t   bg_area_dhilly_city_lair_la_
     00044264  ___func_bg_controls_gba_copy__ti   bg_controls_gba_copy__tilese
     00044264  _bg_controls_gba_copy__tileset     bg_controls_gba_copy__tilese
     000458E6  ___func_scene_18_collisions        scene_18_collisions
     000458E6  _scene_18_collisions               scene_18_collisions
     00047FF6  ___func_scene_94_sprites           scene_94_sprites
     00047FF6  _scene_94_sprites                  scene_94_sprites

ASxxxx Linker V03.00/V05.40 + sdld,  page 147.
Hexadecimal  [32-Bits]

Area                                    Addr        Size        Decimal Bytes (Attributes)
--------------------------------        ----        ----        ------- ----- ------------
_CODE_18                            00124000    00003FFF =       16383. bytes (REL,CON)

      Value  Global                              Global Defined In Module
      -----  --------------------------------   ------------------------
     00124000  ___func_bg_cave_ladder_copy__til   bg_cave_ladder_copy__tilemap
     00124000  _bg_cave_ladder_copy__tilemap_at   bg_cave_ladder_copy__tilemap
     001244B0  ___func_bg_cave_ladder_copy__til   bg_cave_ladder_copy__tilemap
     001244B0  _bg_cave_ladder_copy__tilemap      bg_cave_ladder_copy__tilemap
     00124960  ___func_bg_fall_to_shilly_area_c   bg_fall_to_shilly_area_copy_
     00124960  _bg_fall_to_shilly_area_copy_til   bg_fall_to_shilly_area_copy_
     00124E10  ___func_bg_fall_to_shilly_area_c   bg_fall_to_shilly_area_copy_
     00124E10  _bg_fall_to_shilly_area_copy_til   bg_fall_to_shilly_area_copy_
     001252C0  ___func_bg_init_copy_0_tilemap_a   bg_init_copy_0_tilemap_attr
     001252C0  _bg_init_copy_0_tilemap_attr       bg_init_copy_0_tilemap_attr
     00125770  ___func_bg_init_copy_0_tilemap     bg_init_copy_0_tilemap
     00125770  _bg_init_copy_0_tilemap            bg_init_copy_0_tilemap
     00125C20  ___func_bg_lair_right_3_tileset    bg_lair_right_3_tileset
     00125C20  _bg_lair_right_3_tileset           bg_lair_right_3_tileset
     00125DB2  ___func_bg_lencityopen_copy__til   bg_lencityopen_copy__tilemap
     00125DB2  _bg_lencityopen_copy__tilemap_at   bg_lencityopen_copy__tilemap
     00126298  ___func_bg_lencityopen_copy__til   bg_lencityopen_copy__tilemap
     00126298  _bg_lencityopen_copy__tilemap      bg_lencityopen_copy__tilemap
     0012677E  ___func_bg_lencityopen_tileset     bg_lencityopen_tileset
     0012677E  _bg_lencityopen_tileset            bg_lencityopen_tileset
     00126C70  ___func_scene_20_sprites           scene_20_sprites
     00126C70  _scene_20_sprites                  scene_20_sprites
     00126C73  ___func_scene_32_collisions        scene_32_collisions
     00126C73  _scene_32_collisions               scene_32_collisions
     00127123  ___func_scene_47_collisions        scene_47_collisions
     00127123  _scene_47_collisions               scene_47_collisions
     00127609  ___func_scene_51_collisions        scene_51_collisions
     00127609  _scene_51_collisions               scene_51_collisions
     00127AB9  ___func_scene_57_collisions        scene_57_collisions
     00127AB9  _scene_57_collisions               scene_57_collisions
ASxxxx Linker V03.00/V05.40 + sdld,  page 148.
Hexadecimal  [32-Bits]

Area                                    Addr        Size        Decimal Bytes (Attributes)
--------------------------------        ----        ----        ------- ----- ------------
_CODE_17                            00114000    00003FFE =       16382. bytes (REL,CON)

      Value  Global                              Global Defined In Module
      -----  --------------------------------   ------------------------
     00114000  ___func_bg_cave_ladder_copy_0_ti   bg_cave_ladder_copy_0_tilema
     00114000  _bg_cave_ladder_copy_0_tilemap_a   bg_cave_ladder_copy_0_tilema
     00114591  ___func_bg_cave_ladder_copy_0_ti   bg_cave_ladder_copy_0_tilema
     00114591  _bg_cave_ladder_copy_0_tilemap     bg_cave_ladder_copy_0_tilema
     00114B22  ___func_bg_chase_shilly_tilemap_   bg_chase_shilly_tilemap_attr
     00114B22  _bg_chase_shilly_tilemap_attr      bg_chase_shilly_tilemap_attr
     001150B0  ___func_bg_chase_shilly_tilemap    bg_chase_shilly_tilemap
     001150B0  _bg_chase_shilly_tilemap           bg_chase_shilly_tilemap
     0011563E  ___func_bg_dhilly_game_10_tilese   bg_dhilly_game_10_tileset
     0011563E  _bg_dhilly_game_10_tileset         bg_dhilly_game_10_tileset
     00115A20  ___func_bg_dhilly_game_11_tilese   bg_dhilly_game_11_tileset
     00115A20  _bg_dhilly_game_11_tileset         bg_dhilly_game_11_tileset
     00115FB2  ___func_bg_pixil_frame_0_33_tile   bg_pixil_frame_0_33_tilemap_
     00115FB2  _bg_pixil_frame_0_33_tilemap_att   bg_pixil_frame_0_33_tilemap_
     001164F8  ___func_bg_pixil_frame_0_33_tile   bg_pixil_frame_0_33_tilemap
     001164F8  _bg_pixil_frame_0_33_tilemap       bg_pixil_frame_0_33_tilemap
     00116A3E  ___func_scene_17_sprites           scene_17_sprites
     00116A3E  _scene_17_sprites                  scene_17_sprites
     00116A41  ___func_scene_50_collisions        scene_50_collisions
     00116A41  _scene_50_collisions               scene_50_collisions
     00116F87  _scene_54_init                     scene_54_init
     00116F8A  GBVM$scene_54_init$autofade$d0b2   scene_54_init
     00116F95  GBVM$scene_54_init$fb6e399e_453d   scene_54_init
     00116FA1  GBVM$scene_54_init$6763bb91_1f3e   scene_54_init
     00116FF6  GBVM$scene_54_init$879d4390_2983   scene_54_init
     0011704C  GBVM$scene_54_init$22bfcb52_db09   scene_54_init
     00117055  GBVM$scene_54_init$87d9f00b_79f4   scene_54_init
     00117106  GBVM$scene_54_init$1ba458ac_5737   scene_54_init
     0011716E  GBVM$scene_54_init$da660451_8e43   scene_54_init
     0011717A  GBVM$scene_54_init$3052676c_9e2a   scene_54_init
     00117186  GBVM$scene_54_init$7afd3c10_18cc   scene_54_init
     00117269  GBVM$scene_54_init$7c8bba88_a97f   scene_54_init
     001172CF  GBVM$scene_54_init$eb9f2de2_c986   scene_54_init
     001173F8  GBVM$scene_54_init$f7cb7b9a_6b14   scene_54_init
     001173FD  GBVM$scene_54_init$c4ef5d69_f4da   scene_54_init
     0011747E  GBVM$scene_54_init$15cebf23_c22b   scene_54_init
     00117489  GBVM$scene_54_init$cc1b76ee_0c1b   scene_54_init
     00117494  GBVM$scene_54_init$858f48f5_87ae   scene_54_init
     0011749F  GBVM$scene_54_init$0742c42a_ca40   scene_54_init
     001174DE  GBVM_END$scene_54_init$22bfcb52_   scene_54_init
     001174DE  GBVM_END$scene_54_init$3052676c_   scene_54_init
     001174DE  GBVM_END$scene_54_init$da660451_   scene_54_init
     001174DF  ___func_scene_55_collisions        scene_55_collisions
     001174DF  _scene_55_collisions               scene_55_collisions
     00117A70  ___func_scene_88_collisions        scene_88_collisions
     00117A70  _scene_88_collisions               scene_88_collisions

ASxxxx Linker V03.00/V05.40 + sdld,  page 149.
Hexadecimal  [32-Bits]

Area                                    Addr        Size        Decimal Bytes (Attributes)
--------------------------------        ----        ----        ------- ----- ------------
_CODE_24                            00184000    00003FFF =       16383. bytes (REL,CON)

      Value  Global                              Global Defined In Module
      -----  --------------------------------   ------------------------
     00184000  ___func_bg_controls_gb_copy__til   bg_controls_gb_copy__tilemap
     00184000  _bg_controls_gb_copy__tilemap      bg_controls_gb_copy__tilemap
     00184168  ___func_bg_controls_gba_copy__ti   bg_controls_gba_copy__tilema
     00184168  _bg_controls_gba_copy__tilemap_a   bg_controls_gba_copy__tilema
     001842D0  ___func_bg_controls_gba_copy__ti   bg_controls_gba_copy__tilema
     001842D0  _bg_controls_gba_copy__tilemap     bg_controls_gba_copy__tilema
     00184438  ___func_bg_controls_gba_copy_0_t   bg_controls_gba_copy_0_tilem
     00184438  _bg_controls_gba_copy_0_tilemap_   bg_controls_gba_copy_0_tilem
     001845A0  ___func_bg_controls_gba_copy_0_t   bg_controls_gba_copy_0_tilem
     001845A0  _bg_controls_gba_copy_0_tilemap    bg_controls_gba_copy_0_tilem
     00184708  ___func_bg_controls_gbc_copy__ti   bg_controls_gbc_copy__tilema
     00184708  _bg_controls_gbc_copy__tilemap_a   bg_controls_gbc_copy__tilema
     00184870  ___func_bg_controls_gbc_copy__ti   bg_controls_gbc_copy__tilema
     00184870  _bg_controls_gbc_copy__tilemap     bg_controls_gbc_copy__tilema
     001849D8  ___func_bg_controls_mobile_copy_   bg_controls_mobile_copy__til
     001849D8  _bg_controls_mobile_copy__tilema   bg_controls_mobile_copy__til
     00184B40  ___func_bg_controls_mobile_copy_   bg_controls_mobile_copy__til
     00184B40  _bg_controls_mobile_copy__tilema   bg_controls_mobile_copy__til
     00184CA8  ___func_bg_controls_mobile_copy_   bg_controls_mobile_copy_0_ti
     00184CA8  _bg_controls_mobile_copy_0_tilem   bg_controls_mobile_copy_0_ti
     00184E10  ___func_bg_controls_mobile_copy_   bg_controls_mobile_copy_0_ti
     00184E10  _bg_controls_mobile_copy_0_tilem   bg_controls_mobile_copy_0_ti
     00184F78  ___func_bg_dhilly_game_1_tilemap   bg_dhilly_game_1_tilemap_att
     00184F78  _bg_dhilly_game_1_tilemap_attr     bg_dhilly_game_1_tilemap_att
     001850E0  ___func_bg_dhilly_game_1_tilemap   bg_dhilly_game_1_tilemap
     001850E0  _bg_dhilly_game_1_tilemap          bg_dhilly_game_1_tilemap
     00185248  ___func_bg_dhilly_game_10_tilema   bg_dhilly_game_10_tilemap_at
     00185248  _bg_dhilly_game_10_tilemap_attr    bg_dhilly_game_10_tilemap_at
     001853B0  ___func_bg_dhilly_game_10_tilema   bg_dhilly_game_10_tilemap
     001853B0  _bg_dhilly_game_10_tilemap         bg_dhilly_game_10_tilemap
     00185518  ___func_bg_dhilly_game_11_tilema   bg_dhilly_game_11_tilemap_at
     00185518  _bg_dhilly_game_11_tilemap_attr    bg_dhilly_game_11_tilemap_at
     00185680  ___func_bg_dhilly_game_11_tilema   bg_dhilly_game_11_tilemap
     00185680  _bg_dhilly_game_11_tilemap         bg_dhilly_game_11_tilemap
     001857E8  ___func_bg_dhilly_game_4_tilemap   bg_dhilly_game_4_tilemap_att
     001857E8  _bg_dhilly_game_4_tilemap_attr     bg_dhilly_game_4_tilemap_att
     00185950  ___func_bg_dhilly_game_4_tilemap   bg_dhilly_game_4_tilemap
     00185950  _bg_dhilly_game_4_tilemap          bg_dhilly_game_4_tilemap
     00185AB8  ___func_bg_dhilly_game_5_tilemap   bg_dhilly_game_5_tilemap_att
     00185AB8  _bg_dhilly_game_5_tilemap_attr     bg_dhilly_game_5_tilemap_att
     00185C20  ___func_bg_dhilly_game_5_tilemap   bg_dhilly_game_5_tilemap
     00185C20  _bg_dhilly_game_5_tilemap          bg_dhilly_game_5_tilemap
     00185D88  ___func_bg_dhilly_game_8_tilemap   bg_dhilly_game_8_tilemap_att
     00185D88  _bg_dhilly_game_8_tilemap_attr     bg_dhilly_game_8_tilemap_att
     00185EF0  ___func_bg_dhilly_game_8_tilemap   bg_dhilly_game_8_tilemap
     00185EF0  _bg_dhilly_game_8_tilemap          bg_dhilly_game_8_tilemap
     00186058  ___func_bg_dhilly_game_9_tilemap   bg_dhilly_game_9_tilemap_att
     00186058  _bg_dhilly_game_9_tilemap_attr     bg_dhilly_game_9_tilemap_att
     001861C0  ___func_bg_dhilly_game_9_tilemap   bg_dhilly_game_9_tilemap
     001861C0  _bg_dhilly_game_9_tilemap          bg_dhilly_game_9_tilemap
ASxxxx Linker V03.00/V05.40 + sdld,  page 150.
Hexadecimal  [32-Bits]

Area                                    Addr        Size        Decimal Bytes (Attributes)
--------------------------------        ----        ----        ------- ----- ------------
_CODE_24                            00184000    00003FFF =       16383. bytes (REL,CON)

      Value  Global                              Global Defined In Module
      -----  --------------------------------   ------------------------
     00186328  ___func_bg_dhillyhubdown_tilemap   bg_dhillyhubdown_tilemap_att
     00186328  _bg_dhillyhubdown_tilemap_attr     bg_dhillyhubdown_tilemap_att
     00186490  ___func_bg_dhillyhubdown_tilemap   bg_dhillyhubdown_tilemap
     00186490  _bg_dhillyhubdown_tilemap          bg_dhillyhubdown_tilemap
     001865F8  ___func_bg_elevator_tilemap_attr   bg_elevator_tilemap_attr
     001865F8  _bg_elevator_tilemap_attr          bg_elevator_tilemap_attr
     00186760  ___func_bg_elevator_tilemap        bg_elevator_tilemap
     00186760  _bg_elevator_tilemap               bg_elevator_tilemap
     001868C8  ___func_bg_endingscene_0_tilemap   bg_endingscene_0_tilemap_att
     001868C8  _bg_endingscene_0_tilemap_attr     bg_endingscene_0_tilemap_att
     00186A30  ___func_bg_endingscene_0_tilemap   bg_endingscene_0_tilemap
     00186A30  _bg_endingscene_0_tilemap          bg_endingscene_0_tilemap
     00186B98  ___func_bg_endingscene_tilemap_a   bg_endingscene_tilemap_attr
     00186B98  _bg_endingscene_tilemap_attr       bg_endingscene_tilemap_attr
     00186D00  ___func_bg_endingscene_tilemap     bg_endingscene_tilemap
     00186D00  _bg_endingscene_tilemap            bg_endingscene_tilemap
     00186E68  ___func_bg_endingscene2_tilemap_   bg_endingscene2_tilemap_attr
     00186E68  _bg_endingscene2_tilemap_attr      bg_endingscene2_tilemap_attr
     00186FD0  ___func_bg_endingscene2_tilemap    bg_endingscene2_tilemap
     00186FD0  _bg_endingscene2_tilemap           bg_endingscene2_tilemap
     00187138  ___func_bg_endingscene3_tilemap_   bg_endingscene3_tilemap_attr
     00187138  _bg_endingscene3_tilemap_attr      bg_endingscene3_tilemap_attr
     001872A0  ___func_bg_endingscene3_tilemap    bg_endingscene3_tilemap
     001872A0  _bg_endingscene3_tilemap           bg_endingscene3_tilemap
     00187408  ___func_bg_iceos_desktop_copy__t   bg_iceos_desktop_copy__tilem
     00187408  _bg_iceos_desktop_copy__tilemap_   bg_iceos_desktop_copy__tilem
     00187570  ___func_bg_iceos_desktop_copy__t   bg_iceos_desktop_copy__tilem
     00187570  _bg_iceos_desktop_copy__tilemap    bg_iceos_desktop_copy__tilem
     001876D8  ___func_bg_iceos_login_2_copy__t   bg_iceos_login_2_copy__tilem
     001876D8  _bg_iceos_login_2_copy__tilemap_   bg_iceos_login_2_copy__tilem
     00187840  ___func_bg_iceos_login_2_copy__t   bg_iceos_login_2_copy__tilem
     00187840  _bg_iceos_login_2_copy__tilemap    bg_iceos_login_2_copy__tilem
     001879A8  ___func_bg_iceos_login_copy__til   bg_iceos_login_copy__tilemap
     001879A8  _bg_iceos_login_copy__tilemap_at   bg_iceos_login_copy__tilemap
     00187B10  ___func_bg_iceos_login_copy__til   bg_iceos_login_copy__tilemap
     00187B10  _bg_iceos_login_copy__tilemap      bg_iceos_login_copy__tilemap
     00187C78  ___func_bg_iceos_platformer2_cop   bg_iceos_platformer2_copy__t
     00187C78  _bg_iceos_platformer2_copy__tile   bg_iceos_platformer2_copy__t
     00187DE0  ___func_bg_iceos_platformer2_cop   bg_iceos_platformer2_copy__t
     00187DE0  _bg_iceos_platformer2_copy__tile   bg_iceos_platformer2_copy__t
     00187F48  _trigger_120_interact              trigger_120_interact
     00187F4B  GBVM$trigger_120_interact$dafcc4   trigger_120_interact
     00187F6E  GBVM$trigger_120_interact$c2bc67   trigger_120_interact
     00187FB3  GBVM$trigger_120_interact$1ec9b1   trigger_120_interact
     00187FCC  GBVM$trigger_120_interact$4180cb   trigger_120_interact

ASxxxx Linker V03.00/V05.40 + sdld,  page 151.
Hexadecimal  [32-Bits]

Area                                    Addr        Size        Decimal Bytes (Attributes)
--------------------------------        ----        ----        ------- ----- ------------
_CODE_5                             00054000    00003FFE =       16382. bytes (REL,CON)

      Value  Global                              Global Defined In Module
      -----  --------------------------------   ------------------------
     00054000  ___func_bg_controls_gba_copy_0_t   bg_controls_gba_copy_0_tiles
     00054000  _bg_controls_gba_copy_0_tileset    bg_controls_gba_copy_0_tiles
     00055682  ___func_scene_101_triggers         scene_101_triggers
     00055682  _scene_101_triggers                scene_101_triggers
     0005568A  ___func_scene_34_collisions        scene_34_collisions
     0005568A  _scene_34_collisions               scene_34_collisions
     00057D9A  ___func_scene_65_collisions        scene_65_collisions
     00057D9A  _scene_65_collisions               scene_65_collisions

ASxxxx Linker V03.00/V05.40 + sdld,  page 152.
Hexadecimal  [32-Bits]

Area                                    Addr        Size        Decimal Bytes (Attributes)
--------------------------------        ----        ----        ------- ----- ------------
_CODE_6                             00064000    00003FFE =       16382. bytes (REL,CON)

      Value  Global                              Global Defined In Module
      -----  --------------------------------   ------------------------
     00064000  ___func_bg_controls_gbc_copy__ti   bg_controls_gbc_copy__tilese
     00064000  _bg_controls_gbc_copy__tileset     bg_controls_gbc_copy__tilese
     00065682  ___func_bg_init_copy_1_tileset     bg_init_copy_1_tileset
     00065682  _bg_init_copy_1_tileset            bg_init_copy_1_tileset
     000658D4  _scene_34_init                     scene_34_init
     000658D5  GBVM$scene_34_init$7c6c4d91_d25b   scene_34_init
     000658DA  GBVM$scene_34_init$7bebe5f7_65ef   scene_34_init
     000658E2  GBVM$scene_34_init$autofade$e578   scene_34_init
     000658E2  GBVM_END$scene_34_init$7bebe5f7_   scene_34_init
     000658EE  ___func_scene_58_collisions        scene_58_collisions
     000658EE  _scene_58_collisions               scene_58_collisions

ASxxxx Linker V03.00/V05.40 + sdld,  page 153.
Hexadecimal  [32-Bits]

Area                                    Addr        Size        Decimal Bytes (Attributes)
--------------------------------        ----        ----        ------- ----- ------------
_CODE_7                             00074000    00003FFE =       16382. bytes (REL,CON)

      Value  Global                              Global Defined In Module
      -----  --------------------------------   ------------------------
     00074000  ___func_bg_controls_mobile_copy_   bg_controls_mobile_copy__til
     00074000  _bg_controls_mobile_copy__tilese   bg_controls_mobile_copy__til
     00075682  ___func_bg_lencityopen_copy__til   bg_lencityopen_copy__tileset
     00075682  _bg_lencityopen_copy__tileset      bg_lencityopen_copy__tileset
     000758D4  _scene_58_init                     scene_58_init
     000758D5  GBVM$scene_58_init$cfa12eab_d8ac   scene_58_init
     000758DA  GBVM$scene_58_init$bfc1fd8b_0cd0   scene_58_init
     000758E2  GBVM$scene_58_init$autofade$21fd   scene_58_init
     000758E2  GBVM_END$scene_58_init$bfc1fd8b_   scene_58_init
     000758EE  ___func_scene_62_collisions        scene_62_collisions
     000758EE  _scene_62_collisions               scene_62_collisions

ASxxxx Linker V03.00/V05.40 + sdld,  page 154.
Hexadecimal  [32-Bits]

Area                                    Addr        Size        Decimal Bytes (Attributes)
--------------------------------        ----        ----        ------- ----- ------------
_CODE_25                            00194000    00004000 =       16384. bytes (REL,CON)

      Value  Global                              Global Defined In Module
      -----  --------------------------------   ------------------------
     00194000  ___func_bg_iceos_platformer3_cop   bg_iceos_platformer3_copy__t
     00194000  _bg_iceos_platformer3_copy__tile   bg_iceos_platformer3_copy__t
     00194168  ___func_bg_iceos_platformer3_cop   bg_iceos_platformer3_copy__t
     00194168  _bg_iceos_platformer3_copy__tile   bg_iceos_platformer3_copy__t
     001942D0  ___func_bg_iceos_platformer4_til   bg_iceos_platformer4_tilemap
     001942D0  _bg_iceos_platformer4_tilemap_at   bg_iceos_platformer4_tilemap
     00194438  ___func_bg_iceos_platformer4_til   bg_iceos_platformer4_tilemap
     00194438  _bg_iceos_platformer4_tilemap      bg_iceos_platformer4_tilemap
     001945A0  ___func_bg_init_copy_1_tilemap_a   bg_init_copy_1_tilemap_attr
     001945A0  _bg_init_copy_1_tilemap_attr       bg_init_copy_1_tilemap_attr
     00194708  ___func_bg_init_copy_1_tilemap     bg_init_copy_1_tilemap
     00194708  _bg_init_copy_1_tilemap            bg_init_copy_1_tilemap
     00194870  ___func_bg_intro_weather_copy__t   bg_intro_weather_copy__tilem
     00194870  _bg_intro_weather_copy__tilemap_   bg_intro_weather_copy__tilem
     001949D8  ___func_bg_intro_weather_copy__t   bg_intro_weather_copy__tilem
     001949D8  _bg_intro_weather_copy__tilemap    bg_intro_weather_copy__tilem
     00194B40  ___func_bg_lair_hub_tilemap_attr   bg_lair_hub_tilemap_attr
     00194B40  _bg_lair_hub_tilemap_attr          bg_lair_hub_tilemap_attr
     00194CA8  ___func_bg_lair_hub_tilemap        bg_lair_hub_tilemap
     00194CA8  _bg_lair_hub_tilemap               bg_lair_hub_tilemap
     00194E10  ___func_bg_lair_right_3_copy__ti   bg_lair_right_3_copy__tilema
     00194E10  _bg_lair_right_3_copy__tilemap_a   bg_lair_right_3_copy__tilema
     00194F78  ___func_bg_lair_right_3_copy__ti   bg_lair_right_3_copy__tilema
     00194F78  _bg_lair_right_3_copy__tilemap     bg_lair_right_3_copy__tilema
     001950E0  ___func_bg_lair_right_3_copy__ti   bg_lair_right_3_copy__tilese
     001950E0  _bg_lair_right_3_copy__tileset     bg_lair_right_3_copy__tilese
     00195192  ___func_bg_lair_right_3_tilemap_   bg_lair_right_3_tilemap_attr
     00195192  _bg_lair_right_3_tilemap_attr      bg_lair_right_3_tilemap_attr
     001952FA  ___func_bg_lair_right_3_tilemap    bg_lair_right_3_tilemap
     001952FA  _bg_lair_right_3_tilemap           bg_lair_right_3_tilemap
     00195462  ___func_bg_lair_right_4_copy__ti   bg_lair_right_4_copy__tilema
     00195462  _bg_lair_right_4_copy__tilemap_a   bg_lair_right_4_copy__tilema
     001955CA  ___func_bg_lair_right_4_copy__ti   bg_lair_right_4_copy__tilema
     001955CA  _bg_lair_right_4_copy__tilemap     bg_lair_right_4_copy__tilema
     00195732  ___func_bg_lair_right_5_tilemap_   bg_lair_right_5_tilemap_attr
     00195732  _bg_lair_right_5_tilemap_attr      bg_lair_right_5_tilemap_attr
     0019589A  ___func_bg_lair_right_5_tilemap    bg_lair_right_5_tilemap
     0019589A  _bg_lair_right_5_tilemap           bg_lair_right_5_tilemap
     00195A02  ___func_bg_lencity_dhillybuildin   bg_lencity_dhillybuilding_c_
     00195A02  _bg_lencity_dhillybuilding_c_til   bg_lencity_dhillybuilding_c_
     00195B6A  ___func_bg_lencity_dhillybuildin   bg_lencity_dhillybuilding_c_
     00195B6A  _bg_lencity_dhillybuilding_c_til   bg_lencity_dhillybuilding_c_
     00195CD2  ___func_bg_lencity_dhillybuildin   bg_lencity_dhillybuilding_f_
     00195CD2  _bg_lencity_dhillybuilding_f_til   bg_lencity_dhillybuilding_f_
     00195E3A  ___func_bg_lencity_dhillybuildin   bg_lencity_dhillybuilding_f_
     00195E3A  _bg_lencity_dhillybuilding_f_til   bg_lencity_dhillybuilding_f_
     00195FA2  ___func_bg_lencity_trainstation_   bg_lencity_trainstation_cop_
     00195FA2  _bg_lencity_trainstation_cop_til   bg_lencity_trainstation_cop_
     0019610A  ___func_bg_lencity_trainstation_   bg_lencity_trainstation_cop_
     0019610A  _bg_lencity_trainstation_cop_til   bg_lencity_trainstation_cop_
ASxxxx Linker V03.00/V05.40 + sdld,  page 155.
Hexadecimal  [32-Bits]

Area                                    Addr        Size        Decimal Bytes (Attributes)
--------------------------------        ----        ----        ------- ----- ------------
_CODE_25                            00194000    00004000 =       16384. bytes (REL,CON)

      Value  Global                              Global Defined In Module
      -----  --------------------------------   ------------------------
     00196272  ___func_bg_options_copy__tilemap   bg_options_copy__tilemap_att
     00196272  _bg_options_copy__tilemap_attr     bg_options_copy__tilemap_att
     001963DA  ___func_bg_options_copy__tilemap   bg_options_copy__tilemap
     001963DA  _bg_options_copy__tilemap          bg_options_copy__tilemap
     00196542  ___func_bg_pixil_frame_0_23_tile   bg_pixil_frame_0_23_tilemap_
     00196542  _bg_pixil_frame_0_23_tilemap_att   bg_pixil_frame_0_23_tilemap_
     001966AA  ___func_bg_pixil_frame_0_23_tile   bg_pixil_frame_0_23_tilemap
     001966AA  _bg_pixil_frame_0_23_tilemap       bg_pixil_frame_0_23_tilemap
     00196812  ___func_bg_pixil_frame_0_copy_co   bg_pixil_frame_0_copy_copy__
     00196812  _bg_pixil_frame_0_copy_copy__til   bg_pixil_frame_0_copy_copy__
     0019697A  ___func_bg_pixil_frame_0_copy_co   bg_pixil_frame_0_copy_copy__
     0019697A  _bg_pixil_frame_0_copy_copy__til   bg_pixil_frame_0_copy_copy__
     00196AE2  ___func_bg_placeholder_copy_copy   bg_placeholder_copy_copy_co_
     00196AE2  _bg_placeholder_copy_copy_co_0_t   bg_placeholder_copy_copy_co_
     00196C4A  ___func_bg_placeholder_copy_copy   bg_placeholder_copy_copy_co_
     00196C4A  _bg_placeholder_copy_copy_co_0_t   bg_placeholder_copy_copy_co_
     00196DB2  ___func_bg_samsam_copy_tilemap_a   bg_samsam_copy_tilemap_attr
     00196DB2  _bg_samsam_copy_tilemap_attr       bg_samsam_copy_tilemap_attr
     00196F1A  ___func_bg_samsam_copy_tilemap     bg_samsam_copy_tilemap
     00196F1A  _bg_samsam_copy_tilemap            bg_samsam_copy_tilemap
     00197082  ___func_bg_shillycity_sara_house   bg_shillycity_sara_house_co_
     00197082  _bg_shillycity_sara_house_co_til   bg_shillycity_sara_house_co_
     001971EA  ___func_bg_shillycity_sara_house   bg_shillycity_sara_house_co_
     001971EA  _bg_shillycity_sara_house_co_til   bg_shillycity_sara_house_co_
     00197352  ___func_bg_shillycityopen_copy__   bg_shillycityopen_copy__tile
     00197352  _bg_shillycityopen_copy__tilemap   bg_shillycityopen_copy__tile
     001974BA  ___func_bg_shillycityopen_copy__   bg_shillycityopen_copy__tile
     001974BA  _bg_shillycityopen_copy__tilemap   bg_shillycityopen_copy__tile
     00197622  ___func_bg_title_copy__tilemap_a   bg_title_copy__tilemap_attr
     00197622  _bg_title_copy__tilemap_attr       bg_title_copy__tilemap_attr
     0019778A  ___func_bg_title_copy__tilemap     bg_title_copy__tilemap
     0019778A  _bg_title_copy__tilemap            bg_title_copy__tilemap
     001978F2  ___func_bg_title_copy_0_tilemap_   bg_title_copy_0_tilemap_attr
     001978F2  _bg_title_copy_0_tilemap_attr      bg_title_copy_0_tilemap_attr
     00197A5A  ___func_bg_title_copy_0_tilemap    bg_title_copy_0_tilemap
     00197A5A  _bg_title_copy_0_tilemap           bg_title_copy_0_tilemap
     00197BC2  ___func_bg_title_copy_1_tilemap_   bg_title_copy_1_tilemap_attr
     00197BC2  _bg_title_copy_1_tilemap_attr      bg_title_copy_1_tilemap_attr
     00197D2A  ___func_bg_title_copy_1_tilemap    bg_title_copy_1_tilemap
     00197D2A  _bg_title_copy_1_tilemap           bg_title_copy_1_tilemap
     00197E92  ___func_bg_title_copy_2_tilemap_   bg_title_copy_2_tilemap_attr
     00197E92  _bg_title_copy_2_tilemap_attr      bg_title_copy_2_tilemap_attr
     00197FFA  ___func_scene_22_sprites           scene_22_sprites
     00197FFA  _scene_22_sprites                  scene_22_sprites

ASxxxx Linker V03.00/V05.40 + sdld,  page 156.
Hexadecimal  [32-Bits]

Area                                    Addr        Size        Decimal Bytes (Attributes)
--------------------------------        ----        ----        ------- ----- ------------
_CODE_12                            000C4000    00004000 =       16384. bytes (REL,CON)

      Value  Global                              Global Defined In Module
      -----  --------------------------------   ------------------------
     000C4000  ___func_bg_lencityopen_copy_0_ti   bg_lencityopen_copy_0_tilema
     000C4000  _bg_lencityopen_copy_0_tilemap     bg_lencityopen_copy_0_tilema
     000C4B22  ___func_bg_pixil_frame_0_31_tile   bg_pixil_frame_0_31_tilemap_
     000C4B22  _bg_pixil_frame_0_31_tilemap_att   bg_pixil_frame_0_31_tilemap_
     000C5608  ___func_bg_title_copy__tileset     bg_title_copy__tileset
     000C5608  _bg_title_copy__tileset            bg_title_copy__tileset
     000C5B2A  ___func_font_gbs_variable_width    font_gbs_variable_width
     000C69A5  _font_gbs_variable_width           font_gbs_variable_width
     000C69AD  ___func_scene_52_collisions        scene_52_collisions
     000C69AD  _scene_52_collisions               scene_52_collisions
     000C74CF  ___func_scene_53_collisions        scene_53_collisions
     000C74CF  _scene_53_collisions               scene_53_collisions
     000C7FF1  _scene_86_init                     scene_86_init
     000C7FF2  GBVM$scene_86_init$26de457d_dea0   scene_86_init
     000C7FF4  GBVM$scene_86_init$autofade$759a   scene_86_init
ASxxxx Linker V03.00/V05.40 + sdld,  page 157.
Hexadecimal  [32-Bits]

Area                                    Addr        Size        Decimal Bytes (Attributes)
--------------------------------        ----        ----        ------- ----- ------------
_HEADER_LCD0                        00000000    00000003 =           3. bytes (ABS,CON)

      Value  Global                              Global Defined In Module
      -----  --------------------------------   ------------------------
ASxxxx Linker V03.00/V05.40 + sdld,  page 158.

Files Linked                              [ module(s) ]

/tmp/_gbstools/gbdk/lib/gb/crt0.o         [ Runtime ]
/tmp/_gbsbuild/obj/absolute.rel           [ absolute ]
/tmp/_gbsbuild/obj/actor.rel              [ actor ]
/tmp/_gbsbuild/obj/bankdata.rel           [ bankdata ]
/tmp/_gbsbuild/obj/bootstrap.rel          [  ]
/tmp/_gbsbuild/obj/camera.rel             [ camera ]
/tmp/_gbsbuild/obj/core.rel               [ core ]
/tmp/_gbsbuild/obj/crash_handler.rel      [  ]
/tmp/_gbsbuild/obj/data_manager.rel       [ data_manager ]
/tmp/_gbsbuild/obj/events.rel             [ events ]
/tmp/_gbsbuild/obj/fade_manager.rel       [ fade_manager ]
/tmp/_gbsbuild/obj/flasher_s.rel          [  ]
/tmp/_gbsbuild/obj/flasher.rel            [ flasher ]
/tmp/_gbsbuild/obj/game_time.rel          [ game_time ]
/tmp/_gbsbuild/obj/gbprinter.rel          [ gbprinter ]
/tmp/_gbsbuild/obj/input.rel              [ input ]
/tmp/_gbsbuild/obj/interrupt_sio.rel      [  ]
/tmp/_gbsbuild/obj/interrupt_timer.rel    [  ]
/tmp/_gbsbuild/obj/interrupts.rel         [ interrupts ]
/tmp/_gbsbuild/obj/load_save.rel          [ load_save ]
/tmp/_gbsbuild/obj/math_atan2.rel         [ math_atan2 ]
/tmp/_gbsbuild/obj/math.rel               [ math ]
/tmp/_gbsbuild/obj/music_manager.rel      [ music_manager ]
/tmp/_gbsbuild/obj/palette.rel            [ palette ]
/tmp/_gbsbuild/obj/parallax.rel           [ parallax ]
/tmp/_gbsbuild/obj/projectiles.rel        [ projectiles ]
/tmp/_gbsbuild/obj/scroll_a.rel           [  ]
/tmp/_gbsbuild/obj/scroll.rel             [ scroll ]
/tmp/_gbsbuild/obj/set_tile_submap.rel    [  ]
/tmp/_gbsbuild/obj/sfx_player.rel         [ sfx_player ]
/tmp/_gbsbuild/obj/sgb_border.rel         [ sgb_border ]
/tmp/_gbsbuild/obj/sio.rel                [ sio ]
/tmp/_gbsbuild/obj/states_caller.rel      [  ]
/tmp/_gbsbuild/obj/system.rel             [ system ]
/tmp/_gbsbuild/obj/trigger.rel            [ trigger ]
/tmp/_gbsbuild/obj/ui_a.rel               [  ]
/tmp/_gbsbuild/obj/ui.rel                 [ ui ]
/tmp/_gbsbuild/obj/vm_actor.rel           [ vm_actor ]
/tmp/_gbsbuild/obj/vm_camera.rel          [ vm_camera ]
/tmp/_gbsbuild/obj/vm_gameboy.rel         [ vm_gameboy ]
/tmp/_gbsbuild/obj/vm_gbprinter.rel       [ vm_gbprinter ]
/tmp/_gbsbuild/obj/vm_instructions.rel    [ vm_instructions ]
/tmp/_gbsbuild/obj/vm_load_save.rel       [ vm_load_save ]
/tmp/_gbsbuild/obj/vm_math.rel            [ vm_math ]
/tmp/_gbsbuild/obj/vm_music.rel           [ vm_music ]
/tmp/_gbsbuild/obj/vm_palette.rel         [ vm_palette ]
/tmp/_gbsbuild/obj/vm_projectiles.rel     [ vm_projectiles ]
/tmp/_gbsbuild/obj/vm_rtc.rel             [ vm_rtc ]
/tmp/_gbsbuild/obj/vm_scene.rel           [ vm_scene ]
/tmp/_gbsbuild/obj/vm_sgb.rel             [ vm_sgb ]
/tmp/_gbsbuild/obj/vm_sio.rel             [ vm_sio ]
/tmp/_gbsbuild/obj/vm_ui_a.rel            [ vm_ui_a ]
/tmp/_gbsbuild/obj/vm_ui.rel              [ vm_ui ]
/tmp/_gbsbuild/obj/vm.rel                 [ vm ]
/tmp/_gbsbuild/obj/actor_11_interact.rel  [ actor_11_interact ]
/tmp/_gbsbuild/obj/actor_14_interact.rel  [ actor_14_interact ]
/tmp/_gbsbuild/obj/actor_16_interact.rel  [ actor_16_interact ]
/tmp/_gbsbuild/obj/actor_17_interact.rel  [ actor_17_interact ]
/tmp/_gbsbuild/obj/actor_18_interact.rel  [ actor_18_interact ]
/tmp/_gbsbuild/obj/actor_19_interact.rel  [ actor_19_interact ]
/tmp/_gbsbuild/obj/actor_21_interact.rel  [ actor_21_interact ]
/tmp/_gbsbuild/obj/actor_25_interact.rel  [ actor_25_interact ]
/tmp/_gbsbuild/obj/actor_31_interact.rel  [ actor_31_interact ]
/tmp/_gbsbuild/obj/actor_32_interact.rel  [ actor_32_interact ]
/tmp/_gbsbuild/obj/actor_33_interact.rel  [ actor_33_interact ]
/tmp/_gbsbuild/obj/actor_34_interact.rel  [ actor_34_interact ]
/tmp/_gbsbuild/obj/actor_35_interact.rel  [ actor_35_interact ]
/tmp/_gbsbuild/obj/actor_36_interact.rel  [ actor_36_interact ]
/tmp/_gbsbuild/obj/actor_37_interact.rel  [ actor_37_interact ]
/tmp/_gbsbuild/obj/actor_38_interact.rel  [ actor_38_interact ]
/tmp/_gbsbuild/obj/actor_39_interact.rel  [ actor_39_interact ]
/tmp/_gbsbuild/obj/actor_41_interact.rel  [ actor_41_interact ]
/tmp/_gbsbuild/obj/actor_42_interact.rel  [ actor_42_interact ]
/tmp/_gbsbuild/obj/actor_46_interact.rel  [ actor_46_interact ]
/tmp/_gbsbuild/obj/actor_47_interact.rel  [ actor_47_interact ]
/tmp/_gbsbuild/obj/actor_6_interact.rel   [ actor_6_interact ]
/tmp/_gbsbuild/obj/actor_60_interact.rel  [ actor_60_interact ]
/tmp/_gbsbuild/obj/actor_61_interact.rel  [ actor_61_interact ]
/tmp/_gbsbuild/obj/actor_64_interact.rel  [ actor_64_interact ]
/tmp/_gbsbuild/obj/actor_65_interact.rel  [ actor_65_interact ]
/tmp/_gbsbuild/obj/avatar_font_0.rel      [ avatar_font_0 ]
/tmp/_gbsbuild/obj/bg_announcer_tilemap_attr.rel
                                          [ bg_announcer_tilemap_attr ]
/tmp/_gbsbuild/obj/bg_announcer_tilemap.rel
                                          [ bg_announcer_tilemap ]
/tmp/_gbsbuild/obj/bg_announcer_tileset.rel
                                          [ bg_announcer_tileset ]
/tmp/_gbsbuild/obj/bg_announcer.rel       [ bg_announcer ]
/tmp/_gbsbuild/obj/bg_area_dhilly_city_lair_la_0_tilemap_attr.rel
                                          [ bg_area_dhilly_city_lair_la_0_ti ]
/tmp/_gbsbuild/obj/bg_area_dhilly_city_lair_la_0_tilemap.rel
                                          [ bg_area_dhilly_city_lair_la_0_ti ]
/tmp/_gbsbuild/obj/bg_area_dhilly_city_lair_la_0_tileset.rel
                                          [ bg_area_dhilly_city_lair_la_0_ti ]
/tmp/_gbsbuild/obj/bg_area_dhilly_city_lair_la_0.rel
                                          [ bg_area_dhilly_city_lair_la_0 ]
/tmp/_gbsbuild/obj/bg_area_dhilly_city_lair_la_1_tilemap_attr.rel
                                          [ bg_area_dhilly_city_lair_la_1_ti ]
/tmp/_gbsbuild/obj/bg_area_dhilly_city_lair_la_1_tilemap.rel
                                          [ bg_area_dhilly_city_lair_la_1_ti ]
/tmp/_gbsbuild/obj/bg_area_dhilly_city_lair_la_1_tileset.rel
                                          [ bg_area_dhilly_city_lair_la_1_ti ]
/tmp/_gbsbuild/obj/bg_area_dhilly_city_lair_la_1.rel
                                          [ bg_area_dhilly_city_lair_la_1 ]
/tmp/_gbsbuild/obj/bg_area_dhilly_city_lair_la_2_tilemap_attr.rel
                                          [ bg_area_dhilly_city_lair_la_2_ti ]
/tmp/_gbsbuild/obj/bg_area_dhilly_city_lair_la_2_tilemap.rel
                                          [ bg_area_dhilly_city_lair_la_2_ti ]
/tmp/_gbsbuild/obj/bg_area_dhilly_city_lair_la_2_tileset.rel
                                          [ bg_area_dhilly_city_lair_la_2_ti ]
/tmp/_gbsbuild/obj/bg_area_dhilly_city_lair_la_2.rel
                                          [ bg_area_dhilly_city_lair_la_2 ]
/tmp/_gbsbuild/obj/bg_area_dhilly_city_lair_la_3_tilemap_attr.rel
                                          [ bg_area_dhilly_city_lair_la_3_ti ]
/tmp/_gbsbuild/obj/bg_area_dhilly_city_lair_la_3_tilemap.rel
                                          [ bg_area_dhilly_city_lair_la_3_ti ]
/tmp/_gbsbuild/obj/bg_area_dhilly_city_lair_la_3_tileset.rel
                                          [ bg_area_dhilly_city_lair_la_3_ti ]
/tmp/_gbsbuild/obj/bg_area_dhilly_city_lair_la_3.rel
                                          [ bg_area_dhilly_city_lair_la_3 ]
/tmp/_gbsbuild/obj/bg_area_dhilly_city_lair_la_4_tilemap_attr.rel
                                          [ bg_area_dhilly_city_lair_la_4_ti ]
/tmp/_gbsbuild/obj/bg_area_dhilly_city_lair_la_4_tilemap.rel
                                          [ bg_area_dhilly_city_lair_la_4_ti ]
/tmp/_gbsbuild/obj/bg_area_dhilly_city_lair_la_4_tileset.rel
                                          [ bg_area_dhilly_city_lair_la_4_ti ]
/tmp/_gbsbuild/obj/bg_area_dhilly_city_lair_la_4.rel
                                          [ bg_area_dhilly_city_lair_la_4 ]
/tmp/_gbsbuild/obj/bg_area_dhilly_city_lair_la_tilemap_attr.rel
                                          [ bg_area_dhilly_city_lair_la_tile ]
/tmp/_gbsbuild/obj/bg_area_dhilly_city_lair_la_tilemap.rel
                                          [ bg_area_dhilly_city_lair_la_tile ]
/tmp/_gbsbuild/obj/bg_area_dhilly_city_lair_la_tileset.rel
                                          [ bg_area_dhilly_city_lair_la_tile ]
/tmp/_gbsbuild/obj/bg_area_dhilly_city_lair_la.rel
                                          [ bg_area_dhilly_city_lair_la ]
/tmp/_gbsbuild/obj/bg_area_len_city_eve_house__tilemap_attr.rel
                                          [ bg_area_len_city_eve_house__tile ]
/tmp/_gbsbuild/obj/bg_area_len_city_eve_house__tilemap.rel
                                          [ bg_area_len_city_eve_house__tile ]
/tmp/_gbsbuild/obj/bg_area_len_city_eve_house__tileset.rel
                                          [ bg_area_len_city_eve_house__tile ]
/tmp/_gbsbuild/obj/bg_area_len_city_eve_house_.rel
                                          [ bg_area_len_city_eve_house_ ]
/tmp/_gbsbuild/obj/bg_cave_ladder_copy__tilemap_attr.rel
                                          [ bg_cave_ladder_copy__tilemap_att ]
/tmp/_gbsbuild/obj/bg_cave_ladder_copy__tilemap.rel
                                          [ bg_cave_ladder_copy__tilemap ]
/tmp/_gbsbuild/obj/bg_cave_ladder_copy__tileset.rel
                                          [ bg_cave_ladder_copy__tileset ]
/tmp/_gbsbuild/obj/bg_cave_ladder_copy_.rel
                                          [ bg_cave_ladder_copy_ ]
/tmp/_gbsbuild/obj/bg_cave_ladder_copy_0_tilemap_attr.rel
                                          [ bg_cave_ladder_copy_0_tilemap_at ]
/tmp/_gbsbuild/obj/bg_cave_ladder_copy_0_tilemap.rel
                                          [ bg_cave_ladder_copy_0_tilemap ]
/tmp/_gbsbuild/obj/bg_cave_ladder_copy_0_tileset.rel
                                          [ bg_cave_ladder_copy_0_tileset ]
/tmp/_gbsbuild/obj/bg_cave_ladder_copy_0.rel
                                          [ bg_cave_ladder_copy_0 ]
/tmp/_gbsbuild/obj/bg_chase_shilly_tilemap_attr.rel
                                          [ bg_chase_shilly_tilemap_attr ]
/tmp/_gbsbuild/obj/bg_chase_shilly_tilemap.rel
                                          [ bg_chase_shilly_tilemap ]
/tmp/_gbsbuild/obj/bg_chase_shilly_tileset.rel
                                          [ bg_chase_shilly_tileset ]
/tmp/_gbsbuild/obj/bg_chase_shilly.rel    [ bg_chase_shilly ]
/tmp/_gbsbuild/obj/bg_cinema_tilemap_attr.rel
                                          [ bg_cinema_tilemap_attr ]
/tmp/_gbsbuild/obj/bg_cinema_tilemap.rel  [ bg_cinema_tilemap ]
/tmp/_gbsbuild/obj/bg_cinema_tileset.rel  [ bg_cinema_tileset ]
/tmp/_gbsbuild/obj/bg_cinema.rel          [ bg_cinema ]
/tmp/_gbsbuild/obj/bg_controls_gb_copy__tilemap_attr.rel
                                          [ bg_controls_gb_copy__tilemap_att ]
/tmp/_gbsbuild/obj/bg_controls_gb_copy__tilemap.rel
                                          [ bg_controls_gb_copy__tilemap ]
/tmp/_gbsbuild/obj/bg_controls_gb_copy__tileset.rel
                                          [ bg_controls_gb_copy__tileset ]
/tmp/_gbsbuild/obj/bg_controls_gb_copy_.rel
                                          [ bg_controls_gb_copy_ ]
/tmp/_gbsbuild/obj/bg_controls_gb_copy_0_tilemap_attr.rel
                                          [ bg_controls_gb_copy_0_tilemap_at ]
/tmp/_gbsbuild/obj/bg_controls_gb_copy_0_tilemap.rel
                                          [ bg_controls_gb_copy_0_tilemap ]
/tmp/_gbsbuild/obj/bg_controls_gb_copy_0_tileset.rel
                                          [ bg_controls_gb_copy_0_tileset ]
/tmp/_gbsbuild/obj/bg_controls_gb_copy_0.rel
                                          [ bg_controls_gb_copy_0 ]
/tmp/_gbsbuild/obj/bg_controls_gba_copy__tilemap_attr.rel
                                          [ bg_controls_gba_copy__tilemap_at ]
/tmp/_gbsbuild/obj/bg_controls_gba_copy__tilemap.rel
                                          [ bg_controls_gba_copy__tilemap ]
/tmp/_gbsbuild/obj/bg_controls_gba_copy__tileset.rel
                                          [ bg_controls_gba_copy__tileset ]
/tmp/_gbsbuild/obj/bg_controls_gba_copy_.rel
                                          [ bg_controls_gba_copy_ ]
/tmp/_gbsbuild/obj/bg_controls_gba_copy_0_tilemap_attr.rel
                                          [ bg_controls_gba_copy_0_tilemap_a ]
/tmp/_gbsbuild/obj/bg_controls_gba_copy_0_tilemap.rel
                                          [ bg_controls_gba_copy_0_tilemap ]
/tmp/_gbsbuild/obj/bg_controls_gba_copy_0_tileset.rel
                                          [ bg_controls_gba_copy_0_tileset ]
/tmp/_gbsbuild/obj/bg_controls_gba_copy_0.rel
                                          [ bg_controls_gba_copy_0 ]
/tmp/_gbsbuild/obj/bg_controls_gbc_copy__tilemap_attr.rel
                                          [ bg_controls_gbc_copy__tilemap_at ]
/tmp/_gbsbuild/obj/bg_controls_gbc_copy__tilemap.rel
                                          [ bg_controls_gbc_copy__tilemap ]
/tmp/_gbsbuild/obj/bg_controls_gbc_copy__tileset.rel
                                          [ bg_controls_gbc_copy__tileset ]
/tmp/_gbsbuild/obj/bg_controls_gbc_copy_.rel
                                          [ bg_controls_gbc_copy_ ]
/tmp/_gbsbuild/obj/bg_controls_mobile_copy__tilemap_attr.rel
                                          [ bg_controls_mobile_copy__tilemap ]
/tmp/_gbsbuild/obj/bg_controls_mobile_copy__tilemap.rel
                                          [ bg_controls_mobile_copy__tilemap ]
/tmp/_gbsbuild/obj/bg_controls_mobile_copy__tileset.rel
                                          [ bg_controls_mobile_copy__tileset ]
/tmp/_gbsbuild/obj/bg_controls_mobile_copy_.rel
                                          [ bg_controls_mobile_copy_ ]
/tmp/_gbsbuild/obj/bg_controls_mobile_copy_0_tilemap_attr.rel
                                          [ bg_controls_mobile_copy_0_tilema ]
/tmp/_gbsbuild/obj/bg_controls_mobile_copy_0_tilemap.rel
                                          [ bg_controls_mobile_copy_0_tilema ]
/tmp/_gbsbuild/obj/bg_controls_mobile_copy_0_tileset.rel
                                          [ bg_controls_mobile_copy_0_tilese ]
/tmp/_gbsbuild/obj/bg_controls_mobile_copy_0.rel
                                          [ bg_controls_mobile_copy_0 ]
/tmp/_gbsbuild/obj/bg_dhilly_bridge_tilemap_attr.rel
                                          [ bg_dhilly_bridge_tilemap_attr ]
/tmp/_gbsbuild/obj/bg_dhilly_bridge_tilemap.rel
                                          [ bg_dhilly_bridge_tilemap ]
/tmp/_gbsbuild/obj/bg_dhilly_bridge_tileset.rel
                                          [ bg_dhilly_bridge_tileset ]
/tmp/_gbsbuild/obj/bg_dhilly_bridge.rel   [ bg_dhilly_bridge ]
/tmp/_gbsbuild/obj/bg_dhilly_game_1_tilemap_attr.rel
                                          [ bg_dhilly_game_1_tilemap_attr ]
/tmp/_gbsbuild/obj/bg_dhilly_game_1_tilemap.rel
                                          [ bg_dhilly_game_1_tilemap ]
/tmp/_gbsbuild/obj/bg_dhilly_game_1_tileset.rel
                                          [ bg_dhilly_game_1_tileset ]
/tmp/_gbsbuild/obj/bg_dhilly_game_1.rel   [ bg_dhilly_game_1 ]
/tmp/_gbsbuild/obj/bg_dhilly_game_10_tilemap_attr.rel
                                          [ bg_dhilly_game_10_tilemap_attr ]
/tmp/_gbsbuild/obj/bg_dhilly_game_10_tilemap.rel
                                          [ bg_dhilly_game_10_tilemap ]
/tmp/_gbsbuild/obj/bg_dhilly_game_10_tileset.rel
                                          [ bg_dhilly_game_10_tileset ]
/tmp/_gbsbuild/obj/bg_dhilly_game_10.rel  [ bg_dhilly_game_10 ]
/tmp/_gbsbuild/obj/bg_dhilly_game_11_tilemap_attr.rel
                                          [ bg_dhilly_game_11_tilemap_attr ]
/tmp/_gbsbuild/obj/bg_dhilly_game_11_tilemap.rel
                                          [ bg_dhilly_game_11_tilemap ]
/tmp/_gbsbuild/obj/bg_dhilly_game_11_tileset.rel
                                          [ bg_dhilly_game_11_tileset ]
/tmp/_gbsbuild/obj/bg_dhilly_game_11.rel  [ bg_dhilly_game_11 ]
/tmp/_gbsbuild/obj/bg_dhilly_game_4_tilemap_attr.rel
                                          [ bg_dhilly_game_4_tilemap_attr ]
/tmp/_gbsbuild/obj/bg_dhilly_game_4_tilemap.rel
                                          [ bg_dhilly_game_4_tilemap ]
/tmp/_gbsbuild/obj/bg_dhilly_game_4_tileset.rel
                                          [ bg_dhilly_game_4_tileset ]
/tmp/_gbsbuild/obj/bg_dhilly_game_4.rel   [ bg_dhilly_game_4 ]
/tmp/_gbsbuild/obj/bg_dhilly_game_5_tilemap_attr.rel
                                          [ bg_dhilly_game_5_tilemap_attr ]
/tmp/_gbsbuild/obj/bg_dhilly_game_5_tilemap.rel
                                          [ bg_dhilly_game_5_tilemap ]
/tmp/_gbsbuild/obj/bg_dhilly_game_5_tileset.rel
                                          [ bg_dhilly_game_5_tileset ]
/tmp/_gbsbuild/obj/bg_dhilly_game_5.rel   [ bg_dhilly_game_5 ]
/tmp/_gbsbuild/obj/bg_dhilly_game_8_tilemap_attr.rel
                                          [ bg_dhilly_game_8_tilemap_attr ]
/tmp/_gbsbuild/obj/bg_dhilly_game_8_tilemap.rel
                                          [ bg_dhilly_game_8_tilemap ]
/tmp/_gbsbuild/obj/bg_dhilly_game_8_tileset.rel
                                          [ bg_dhilly_game_8_tileset ]
/tmp/_gbsbuild/obj/bg_dhilly_game_8.rel   [ bg_dhilly_game_8 ]
/tmp/_gbsbuild/obj/bg_dhilly_game_9_tilemap_attr.rel
                                          [ bg_dhilly_game_9_tilemap_attr ]
/tmp/_gbsbuild/obj/bg_dhilly_game_9_tilemap.rel
                                          [ bg_dhilly_game_9_tilemap ]
/tmp/_gbsbuild/obj/bg_dhilly_game_9_tileset.rel
                                          [ bg_dhilly_game_9_tileset ]
/tmp/_gbsbuild/obj/bg_dhilly_game_9.rel   [ bg_dhilly_game_9 ]
/tmp/_gbsbuild/obj/bg_dhillyhubdown_tilemap_attr.rel
                                          [ bg_dhillyhubdown_tilemap_attr ]
/tmp/_gbsbuild/obj/bg_dhillyhubdown_tilemap.rel
                                          [ bg_dhillyhubdown_tilemap ]
/tmp/_gbsbuild/obj/bg_dhillyhubdown_tileset.rel
                                          [ bg_dhillyhubdown_tileset ]
/tmp/_gbsbuild/obj/bg_dhillyhubdown.rel   [ bg_dhillyhubdown ]
/tmp/_gbsbuild/obj/bg_elevator_tilemap_attr.rel
                                          [ bg_elevator_tilemap_attr ]
/tmp/_gbsbuild/obj/bg_elevator_tilemap.rel
                                          [ bg_elevator_tilemap ]
/tmp/_gbsbuild/obj/bg_elevator_tileset.rel
                                          [ bg_elevator_tileset ]
/tmp/_gbsbuild/obj/bg_elevator.rel        [ bg_elevator ]
/tmp/_gbsbuild/obj/bg_endingscene_0_tilemap_attr.rel
                                          [ bg_endingscene_0_tilemap_attr ]
/tmp/_gbsbuild/obj/bg_endingscene_0_tilemap.rel
                                          [ bg_endingscene_0_tilemap ]
/tmp/_gbsbuild/obj/bg_endingscene_0_tileset.rel
                                          [ bg_endingscene_0_tileset ]
/tmp/_gbsbuild/obj/bg_endingscene_0.rel   [ bg_endingscene_0 ]
/tmp/_gbsbuild/obj/bg_endingscene_tilemap_attr.rel
                                          [ bg_endingscene_tilemap_attr ]
/tmp/_gbsbuild/obj/bg_endingscene_tilemap.rel
                                          [ bg_endingscene_tilemap ]
/tmp/_gbsbuild/obj/bg_endingscene_tileset.rel
                                          [ bg_endingscene_tileset ]
/tmp/_gbsbuild/obj/bg_endingscene.rel     [ bg_endingscene ]
/tmp/_gbsbuild/obj/bg_endingscene2_tilemap_attr.rel
                                          [ bg_endingscene2_tilemap_attr ]
/tmp/_gbsbuild/obj/bg_endingscene2_tilemap.rel
                                          [ bg_endingscene2_tilemap ]
/tmp/_gbsbuild/obj/bg_endingscene2_tileset.rel
                                          [ bg_endingscene2_tileset ]
/tmp/_gbsbuild/obj/bg_endingscene2.rel    [ bg_endingscene2 ]
/tmp/_gbsbuild/obj/bg_endingscene3_tilemap_attr.rel
                                          [ bg_endingscene3_tilemap_attr ]
/tmp/_gbsbuild/obj/bg_endingscene3_tilemap.rel
                                          [ bg_endingscene3_tilemap ]
/tmp/_gbsbuild/obj/bg_endingscene3_tileset.rel
                                          [ bg_endingscene3_tileset ]
/tmp/_gbsbuild/obj/bg_endingscene3.rel    [ bg_endingscene3 ]
/tmp/_gbsbuild/obj/bg_fall_to_shilly_area_copy_tilemap_attr.rel
                                          [ bg_fall_to_shilly_area_copy_tile ]
/tmp/_gbsbuild/obj/bg_fall_to_shilly_area_copy_tilemap.rel
                                          [ bg_fall_to_shilly_area_copy_tile ]
/tmp/_gbsbuild/obj/bg_fall_to_shilly_area_copy_tileset.rel
                                          [ bg_fall_to_shilly_area_copy_tile ]
/tmp/_gbsbuild/obj/bg_fall_to_shilly_area_copy.rel
                                          [ bg_fall_to_shilly_area_copy ]
/tmp/_gbsbuild/obj/bg_fieldlazy_tilemap_attr.rel
                                          [ bg_fieldlazy_tilemap_attr ]
/tmp/_gbsbuild/obj/bg_fieldlazy_tilemap.rel
                                          [ bg_fieldlazy_tilemap ]
/tmp/_gbsbuild/obj/bg_fieldlazy_tileset.rel
                                          [ bg_fieldlazy_tileset ]
/tmp/_gbsbuild/obj/bg_fieldlazy.rel       [ bg_fieldlazy ]
/tmp/_gbsbuild/obj/bg_iceos_desktop_copy__tilemap_attr.rel
                                          [ bg_iceos_desktop_copy__tilemap_a ]
/tmp/_gbsbuild/obj/bg_iceos_desktop_copy__tilemap.rel
                                          [ bg_iceos_desktop_copy__tilemap ]
/tmp/_gbsbuild/obj/bg_iceos_desktop_copy__tileset.rel
                                          [ bg_iceos_desktop_copy__tileset ]
/tmp/_gbsbuild/obj/bg_iceos_desktop_copy_.rel
                                          [ bg_iceos_desktop_copy_ ]
/tmp/_gbsbuild/obj/bg_iceos_login_2_copy__tilemap_attr.rel
                                          [ bg_iceos_login_2_copy__tilemap_a ]
/tmp/_gbsbuild/obj/bg_iceos_login_2_copy__tilemap.rel
                                          [ bg_iceos_login_2_copy__tilemap ]
/tmp/_gbsbuild/obj/bg_iceos_login_2_copy__tileset.rel
                                          [ bg_iceos_login_2_copy__tileset ]
/tmp/_gbsbuild/obj/bg_iceos_login_2_copy_.rel
                                          [ bg_iceos_login_2_copy_ ]
/tmp/_gbsbuild/obj/bg_iceos_login_copy__tilemap_attr.rel
                                          [ bg_iceos_login_copy__tilemap_att ]
/tmp/_gbsbuild/obj/bg_iceos_login_copy__tilemap.rel
                                          [ bg_iceos_login_copy__tilemap ]
/tmp/_gbsbuild/obj/bg_iceos_login_copy__tileset.rel
                                          [ bg_iceos_login_copy__tileset ]
/tmp/_gbsbuild/obj/bg_iceos_login_copy_.rel
                                          [ bg_iceos_login_copy_ ]
/tmp/_gbsbuild/obj/bg_iceos_platformer2_copy__tilemap_attr.rel
                                          [ bg_iceos_platformer2_copy__tilem ]
/tmp/_gbsbuild/obj/bg_iceos_platformer2_copy__tilemap.rel
                                          [ bg_iceos_platformer2_copy__tilem ]
/tmp/_gbsbuild/obj/bg_iceos_platformer2_copy__tileset.rel
                                          [ bg_iceos_platformer2_copy__tiles ]
/tmp/_gbsbuild/obj/bg_iceos_platformer2_copy_.rel
                                          [ bg_iceos_platformer2_copy_ ]
/tmp/_gbsbuild/obj/bg_iceos_platformer3_copy__tilemap_attr.rel
                                          [ bg_iceos_platformer3_copy__tilem ]
/tmp/_gbsbuild/obj/bg_iceos_platformer3_copy__tilemap.rel
                                          [ bg_iceos_platformer3_copy__tilem ]
/tmp/_gbsbuild/obj/bg_iceos_platformer3_copy__tileset.rel
                                          [ bg_iceos_platformer3_copy__tiles ]
/tmp/_gbsbuild/obj/bg_iceos_platformer3_copy_.rel
                                          [ bg_iceos_platformer3_copy_ ]
/tmp/_gbsbuild/obj/bg_iceos_platformer4_tilemap_attr.rel
                                          [ bg_iceos_platformer4_tilemap_att ]
/tmp/_gbsbuild/obj/bg_iceos_platformer4_tilemap.rel
                                          [ bg_iceos_platformer4_tilemap ]
/tmp/_gbsbuild/obj/bg_iceos_platformer4_tileset.rel
                                          [ bg_iceos_platformer4_tileset ]
/tmp/_gbsbuild/obj/bg_iceos_platformer4.rel
                                          [ bg_iceos_platformer4 ]
/tmp/_gbsbuild/obj/bg_init_copy__tilemap_attr.rel
                                          [ bg_init_copy__tilemap_attr ]
/tmp/_gbsbuild/obj/bg_init_copy__tilemap.rel
                                          [ bg_init_copy__tilemap ]
/tmp/_gbsbuild/obj/bg_init_copy__tileset.rel
                                          [ bg_init_copy__tileset ]
/tmp/_gbsbuild/obj/bg_init_copy_.rel      [ bg_init_copy_ ]
/tmp/_gbsbuild/obj/bg_init_copy_0_tilemap_attr.rel
                                          [ bg_init_copy_0_tilemap_attr ]
/tmp/_gbsbuild/obj/bg_init_copy_0_tilemap.rel
                                          [ bg_init_copy_0_tilemap ]
/tmp/_gbsbuild/obj/bg_init_copy_0_tileset.rel
                                          [ bg_init_copy_0_tileset ]
/tmp/_gbsbuild/obj/bg_init_copy_0.rel     [ bg_init_copy_0 ]
/tmp/_gbsbuild/obj/bg_init_copy_1_tilemap_attr.rel
                                          [ bg_init_copy_1_tilemap_attr ]
/tmp/_gbsbuild/obj/bg_init_copy_1_tilemap.rel
                                          [ bg_init_copy_1_tilemap ]
/tmp/_gbsbuild/obj/bg_init_copy_1_tileset.rel
                                          [ bg_init_copy_1_tileset ]
/tmp/_gbsbuild/obj/bg_init_copy_1.rel     [ bg_init_copy_1 ]
/tmp/_gbsbuild/obj/bg_init_copy_2_tilemap_attr.rel
                                          [ bg_init_copy_2_tilemap_attr ]
/tmp/_gbsbuild/obj/bg_init_copy_2_tilemap.rel
                                          [ bg_init_copy_2_tilemap ]
/tmp/_gbsbuild/obj/bg_init_copy_2_tileset.rel
                                          [ bg_init_copy_2_tileset ]
/tmp/_gbsbuild/obj/bg_init_copy_2.rel     [ bg_init_copy_2 ]
/tmp/_gbsbuild/obj/bg_intro_scenary_copy__tilemap_attr.rel
                                          [ bg_intro_scenary_copy__tilemap_a ]
/tmp/_gbsbuild/obj/bg_intro_scenary_copy__tilemap.rel
                                          [ bg_intro_scenary_copy__tilemap ]
/tmp/_gbsbuild/obj/bg_intro_scenary_copy__tileset.rel
                                          [ bg_intro_scenary_copy__tileset ]
/tmp/_gbsbuild/obj/bg_intro_scenary_copy_.rel
                                          [ bg_intro_scenary_copy_ ]
/tmp/_gbsbuild/obj/bg_intro_weather_copy__tilemap_attr.rel
                                          [ bg_intro_weather_copy__tilemap_a ]
/tmp/_gbsbuild/obj/bg_intro_weather_copy__tilemap.rel
                                          [ bg_intro_weather_copy__tilemap ]
/tmp/_gbsbuild/obj/bg_intro_weather_copy__tileset.rel
                                          [ bg_intro_weather_copy__tileset ]
/tmp/_gbsbuild/obj/bg_intro_weather_copy_.rel
                                          [ bg_intro_weather_copy_ ]
/tmp/_gbsbuild/obj/bg_lair_hub_tilemap_attr.rel
                                          [ bg_lair_hub_tilemap_attr ]
/tmp/_gbsbuild/obj/bg_lair_hub_tilemap.rel
                                          [ bg_lair_hub_tilemap ]
/tmp/_gbsbuild/obj/bg_lair_hub_tileset.rel
                                          [ bg_lair_hub_tileset ]
/tmp/_gbsbuild/obj/bg_lair_hub.rel        [ bg_lair_hub ]
/tmp/_gbsbuild/obj/bg_lair_right_3_copy__tilemap_attr.rel
                                          [ bg_lair_right_3_copy__tilemap_at ]
/tmp/_gbsbuild/obj/bg_lair_right_3_copy__tilemap.rel
                                          [ bg_lair_right_3_copy__tilemap ]
/tmp/_gbsbuild/obj/bg_lair_right_3_copy__tileset.rel
                                          [ bg_lair_right_3_copy__tileset ]
/tmp/_gbsbuild/obj/bg_lair_right_3_copy_.rel
                                          [ bg_lair_right_3_copy_ ]
/tmp/_gbsbuild/obj/bg_lair_right_3_tilemap_attr.rel
                                          [ bg_lair_right_3_tilemap_attr ]
/tmp/_gbsbuild/obj/bg_lair_right_3_tilemap.rel
                                          [ bg_lair_right_3_tilemap ]
/tmp/_gbsbuild/obj/bg_lair_right_3_tileset.rel
                                          [ bg_lair_right_3_tileset ]
/tmp/_gbsbuild/obj/bg_lair_right_3.rel    [ bg_lair_right_3 ]
/tmp/_gbsbuild/obj/bg_lair_right_4_copy__tilemap_attr.rel
                                          [ bg_lair_right_4_copy__tilemap_at ]
/tmp/_gbsbuild/obj/bg_lair_right_4_copy__tilemap.rel
                                          [ bg_lair_right_4_copy__tilemap ]
/tmp/_gbsbuild/obj/bg_lair_right_4_copy__tileset.rel
                                          [ bg_lair_right_4_copy__tileset ]
/tmp/_gbsbuild/obj/bg_lair_right_4_copy_.rel
                                          [ bg_lair_right_4_copy_ ]
/tmp/_gbsbuild/obj/bg_lair_right_5_tilemap_attr.rel
                                          [ bg_lair_right_5_tilemap_attr ]
/tmp/_gbsbuild/obj/bg_lair_right_5_tilemap.rel
                                          [ bg_lair_right_5_tilemap ]
/tmp/_gbsbuild/obj/bg_lair_right_5_tileset.rel
                                          [ bg_lair_right_5_tileset ]
/tmp/_gbsbuild/obj/bg_lair_right_5.rel    [ bg_lair_right_5 ]
/tmp/_gbsbuild/obj/bg_lencity_dhillybuilding_c_tilemap_attr.rel
                                          [ bg_lencity_dhillybuilding_c_tile ]
/tmp/_gbsbuild/obj/bg_lencity_dhillybuilding_c_tilemap.rel
                                          [ bg_lencity_dhillybuilding_c_tile ]
/tmp/_gbsbuild/obj/bg_lencity_dhillybuilding_c_tileset.rel
                                          [ bg_lencity_dhillybuilding_c_tile ]
/tmp/_gbsbuild/obj/bg_lencity_dhillybuilding_c.rel
                                          [ bg_lencity_dhillybuilding_c ]
/tmp/_gbsbuild/obj/bg_lencity_dhillybuilding_f_tilemap_attr.rel
                                          [ bg_lencity_dhillybuilding_f_tile ]
/tmp/_gbsbuild/obj/bg_lencity_dhillybuilding_f_tilemap.rel
                                          [ bg_lencity_dhillybuilding_f_tile ]
/tmp/_gbsbuild/obj/bg_lencity_dhillybuilding_f_tileset.rel
                                          [ bg_lencity_dhillybuilding_f_tile ]
/tmp/_gbsbuild/obj/bg_lencity_dhillybuilding_f.rel
                                          [ bg_lencity_dhillybuilding_f ]
/tmp/_gbsbuild/obj/bg_lencity_trainstation_cop_tilemap_attr.rel
                                          [ bg_lencity_trainstation_cop_tile ]
/tmp/_gbsbuild/obj/bg_lencity_trainstation_cop_tilemap.rel
                                          [ bg_lencity_trainstation_cop_tile ]
/tmp/_gbsbuild/obj/bg_lencity_trainstation_cop_tileset.rel
                                          [ bg_lencity_trainstation_cop_tile ]
/tmp/_gbsbuild/obj/bg_lencity_trainstation_cop.rel
                                          [ bg_lencity_trainstation_cop ]
/tmp/_gbsbuild/obj/bg_lencity_trainstation_tilemap_attr.rel
                                          [ bg_lencity_trainstation_tilemap_ ]
/tmp/_gbsbuild/obj/bg_lencity_trainstation_tilemap.rel
                                          [ bg_lencity_trainstation_tilemap ]
/tmp/_gbsbuild/obj/bg_lencity_trainstation_tileset.rel
                                          [ bg_lencity_trainstation_tileset ]
/tmp/_gbsbuild/obj/bg_lencity_trainstation.rel
                                          [ bg_lencity_trainstation ]
/tmp/_gbsbuild/obj/bg_lencityopen_copy__tilemap_attr.rel
                                          [ bg_lencityopen_copy__tilemap_att ]
/tmp/_gbsbuild/obj/bg_lencityopen_copy__tilemap.rel
                                          [ bg_lencityopen_copy__tilemap ]
/tmp/_gbsbuild/obj/bg_lencityopen_copy__tileset.rel
                                          [ bg_lencityopen_copy__tileset ]
/tmp/_gbsbuild/obj/bg_lencityopen_copy_.rel
                                          [ bg_lencityopen_copy_ ]
/tmp/_gbsbuild/obj/bg_lencityopen_copy_0_tilemap_attr.rel
                                          [ bg_lencityopen_copy_0_tilemap_at ]
/tmp/_gbsbuild/obj/bg_lencityopen_copy_0_tilemap.rel
                                          [ bg_lencityopen_copy_0_tilemap ]
/tmp/_gbsbuild/obj/bg_lencityopen_copy_0_tileset.rel
                                          [ bg_lencityopen_copy_0_tileset ]
/tmp/_gbsbuild/obj/bg_lencityopen_copy_0.rel
                                          [ bg_lencityopen_copy_0 ]
/tmp/_gbsbuild/obj/bg_lencityopen_tilemap_attr.rel
                                          [ bg_lencityopen_tilemap_attr ]
/tmp/_gbsbuild/obj/bg_lencityopen_tilemap.rel
                                          [ bg_lencityopen_tilemap ]
/tmp/_gbsbuild/obj/bg_lencityopen_tileset.rel
                                          [ bg_lencityopen_tileset ]
/tmp/_gbsbuild/obj/bg_lencityopen.rel     [ bg_lencityopen ]
/tmp/_gbsbuild/obj/bg_options_copy__tilemap_attr.rel
                                          [ bg_options_copy__tilemap_attr ]
/tmp/_gbsbuild/obj/bg_options_copy__tilemap.rel
                                          [ bg_options_copy__tilemap ]
/tmp/_gbsbuild/obj/bg_options_copy__tileset.rel
                                          [ bg_options_copy__tileset ]
/tmp/_gbsbuild/obj/bg_options_copy_.rel   [ bg_options_copy_ ]
/tmp/_gbsbuild/obj/bg_pixil_frame_0_23_tilemap_attr.rel
                                          [ bg_pixil_frame_0_23_tilemap_attr ]
/tmp/_gbsbuild/obj/bg_pixil_frame_0_23_tilemap.rel
                                          [ bg_pixil_frame_0_23_tilemap ]
/tmp/_gbsbuild/obj/bg_pixil_frame_0_23_tileset.rel
                                          [ bg_pixil_frame_0_23_tileset ]
/tmp/_gbsbuild/obj/bg_pixil_frame_0_23.rel
                                          [ bg_pixil_frame_0_23 ]
/tmp/_gbsbuild/obj/bg_pixil_frame_0_24_tilemap_attr.rel
                                          [ bg_pixil_frame_0_24_tilemap_attr ]
/tmp/_gbsbuild/obj/bg_pixil_frame_0_24_tilemap.rel
                                          [ bg_pixil_frame_0_24_tilemap ]
/tmp/_gbsbuild/obj/bg_pixil_frame_0_24_tileset.rel
                                          [ bg_pixil_frame_0_24_tileset ]
/tmp/_gbsbuild/obj/bg_pixil_frame_0_24.rel
                                          [ bg_pixil_frame_0_24 ]
/tmp/_gbsbuild/obj/bg_pixil_frame_0_30_tilemap_attr.rel
                                          [ bg_pixil_frame_0_30_tilemap_attr ]
/tmp/_gbsbuild/obj/bg_pixil_frame_0_30_tilemap.rel
                                          [ bg_pixil_frame_0_30_tilemap ]
/tmp/_gbsbuild/obj/bg_pixil_frame_0_30_tileset.rel
                                          [ bg_pixil_frame_0_30_tileset ]
/tmp/_gbsbuild/obj/bg_pixil_frame_0_30.rel
                                          [ bg_pixil_frame_0_30 ]
/tmp/_gbsbuild/obj/bg_pixil_frame_0_31_tilemap_attr.rel
                                          [ bg_pixil_frame_0_31_tilemap_attr ]
/tmp/_gbsbuild/obj/bg_pixil_frame_0_31_tilemap.rel
                                          [ bg_pixil_frame_0_31_tilemap ]
/tmp/_gbsbuild/obj/bg_pixil_frame_0_31_tileset.rel
                                          [ bg_pixil_frame_0_31_tileset ]
/tmp/_gbsbuild/obj/bg_pixil_frame_0_31.rel
                                          [ bg_pixil_frame_0_31 ]
/tmp/_gbsbuild/obj/bg_pixil_frame_0_33_tilemap_attr.rel
                                          [ bg_pixil_frame_0_33_tilemap_attr ]
/tmp/_gbsbuild/obj/bg_pixil_frame_0_33_tilemap.rel
                                          [ bg_pixil_frame_0_33_tilemap ]
/tmp/_gbsbuild/obj/bg_pixil_frame_0_33_tileset.rel
                                          [ bg_pixil_frame_0_33_tileset ]
/tmp/_gbsbuild/obj/bg_pixil_frame_0_33.rel
                                          [ bg_pixil_frame_0_33 ]
/tmp/_gbsbuild/obj/bg_pixil_frame_0_copy_copy__tilemap_attr.rel
                                          [ bg_pixil_frame_0_copy_copy__tile ]
/tmp/_gbsbuild/obj/bg_pixil_frame_0_copy_copy__tilemap.rel
                                          [ bg_pixil_frame_0_copy_copy__tile ]
/tmp/_gbsbuild/obj/bg_pixil_frame_0_copy_copy__tileset.rel
                                          [ bg_pixil_frame_0_copy_copy__tile ]
/tmp/_gbsbuild/obj/bg_pixil_frame_0_copy_copy_.rel
                                          [ bg_pixil_frame_0_copy_copy_ ]
/tmp/_gbsbuild/obj/bg_pixil_frame_23_0_tilemap_attr.rel
                                          [ bg_pixil_frame_23_0_tilemap_attr ]
/tmp/_gbsbuild/obj/bg_pixil_frame_23_0_tilemap.rel
                                          [ bg_pixil_frame_23_0_tilemap ]
/tmp/_gbsbuild/obj/bg_pixil_frame_23_0_tileset.rel
                                          [ bg_pixil_frame_23_0_tileset ]
/tmp/_gbsbuild/obj/bg_pixil_frame_23_0.rel
                                          [ bg_pixil_frame_23_0 ]
/tmp/_gbsbuild/obj/bg_placeholder_copy_copy_co_0_tilemap_attr.rel
                                          [ bg_placeholder_copy_copy_co_0_ti ]
/tmp/_gbsbuild/obj/bg_placeholder_copy_copy_co_0_tilemap.rel
                                          [ bg_placeholder_copy_copy_co_0_ti ]
/tmp/_gbsbuild/obj/bg_placeholder_copy_copy_co_0_tileset.rel
                                          [ bg_placeholder_copy_copy_co_0_ti ]
/tmp/_gbsbuild/obj/bg_placeholder_copy_copy_co_0.rel
                                          [ bg_placeholder_copy_copy_co_0 ]
/tmp/_gbsbuild/obj/bg_placeholder_copy_copy_co_tilemap_attr.rel
                                          [ bg_placeholder_copy_copy_co_tile ]
/tmp/_gbsbuild/obj/bg_placeholder_copy_copy_co_tilemap.rel
                                          [ bg_placeholder_copy_copy_co_tile ]
/tmp/_gbsbuild/obj/bg_placeholder_copy_copy_co_tileset.rel
                                          [ bg_placeholder_copy_copy_co_tile ]
/tmp/_gbsbuild/obj/bg_placeholder_copy_copy_co.rel
                                          [ bg_placeholder_copy_copy_co ]
/tmp/_gbsbuild/obj/bg_samsam_copy_tilemap_attr.rel
                                          [ bg_samsam_copy_tilemap_attr ]
/tmp/_gbsbuild/obj/bg_samsam_copy_tilemap.rel
                                          [ bg_samsam_copy_tilemap ]
/tmp/_gbsbuild/obj/bg_samsam_copy_tileset.rel
                                          [ bg_samsam_copy_tileset ]
/tmp/_gbsbuild/obj/bg_samsam_copy.rel     [ bg_samsam_copy ]
/tmp/_gbsbuild/obj/bg_shillycity_sara_house_co_tilemap_attr.rel
                                          [ bg_shillycity_sara_house_co_tile ]
/tmp/_gbsbuild/obj/bg_shillycity_sara_house_co_tilemap.rel
                                          [ bg_shillycity_sara_house_co_tile ]
/tmp/_gbsbuild/obj/bg_shillycity_sara_house_co_tileset.rel
                                          [ bg_shillycity_sara_house_co_tile ]
/tmp/_gbsbuild/obj/bg_shillycity_sara_house_co.rel
                                          [ bg_shillycity_sara_house_co ]
/tmp/_gbsbuild/obj/bg_shillycityopen_copy__tilemap_attr.rel
                                          [ bg_shillycityopen_copy__tilemap_ ]
/tmp/_gbsbuild/obj/bg_shillycityopen_copy__tilemap.rel
                                          [ bg_shillycityopen_copy__tilemap ]
/tmp/_gbsbuild/obj/bg_shillycityopen_copy__tileset.rel
                                          [ bg_shillycityopen_copy__tileset ]
/tmp/_gbsbuild/obj/bg_shillycityopen_copy_.rel
                                          [ bg_shillycityopen_copy_ ]
/tmp/_gbsbuild/obj/bg_shillycityopen_copy_0_tilemap_attr.rel
                                          [ bg_shillycityopen_copy_0_tilemap ]
/tmp/_gbsbuild/obj/bg_shillycityopen_copy_0_tilemap.rel
                                          [ bg_shillycityopen_copy_0_tilemap ]
/tmp/_gbsbuild/obj/bg_shillycityopen_copy_0_tileset.rel
                                          [ bg_shillycityopen_copy_0_tileset ]
/tmp/_gbsbuild/obj/bg_shillycityopen_copy_0.rel
                                          [ bg_shillycityopen_copy_0 ]
/tmp/_gbsbuild/obj/bg_shillycityopen_copy_1_tilemap_attr.rel
                                          [ bg_shillycityopen_copy_1_tilemap ]
/tmp/_gbsbuild/obj/bg_shillycityopen_copy_1_tilemap.rel
                                          [ bg_shillycityopen_copy_1_tilemap ]
/tmp/_gbsbuild/obj/bg_shillycityopen_copy_1_tileset.rel
                                          [ bg_shillycityopen_copy_1_tileset ]
/tmp/_gbsbuild/obj/bg_shillycityopen_copy_1.rel
                                          [ bg_shillycityopen_copy_1 ]
/tmp/_gbsbuild/obj/bg_square_frozen_future_tilemap_attr.rel
                                          [ bg_square_frozen_future_tilemap_ ]
/tmp/_gbsbuild/obj/bg_square_frozen_future_tilemap.rel
                                          [ bg_square_frozen_future_tilemap ]
/tmp/_gbsbuild/obj/bg_square_frozen_future_tileset.rel
                                          [ bg_square_frozen_future_tileset ]
/tmp/_gbsbuild/obj/bg_square_frozen_future.rel
                                          [ bg_square_frozen_future ]
/tmp/_gbsbuild/obj/bg_theatre_tilemap_attr.rel
                                          [ bg_theatre_tilemap_attr ]
/tmp/_gbsbuild/obj/bg_theatre_tilemap.rel
                                          [ bg_theatre_tilemap ]
/tmp/_gbsbuild/obj/bg_theatre_tileset.rel
                                          [ bg_theatre_tileset ]
/tmp/_gbsbuild/obj/bg_theatre.rel         [ bg_theatre ]
/tmp/_gbsbuild/obj/bg_title_copy__tilemap_attr.rel
                                          [ bg_title_copy__tilemap_attr ]
/tmp/_gbsbuild/obj/bg_title_copy__tilemap.rel
                                          [ bg_title_copy__tilemap ]
/tmp/_gbsbuild/obj/bg_title_copy__tileset.rel
                                          [ bg_title_copy__tileset ]
/tmp/_gbsbuild/obj/bg_title_copy_.rel     [ bg_title_copy_ ]
/tmp/_gbsbuild/obj/bg_title_copy_0_tilemap_attr.rel
                                          [ bg_title_copy_0_tilemap_attr ]
/tmp/_gbsbuild/obj/bg_title_copy_0_tilemap.rel
                                          [ bg_title_copy_0_tilemap ]
/tmp/_gbsbuild/obj/bg_title_copy_0_tileset.rel
                                          [ bg_title_copy_0_tileset ]
/tmp/_gbsbuild/obj/bg_title_copy_0.rel    [ bg_title_copy_0 ]
/tmp/_gbsbuild/obj/bg_title_copy_1_tilemap_attr.rel
                                          [ bg_title_copy_1_tilemap_attr ]
/tmp/_gbsbuild/obj/bg_title_copy_1_tilemap.rel
                                          [ bg_title_copy_1_tilemap ]
/tmp/_gbsbuild/obj/bg_title_copy_1_tileset.rel
                                          [ bg_title_copy_1_tileset ]
/tmp/_gbsbuild/obj/bg_title_copy_1.rel    [ bg_title_copy_1 ]
/tmp/_gbsbuild/obj/bg_title_copy_2_tilemap_attr.rel
                                          [ bg_title_copy_2_tilemap_attr ]
/tmp/_gbsbuild/obj/bg_title_copy_2_tilemap.rel
                                          [ bg_title_copy_2_tilemap ]
/tmp/_gbsbuild/obj/bg_title_copy_2_tileset.rel
                                          [ bg_title_copy_2_tileset ]
/tmp/_gbsbuild/obj/bg_title_copy_2.rel    [ bg_title_copy_2 ]
/tmp/_gbsbuild/obj/bg_title_tilemap_attr.rel
                                          [ bg_title_tilemap_attr ]
/tmp/_gbsbuild/obj/bg_title_tilemap.rel   [ bg_title_tilemap ]
/tmp/_gbsbuild/obj/bg_title_tileset.rel   [ bg_title_tileset ]
/tmp/_gbsbuild/obj/bg_title.rel           [ bg_title ]
/tmp/_gbsbuild/obj/bg_ui_screens_title_copy__tilemap_attr.rel
                                          [ bg_ui_screens_title_copy__tilema ]
/tmp/_gbsbuild/obj/bg_ui_screens_title_copy__tilemap.rel
                                          [ bg_ui_screens_title_copy__tilema ]
/tmp/_gbsbuild/obj/bg_ui_screens_title_copy__tileset.rel
                                          [ bg_ui_screens_title_copy__tilese ]
/tmp/_gbsbuild/obj/bg_ui_screens_title_copy_.rel
                                          [ bg_ui_screens_title_copy_ ]
/tmp/_gbsbuild/obj/bg_wakeupsquare_1_tilemap_attr.rel
                                          [ bg_wakeupsquare_1_tilemap_attr ]
/tmp/_gbsbuild/obj/bg_wakeupsquare_1_tilemap.rel
                                          [ bg_wakeupsquare_1_tilemap ]
/tmp/_gbsbuild/obj/bg_wakeupsquare_1_tileset.rel
                                          [ bg_wakeupsquare_1_tileset ]
/tmp/_gbsbuild/obj/bg_wakeupsquare_1.rel  [ bg_wakeupsquare_1 ]
/tmp/_gbsbuild/obj/bg_wakeupsquare_3_copy__tilemap_attr.rel
                                          [ bg_wakeupsquare_3_copy__tilemap_ ]
/tmp/_gbsbuild/obj/bg_wakeupsquare_3_copy__tilemap.rel
                                          [ bg_wakeupsquare_3_copy__tilemap ]
/tmp/_gbsbuild/obj/bg_wakeupsquare_3_copy__tileset.rel
                                          [ bg_wakeupsquare_3_copy__tileset ]
/tmp/_gbsbuild/obj/bg_wakeupsquare_3_copy_.rel
                                          [ bg_wakeupsquare_3_copy_ ]
/tmp/_gbsbuild/obj/border.rel             [ border ]
/tmp/_gbsbuild/obj/cursor_image.rel       [ cursor_image ]
/tmp/_gbsbuild/obj/emote_shock.rel        [ emote_shock ]
/tmp/_gbsbuild/obj/font_gbs_variable_width.rel
                                          [ font_gbs_variable_width ]
/tmp/_gbsbuild/obj/frame_image.rel        [ frame_image ]
/tmp/_gbsbuild/obj/game_signature.rel     [ game_signature ]
/tmp/_gbsbuild/obj/song_newmegalovania_Data.rel
                                          [ song_newmegalovania_Data ]
/tmp/_gbsbuild/obj/palette_0.rel          [ palette_0 ]
/tmp/_gbsbuild/obj/palette_1.rel          [ palette_1 ]
/tmp/_gbsbuild/obj/palette_10.rel         [ palette_10 ]
/tmp/_gbsbuild/obj/palette_11.rel         [ palette_11 ]
/tmp/_gbsbuild/obj/palette_12.rel         [ palette_12 ]
/tmp/_gbsbuild/obj/palette_13.rel         [ palette_13 ]
/tmp/_gbsbuild/obj/palette_14.rel         [ palette_14 ]
/tmp/_gbsbuild/obj/palette_15.rel         [ palette_15 ]
/tmp/_gbsbuild/obj/palette_16.rel         [ palette_16 ]
/tmp/_gbsbuild/obj/palette_17.rel         [ palette_17 ]
/tmp/_gbsbuild/obj/palette_18.rel         [ palette_18 ]
/tmp/_gbsbuild/obj/palette_19.rel         [ palette_19 ]
/tmp/_gbsbuild/obj/palette_2.rel          [ palette_2 ]
/tmp/_gbsbuild/obj/palette_20.rel         [ palette_20 ]
/tmp/_gbsbuild/obj/palette_21.rel         [ palette_21 ]
/tmp/_gbsbuild/obj/palette_22.rel         [ palette_22 ]
/tmp/_gbsbuild/obj/palette_23.rel         [ palette_23 ]
/tmp/_gbsbuild/obj/palette_24.rel         [ palette_24 ]
/tmp/_gbsbuild/obj/palette_25.rel         [ palette_25 ]
/tmp/_gbsbuild/obj/palette_26.rel         [ palette_26 ]
/tmp/_gbsbuild/obj/palette_27.rel         [ palette_27 ]
/tmp/_gbsbuild/obj/palette_28.rel         [ palette_28 ]
/tmp/_gbsbuild/obj/palette_29.rel         [ palette_29 ]
/tmp/_gbsbuild/obj/palette_3.rel          [ palette_3 ]
/tmp/_gbsbuild/obj/palette_30.rel         [ palette_30 ]
/tmp/_gbsbuild/obj/palette_31.rel         [ palette_31 ]
/tmp/_gbsbuild/obj/palette_32.rel         [ palette_32 ]
/tmp/_gbsbuild/obj/palette_33.rel         [ palette_33 ]
/tmp/_gbsbuild/obj/palette_34.rel         [ palette_34 ]
/tmp/_gbsbuild/obj/palette_35.rel         [ palette_35 ]
/tmp/_gbsbuild/obj/palette_36.rel         [ palette_36 ]
/tmp/_gbsbuild/obj/palette_37.rel         [ palette_37 ]
/tmp/_gbsbuild/obj/palette_38.rel         [ palette_38 ]
/tmp/_gbsbuild/obj/palette_39.rel         [ palette_39 ]
/tmp/_gbsbuild/obj/palette_4.rel          [ palette_4 ]
/tmp/_gbsbuild/obj/palette_40.rel         [ palette_40 ]
/tmp/_gbsbuild/obj/palette_41.rel         [ palette_41 ]
/tmp/_gbsbuild/obj/palette_42.rel         [ palette_42 ]
/tmp/_gbsbuild/obj/palette_43.rel         [ palette_43 ]
/tmp/_gbsbuild/obj/palette_44.rel         [ palette_44 ]
/tmp/_gbsbuild/obj/palette_45.rel         [ palette_45 ]
/tmp/_gbsbuild/obj/palette_46.rel         [ palette_46 ]
/tmp/_gbsbuild/obj/palette_47.rel         [ palette_47 ]
/tmp/_gbsbuild/obj/palette_48.rel         [ palette_48 ]
/tmp/_gbsbuild/obj/palette_49.rel         [ palette_49 ]
/tmp/_gbsbuild/obj/palette_5.rel          [ palette_5 ]
/tmp/_gbsbuild/obj/palette_50.rel         [ palette_50 ]
/tmp/_gbsbuild/obj/palette_51.rel         [ palette_51 ]
/tmp/_gbsbuild/obj/palette_52.rel         [ palette_52 ]
/tmp/_gbsbuild/obj/palette_53.rel         [ palette_53 ]
/tmp/_gbsbuild/obj/palette_54.rel         [ palette_54 ]
/tmp/_gbsbuild/obj/palette_55.rel         [ palette_55 ]
/tmp/_gbsbuild/obj/palette_56.rel         [ palette_56 ]
/tmp/_gbsbuild/obj/palette_57.rel         [ palette_57 ]
/tmp/_gbsbuild/obj/palette_58.rel         [ palette_58 ]
/tmp/_gbsbuild/obj/palette_59.rel         [ palette_59 ]
/tmp/_gbsbuild/obj/palette_6.rel          [ palette_6 ]
/tmp/_gbsbuild/obj/palette_60.rel         [ palette_60 ]
/tmp/_gbsbuild/obj/palette_61.rel         [ palette_61 ]
/tmp/_gbsbuild/obj/palette_62.rel         [ palette_62 ]
/tmp/_gbsbuild/obj/palette_63.rel         [ palette_63 ]
/tmp/_gbsbuild/obj/palette_64.rel         [ palette_64 ]
/tmp/_gbsbuild/obj/palette_65.rel         [ palette_65 ]
/tmp/_gbsbuild/obj/palette_66.rel         [ palette_66 ]
/tmp/_gbsbuild/obj/palette_67.rel         [ palette_67 ]
/tmp/_gbsbuild/obj/palette_68.rel         [ palette_68 ]
/tmp/_gbsbuild/obj/palette_69.rel         [ palette_69 ]
/tmp/_gbsbuild/obj/palette_7.rel          [ palette_7 ]
/tmp/_gbsbuild/obj/palette_70.rel         [ palette_70 ]
/tmp/_gbsbuild/obj/palette_8.rel          [ palette_8 ]
/tmp/_gbsbuild/obj/palette_9.rel          [ palette_9 ]
/tmp/_gbsbuild/obj/scene_0_collisions.rel
                                          [ scene_0_collisions ]
/tmp/_gbsbuild/obj/scene_0_init.rel       [ scene_0_init ]
/tmp/_gbsbuild/obj/scene_0_triggers.rel   [ scene_0_triggers ]
/tmp/_gbsbuild/obj/scene_0.rel            [ scene_0 ]
/tmp/_gbsbuild/obj/scene_1_collisions.rel
                                          [ scene_1_collisions ]
/tmp/_gbsbuild/obj/scene_1_init.rel       [ scene_1_init ]
/tmp/_gbsbuild/obj/scene_1.rel            [ scene_1 ]
/tmp/_gbsbuild/obj/scene_10_collisions.rel
                                          [ scene_10_collisions ]
/tmp/_gbsbuild/obj/scene_10_init.rel      [ scene_10_init ]
/tmp/_gbsbuild/obj/scene_10.rel           [ scene_10 ]
/tmp/_gbsbuild/obj/scene_100_collisions.rel
                                          [ scene_100_collisions ]
/tmp/_gbsbuild/obj/scene_100_init.rel     [ scene_100_init ]
/tmp/_gbsbuild/obj/scene_100.rel          [ scene_100 ]
/tmp/_gbsbuild/obj/scene_101_actors.rel   [ scene_101_actors ]
/tmp/_gbsbuild/obj/scene_101_collisions.rel
                                          [ scene_101_collisions ]
/tmp/_gbsbuild/obj/scene_101_init.rel     [ scene_101_init ]
/tmp/_gbsbuild/obj/scene_101_sprites.rel  [ scene_101_sprites ]
/tmp/_gbsbuild/obj/scene_101_triggers.rel
                                          [ scene_101_triggers ]
/tmp/_gbsbuild/obj/scene_101.rel          [ scene_101 ]
/tmp/_gbsbuild/obj/scene_102_actors.rel   [ scene_102_actors ]
/tmp/_gbsbuild/obj/scene_102_collisions.rel
                                          [ scene_102_collisions ]
/tmp/_gbsbuild/obj/scene_102_init.rel     [ scene_102_init ]
/tmp/_gbsbuild/obj/scene_102_sprites.rel  [ scene_102_sprites ]
/tmp/_gbsbuild/obj/scene_102_triggers.rel
                                          [ scene_102_triggers ]
/tmp/_gbsbuild/obj/scene_102.rel          [ scene_102 ]
/tmp/_gbsbuild/obj/scene_103_collisions.rel
                                          [ scene_103_collisions ]
/tmp/_gbsbuild/obj/scene_103_init.rel     [ scene_103_init ]
/tmp/_gbsbuild/obj/scene_103.rel          [ scene_103 ]
/tmp/_gbsbuild/obj/scene_11_collisions.rel
                                          [ scene_11_collisions ]
/tmp/_gbsbuild/obj/scene_11_init.rel      [ scene_11_init ]
/tmp/_gbsbuild/obj/scene_11.rel           [ scene_11 ]
/tmp/_gbsbuild/obj/scene_12_collisions.rel
                                          [ scene_12_collisions ]
/tmp/_gbsbuild/obj/scene_12_init.rel      [ scene_12_init ]
/tmp/_gbsbuild/obj/scene_12.rel           [ scene_12 ]
/tmp/_gbsbuild/obj/scene_13_collisions.rel
                                          [ scene_13_collisions ]
/tmp/_gbsbuild/obj/scene_13_init.rel      [ scene_13_init ]
/tmp/_gbsbuild/obj/scene_13.rel           [ scene_13 ]
/tmp/_gbsbuild/obj/scene_14_collisions.rel
                                          [ scene_14_collisions ]
/tmp/_gbsbuild/obj/scene_14_init.rel      [ scene_14_init ]
/tmp/_gbsbuild/obj/scene_14.rel           [ scene_14 ]
/tmp/_gbsbuild/obj/scene_15_collisions.rel
                                          [ scene_15_collisions ]
/tmp/_gbsbuild/obj/scene_15_init.rel      [ scene_15_init ]
/tmp/_gbsbuild/obj/scene_15_triggers.rel  [ scene_15_triggers ]
/tmp/_gbsbuild/obj/scene_15.rel           [ scene_15 ]
/tmp/_gbsbuild/obj/scene_16_collisions.rel
                                          [ scene_16_collisions ]
/tmp/_gbsbuild/obj/scene_16_init.rel      [ scene_16_init ]
/tmp/_gbsbuild/obj/scene_16.rel           [ scene_16 ]
/tmp/_gbsbuild/obj/scene_17_actors.rel    [ scene_17_actors ]
/tmp/_gbsbuild/obj/scene_17_collisions.rel
                                          [ scene_17_collisions ]
/tmp/_gbsbuild/obj/scene_17_init.rel      [ scene_17_init ]
/tmp/_gbsbuild/obj/scene_17_sprites.rel   [ scene_17_sprites ]
/tmp/_gbsbuild/obj/scene_17_triggers.rel  [ scene_17_triggers ]
/tmp/_gbsbuild/obj/scene_17.rel           [ scene_17 ]
/tmp/_gbsbuild/obj/scene_18_actors.rel    [ scene_18_actors ]
/tmp/_gbsbuild/obj/scene_18_collisions.rel
                                          [ scene_18_collisions ]
/tmp/_gbsbuild/obj/scene_18_init.rel      [ scene_18_init ]
/tmp/_gbsbuild/obj/scene_18_sprites.rel   [ scene_18_sprites ]
/tmp/_gbsbuild/obj/scene_18_triggers.rel  [ scene_18_triggers ]
/tmp/_gbsbuild/obj/scene_18.rel           [ scene_18 ]
/tmp/_gbsbuild/obj/scene_19_actors.rel    [ scene_19_actors ]
/tmp/_gbsbuild/obj/scene_19_collisions.rel
                                          [ scene_19_collisions ]
/tmp/_gbsbuild/obj/scene_19_init.rel      [ scene_19_init ]
/tmp/_gbsbuild/obj/scene_19_triggers.rel  [ scene_19_triggers ]
/tmp/_gbsbuild/obj/scene_19.rel           [ scene_19 ]
/tmp/_gbsbuild/obj/scene_2_actors.rel     [ scene_2_actors ]
/tmp/_gbsbuild/obj/scene_2_collisions.rel
                                          [ scene_2_collisions ]
/tmp/_gbsbuild/obj/scene_2_init.rel       [ scene_2_init ]
/tmp/_gbsbuild/obj/scene_2.rel            [ scene_2 ]
/tmp/_gbsbuild/obj/scene_20_actors.rel    [ scene_20_actors ]
/tmp/_gbsbuild/obj/scene_20_collisions.rel
                                          [ scene_20_collisions ]
/tmp/_gbsbuild/obj/scene_20_init.rel      [ scene_20_init ]
/tmp/_gbsbuild/obj/scene_20_sprites.rel   [ scene_20_sprites ]
/tmp/_gbsbuild/obj/scene_20_triggers.rel  [ scene_20_triggers ]
/tmp/_gbsbuild/obj/scene_20.rel           [ scene_20 ]
/tmp/_gbsbuild/obj/scene_21_collisions.rel
                                          [ scene_21_collisions ]
/tmp/_gbsbuild/obj/scene_21_init.rel      [ scene_21_init ]
/tmp/_gbsbuild/obj/scene_21.rel           [ scene_21 ]
/tmp/_gbsbuild/obj/scene_22_actors.rel    [ scene_22_actors ]
/tmp/_gbsbuild/obj/scene_22_collisions.rel
                                          [ scene_22_collisions ]
/tmp/_gbsbuild/obj/scene_22_init.rel      [ scene_22_init ]
/tmp/_gbsbuild/obj/scene_22_sprites.rel   [ scene_22_sprites ]
/tmp/_gbsbuild/obj/scene_22.rel           [ scene_22 ]
/tmp/_gbsbuild/obj/scene_23_collisions.rel
                                          [ scene_23_collisions ]
/tmp/_gbsbuild/obj/scene_23_init.rel      [ scene_23_init ]
/tmp/_gbsbuild/obj/scene_23.rel           [ scene_23 ]
/tmp/_gbsbuild/obj/scene_24_collisions.rel
                                          [ scene_24_collisions ]
/tmp/_gbsbuild/obj/scene_24_init.rel      [ scene_24_init ]
/tmp/_gbsbuild/obj/scene_24.rel           [ scene_24 ]
/tmp/_gbsbuild/obj/scene_25_collisions.rel
                                          [ scene_25_collisions ]
/tmp/_gbsbuild/obj/scene_25_init.rel      [ scene_25_init ]
/tmp/_gbsbuild/obj/scene_25.rel           [ scene_25 ]
/tmp/_gbsbuild/obj/scene_26_collisions.rel
                                          [ scene_26_collisions ]
/tmp/_gbsbuild/obj/scene_26_init.rel      [ scene_26_init ]
/tmp/_gbsbuild/obj/scene_26.rel           [ scene_26 ]
/tmp/_gbsbuild/obj/scene_27_collisions.rel
                                          [ scene_27_collisions ]
/tmp/_gbsbuild/obj/scene_27_init.rel      [ scene_27_init ]
/tmp/_gbsbuild/obj/scene_27_triggers.rel  [ scene_27_triggers ]
/tmp/_gbsbuild/obj/scene_27.rel           [ scene_27 ]
/tmp/_gbsbuild/obj/scene_28_collisions.rel
                                          [ scene_28_collisions ]
/tmp/_gbsbuild/obj/scene_28_init.rel      [ scene_28_init ]
/tmp/_gbsbuild/obj/scene_28_triggers.rel  [ scene_28_triggers ]
/tmp/_gbsbuild/obj/scene_28.rel           [ scene_28 ]
/tmp/_gbsbuild/obj/scene_29_collisions.rel
                                          [ scene_29_collisions ]
/tmp/_gbsbuild/obj/scene_29_init.rel      [ scene_29_init ]
/tmp/_gbsbuild/obj/scene_29_triggers.rel  [ scene_29_triggers ]
/tmp/_gbsbuild/obj/scene_29.rel           [ scene_29 ]
/tmp/_gbsbuild/obj/scene_3_actors.rel     [ scene_3_actors ]
/tmp/_gbsbuild/obj/scene_3_collisions.rel
                                          [ scene_3_collisions ]
/tmp/_gbsbuild/obj/scene_3_init.rel       [ scene_3_init ]
/tmp/_gbsbuild/obj/scene_3_sprites.rel    [ scene_3_sprites ]
/tmp/_gbsbuild/obj/scene_3.rel            [ scene_3 ]
/tmp/_gbsbuild/obj/scene_30_collisions.rel
                                          [ scene_30_collisions ]
/tmp/_gbsbuild/obj/scene_30_init.rel      [ scene_30_init ]
/tmp/_gbsbuild/obj/scene_30_triggers.rel  [ scene_30_triggers ]
/tmp/_gbsbuild/obj/scene_30.rel           [ scene_30 ]
/tmp/_gbsbuild/obj/scene_31_collisions.rel
                                          [ scene_31_collisions ]
/tmp/_gbsbuild/obj/scene_31_init.rel      [ scene_31_init ]
/tmp/_gbsbuild/obj/scene_31_triggers.rel  [ scene_31_triggers ]
/tmp/_gbsbuild/obj/scene_31.rel           [ scene_31 ]
/tmp/_gbsbuild/obj/scene_32_collisions.rel
                                          [ scene_32_collisions ]
/tmp/_gbsbuild/obj/scene_32_init.rel      [ scene_32_init ]
/tmp/_gbsbuild/obj/scene_32_triggers.rel  [ scene_32_triggers ]
/tmp/_gbsbuild/obj/scene_32.rel           [ scene_32 ]
/tmp/_gbsbuild/obj/scene_33_actors.rel    [ scene_33_actors ]
/tmp/_gbsbuild/obj/scene_33_collisions.rel
                                          [ scene_33_collisions ]
/tmp/_gbsbuild/obj/scene_33_init.rel      [ scene_33_init ]
/tmp/_gbsbuild/obj/scene_33_sprites.rel   [ scene_33_sprites ]
/tmp/_gbsbuild/obj/scene_33_triggers.rel  [ scene_33_triggers ]
/tmp/_gbsbuild/obj/scene_33.rel           [ scene_33 ]
/tmp/_gbsbuild/obj/scene_34_actors.rel    [ scene_34_actors ]
/tmp/_gbsbuild/obj/scene_34_collisions.rel
                                          [ scene_34_collisions ]
/tmp/_gbsbuild/obj/scene_34_init.rel      [ scene_34_init ]
/tmp/_gbsbuild/obj/scene_34_sprites.rel   [ scene_34_sprites ]
/tmp/_gbsbuild/obj/scene_34_triggers.rel  [ scene_34_triggers ]
/tmp/_gbsbuild/obj/scene_34.rel           [ scene_34 ]
/tmp/_gbsbuild/obj/scene_35_collisions.rel
                                          [ scene_35_collisions ]
/tmp/_gbsbuild/obj/scene_35_init.rel      [ scene_35_init ]
/tmp/_gbsbuild/obj/scene_35_triggers.rel  [ scene_35_triggers ]
/tmp/_gbsbuild/obj/scene_35.rel           [ scene_35 ]
/tmp/_gbsbuild/obj/scene_37_actors.rel    [ scene_37_actors ]
/tmp/_gbsbuild/obj/scene_37_collisions.rel
                                          [ scene_37_collisions ]
/tmp/_gbsbuild/obj/scene_37_init.rel      [ scene_37_init ]
/tmp/_gbsbuild/obj/scene_37_sprites.rel   [ scene_37_sprites ]
/tmp/_gbsbuild/obj/scene_37.rel           [ scene_37 ]
/tmp/_gbsbuild/obj/scene_38_collisions.rel
                                          [ scene_38_collisions ]
/tmp/_gbsbuild/obj/scene_38_init.rel      [ scene_38_init ]
/tmp/_gbsbuild/obj/scene_38.rel           [ scene_38 ]
/tmp/_gbsbuild/obj/scene_39_actors.rel    [ scene_39_actors ]
/tmp/_gbsbuild/obj/scene_39_collisions.rel
                                          [ scene_39_collisions ]
/tmp/_gbsbuild/obj/scene_39_init.rel      [ scene_39_init ]
/tmp/_gbsbuild/obj/scene_39_sprites.rel   [ scene_39_sprites ]
/tmp/_gbsbuild/obj/scene_39.rel           [ scene_39 ]
/tmp/_gbsbuild/obj/scene_4_collisions.rel
                                          [ scene_4_collisions ]
/tmp/_gbsbuild/obj/scene_4_init.rel       [ scene_4_init ]
/tmp/_gbsbuild/obj/scene_4.rel            [ scene_4 ]
/tmp/_gbsbuild/obj/scene_40_collisions.rel
                                          [ scene_40_collisions ]
/tmp/_gbsbuild/obj/scene_40_init.rel      [ scene_40_init ]
/tmp/_gbsbuild/obj/scene_40_triggers.rel  [ scene_40_triggers ]
/tmp/_gbsbuild/obj/scene_40.rel           [ scene_40 ]
/tmp/_gbsbuild/obj/scene_41_collisions.rel
                                          [ scene_41_collisions ]
/tmp/_gbsbuild/obj/scene_41_init.rel      [ scene_41_init ]
/tmp/_gbsbuild/obj/scene_41_triggers.rel  [ scene_41_triggers ]
/tmp/_gbsbuild/obj/scene_41.rel           [ scene_41 ]
/tmp/_gbsbuild/obj/scene_42_collisions.rel
                                          [ scene_42_collisions ]
/tmp/_gbsbuild/obj/scene_42_init.rel      [ scene_42_init ]
/tmp/_gbsbuild/obj/scene_42.rel           [ scene_42 ]
/tmp/_gbsbuild/obj/scene_43_collisions.rel
                                          [ scene_43_collisions ]
/tmp/_gbsbuild/obj/scene_43_init.rel      [ scene_43_init ]
/tmp/_gbsbuild/obj/scene_43_triggers.rel  [ scene_43_triggers ]
/tmp/_gbsbuild/obj/scene_43.rel           [ scene_43 ]
/tmp/_gbsbuild/obj/scene_44_collisions.rel
                                          [ scene_44_collisions ]
/tmp/_gbsbuild/obj/scene_44_init.rel      [ scene_44_init ]
/tmp/_gbsbuild/obj/scene_44_triggers.rel  [ scene_44_triggers ]
/tmp/_gbsbuild/obj/scene_44.rel           [ scene_44 ]
/tmp/_gbsbuild/obj/scene_45_actors.rel    [ scene_45_actors ]
/tmp/_gbsbuild/obj/scene_45_collisions.rel
                                          [ scene_45_collisions ]
/tmp/_gbsbuild/obj/scene_45_init.rel      [ scene_45_init ]
/tmp/_gbsbuild/obj/scene_45_sprites.rel   [ scene_45_sprites ]
/tmp/_gbsbuild/obj/scene_45_triggers.rel  [ scene_45_triggers ]
/tmp/_gbsbuild/obj/scene_45.rel           [ scene_45 ]
/tmp/_gbsbuild/obj/scene_46_actors.rel    [ scene_46_actors ]
/tmp/_gbsbuild/obj/scene_46_collisions.rel
                                          [ scene_46_collisions ]
/tmp/_gbsbuild/obj/scene_46_init.rel      [ scene_46_init ]
/tmp/_gbsbuild/obj/scene_46_p_hit1.rel    [ scene_46_p_hit1 ]
/tmp/_gbsbuild/obj/scene_46_projectiles.rel
                                          [ scene_46_projectiles ]
/tmp/_gbsbuild/obj/scene_46_sprites.rel   [ scene_46_sprites ]
/tmp/_gbsbuild/obj/scene_46_triggers.rel  [ scene_46_triggers ]
/tmp/_gbsbuild/obj/scene_46.rel           [ scene_46 ]
/tmp/_gbsbuild/obj/scene_47_collisions.rel
                                          [ scene_47_collisions ]
/tmp/_gbsbuild/obj/scene_47_init.rel      [ scene_47_init ]
/tmp/_gbsbuild/obj/scene_47_triggers.rel  [ scene_47_triggers ]
/tmp/_gbsbuild/obj/scene_47.rel           [ scene_47 ]
/tmp/_gbsbuild/obj/scene_48_actors.rel    [ scene_48_actors ]
/tmp/_gbsbuild/obj/scene_48_collisions.rel
                                          [ scene_48_collisions ]
/tmp/_gbsbuild/obj/scene_48_init.rel      [ scene_48_init ]
/tmp/_gbsbuild/obj/scene_48_p_hit1.rel    [ scene_48_p_hit1 ]
/tmp/_gbsbuild/obj/scene_48_projectiles.rel
                                          [ scene_48_projectiles ]
/tmp/_gbsbuild/obj/scene_48_sprites.rel   [ scene_48_sprites ]
/tmp/_gbsbuild/obj/scene_48_triggers.rel  [ scene_48_triggers ]
/tmp/_gbsbuild/obj/scene_48.rel           [ scene_48 ]
/tmp/_gbsbuild/obj/scene_49_actors.rel    [ scene_49_actors ]
/tmp/_gbsbuild/obj/scene_49_collisions.rel
                                          [ scene_49_collisions ]
/tmp/_gbsbuild/obj/scene_49_init.rel      [ scene_49_init ]
/tmp/_gbsbuild/obj/scene_49_p_hit1.rel    [ scene_49_p_hit1 ]
/tmp/_gbsbuild/obj/scene_49_projectiles.rel
                                          [ scene_49_projectiles ]
/tmp/_gbsbuild/obj/scene_49_sprites.rel   [ scene_49_sprites ]
/tmp/_gbsbuild/obj/scene_49_triggers.rel  [ scene_49_triggers ]
/tmp/_gbsbuild/obj/scene_49.rel           [ scene_49 ]
/tmp/_gbsbuild/obj/scene_5_collisions.rel
                                          [ scene_5_collisions ]
/tmp/_gbsbuild/obj/scene_5_init.rel       [ scene_5_init ]
/tmp/_gbsbuild/obj/scene_5.rel            [ scene_5 ]
/tmp/_gbsbuild/obj/scene_50_actors.rel    [ scene_50_actors ]
/tmp/_gbsbuild/obj/scene_50_collisions.rel
                                          [ scene_50_collisions ]
/tmp/_gbsbuild/obj/scene_50_init.rel      [ scene_50_init ]
/tmp/_gbsbuild/obj/scene_50_projectiles.rel
                                          [ scene_50_projectiles ]
/tmp/_gbsbuild/obj/scene_50_sprites.rel   [ scene_50_sprites ]
/tmp/_gbsbuild/obj/scene_50_triggers.rel  [ scene_50_triggers ]
/tmp/_gbsbuild/obj/scene_50.rel           [ scene_50 ]
/tmp/_gbsbuild/obj/scene_51_actors.rel    [ scene_51_actors ]
/tmp/_gbsbuild/obj/scene_51_collisions.rel
                                          [ scene_51_collisions ]
/tmp/_gbsbuild/obj/scene_51_init.rel      [ scene_51_init ]
/tmp/_gbsbuild/obj/scene_51_sprites.rel   [ scene_51_sprites ]
/tmp/_gbsbuild/obj/scene_51_triggers.rel  [ scene_51_triggers ]
/tmp/_gbsbuild/obj/scene_51.rel           [ scene_51 ]
/tmp/_gbsbuild/obj/scene_52_actors.rel    [ scene_52_actors ]
/tmp/_gbsbuild/obj/scene_52_collisions.rel
                                          [ scene_52_collisions ]
/tmp/_gbsbuild/obj/scene_52_init.rel      [ scene_52_init ]
/tmp/_gbsbuild/obj/scene_52_sprites.rel   [ scene_52_sprites ]
/tmp/_gbsbuild/obj/scene_52.rel           [ scene_52 ]
/tmp/_gbsbuild/obj/scene_53_actors.rel    [ scene_53_actors ]
/tmp/_gbsbuild/obj/scene_53_collisions.rel
                                          [ scene_53_collisions ]
/tmp/_gbsbuild/obj/scene_53_init.rel      [ scene_53_init ]
/tmp/_gbsbuild/obj/scene_53_sprites.rel   [ scene_53_sprites ]
/tmp/_gbsbuild/obj/scene_53_triggers.rel  [ scene_53_triggers ]
/tmp/_gbsbuild/obj/scene_53.rel           [ scene_53 ]
/tmp/_gbsbuild/obj/scene_54_actors.rel    [ scene_54_actors ]
/tmp/_gbsbuild/obj/scene_54_collisions.rel
                                          [ scene_54_collisions ]
/tmp/_gbsbuild/obj/scene_54_init.rel      [ scene_54_init ]
/tmp/_gbsbuild/obj/scene_54_sprites.rel   [ scene_54_sprites ]
/tmp/_gbsbuild/obj/scene_54_triggers.rel  [ scene_54_triggers ]
/tmp/_gbsbuild/obj/scene_54.rel           [ scene_54 ]
/tmp/_gbsbuild/obj/scene_55_collisions.rel
                                          [ scene_55_collisions ]
/tmp/_gbsbuild/obj/scene_55_init.rel      [ scene_55_init ]
/tmp/_gbsbuild/obj/scene_55_triggers.rel  [ scene_55_triggers ]
/tmp/_gbsbuild/obj/scene_55.rel           [ scene_55 ]
/tmp/_gbsbuild/obj/scene_56_collisions.rel
                                          [ scene_56_collisions ]
/tmp/_gbsbuild/obj/scene_56_init.rel      [ scene_56_init ]
/tmp/_gbsbuild/obj/scene_56_triggers.rel  [ scene_56_triggers ]
/tmp/_gbsbuild/obj/scene_56.rel           [ scene_56 ]
/tmp/_gbsbuild/obj/scene_57_collisions.rel
                                          [ scene_57_collisions ]
/tmp/_gbsbuild/obj/scene_57_init.rel      [ scene_57_init ]
/tmp/_gbsbuild/obj/scene_57_triggers.rel  [ scene_57_triggers ]
/tmp/_gbsbuild/obj/scene_57.rel           [ scene_57 ]
/tmp/_gbsbuild/obj/scene_58_actors.rel    [ scene_58_actors ]
/tmp/_gbsbuild/obj/scene_58_collisions.rel
                                          [ scene_58_collisions ]
/tmp/_gbsbuild/obj/scene_58_init.rel      [ scene_58_init ]
/tmp/_gbsbuild/obj/scene_58_sprites.rel   [ scene_58_sprites ]
/tmp/_gbsbuild/obj/scene_58_triggers.rel  [ scene_58_triggers ]
/tmp/_gbsbuild/obj/scene_58.rel           [ scene_58 ]
/tmp/_gbsbuild/obj/scene_59_collisions.rel
                                          [ scene_59_collisions ]
/tmp/_gbsbuild/obj/scene_59_init.rel      [ scene_59_init ]
/tmp/_gbsbuild/obj/scene_59_triggers.rel  [ scene_59_triggers ]
/tmp/_gbsbuild/obj/scene_59.rel           [ scene_59 ]
/tmp/_gbsbuild/obj/scene_6_collisions.rel
                                          [ scene_6_collisions ]
/tmp/_gbsbuild/obj/scene_6_init.rel       [ scene_6_init ]
/tmp/_gbsbuild/obj/scene_6.rel            [ scene_6 ]
/tmp/_gbsbuild/obj/scene_60_actors.rel    [ scene_60_actors ]
/tmp/_gbsbuild/obj/scene_60_collisions.rel
                                          [ scene_60_collisions ]
/tmp/_gbsbuild/obj/scene_60_init.rel      [ scene_60_init ]
/tmp/_gbsbuild/obj/scene_60_sprites.rel   [ scene_60_sprites ]
/tmp/_gbsbuild/obj/scene_60_triggers.rel  [ scene_60_triggers ]
/tmp/_gbsbuild/obj/scene_60.rel           [ scene_60 ]
/tmp/_gbsbuild/obj/scene_61_actors.rel    [ scene_61_actors ]
/tmp/_gbsbuild/obj/scene_61_collisions.rel
                                          [ scene_61_collisions ]
/tmp/_gbsbuild/obj/scene_61_init.rel      [ scene_61_init ]
/tmp/_gbsbuild/obj/scene_61_sprites.rel   [ scene_61_sprites ]
/tmp/_gbsbuild/obj/scene_61_triggers.rel  [ scene_61_triggers ]
/tmp/_gbsbuild/obj/scene_61.rel           [ scene_61 ]
/tmp/_gbsbuild/obj/scene_62_collisions.rel
                                          [ scene_62_collisions ]
/tmp/_gbsbuild/obj/scene_62_init.rel      [ scene_62_init ]
/tmp/_gbsbuild/obj/scene_62_triggers.rel  [ scene_62_triggers ]
/tmp/_gbsbuild/obj/scene_62.rel           [ scene_62 ]
/tmp/_gbsbuild/obj/scene_63_collisions.rel
                                          [ scene_63_collisions ]
/tmp/_gbsbuild/obj/scene_63_init.rel      [ scene_63_init ]
/tmp/_gbsbuild/obj/scene_63_triggers.rel  [ scene_63_triggers ]
/tmp/_gbsbuild/obj/scene_63.rel           [ scene_63 ]
/tmp/_gbsbuild/obj/scene_64_actors.rel    [ scene_64_actors ]
/tmp/_gbsbuild/obj/scene_64_collisions.rel
                                          [ scene_64_collisions ]
/tmp/_gbsbuild/obj/scene_64_init.rel      [ scene_64_init ]
/tmp/_gbsbuild/obj/scene_64_sprites.rel   [ scene_64_sprites ]
/tmp/_gbsbuild/obj/scene_64_triggers.rel  [ scene_64_triggers ]
/tmp/_gbsbuild/obj/scene_64.rel           [ scene_64 ]
/tmp/_gbsbuild/obj/scene_65_collisions.rel
                                          [ scene_65_collisions ]
/tmp/_gbsbuild/obj/scene_65_init.rel      [ scene_65_init ]
/tmp/_gbsbuild/obj/scene_65_triggers.rel  [ scene_65_triggers ]
/tmp/_gbsbuild/obj/scene_65.rel           [ scene_65 ]
/tmp/_gbsbuild/obj/scene_66_collisions.rel
                                          [ scene_66_collisions ]
/tmp/_gbsbuild/obj/scene_66_init.rel      [ scene_66_init ]
/tmp/_gbsbuild/obj/scene_66_triggers.rel  [ scene_66_triggers ]
/tmp/_gbsbuild/obj/scene_66.rel           [ scene_66 ]
/tmp/_gbsbuild/obj/scene_67_collisions.rel
                                          [ scene_67_collisions ]
/tmp/_gbsbuild/obj/scene_67_init.rel      [ scene_67_init ]
/tmp/_gbsbuild/obj/scene_67_triggers.rel  [ scene_67_triggers ]
/tmp/_gbsbuild/obj/scene_67.rel           [ scene_67 ]
/tmp/_gbsbuild/obj/scene_68_collisions.rel
                                          [ scene_68_collisions ]
/tmp/_gbsbuild/obj/scene_68_init.rel      [ scene_68_init ]
/tmp/_gbsbuild/obj/scene_68_triggers.rel  [ scene_68_triggers ]
/tmp/_gbsbuild/obj/scene_68.rel           [ scene_68 ]
/tmp/_gbsbuild/obj/scene_69_collisions.rel
                                          [ scene_69_collisions ]
/tmp/_gbsbuild/obj/scene_69_init.rel      [ scene_69_init ]
/tmp/_gbsbuild/obj/scene_69.rel           [ scene_69 ]
/tmp/_gbsbuild/obj/scene_7_collisions.rel
                                          [ scene_7_collisions ]
/tmp/_gbsbuild/obj/scene_7_init.rel       [ scene_7_init ]
/tmp/_gbsbuild/obj/scene_7.rel            [ scene_7 ]
/tmp/_gbsbuild/obj/scene_70_collisions.rel
                                          [ scene_70_collisions ]
/tmp/_gbsbuild/obj/scene_70_init.rel      [ scene_70_init ]
/tmp/_gbsbuild/obj/scene_70_triggers.rel  [ scene_70_triggers ]
/tmp/_gbsbuild/obj/scene_70.rel           [ scene_70 ]
/tmp/_gbsbuild/obj/scene_71_actors.rel    [ scene_71_actors ]
/tmp/_gbsbuild/obj/scene_71_collisions.rel
                                          [ scene_71_collisions ]
/tmp/_gbsbuild/obj/scene_71_init.rel      [ scene_71_init ]
/tmp/_gbsbuild/obj/scene_71_sprites.rel   [ scene_71_sprites ]
/tmp/_gbsbuild/obj/scene_71_triggers.rel  [ scene_71_triggers ]
/tmp/_gbsbuild/obj/scene_71.rel           [ scene_71 ]
/tmp/_gbsbuild/obj/scene_72_collisions.rel
                                          [ scene_72_collisions ]
/tmp/_gbsbuild/obj/scene_72_init.rel      [ scene_72_init ]
/tmp/_gbsbuild/obj/scene_72_triggers.rel  [ scene_72_triggers ]
/tmp/_gbsbuild/obj/scene_72.rel           [ scene_72 ]
/tmp/_gbsbuild/obj/scene_73_actors.rel    [ scene_73_actors ]
/tmp/_gbsbuild/obj/scene_73_collisions.rel
                                          [ scene_73_collisions ]
/tmp/_gbsbuild/obj/scene_73_init.rel      [ scene_73_init ]
/tmp/_gbsbuild/obj/scene_73_sprites.rel   [ scene_73_sprites ]
/tmp/_gbsbuild/obj/scene_73.rel           [ scene_73 ]
/tmp/_gbsbuild/obj/scene_74_collisions.rel
                                          [ scene_74_collisions ]
/tmp/_gbsbuild/obj/scene_74_init.rel      [ scene_74_init ]
/tmp/_gbsbuild/obj/scene_74.rel           [ scene_74 ]
/tmp/_gbsbuild/obj/scene_75_collisions.rel
                                          [ scene_75_collisions ]
/tmp/_gbsbuild/obj/scene_75_init.rel      [ scene_75_init ]
/tmp/_gbsbuild/obj/scene_75_triggers.rel  [ scene_75_triggers ]
/tmp/_gbsbuild/obj/scene_75.rel           [ scene_75 ]
/tmp/_gbsbuild/obj/scene_76_actors.rel    [ scene_76_actors ]
/tmp/_gbsbuild/obj/scene_76_collisions.rel
                                          [ scene_76_collisions ]
/tmp/_gbsbuild/obj/scene_76_init.rel      [ scene_76_init ]
/tmp/_gbsbuild/obj/scene_76_sprites.rel   [ scene_76_sprites ]
/tmp/_gbsbuild/obj/scene_76_triggers.rel  [ scene_76_triggers ]
/tmp/_gbsbuild/obj/scene_76.rel           [ scene_76 ]
/tmp/_gbsbuild/obj/scene_77_collisions.rel
                                          [ scene_77_collisions ]
/tmp/_gbsbuild/obj/scene_77_init.rel      [ scene_77_init ]
/tmp/_gbsbuild/obj/scene_77_triggers.rel  [ scene_77_triggers ]
/tmp/_gbsbuild/obj/scene_77.rel           [ scene_77 ]
/tmp/_gbsbuild/obj/scene_78_collisions.rel
                                          [ scene_78_collisions ]
/tmp/_gbsbuild/obj/scene_78_init.rel      [ scene_78_init ]
/tmp/_gbsbuild/obj/scene_78_triggers.rel  [ scene_78_triggers ]
/tmp/_gbsbuild/obj/scene_78.rel           [ scene_78 ]
/tmp/_gbsbuild/obj/scene_79_collisions.rel
                                          [ scene_79_collisions ]
/tmp/_gbsbuild/obj/scene_79_init.rel      [ scene_79_init ]
/tmp/_gbsbuild/obj/scene_79_triggers.rel  [ scene_79_triggers ]
/tmp/_gbsbuild/obj/scene_79.rel           [ scene_79 ]
/tmp/_gbsbuild/obj/scene_8_collisions.rel
                                          [ scene_8_collisions ]
/tmp/_gbsbuild/obj/scene_8_init.rel       [ scene_8_init ]
/tmp/_gbsbuild/obj/scene_8.rel            [ scene_8 ]
/tmp/_gbsbuild/obj/scene_80_collisions.rel
                                          [ scene_80_collisions ]
/tmp/_gbsbuild/obj/scene_80_init.rel      [ scene_80_init ]
/tmp/_gbsbuild/obj/scene_80_triggers.rel  [ scene_80_triggers ]
/tmp/_gbsbuild/obj/scene_80.rel           [ scene_80 ]
/tmp/_gbsbuild/obj/scene_81_collisions.rel
                                          [ scene_81_collisions ]
/tmp/_gbsbuild/obj/scene_81_init.rel      [ scene_81_init ]
/tmp/_gbsbuild/obj/scene_81_triggers.rel  [ scene_81_triggers ]
/tmp/_gbsbuild/obj/scene_81.rel           [ scene_81 ]
/tmp/_gbsbuild/obj/scene_82_collisions.rel
                                          [ scene_82_collisions ]
/tmp/_gbsbuild/obj/scene_82_init.rel      [ scene_82_init ]
/tmp/_gbsbuild/obj/scene_82_triggers.rel  [ scene_82_triggers ]
/tmp/_gbsbuild/obj/scene_82.rel           [ scene_82 ]
/tmp/_gbsbuild/obj/scene_83_collisions.rel
                                          [ scene_83_collisions ]
/tmp/_gbsbuild/obj/scene_83_init.rel      [ scene_83_init ]
/tmp/_gbsbuild/obj/scene_83_triggers.rel  [ scene_83_triggers ]
/tmp/_gbsbuild/obj/scene_83.rel           [ scene_83 ]
/tmp/_gbsbuild/obj/scene_84_collisions.rel
                                          [ scene_84_collisions ]
/tmp/_gbsbuild/obj/scene_84_init.rel      [ scene_84_init ]
/tmp/_gbsbuild/obj/scene_84_triggers.rel  [ scene_84_triggers ]
/tmp/_gbsbuild/obj/scene_84.rel           [ scene_84 ]
/tmp/_gbsbuild/obj/scene_85_collisions.rel
                                          [ scene_85_collisions ]
/tmp/_gbsbuild/obj/scene_85_init.rel      [ scene_85_init ]
/tmp/_gbsbuild/obj/scene_85.rel           [ scene_85 ]
/tmp/_gbsbuild/obj/scene_86_actors.rel    [ scene_86_actors ]
/tmp/_gbsbuild/obj/scene_86_collisions.rel
                                          [ scene_86_collisions ]
/tmp/_gbsbuild/obj/scene_86_init.rel      [ scene_86_init ]
/tmp/_gbsbuild/obj/scene_86_sprites.rel   [ scene_86_sprites ]
/tmp/_gbsbuild/obj/scene_86_triggers.rel  [ scene_86_triggers ]
/tmp/_gbsbuild/obj/scene_86.rel           [ scene_86 ]
/tmp/_gbsbuild/obj/scene_87_collisions.rel
                                          [ scene_87_collisions ]
/tmp/_gbsbuild/obj/scene_87_init.rel      [ scene_87_init ]
/tmp/_gbsbuild/obj/scene_87.rel           [ scene_87 ]
/tmp/_gbsbuild/obj/scene_88_collisions.rel
                                          [ scene_88_collisions ]
/tmp/_gbsbuild/obj/scene_88_init.rel      [ scene_88_init ]
/tmp/_gbsbuild/obj/scene_88_triggers.rel  [ scene_88_triggers ]
/tmp/_gbsbuild/obj/scene_88.rel           [ scene_88 ]
/tmp/_gbsbuild/obj/scene_89_collisions.rel
                                          [ scene_89_collisions ]
/tmp/_gbsbuild/obj/scene_89_init.rel      [ scene_89_init ]
/tmp/_gbsbuild/obj/scene_89_triggers.rel  [ scene_89_triggers ]
/tmp/_gbsbuild/obj/scene_89.rel           [ scene_89 ]
/tmp/_gbsbuild/obj/scene_9_collisions.rel
                                          [ scene_9_collisions ]
/tmp/_gbsbuild/obj/scene_9_init.rel       [ scene_9_init ]
/tmp/_gbsbuild/obj/scene_9.rel            [ scene_9 ]
/tmp/_gbsbuild/obj/scene_90_actors.rel    [ scene_90_actors ]
/tmp/_gbsbuild/obj/scene_90_collisions.rel
                                          [ scene_90_collisions ]
/tmp/_gbsbuild/obj/scene_90_init.rel      [ scene_90_init ]
/tmp/_gbsbuild/obj/scene_90_sprites.rel   [ scene_90_sprites ]
/tmp/_gbsbuild/obj/scene_90_triggers.rel  [ scene_90_triggers ]
/tmp/_gbsbuild/obj/scene_90.rel           [ scene_90 ]
/tmp/_gbsbuild/obj/scene_91_actors.rel    [ scene_91_actors ]
/tmp/_gbsbuild/obj/scene_91_collisions.rel
                                          [ scene_91_collisions ]
/tmp/_gbsbuild/obj/scene_91_init.rel      [ scene_91_init ]
/tmp/_gbsbuild/obj/scene_91_sprites.rel   [ scene_91_sprites ]
/tmp/_gbsbuild/obj/scene_91_triggers.rel  [ scene_91_triggers ]
/tmp/_gbsbuild/obj/scene_91.rel           [ scene_91 ]
/tmp/_gbsbuild/obj/scene_92_actors.rel    [ scene_92_actors ]
/tmp/_gbsbuild/obj/scene_92_collisions.rel
                                          [ scene_92_collisions ]
/tmp/_gbsbuild/obj/scene_92_init.rel      [ scene_92_init ]
/tmp/_gbsbuild/obj/scene_92_sprites.rel   [ scene_92_sprites ]
/tmp/_gbsbuild/obj/scene_92.rel           [ scene_92 ]
/tmp/_gbsbuild/obj/scene_93_actors.rel    [ scene_93_actors ]
/tmp/_gbsbuild/obj/scene_93_collisions.rel
                                          [ scene_93_collisions ]
/tmp/_gbsbuild/obj/scene_93_init.rel      [ scene_93_init ]
/tmp/_gbsbuild/obj/scene_93_p_hit1.rel    [ scene_93_p_hit1 ]
/tmp/_gbsbuild/obj/scene_93_projectiles.rel
                                          [ scene_93_projectiles ]
/tmp/_gbsbuild/obj/scene_93_sprites.rel   [ scene_93_sprites ]
/tmp/_gbsbuild/obj/scene_93_triggers.rel  [ scene_93_triggers ]
/tmp/_gbsbuild/obj/scene_93.rel           [ scene_93 ]
/tmp/_gbsbuild/obj/scene_94_actors.rel    [ scene_94_actors ]
/tmp/_gbsbuild/obj/scene_94_collisions.rel
                                          [ scene_94_collisions ]
/tmp/_gbsbuild/obj/scene_94_init.rel      [ scene_94_init ]
/tmp/_gbsbuild/obj/scene_94_p_hit1.rel    [ scene_94_p_hit1 ]
/tmp/_gbsbuild/obj/scene_94_projectiles.rel
                                          [ scene_94_projectiles ]
/tmp/_gbsbuild/obj/scene_94_sprites.rel   [ scene_94_sprites ]
/tmp/_gbsbuild/obj/scene_94.rel           [ scene_94 ]
/tmp/_gbsbuild/obj/scene_95_collisions.rel
                                          [ scene_95_collisions ]
/tmp/_gbsbuild/obj/scene_95_init.rel      [ scene_95_init ]
/tmp/_gbsbuild/obj/scene_95.rel           [ scene_95 ]
/tmp/_gbsbuild/obj/scene_96_collisions.rel
                                          [ scene_96_collisions ]
/tmp/_gbsbuild/obj/scene_96_init.rel      [ scene_96_init ]
/tmp/_gbsbuild/obj/scene_96.rel           [ scene_96 ]
/tmp/_gbsbuild/obj/scene_97_collisions.rel
                                          [ scene_97_collisions ]
/tmp/_gbsbuild/obj/scene_97_init.rel      [ scene_97_init ]
/tmp/_gbsbuild/obj/scene_97.rel           [ scene_97 ]
/tmp/_gbsbuild/obj/scene_98_collisions.rel
                                          [ scene_98_collisions ]
/tmp/_gbsbuild/obj/scene_98_init.rel      [ scene_98_init ]
/tmp/_gbsbuild/obj/scene_98.rel           [ scene_98 ]
/tmp/_gbsbuild/obj/scene_99_actors.rel    [ scene_99_actors ]
/tmp/_gbsbuild/obj/scene_99_collisions.rel
                                          [ scene_99_collisions ]
/tmp/_gbsbuild/obj/scene_99_init.rel      [ scene_99_init ]
/tmp/_gbsbuild/obj/scene_99_sprites.rel   [ scene_99_sprites ]
/tmp/_gbsbuild/obj/scene_99.rel           [ scene_99 ]
/tmp/_gbsbuild/obj/script_engine_init.rel
                                          [  ]
/tmp/_gbsbuild/obj/script_input_0.rel     [ script_input_0 ]
/tmp/_gbsbuild/obj/script_input_1.rel     [ script_input_1 ]
/tmp/_gbsbuild/obj/script_input_12.rel    [ script_input_12 ]
/tmp/_gbsbuild/obj/script_input_2.rel     [ script_input_2 ]
/tmp/_gbsbuild/obj/script_input_3.rel     [ script_input_3 ]
/tmp/_gbsbuild/obj/script_input_4.rel     [ script_input_4 ]
/tmp/_gbsbuild/obj/script_input_5.rel     [ script_input_5 ]
/tmp/_gbsbuild/obj/script_input_6.rel     [ script_input_6 ]
/tmp/_gbsbuild/obj/script_input_7.rel     [ script_input_7 ]
/tmp/_gbsbuild/obj/script_input.rel       [ script_input ]
/tmp/_gbsbuild/obj/script_timer_0.rel     [ script_timer_0 ]
/tmp/_gbsbuild/obj/script_timer_1.rel     [ script_timer_1 ]
/tmp/_gbsbuild/obj/script_timer_11.rel    [ script_timer_11 ]
/tmp/_gbsbuild/obj/script_timer_12.rel    [ script_timer_12 ]
/tmp/_gbsbuild/obj/script_timer_3.rel     [ script_timer_3 ]
/tmp/_gbsbuild/obj/script_timer_5.rel     [ script_timer_5 ]
/tmp/_gbsbuild/obj/script_timer.rel       [ script_timer ]
/tmp/_gbsbuild/obj/sprite_blank_interactable_c_0_tileset.rel
                                          [ sprite_blank_interactable_c_0_ti ]
/tmp/_gbsbuild/obj/sprite_blank_interactable_c_0.rel
                                          [ sprite_blank_interactable_c_0 ]
/tmp/_gbsbuild/obj/sprite_blank_interactable_c_tileset.rel
                                          [ sprite_blank_interactable_c_tile ]
/tmp/_gbsbuild/obj/sprite_blank_interactable_c.rel
                                          [ sprite_blank_interactable_c ]
/tmp/_gbsbuild/obj/sprite_car_tileset.rel
                                          [ sprite_car_tileset ]
/tmp/_gbsbuild/obj/sprite_car.rel         [ sprite_car ]
/tmp/_gbsbuild/obj/sprite_cataa_tileset.rel
                                          [ sprite_cataa_tileset ]
/tmp/_gbsbuild/obj/sprite_cataa.rel       [ sprite_cataa ]
/tmp/_gbsbuild/obj/sprite_dhilly_5_level_copy__tileset.rel
                                          [ sprite_dhilly_5_level_copy__tile ]
/tmp/_gbsbuild/obj/sprite_dhilly_5_level_copy_.rel
                                          [ sprite_dhilly_5_level_copy_ ]
/tmp/_gbsbuild/obj/sprite_dhilly_bridge_intera_0_tileset.rel
                                          [ sprite_dhilly_bridge_intera_0_ti ]
/tmp/_gbsbuild/obj/sprite_dhilly_bridge_intera_0.rel
                                          [ sprite_dhilly_bridge_intera_0 ]
/tmp/_gbsbuild/obj/sprite_dhilly_bridge_intera_tileset.rel
                                          [ sprite_dhilly_bridge_intera_tile ]
/tmp/_gbsbuild/obj/sprite_dhilly_bridge_intera.rel
                                          [ sprite_dhilly_bridge_intera ]
/tmp/_gbsbuild/obj/sprite_dhilly_saveselect_co_0_tileset.rel
                                          [ sprite_dhilly_saveselect_co_0_ti ]
/tmp/_gbsbuild/obj/sprite_dhilly_saveselect_co_0.rel
                                          [ sprite_dhilly_saveselect_co_0 ]
/tmp/_gbsbuild/obj/sprite_dhilly_saveselect_co_1_tileset.rel
                                          [ sprite_dhilly_saveselect_co_1_ti ]
/tmp/_gbsbuild/obj/sprite_dhilly_saveselect_co_1.rel
                                          [ sprite_dhilly_saveselect_co_1 ]
/tmp/_gbsbuild/obj/sprite_dhilly_saveselect_co_tileset.rel
                                          [ sprite_dhilly_saveselect_co_tile ]
/tmp/_gbsbuild/obj/sprite_dhilly_saveselect_co.rel
                                          [ sprite_dhilly_saveselect_co ]
/tmp/_gbsbuild/obj/sprite_dhilly_saveselect_tileset.rel
                                          [ sprite_dhilly_saveselect_tileset ]
/tmp/_gbsbuild/obj/sprite_dhilly_saveselect.rel
                                          [ sprite_dhilly_saveselect ]
/tmp/_gbsbuild/obj/sprite_highlight_options_co_tileset.rel
                                          [ sprite_highlight_options_co_tile ]
/tmp/_gbsbuild/obj/sprite_highlight_options_co.rel
                                          [ sprite_highlight_options_co ]
/tmp/_gbsbuild/obj/sprite_iceos_cursor_copy_.rel
                                          [ sprite_iceos_cursor_copy_ ]
/tmp/_gbsbuild/obj/sprite_iceosapp_ctf_copy_0_tileset.rel
                                          [ sprite_iceosapp_ctf_copy_0_tiles ]
/tmp/_gbsbuild/obj/sprite_iceosapp_ctf_copy_0.rel
                                          [ sprite_iceosapp_ctf_copy_0 ]
/tmp/_gbsbuild/obj/sprite_iceosapp_pltfrmr_cop_tileset.rel
                                          [ sprite_iceosapp_pltfrmr_cop_tile ]
/tmp/_gbsbuild/obj/sprite_iceosapp_pltfrmr_cop.rel
                                          [ sprite_iceosapp_pltfrmr_cop ]
/tmp/_gbsbuild/obj/sprite_iceosapp_settings_co_tileset.rel
                                          [ sprite_iceosapp_settings_co_tile ]
/tmp/_gbsbuild/obj/sprite_iceosapp_settings_co.rel
                                          [ sprite_iceosapp_settings_co ]
/tmp/_gbsbuild/obj/sprite_iceosapp_wveruner_co_tileset.rel
                                          [ sprite_iceosapp_wveruner_co_tile ]
/tmp/_gbsbuild/obj/sprite_iceosapp_wveruner_co.rel
                                          [ sprite_iceosapp_wveruner_co ]
/tmp/_gbsbuild/obj/sprite_knife_down_copy__tileset.rel
                                          [ sprite_knife_down_copy__tileset ]
/tmp/_gbsbuild/obj/sprite_knife_down_copy_.rel
                                          [ sprite_knife_down_copy_ ]
/tmp/_gbsbuild/obj/sprite_len_city_dhilly_hous.rel
                                          [ sprite_len_city_dhilly_hous ]
/tmp/_gbsbuild/obj/sprite_mzdesigns_tileset.rel
                                          [ sprite_mzdesigns_tileset ]
/tmp/_gbsbuild/obj/sprite_mzdesigns.rel   [ sprite_mzdesigns ]
/tmp/_gbsbuild/obj/sprite_piece_dhilly3_ver_co_tileset.rel
                                          [ sprite_piece_dhilly3_ver_co_tile ]
/tmp/_gbsbuild/obj/sprite_piece_dhilly3_ver_co.rel
                                          [ sprite_piece_dhilly3_ver_co ]
/tmp/_gbsbuild/obj/sprite_piece_dhilly3_ver_tileset.rel
                                          [ sprite_piece_dhilly3_ver_tileset ]
/tmp/_gbsbuild/obj/sprite_piece_dhilly3_ver.rel
                                          [ sprite_piece_dhilly3_ver ]
/tmp/_gbsbuild/obj/sprite_pixelperfectvoti_cop_tileset.rel
                                          [ sprite_pixelperfectvoti_cop_tile ]
/tmp/_gbsbuild/obj/sprite_pixelperfectvoti_cop.rel
                                          [ sprite_pixelperfectvoti_cop ]
/tmp/_gbsbuild/obj/sprite_pixelperfectvoti_tileset.rel
                                          [ sprite_pixelperfectvoti_tileset ]
/tmp/_gbsbuild/obj/sprite_pixelperfectvoti.rel
                                          [ sprite_pixelperfectvoti ]
/tmp/_gbsbuild/obj/sprite_shapiro_tileset.rel
                                          [ sprite_shapiro_tileset ]
/tmp/_gbsbuild/obj/sprite_shapiro.rel     [ sprite_shapiro ]
/tmp/_gbsbuild/obj/sprite_square_cart_copy__tileset.rel
                                          [ sprite_square_cart_copy__tileset ]
/tmp/_gbsbuild/obj/sprite_square_cart_copy_.rel
                                          [ sprite_square_cart_copy_ ]
/tmp/_gbsbuild/obj/sprite_square_full_hitbox_c_1_tileset.rel
                                          [ sprite_square_full_hitbox_c_1_ti ]
/tmp/_gbsbuild/obj/sprite_square_full_hitbox_c_1.rel
                                          [ sprite_square_full_hitbox_c_1 ]
/tmp/_gbsbuild/obj/sprite_square_full_hitbox_c_2_tileset.rel
                                          [ sprite_square_full_hitbox_c_2_ti ]
/tmp/_gbsbuild/obj/sprite_square_full_hitbox_c_2.rel
                                          [ sprite_square_full_hitbox_c_2 ]
/tmp/_gbsbuild/obj/sprite_square_full_hitbox_c_3_tileset.rel
                                          [ sprite_square_full_hitbox_c_3_ti ]
/tmp/_gbsbuild/obj/sprite_square_full_hitbox_c_3.rel
                                          [ sprite_square_full_hitbox_c_3 ]
/tmp/_gbsbuild/obj/sprite_square_full_hitbox_c_4_tileset.rel
                                          [ sprite_square_full_hitbox_c_4_ti ]
/tmp/_gbsbuild/obj/sprite_square_full_hitbox_c_4.rel
                                          [ sprite_square_full_hitbox_c_4 ]
/tmp/_gbsbuild/obj/sprite_square_full_hitbox_c_5_tileset.rel
                                          [ sprite_square_full_hitbox_c_5_ti ]
/tmp/_gbsbuild/obj/sprite_square_full_hitbox_c_5.rel
                                          [ sprite_square_full_hitbox_c_5 ]
/tmp/_gbsbuild/obj/sprite_square_full_hitbox_c_tileset.rel
                                          [ sprite_square_full_hitbox_c_tile ]
/tmp/_gbsbuild/obj/sprite_square_full_hitbox_c.rel
                                          [ sprite_square_full_hitbox_c ]
/tmp/_gbsbuild/obj/sprite_square_platforming_c_tileset.rel
                                          [ sprite_square_platforming_c_tile ]
/tmp/_gbsbuild/obj/sprite_square_platforming_c.rel
                                          [ sprite_square_platforming_c ]
/tmp/_gbsbuild/obj/sprite_static_copy_0_tileset.rel
                                          [ sprite_static_copy_0_tileset ]
/tmp/_gbsbuild/obj/sprite_static_copy_0.rel
                                          [ sprite_static_copy_0 ]
/tmp/_gbsbuild/obj/sprite_static_copy_tileset.rel
                                          [ sprite_static_copy_tileset ]
/tmp/_gbsbuild/obj/sprite_static_copy.rel
                                          [ sprite_static_copy ]
/tmp/_gbsbuild/obj/spritesheet_none.rel   [ spritesheet_none ]
/tmp/_gbsbuild/obj/tileset_default_frame.rel
                                          [ tileset_default_frame ]
/tmp/_gbsbuild/obj/trigger_0_interact.rel
                                          [ trigger_0_interact ]
/tmp/_gbsbuild/obj/trigger_1_interact.rel
                                          [ trigger_1_interact ]
/tmp/_gbsbuild/obj/trigger_10_interact.rel
                                          [ trigger_10_interact ]
/tmp/_gbsbuild/obj/trigger_100_interact.rel
                                          [ trigger_100_interact ]
/tmp/_gbsbuild/obj/trigger_101_interact.rel
                                          [ trigger_101_interact ]
/tmp/_gbsbuild/obj/trigger_102_interact.rel
                                          [ trigger_102_interact ]
/tmp/_gbsbuild/obj/trigger_103_interact.rel
                                          [ trigger_103_interact ]
/tmp/_gbsbuild/obj/trigger_104_interact.rel
                                          [ trigger_104_interact ]
/tmp/_gbsbuild/obj/trigger_105_interact.rel
                                          [ trigger_105_interact ]
/tmp/_gbsbuild/obj/trigger_106_interact.rel
                                          [ trigger_106_interact ]
/tmp/_gbsbuild/obj/trigger_107_interact.rel
                                          [ trigger_107_interact ]
/tmp/_gbsbuild/obj/trigger_108_interact.rel
                                          [ trigger_108_interact ]
/tmp/_gbsbuild/obj/trigger_109_interact.rel
                                          [ trigger_109_interact ]
/tmp/_gbsbuild/obj/trigger_11_interact.rel
                                          [ trigger_11_interact ]
/tmp/_gbsbuild/obj/trigger_110_interact.rel
                                          [ trigger_110_interact ]
/tmp/_gbsbuild/obj/trigger_111_interact.rel
                                          [ trigger_111_interact ]
/tmp/_gbsbuild/obj/trigger_112_interact.rel
                                          [ trigger_112_interact ]
/tmp/_gbsbuild/obj/trigger_113_interact.rel
                                          [ trigger_113_interact ]
/tmp/_gbsbuild/obj/trigger_114_interact.rel
                                          [ trigger_114_interact ]
/tmp/_gbsbuild/obj/trigger_115_interact.rel
                                          [ trigger_115_interact ]
/tmp/_gbsbuild/obj/trigger_116_interact.rel
                                          [ trigger_116_interact ]
/tmp/_gbsbuild/obj/trigger_117_interact.rel
                                          [ trigger_117_interact ]
/tmp/_gbsbuild/obj/trigger_118_interact.rel
                                          [ trigger_118_interact ]
/tmp/_gbsbuild/obj/trigger_119_interact.rel
                                          [ trigger_119_interact ]
/tmp/_gbsbuild/obj/trigger_12_interact.rel
                                          [ trigger_12_interact ]
/tmp/_gbsbuild/obj/trigger_120_interact.rel
                                          [ trigger_120_interact ]
/tmp/_gbsbuild/obj/trigger_121_interact.rel
                                          [ trigger_121_interact ]
/tmp/_gbsbuild/obj/trigger_122_interact.rel
                                          [ trigger_122_interact ]
/tmp/_gbsbuild/obj/trigger_123_interact.rel
                                          [ trigger_123_interact ]
/tmp/_gbsbuild/obj/trigger_125_interact.rel
                                          [ trigger_125_interact ]
/tmp/_gbsbuild/obj/trigger_127_interact.rel
                                          [ trigger_127_interact ]
/tmp/_gbsbuild/obj/trigger_128_interact.rel
                                          [ trigger_128_interact ]
/tmp/_gbsbuild/obj/trigger_13_interact.rel
                                          [ trigger_13_interact ]
/tmp/_gbsbuild/obj/trigger_130_interact.rel
                                          [ trigger_130_interact ]
/tmp/_gbsbuild/obj/trigger_131_interact.rel
                                          [ trigger_131_interact ]
/tmp/_gbsbuild/obj/trigger_14_interact.rel
                                          [ trigger_14_interact ]
/tmp/_gbsbuild/obj/trigger_15_interact.rel
                                          [ trigger_15_interact ]
/tmp/_gbsbuild/obj/trigger_16_interact.rel
                                          [ trigger_16_interact ]
/tmp/_gbsbuild/obj/trigger_17_interact.rel
                                          [ trigger_17_interact ]
/tmp/_gbsbuild/obj/trigger_18_interact.rel
                                          [ trigger_18_interact ]
/tmp/_gbsbuild/obj/trigger_19_interact.rel
                                          [ trigger_19_interact ]
/tmp/_gbsbuild/obj/trigger_2_interact.rel
                                          [ trigger_2_interact ]
/tmp/_gbsbuild/obj/trigger_20_interact.rel
                                          [ trigger_20_interact ]
/tmp/_gbsbuild/obj/trigger_21_interact.rel
                                          [ trigger_21_interact ]
/tmp/_gbsbuild/obj/trigger_22_interact.rel
                                          [ trigger_22_interact ]
/tmp/_gbsbuild/obj/trigger_23_interact.rel
                                          [ trigger_23_interact ]
/tmp/_gbsbuild/obj/trigger_24_interact.rel
                                          [ trigger_24_interact ]
/tmp/_gbsbuild/obj/trigger_25_interact.rel
                                          [ trigger_25_interact ]
/tmp/_gbsbuild/obj/trigger_26_interact.rel
                                          [ trigger_26_interact ]
/tmp/_gbsbuild/obj/trigger_27_interact.rel
                                          [ trigger_27_interact ]
/tmp/_gbsbuild/obj/trigger_28_interact.rel
                                          [ trigger_28_interact ]
/tmp/_gbsbuild/obj/trigger_29_interact.rel
                                          [ trigger_29_interact ]
/tmp/_gbsbuild/obj/trigger_30_interact.rel
                                          [ trigger_30_interact ]
/tmp/_gbsbuild/obj/trigger_31_interact.rel
                                          [ trigger_31_interact ]
/tmp/_gbsbuild/obj/trigger_32_interact.rel
                                          [ trigger_32_interact ]
/tmp/_gbsbuild/obj/trigger_33_interact.rel
                                          [ trigger_33_interact ]
/tmp/_gbsbuild/obj/trigger_34_interact.rel
                                          [ trigger_34_interact ]
/tmp/_gbsbuild/obj/trigger_35_interact.rel
                                          [ trigger_35_interact ]
/tmp/_gbsbuild/obj/trigger_36_interact.rel
                                          [ trigger_36_interact ]
/tmp/_gbsbuild/obj/trigger_37_interact.rel
                                          [ trigger_37_interact ]
/tmp/_gbsbuild/obj/trigger_38_interact.rel
                                          [ trigger_38_interact ]
/tmp/_gbsbuild/obj/trigger_39_interact.rel
                                          [ trigger_39_interact ]
/tmp/_gbsbuild/obj/trigger_4_interact.rel
                                          [ trigger_4_interact ]
/tmp/_gbsbuild/obj/trigger_40_interact.rel
                                          [ trigger_40_interact ]
/tmp/_gbsbuild/obj/trigger_41_interact.rel
                                          [ trigger_41_interact ]
/tmp/_gbsbuild/obj/trigger_42_interact.rel
                                          [ trigger_42_interact ]
/tmp/_gbsbuild/obj/trigger_43_interact.rel
                                          [ trigger_43_interact ]
/tmp/_gbsbuild/obj/trigger_44_interact.rel
                                          [ trigger_44_interact ]
/tmp/_gbsbuild/obj/trigger_45_interact.rel
                                          [ trigger_45_interact ]
/tmp/_gbsbuild/obj/trigger_46_interact.rel
                                          [ trigger_46_interact ]
/tmp/_gbsbuild/obj/trigger_47_interact.rel
                                          [ trigger_47_interact ]
/tmp/_gbsbuild/obj/trigger_48_interact.rel
                                          [ trigger_48_interact ]
/tmp/_gbsbuild/obj/trigger_5_interact.rel
                                          [ trigger_5_interact ]
/tmp/_gbsbuild/obj/trigger_50_interact.rel
                                          [ trigger_50_interact ]
/tmp/_gbsbuild/obj/trigger_51_interact.rel
                                          [ trigger_51_interact ]
/tmp/_gbsbuild/obj/trigger_52_interact.rel
                                          [ trigger_52_interact ]
/tmp/_gbsbuild/obj/trigger_53_interact.rel
                                          [ trigger_53_interact ]
/tmp/_gbsbuild/obj/trigger_54_interact.rel
                                          [ trigger_54_interact ]
/tmp/_gbsbuild/obj/trigger_55_interact.rel
                                          [ trigger_55_interact ]
/tmp/_gbsbuild/obj/trigger_56_interact.rel
                                          [ trigger_56_interact ]
/tmp/_gbsbuild/obj/trigger_57_interact.rel
                                          [ trigger_57_interact ]
/tmp/_gbsbuild/obj/trigger_58_interact.rel
                                          [ trigger_58_interact ]
/tmp/_gbsbuild/obj/trigger_59_interact.rel
                                          [ trigger_59_interact ]
/tmp/_gbsbuild/obj/trigger_6_interact.rel
                                          [ trigger_6_interact ]
/tmp/_gbsbuild/obj/trigger_60_interact.rel
                                          [ trigger_60_interact ]
/tmp/_gbsbuild/obj/trigger_61_interact.rel
                                          [ trigger_61_interact ]
/tmp/_gbsbuild/obj/trigger_62_interact.rel
                                          [ trigger_62_interact ]
/tmp/_gbsbuild/obj/trigger_63_interact.rel
                                          [ trigger_63_interact ]
/tmp/_gbsbuild/obj/trigger_64_interact.rel
                                          [ trigger_64_interact ]
/tmp/_gbsbuild/obj/trigger_65_interact.rel
                                          [ trigger_65_interact ]
/tmp/_gbsbuild/obj/trigger_66_interact.rel
                                          [ trigger_66_interact ]
/tmp/_gbsbuild/obj/trigger_67_interact.rel
                                          [ trigger_67_interact ]
/tmp/_gbsbuild/obj/trigger_68_interact.rel
                                          [ trigger_68_interact ]
/tmp/_gbsbuild/obj/trigger_69_interact.rel
                                          [ trigger_69_interact ]
/tmp/_gbsbuild/obj/trigger_7_interact.rel
                                          [ trigger_7_interact ]
/tmp/_gbsbuild/obj/trigger_70_interact.rel
                                          [ trigger_70_interact ]
/tmp/_gbsbuild/obj/trigger_71_interact.rel
                                          [ trigger_71_interact ]
/tmp/_gbsbuild/obj/trigger_72_interact.rel
                                          [ trigger_72_interact ]
/tmp/_gbsbuild/obj/trigger_73_interact.rel
                                          [ trigger_73_interact ]
/tmp/_gbsbuild/obj/trigger_74_interact.rel
                                          [ trigger_74_interact ]
/tmp/_gbsbuild/obj/trigger_75_interact.rel
                                          [ trigger_75_interact ]
/tmp/_gbsbuild/obj/trigger_76_interact.rel
                                          [ trigger_76_interact ]
/tmp/_gbsbuild/obj/trigger_77_interact.rel
                                          [ trigger_77_interact ]
/tmp/_gbsbuild/obj/trigger_78_interact.rel
                                          [ trigger_78_interact ]
/tmp/_gbsbuild/obj/trigger_79_interact.rel
                                          [ trigger_79_interact ]
/tmp/_gbsbuild/obj/trigger_8_interact.rel
                                          [ trigger_8_interact ]
/tmp/_gbsbuild/obj/trigger_80_interact.rel
                                          [ trigger_80_interact ]
/tmp/_gbsbuild/obj/trigger_81_interact.rel
                                          [ trigger_81_interact ]
/tmp/_gbsbuild/obj/trigger_82_interact.rel
                                          [ trigger_82_interact ]
/tmp/_gbsbuild/obj/trigger_83_interact.rel
                                          [ trigger_83_interact ]
/tmp/_gbsbuild/obj/trigger_84_interact.rel
                                          [ trigger_84_interact ]
/tmp/_gbsbuild/obj/trigger_85_interact.rel
                                          [ trigger_85_interact ]
/tmp/_gbsbuild/obj/trigger_86_interact.rel
                                          [ trigger_86_interact ]
/tmp/_gbsbuild/obj/trigger_87_interact.rel
                                          [ trigger_87_interact ]
/tmp/_gbsbuild/obj/trigger_88_interact.rel
                                          [ trigger_88_interact ]
/tmp/_gbsbuild/obj/trigger_89_interact.rel
                                          [ trigger_89_interact ]
/tmp/_gbsbuild/obj/trigger_9_interact.rel
                                          [ trigger_9_interact ]
/tmp/_gbsbuild/obj/trigger_90_interact.rel
                                          [ trigger_90_interact ]
/tmp/_gbsbuild/obj/trigger_91_interact.rel
                                          [ trigger_91_interact ]
/tmp/_gbsbuild/obj/trigger_92_interact.rel
                                          [ trigger_92_interact ]
/tmp/_gbsbuild/obj/trigger_93_interact.rel
                                          [ trigger_93_interact ]
/tmp/_gbsbuild/obj/trigger_94_interact.rel
                                          [ trigger_94_interact ]
/tmp/_gbsbuild/obj/trigger_95_interact.rel
                                          [ trigger_95_interact ]
/tmp/_gbsbuild/obj/trigger_96_interact.rel
                                          [ trigger_96_interact ]
/tmp/_gbsbuild/obj/trigger_97_interact.rel
                                          [ trigger_97_interact ]
/tmp/_gbsbuild/obj/trigger_98_interact.rel
                                          [ trigger_98_interact ]
/tmp/_gbsbuild/obj/trigger_99_interact.rel
                                          [ trigger_99_interact ]
/tmp/_gbsbuild/obj/main.rel               [ main ]
/tmp/_gbsbuild/obj/logo.rel               [ logo ]
/tmp/_gbsbuild/obj/platform.rel           [ platform ]
/tmp/_gbsbuild/obj/pointnclick.rel        [ pointnclick ]
/tmp/_gbsbuild/obj/states_ptrs.rel        [  ]
/tmp/_gbsbuild/obj/topdown.rel            [ topdown ]


Libraries Linked                          [ object file ]

/tmp/_gbstools/gbdk/lib/gb/gb.lib         [ fill_rect_wi.o ]
/tmp/_gbstools/gbdk/lib/sm83/sm83.lib     [ rand.o ]
/tmp/_gbstools/gbdk/lib/gb/gb.lib         [ sfr.o ]
/tmp/_gbstools/gbdk/lib/gb/gb.lib         [ get_data.o ]
/tmp/_gbstools/gbdk/lib/gb/gb.lib         [ get_tile.o ]
/tmp/_gbstools/gbdk/lib/gb/gb.lib         [ cgb_palettes.o ]
lib/gbt_player.lib                        [ gbt_player.o ]
/tmp/_gbstools/gbdk/lib/gb/gb.lib         [ metasprites_hide_spr.o ]
/tmp/_gbstools/gbdk/lib/sm83/sm83.lib     [ mul.o ]
/tmp/_gbstools/gbdk/lib/gb/gb.lib         [ set_tile.o ]
/tmp/_gbstools/gbdk/lib/sm83/sm83.lib     [ abs.o ]
/tmp/_gbstools/gbdk/lib/gb/gb.lib         [ set_wi_t.o ]
/tmp/_gbstools/gbdk/lib/gb/gb.lib         [ set_data.o ]
/tmp/_gbstools/gbdk/lib/sm83/sm83.lib     [ reverse.o ]
/tmp/_gbstools/gbdk/lib/gb/gb.lib         [ far_ptr.o ]
/tmp/_gbstools/gbdk/lib/gb/gb.lib         [ sgb.o ]
/tmp/_gbstools/gbdk/lib/gb/gb.lib         [ lcd.o ]
/tmp/_gbstools/gbdk/lib/gb/gb.lib         [ fill_rect.o ]
/tmp/_gbstools/gbdk/lib/gb/gb.lib         [ pad_ex.o ]
/tmp/_gbstools/gbdk/lib/gb/gb.lib         [ cpy_data.o ]
/tmp/_gbstools/gbdk/lib/gb/gb.lib         [ fill_rect_bk.o ]
/tmp/_gbstools/gbdk/lib/gb/gb.lib         [ metasprites.o ]
/tmp/_gbstools/gbdk/lib/sm83/sm83.lib     [ __sdcc_call_hl.o ]
/tmp/_gbstools/gbdk/lib/sm83/sm83.lib     [ memcpy.o ]
/tmp/_gbstools/gbdk/lib/sm83/sm83.lib     [ _memset.o ]
/tmp/_gbstools/gbdk/lib/gb/gb.lib         [ set_xy_t.o ]
/tmp/_gbstools/gbdk/lib/gb/gb.lib         [ ___sdcc_bcall_ehl.o ]
/tmp/_gbstools/gbdk/lib/gb/gb.lib         [ cgb.o ]
/tmp/_gbstools/gbdk/lib/sm83/sm83.lib     [ div.o ]
/tmp/_gbstools/gbdk/lib/gb/gb.lib         [ set_bk_t.o ]
lib/gbt_player.lib                        [ gbt_player_bank1.o ]

ASxxxx Linker V03.00/V05.40 + sdld,  page 159.

User Base Address Definitions

_DATA=0xC0A0
_CODE=0x0200
ASxxxx Linker V03.00/V05.40 + sdld,  page 160.

User Global Definitions

.STACK=0xDF00
_shadow_OAM=0xC000
.refresh_OAM=0xFF80
__start_save=28

