ASxxxx Linker V03.00/V05.40 + sdld,  page 1.
Hexadecimal  [32-Bits]

Area                                    Addr        Size        Decimal Bytes (Attributes)
--------------------------------        ----        ----        ------- ----- ------------
.  .ABS.                            00000000    00000000 =           0. bytes (ABS,CON)

      Value  Global                              Global Defined In Module
      -----  --------------------------------   ------------------------
     00000000  .__.ABS.                           
     00000000  _rRAMG                             
     00000000  l__BASE                         
     00000000  l__BSS                          
     00000000  l__CABS                         
     00000000  l__CODE_0                       
     00000000  l__CRASH_HEADER                 
     00000000  l__CRASH_SCRATCH                
     00000000  l__DABS                         
     00000000  l__HEADER                       
     00000000  l__HEADER_LCD                   
     00000000  l__HEADER_SIO                   
     00000000  l__HEADER_TIMER                 
     00000000  l__HEAP                         
     00000000  l__HEAP_END                     
     00000000  l__HRAM                         
     00000000  l__LIT                          
     00000000  s__CABS                         
     00000000  s__CRASH_HEADER                 
     00000000  s__CRASH_HEADER0                
     00000000  s__CRASH_HEADER1                
     00000000  s__CRASH_SCRATCH                
     00000000  s__CRASH_SCRATCH2               
     00000000  s__DABS                         
     00000000  s__HEADER                       
     00000000  s__HEADER0                      
     00000000  s__HEADER1                      
     00000000  s__HEADER10                     
     00000000  s__HEADER11                     
     00000000  s__HEADER2                      
     00000000  s__HEADER3                      
     00000000  s__HEADER4                      
     00000000  s__HEADER5                      
     00000000  s__HEADER6                      
     00000000  s__HEADER7                      
     00000000  s__HEADER8                      
     00000000  s__HEADER9                      
     00000000  s__HEADER_LCD                   
     00000000  s__HEADER_LCD0                  
     00000000  s__HEADER_SIO                   
     00000000  s__HEADER_SIO0                  
     00000000  s__HEADER_TIMER                 
     00000000  s__HEADER_TIMER0                
     00000000  s__HEADERa                      
     00000000  s__HEADERb                      
     00000000  s__HEADERc                      
     00000000  s__HEADERd                      
     00000000  s__HEADERe                      
     00000000  s__HEADERf                      
     00000000  s__HRAM                         
ASxxxx Linker V03.00/V05.40 + sdld,  page 2.
Hexadecimal  [32-Bits]

Area                                    Addr        Size        Decimal Bytes (Attributes)
--------------------------------        ----        ----        ------- ----- ------------
.  .ABS.                            00000000    00000000 =           0. bytes (ABS,CON)

      Value  Global                              Global Defined In Module
      -----  --------------------------------   ------------------------
     00000000  s__HRAM12                       
     00000001  ___bank_VM_SGB                     vm_sgb
     00000001  ___bank_bg_lencityopen_copy_0_ti   bg_lencityopen_copy_0_tilema
     00000001  ___bank_bg_lencityopen_tilemap_a   bg_lencityopen_tilemap_attr
     00000001  ___bank_scene_17_sprites           scene_17_sprites
     00000001  ___bank_sprite_pixelperfectvoti_   sprite_pixelperfectvoti_cop
     00000001  b_ui_draw_frame                    ui
     00000001  b_ui_draw_text_buffer_char         ui
     00000001  b_ui_init                          ui
     00000001  b_ui_load_tiles                    ui
     00000001  b_ui_run_menu                      ui
     00000001  b_ui_run_modal                     ui
     00000001  b_ui_set_start_tile                ui
     00000001  l__GSFINAL                      
     00000001  l__HEADER0                      
     00000001  l__HEADER5                      
     00000001  l__HEADERa                      
     00000001  l__HEADERb                      
     00000001  l__HEADERc                      
     00000001  l__HEADERe                      
     00000001  l__HEADERf                      
     00000002  ___bank_bg_controls_gb_copy__til   bg_controls_gb_copy__tileset
     00000002  ___bank_bg_lencityopen_tilemap     bg_lencityopen_tilemap
     00000002  ___bank_scene_14_init              scene_14_init
     00000002  ___bank_scene_18_sprites           scene_18_sprites
     00000002  ___bank_script_input_7             script_input_7
     00000002  l__HEADER10                     
     00000002  l__HEADER6                      
     00000002  l__HEADERd                      
     00000003  ___bank_bg_controls_gba_copy__ti   bg_controls_gba_copy__tilese
     00000003  ___bank_bg_lair_right_tilemap_at   bg_lair_right_tilemap_attr
     00000003  ___bank_scene_18_collisions        scene_18_collisions
     00000003  ___bank_scene_93_sprites           scene_93_sprites
     00000003  l__HEADER9                      
     00000003  l__HEADER_LCD0                  
     00000003  l__HRAM12                       
     00000004  ___bank_bg_controls_gba_copy_0_t   bg_controls_gba_copy_0_tiles
     00000004  ___bank_bg_lair_right_tilemap      bg_lair_right_tilemap
     00000004  ___bank_scene_34_collisions        scene_34_collisions
     00000004  ___bank_scene_94_sprites           scene_94_sprites
     00000004  l__CRASH_HEADER1                
     00000004  l__HEADER_SIO0                  
     00000004  l__HEADER_TIMER0                
     00000005  ___bank_bg_controls_gbc_copy__ti   bg_controls_gbc_copy__tilese
     00000005  ___bank_scene_15_triggers          scene_15_triggers
     00000005  ___bank_scene_58_collisions        scene_58_collisions
     00000005  ___bank_scene_65_collisions        scene_65_collisions
     00000005  l__CRASH_HEADER0                
     00000005  l__HEADER1                      
     00000006  ___bank_bg_controls_mobile_copy_   bg_controls_mobile_copy__til
     00000006  ___bank_bg_init_copy_1_tileset     bg_init_copy_1_tileset
ASxxxx Linker V03.00/V05.40 + sdld,  page 3.
Hexadecimal  [32-Bits]

Area                                    Addr        Size        Decimal Bytes (Attributes)
--------------------------------        ----        ----        ------- ----- ------------
.  .ABS.                            00000000    00000000 =           0. bytes (ABS,CON)

      Value  Global                              Global Defined In Module
      -----  --------------------------------   ------------------------
     00000006  ___bank_scene_62_collisions        scene_62_collisions
     00000006  b_remove_LCD_ISRs                  interrupts
     00000006  l__HEADER8                      
     00000007  ___bank_SGB_border_chr             border
     00000007  ___bank_SGB_border_map             border
     00000007  ___bank_SGB_border_pal             border
     00000007  ___bank_bg_controls_mobile_copy_   bg_controls_mobile_copy_0_ti
     00000007  ___bank_bg_placeholder_copy_copy   bg_placeholder_copy_copy_co_
     00000007  ___bank_script_timer_0             script_timer_0
     00000007  l__HEADER2                      
     00000008  ___bank_bg_controls_gb_copy__til   bg_controls_gb_copy__tilemap
     00000008  ___bank_bg_options_copy__tileset   bg_options_copy__tileset
     00000008  ___bank_bg_shillycityopen_copy_1   bg_shillycityopen_copy_1_til
     00000008  ___bank_bg_title_tileset           bg_title_tileset
     00000008  l__HEADER3                      
     00000009  ___bank_ACTOR                      actor
     00000009  ___bank_VM_ACTOR                   vm_actor
     00000009  ___bank_scene_10_init              scene_10_init
     00000009  b_activate_actor                   actor
     00000009  b_activate_actors_in_col           actor
     00000009  b_activate_actors_in_row           actor
     00000009  b_actor_at_tile                    actor
     00000009  b_actor_get_frame_offset           actor
     00000009  b_actor_in_front_of_player         actor
     00000009  b_actor_overlapping_bb             actor
     00000009  b_actor_overlapping_player         actor
     00000009  b_actor_set_anim_idle              actor
     00000009  b_actor_set_anim_moving            actor
     00000009  b_actor_set_dir                    actor
     00000009  b_actor_set_frame_offset           actor
     00000009  b_actor_set_frames                 actor
     00000009  b_actors_handle_player_collision   actor
     00000009  b_actors_init                      actor
     00000009  b_check_collision_in_direction     actor
     00000009  b_deactivate_actor                 actor
     00000009  b_platform_init                    platform
     00000009  b_platform_update                  platform
     00000009  b_player_init                      actor
     00000009  b_vm_actor_activate                vm_actor
     00000009  b_vm_actor_begin_update            vm_actor
     00000009  b_vm_actor_deactivate              vm_actor
     00000009  b_vm_actor_emote                   vm_actor
     00000009  b_vm_actor_get_angle               vm_actor
     00000009  b_vm_actor_get_anim_frame          vm_actor
     00000009  b_vm_actor_get_dir                 vm_actor
     00000009  b_vm_actor_get_pos                 vm_actor
     00000009  b_vm_actor_move_cancel             vm_actor
     00000009  b_vm_actor_move_to                 vm_actor
     00000009  b_vm_actor_replace_tile            vm_actor
     00000009  b_vm_actor_set_anim                vm_actor
     00000009  b_vm_actor_set_anim_frame          vm_actor
ASxxxx Linker V03.00/V05.40 + sdld,  page 4.
Hexadecimal  [32-Bits]

Area                                    Addr        Size        Decimal Bytes (Attributes)
--------------------------------        ----        ----        ------- ----- ------------
.  .ABS.                            00000000    00000000 =           0. bytes (ABS,CON)

      Value  Global                              Global Defined In Module
      -----  --------------------------------   ------------------------
     00000009  b_vm_actor_set_anim_set            vm_actor
     00000009  b_vm_actor_set_anim_tick           vm_actor
     00000009  b_vm_actor_set_bounds              vm_actor
     00000009  b_vm_actor_set_dir                 vm_actor
     00000009  b_vm_actor_set_flags               vm_actor
     00000009  b_vm_actor_set_move_speed          vm_actor
     00000009  b_vm_actor_set_pos                 vm_actor
     00000009  b_vm_actor_set_spritesheet         vm_actor
     00000009  b_vm_actor_set_spritesheet_by_re   vm_actor
     00000009  b_vm_actor_terminate_update        vm_actor
     0000000A  ___bank_VM_MAIN                    vm
     0000000A  ___bank_bg_lencityopen_copy_0_ti   bg_lencityopen_copy_0_tilema
     0000000A  ___bank_bg_samsam_copy_tileset     bg_samsam_copy_tileset
     0000000A  ___bank_bg_shillycityopen_copy_1   bg_shillycityopen_copy_1_til
     0000000A  ___bank_scene_19_triggers          scene_19_triggers
     0000000A  ___bank_scene_99_collisions        scene_99_collisions
     0000000A  b_script_detach_hthread            vm
     0000000A  b_script_execute                   vm
     0000000A  b_script_runner_init               vm
     0000000A  b_script_terminate                 vm
     0000000A  b_vm_call                          vm
     0000000A  b_vm_call_far                      vm
     0000000A  b_vm_get_indirect                  vm
     0000000A  b_vm_get_tlocal                    vm
     0000000A  b_vm_idle                          vm
     0000000A  b_vm_if                            vm
     0000000A  b_vm_if_const                      vm
     0000000A  b_vm_init_rng                      vm
     0000000A  b_vm_invoke                        vm
     0000000A  b_vm_join                          vm
     0000000A  b_vm_jump                          vm
     0000000A  b_vm_lock                          vm
     0000000A  b_vm_loop                          vm
     0000000A  b_vm_memcpy                        vm
     0000000A  b_vm_memset                        vm
     0000000A  b_vm_poll_loaded                   vm
     0000000A  b_vm_pop                           vm
     0000000A  b_vm_push                          vm
     0000000A  b_vm_push_reference                vm
     0000000A  b_vm_push_value                    vm
     0000000A  b_vm_push_value_ind                vm
     0000000A  b_vm_raise                         vm
     0000000A  b_vm_rand                          vm
     0000000A  b_vm_reserve                       vm
     0000000A  b_vm_ret                           vm
     0000000A  b_vm_ret_far                       vm
     0000000A  b_vm_set                           vm
     0000000A  b_vm_set_const                     vm
     0000000A  b_vm_set_indirect                  vm
     0000000A  b_vm_terminate                     vm
     0000000A  b_vm_test_terminate                vm
ASxxxx Linker V03.00/V05.40 + sdld,  page 5.
Hexadecimal  [32-Bits]

Area                                    Addr        Size        Decimal Bytes (Attributes)
--------------------------------        ----        ----        ------- ----- ------------
.  .ABS.                            00000000    00000000 =           0. bytes (ABS,CON)

      Value  Global                              Global Defined In Module
      -----  --------------------------------   ------------------------
     0000000A  b_vm_unlock                        vm
     0000000A  b_wait_frames                      vm
     0000000B  ___bank_bg_pixil_frame_0_31_tile   bg_pixil_frame_0_31_tilemap
     0000000B  ___bank_bg_pixil_frame_0_31_tile   bg_pixil_frame_0_31_tilemap_
     0000000B  ___bank_bg_pixil_frame_0_33_tile   bg_pixil_frame_0_33_tilemap_
     0000000B  ___bank_font_gbs_variable_width    font_gbs_variable_width
     0000000B  ___bank_scene_52_collisions        scene_52_collisions
     0000000B  ___bank_scene_53_collisions        scene_53_collisions
     0000000B  b_camera_init                      camera
     0000000C  ___bank_bg_lencityopen_copy__til   bg_lencityopen_copy__tilemap
     0000000C  ___bank_bg_lencityopen_copy__til   bg_lencityopen_copy__tilemap
     0000000C  ___bank_bg_placeholder_copy_copy   bg_placeholder_copy_copy_co_
     0000000C  ___bank_bg_title_copy__tileset     bg_title_copy__tileset
     0000000C  ___bank_scene_20_triggers          scene_20_triggers
     0000000C  ___bank_scene_31_collisions        scene_31_collisions
     0000000C  ___bank_scene_86_collisions        scene_86_collisions
     0000000C  b_do_load_palette                  data_manager
     0000000C  b_load_background                  data_manager
     0000000C  b_load_bkg_tileset                 data_manager
     0000000C  b_load_bounds                      data_manager
     0000000C  b_load_emote                       data_manager
     0000000C  b_load_init                        data_manager
     0000000C  b_load_player                      data_manager
     0000000C  b_load_scene                       data_manager
     0000000C  b_load_sprite                      data_manager
     0000000D  ___bank_bg_cave_ladder_copy__til   bg_cave_ladder_copy__tilemap
     0000000D  ___bank_bg_dhilly_game_1_tileset   bg_dhilly_game_1_tileset
     0000000D  ___bank_bg_endingscene2_tileset    bg_endingscene2_tileset
     0000000D  ___bank_bg_pixil_frame_0_31_tile   bg_pixil_frame_0_31_tileset
     0000000D  ___bank_scene_46_init              scene_46_init
     0000000D  ___bank_scene_47_collisions        scene_47_collisions
     0000000D  ___bank_scene_52_init              scene_52_init
     0000000D  ___bank_scene_70_init              scene_70_init
     0000000D  ___bank_trigger_61_interact        trigger_61_interact
     0000000E  ___bank_VM_UI                      vm_ui
     0000000E  ___bank_bg_dhilly_game_8_tileset   bg_dhilly_game_8_tileset
     0000000E  ___bank_bg_endingscene_tileset     bg_endingscene_tileset
     0000000E  ___bank_bg_fieldlazy_tilemap       bg_fieldlazy_tilemap
     0000000E  ___bank_bg_fieldlazy_tilemap_att   bg_fieldlazy_tilemap_attr
     0000000E  ___bank_bg_init_copy_2_tilemap_a   bg_init_copy_2_tilemap_attr
     0000000E  ___bank_scene_27_triggers          scene_27_triggers
     0000000E  ___bank_scene_49_collisions        scene_49_collisions
     0000000E  ___bank_trigger_1_interact         trigger_1_interact
     0000000E  b_shmup_init                       shmup
     0000000E  b_shmup_update                     shmup
     0000000E  b_vm_choice                        vm_ui
     0000000E  b_vm_display_text                  vm_ui
     0000000E  b_vm_overlay_clear                 vm_ui
     0000000E  b_vm_overlay_move_to               vm_ui
     0000000E  b_vm_overlay_scroll                vm_ui
     0000000E  b_vm_overlay_set_map               vm_ui
ASxxxx Linker V03.00/V05.40 + sdld,  page 6.
Hexadecimal  [32-Bits]

Area                                    Addr        Size        Decimal Bytes (Attributes)
--------------------------------        ----        ----        ------- ----- ------------
.  .ABS.                            00000000    00000000 =           0. bytes (ABS,CON)

      Value  Global                              Global Defined In Module
      -----  --------------------------------   ------------------------
     0000000E  b_vm_overlay_set_scroll            vm_ui
     0000000E  b_vm_overlay_set_submap            vm_ui
     0000000E  b_vm_overlay_set_submap_ex         vm_ui
     0000000E  b_vm_overlay_setpos                vm_ui
     0000000E  b_vm_overlay_show                  vm_ui
     0000000E  b_vm_overlay_wait                  vm_ui
     0000000E  b_vm_set_font                      vm_ui
     0000000E  b_vm_set_text_sound                vm_ui
     0000000E  b_vm_switch_text_layer             vm_ui
     0000000F  ___bank_VM_GAMEBOY                 vm_gameboy
     0000000F  ___bank_VM_MUSIC                   vm_music
     0000000F  ___bank_bg_pixil_frame_23_0_tile   bg_pixil_frame_23_0_tilemap
     0000000F  ___bank_bg_pixil_frame_23_0_tile   bg_pixil_frame_23_0_tilemap_
     0000000F  ___bank_scene_100_init             scene_100_init
     0000000F  ___bank_scene_22_init              scene_22_init
     0000000F  ___bank_scene_28_collisions        scene_28_collisions
     0000000F  ___bank_scene_61_init              scene_61_init
     0000000F  b_adventure_init                   adventure
     0000000F  b_adventure_update                 adventure
     0000000F  b_scroll_init                      scroll
     0000000F  b_scroll_repaint                   scroll
     0000000F  b_scroll_reset                     scroll
     0000000F  b_scroll_update                    scroll
     0000000F  b_topdown_init                     topdown
     0000000F  b_topdown_update                   topdown
     0000000F  b_vm_context_prepare               vm_gameboy
     0000000F  b_vm_fade                          vm_gameboy
     0000000F  b_vm_get_tile_xy                   vm_gameboy
     0000000F  b_vm_input_attach                  vm_gameboy
     0000000F  b_vm_input_detach                  vm_gameboy
     0000000F  b_vm_input_get                     vm_gameboy
     0000000F  b_vm_input_wait                    vm_gameboy
     0000000F  b_vm_load_tileset                  vm_gameboy
     0000000F  b_vm_music_mute                    vm_music
     0000000F  b_vm_music_play                    vm_music
     0000000F  b_vm_music_routine                 vm_music
     0000000F  b_vm_music_setpos                  vm_music
     0000000F  b_vm_music_stop                    vm_music
     0000000F  b_vm_poll                          vm_gameboy
     0000000F  b_vm_replace_tile                  vm_gameboy
     0000000F  b_vm_replace_tile_xy               vm_gameboy
     0000000F  b_vm_rumble                        vm_gameboy
     0000000F  b_vm_set_sprite_mode               vm_gameboy
     0000000F  b_vm_set_sprites_visible           vm_gameboy
     0000000F  b_vm_sfx_play                      vm_music
     0000000F  b_vm_sound_mastervol               vm_music
     0000000F  b_vm_timer_prepare                 vm_gameboy
     0000000F  b_vm_timer_reset                   vm_gameboy
     0000000F  b_vm_timer_set                     vm_gameboy
     0000000F  b_vm_timer_stop                    vm_gameboy
     00000010  ___bank_bg_cave_ladder_copy_0_ti   bg_cave_ladder_copy_0_tilema
ASxxxx Linker V03.00/V05.40 + sdld,  page 7.
Hexadecimal  [32-Bits]

Area                                    Addr        Size        Decimal Bytes (Attributes)
--------------------------------        ----        ----        ------- ----- ------------
.  .ABS.                            00000000    00000000 =           0. bytes (ABS,CON)

      Value  Global                              Global Defined In Module
      -----  --------------------------------   ------------------------
     00000010  ___bank_bg_cave_ladder_copy__til   bg_cave_ladder_copy__tilemap
     00000010  ___bank_bg_dhilly_game_11_tilese   bg_dhilly_game_11_tileset
     00000010  ___bank_bg_dhillyhubdown_tileset   bg_dhillyhubdown_tileset
     00000010  ___bank_bg_endingscene_0_tileset   bg_endingscene_0_tileset
     00000010  ___bank_bg_init_copy__tileset      bg_init_copy__tileset
     00000010  ___bank_bg_intro_scenary_copy__t   bg_intro_scenary_copy__tilem
     00000010  ___bank_bg_intro_scenary_copy__t   bg_intro_scenary_copy__tilem
     00000010  ___bank_bg_pixil_frame_0_24_tile   bg_pixil_frame_0_24_tileset
     00000010  ___bank_bg_title_copy_2_tileset    bg_title_copy_2_tileset
     00000010  ___bank_scene_17_collisions        scene_17_collisions
     00000010  ___bank_scene_20_sprites           scene_20_sprites
     00000010  ___bank_scene_90_collisions        scene_90_collisions
     00000011  ___bank_bg_cave_ladder_copy_0_ti   bg_cave_ladder_copy_0_tilema
     00000011  ___bank_bg_chase_shilly_tilemap    bg_chase_shilly_tilemap
     00000011  ___bank_bg_chase_shilly_tilemap_   bg_chase_shilly_tilemap_attr
     00000011  ___bank_bg_fall_to_shilly_area_c   bg_fall_to_shilly_area_copy_
     00000011  ___bank_bg_fall_to_shilly_area_c   bg_fall_to_shilly_area_copy_
     00000011  ___bank_bg_lair_left_3_tileset     bg_lair_left_3_tileset
     00000011  ___bank_bg_lencityopen_tileset     bg_lencityopen_tileset
     00000011  ___bank_bg_pixil_frame_0_33_tile   bg_pixil_frame_0_33_tilemap
     00000011  ___bank_scene_26_init              scene_26_init
     00000011  ___bank_scene_50_collisions        scene_50_collisions
     00000011  ___bank_scene_55_collisions        scene_55_collisions
     00000011  ___bank_scene_57_collisions        scene_57_collisions
     00000011  ___bank_scene_88_collisions        scene_88_collisions
     00000012  ___bank_actor_11_interact          actor_11_interact
     00000012  ___bank_bg_init_copy_0_tilemap     bg_init_copy_0_tilemap
     00000012  ___bank_bg_init_copy_0_tilemap_a   bg_init_copy_0_tilemap_attr
     00000012  ___bank_bg_init_copy_2_tilemap     bg_init_copy_2_tilemap
     00000012  ___bank_bg_placeholder_copy_copy   bg_placeholder_copy_copy_co_
     00000012  ___bank_scene_32_collisions        scene_32_collisions
     00000012  ___bank_scene_3_sprites            scene_3_sprites
     00000012  ___bank_scene_51_collisions        scene_51_collisions
     00000012  ___bank_scene_56_collisions        scene_56_collisions
     00000012  ___bank_scene_77_collisions        scene_77_collisions
     00000012  ___bank_scene_91_collisions        scene_91_collisions
     00000012  ___bank_scene_93_collisions        scene_93_collisions
     00000012  ___bank_scene_94_collisions        scene_94_collisions
     00000012  ___bank_sprite_pixelperfectvoti    sprite_pixelperfectvoti
     00000012  b_core_reset                       core
     00000012  b_core_run                         core
     00000012  b_projectile_launch                projectiles
     00000012  b_projectiles_init                 projectiles
     00000013  ___bank_VM_CAMERA                  vm_camera
     00000013  ___bank_actor_19_interact          actor_19_interact
     00000013  ___bank_actor_6_interact           actor_6_interact
     00000013  ___bank_bg_dhilly_bridge_tilemap   bg_dhilly_bridge_tilemap
     00000013  ___bank_bg_dhilly_bridge_tilemap   bg_dhilly_bridge_tilemap_att
     00000013  ___bank_bg_dhilly_game_10_tilese   bg_dhilly_game_10_tileset
     00000013  ___bank_bg_endingscene3_tileset    bg_endingscene3_tileset
     00000013  ___bank_bg_init_copy__tilemap      bg_init_copy__tilemap
ASxxxx Linker V03.00/V05.40 + sdld,  page 8.
Hexadecimal  [32-Bits]

Area                                    Addr        Size        Decimal Bytes (Attributes)
--------------------------------        ----        ----        ------- ----- ------------
.  .ABS.                            00000000    00000000 =           0. bytes (ABS,CON)

      Value  Global                              Global Defined In Module
      -----  --------------------------------   ------------------------
     00000013  ___bank_bg_init_copy__tilemap_at   bg_init_copy__tilemap_attr
     00000013  ___bank_bg_pixil_frame_0_33_tile   bg_pixil_frame_0_33_tileset
     00000013  ___bank_bg_placeholder_copy_copy   bg_placeholder_copy_copy_co_
     00000013  ___bank_scene_0_collisions         scene_0_collisions
     00000013  ___bank_scene_76_collisions        scene_76_collisions
     00000013  ___bank_scene_91_init              scene_91_init
     00000013  ___bank_script_input_3             script_input_3
     00000013  ___bank_script_input_6             script_input_6
     00000013  b_camera_shake_frames              vm_camera
     00000013  b_data_clear                       load_save
     00000013  b_data_init                        load_save
     00000013  b_data_load                        load_save
     00000013  b_data_peek                        load_save
     00000013  b_data_save                        load_save
     00000013  b_vm_camera_move_to                vm_camera
     00000013  b_vm_camera_set_pos                vm_camera
     00000014  ___bank_bg_controls_gb_copy_0_ti   bg_controls_gb_copy_0_tilema
     00000014  ___bank_bg_controls_gb_copy_0_ti   bg_controls_gb_copy_0_tilema
     00000014  ___bank_bg_dhilly_game_9_tileset   bg_dhilly_game_9_tileset
     00000014  ___bank_bg_lair_right_5_tileset    bg_lair_right_5_tileset
     00000014  ___bank_bg_pixil_frame_0_24_tile   bg_pixil_frame_0_24_tilemap
     00000014  ___bank_bg_pixil_frame_0_24_tile   bg_pixil_frame_0_24_tilemap_
     00000014  ___bank_bg_pixil_frame_0_30_tile   bg_pixil_frame_0_30_tilemap
     00000014  ___bank_bg_pixil_frame_0_30_tile   bg_pixil_frame_0_30_tilemap_
     00000014  ___bank_bg_pixil_frame_0_copy_co   bg_pixil_frame_0_copy_copy__
     00000014  ___bank_bg_pixil_frame_23_0_tile   bg_pixil_frame_23_0_tileset
     00000014  ___bank_scene_15_collisions        scene_15_collisions
     00000014  ___bank_scene_27_init              scene_27_init
     00000014  ___bank_scene_29_collisions        scene_29_collisions
     00000014  ___bank_scene_30_collisions        scene_30_collisions
     00000014  ___bank_scene_33_sprites           scene_33_sprites
     00000014  ___bank_scene_89_collisions        scene_89_collisions
     00000014  b___HandleCrash_banked             
     00000014  b_gbprinter_detect                 gbprinter
     00000014  b_gbprinter_print_overlay          gbprinter
     00000014  b_pointnclick_init                 pointnclick
     00000014  b_pointnclick_update               pointnclick
     00000014  b_trigger_activate_at              trigger
     00000014  b_trigger_activate_at_intersecti   trigger
     00000014  b_trigger_at_intersection          trigger
     00000014  b_trigger_at_tile                  trigger
     00000014  b_trigger_interact                 trigger
     00000014  b_trigger_reset                    trigger
     00000015  ___bank_VM_PALETTE                 vm_palette
     00000015  ___bank_VM_SIO                     vm_sio
     00000015  ___bank_avatar_font_0              avatar_font_0
     00000015  ___bank_bg_chase_shilly_tileset    bg_chase_shilly_tileset
     00000015  ___bank_bg_controls_gb_copy__til   bg_controls_gb_copy__tilemap
     00000015  ___bank_bg_iceos_login_2_copy__t   bg_iceos_login_2_copy__tiles
     00000015  ___bank_bg_lencityopen_copy__til   bg_lencityopen_copy__tileset
     00000015  ___bank_bg_pixil_frame_0_23_tile   bg_pixil_frame_0_23_tileset
ASxxxx Linker V03.00/V05.40 + sdld,  page 9.
Hexadecimal  [32-Bits]

Area                                    Addr        Size        Decimal Bytes (Attributes)
--------------------------------        ----        ----        ------- ----- ------------
.  .ABS.                            00000000    00000000 =           0. bytes (ABS,CON)

      Value  Global                              Global Defined In Module
      -----  --------------------------------   ------------------------
     00000015  ___bank_bg_shillycity_sara_house   bg_shillycity_sara_house_co_
     00000015  ___bank_bg_shillycityopen_copy_0   bg_shillycityopen_copy_0_til
     00000015  ___bank_bg_shillycityopen_copy_0   bg_shillycityopen_copy_0_til
     00000015  ___bank_bg_shillycityopen_copy_1   bg_shillycityopen_copy_1_til
     00000015  ___bank_bg_shillycityopen_copy__   bg_shillycityopen_copy__tile
     00000015  ___bank_bg_square_frozen_future_   bg_square_frozen_future_tile
     00000015  ___bank_bg_theatre_tilemap         bg_theatre_tilemap
     00000015  ___bank_bg_theatre_tilemap_attr    bg_theatre_tilemap_attr
     00000015  ___bank_bg_theatre_tileset         bg_theatre_tileset
     00000015  ___bank_bg_title_copy_0_tileset    bg_title_copy_0_tileset
     00000015  ___bank_cursor_image               cursor_image
     00000015  ___bank_scene_46_collisions        scene_46_collisions
     00000015  ___bank_scene_7_init               scene_7_init
     00000015  ___bank_scene_99_init              scene_99_init
     00000015  ___bank_sprite_pixelperfectvoti_   sprite_pixelperfectvoti_cop_
     00000015  ___bank_sprite_pixelperfectvoti_   sprite_pixelperfectvoti_tile
     00000015  ___bank_trigger_81_interact        trigger_81_interact
     00000015  ___bank_trigger_95_interact        trigger_95_interact
     00000015  b_atan2                            math_atan2
     00000015  b_fade_applypalettechange          fade_manager
     00000015  b_fade_in                          fade_manager
     00000015  b_fade_in_modal                    fade_manager
     00000015  b_fade_init                        fade_manager
     00000015  b_fade_out                         fade_manager
     00000015  b_fade_out_modal                   fade_manager
     00000015  b_fade_setspeed                    fade_manager
     00000015  b_fade_update                      fade_manager
     00000015  b_vm_load_palette                  vm_palette
     00000015  b_vm_sio_exchange                  vm_sio
     00000015  b_vm_sio_set_mode                  vm_sio
     00000016  ___bank_VM_MATH                    vm_math
     00000016  ___bank_actor_25_interact          actor_25_interact
     00000016  ___bank_bg_cinema_tilemap          bg_cinema_tilemap
     00000016  ___bank_bg_cinema_tilemap_attr     bg_cinema_tilemap_attr
     00000016  ___bank_bg_controls_gba_copy_0_t   bg_controls_gba_copy_0_tilem
     00000016  ___bank_bg_controls_gba_copy_0_t   bg_controls_gba_copy_0_tilem
     00000016  ___bank_bg_controls_gba_copy__ti   bg_controls_gba_copy__tilema
     00000016  ___bank_bg_controls_gba_copy__ti   bg_controls_gba_copy__tilema
     00000016  ___bank_bg_controls_gbc_copy__ti   bg_controls_gbc_copy__tilema
     00000016  ___bank_bg_controls_gbc_copy__ti   bg_controls_gbc_copy__tilema
     00000016  ___bank_bg_controls_mobile_copy_   bg_controls_mobile_copy_0_ti
     00000016  ___bank_bg_controls_mobile_copy_   bg_controls_mobile_copy_0_ti
     00000016  ___bank_bg_controls_mobile_copy_   bg_controls_mobile_copy__til
     00000016  ___bank_bg_controls_mobile_copy_   bg_controls_mobile_copy__til
     00000016  ___bank_bg_dhilly_game_10_tilema   bg_dhilly_game_10_tilemap
     00000016  ___bank_bg_dhilly_game_10_tilema   bg_dhilly_game_10_tilemap_at
     00000016  ___bank_bg_dhilly_game_1_tilemap   bg_dhilly_game_1_tilemap
     00000016  ___bank_bg_dhilly_game_1_tilemap   bg_dhilly_game_1_tilemap_att
     00000016  ___bank_bg_dhilly_game_5_tileset   bg_dhilly_game_5_tileset
     00000016  ___bank_bg_iceos_desktop_copy__t   bg_iceos_desktop_copy__tiles
     00000016  ___bank_bg_lair_right_3_tileset    bg_lair_right_3_tileset
ASxxxx Linker V03.00/V05.40 + sdld,  page 10.
Hexadecimal  [32-Bits]

Area                                    Addr        Size        Decimal Bytes (Attributes)
--------------------------------        ----        ----        ------- ----- ------------
.  .ABS.                            00000000    00000000 =           0. bytes (ABS,CON)

      Value  Global                              Global Defined In Module
      -----  --------------------------------   ------------------------
     00000016  ___bank_bg_lair_right_tileset      bg_lair_right_tileset
     00000016  ___bank_bg_lencity_trainstation_   bg_lencity_trainstation_cop_
     00000016  ___bank_bg_lencity_trainstation_   bg_lencity_trainstation_tile
     00000016  ___bank_bg_lencity_trainstation_   bg_lencity_trainstation_tile
     00000016  ___bank_bg_pixil_frame_0_30_tile   bg_pixil_frame_0_30_tileset
     00000016  ___bank_bg_shillycityopen_copy_0   bg_shillycityopen_copy_0_til
     00000016  ___bank_bg_square_frozen_future_   bg_square_frozen_future_tile
     00000016  ___bank_bg_square_frozen_future_   bg_square_frozen_future_tile
     00000016  ___bank_scene_19_collisions        scene_19_collisions
     00000016  ___bank_scene_20_collisions        scene_20_collisions
     00000016  ___bank_scene_27_collisions        scene_27_collisions
     00000016  ___bank_scene_35_collisions        scene_35_collisions
     00000016  ___bank_scene_45_collisions        scene_45_collisions
     00000016  ___bank_scene_48_collisions        scene_48_collisions
     00000016  ___bank_scene_54_init              scene_54_init
     00000016  ___bank_scene_63_collisions        scene_63_collisions
     00000016  ___bank_scene_94_init              scene_94_init
     00000016  ___bank_trigger_121_interact       trigger_121_interact
     00000016  b_set_sgb_border                   sgb_border
     00000016  b_vm_cos_scale                     vm_math
     00000016  b_vm_sin_scale                     vm_math
     00000017  ___bank_bg_dhilly_game_11_tilema   bg_dhilly_game_11_tilemap
     00000017  ___bank_bg_dhilly_game_11_tilema   bg_dhilly_game_11_tilemap_at
     00000017  ___bank_bg_dhilly_game_4_tilemap   bg_dhilly_game_4_tilemap
     00000017  ___bank_bg_dhilly_game_4_tilemap   bg_dhilly_game_4_tilemap_att
     00000017  ___bank_bg_dhilly_game_5_tilemap   bg_dhilly_game_5_tilemap
     00000017  ___bank_bg_dhilly_game_5_tilemap   bg_dhilly_game_5_tilemap_att
     00000017  ___bank_bg_dhilly_game_8_tilemap   bg_dhilly_game_8_tilemap
     00000017  ___bank_bg_dhilly_game_8_tilemap   bg_dhilly_game_8_tilemap_att
     00000017  ___bank_bg_dhilly_game_9_tilemap   bg_dhilly_game_9_tilemap
     00000017  ___bank_bg_dhilly_game_9_tilemap   bg_dhilly_game_9_tilemap_att
     00000017  ___bank_bg_dhillyhubdown_tilemap   bg_dhillyhubdown_tilemap
     00000017  ___bank_bg_dhillyhubdown_tilemap   bg_dhillyhubdown_tilemap_att
     00000017  ___bank_bg_elevator_tilemap        bg_elevator_tilemap
     00000017  ___bank_bg_elevator_tilemap_attr   bg_elevator_tilemap_attr
     00000017  ___bank_bg_endingscene2_tilemap    bg_endingscene2_tilemap
     00000017  ___bank_bg_endingscene2_tilemap_   bg_endingscene2_tilemap_attr
     00000017  ___bank_bg_endingscene3_tilemap    bg_endingscene3_tilemap
     00000017  ___bank_bg_endingscene3_tilemap_   bg_endingscene3_tilemap_attr
     00000017  ___bank_bg_endingscene_0_tilemap   bg_endingscene_0_tilemap
     00000017  ___bank_bg_endingscene_0_tilemap   bg_endingscene_0_tilemap_att
     00000017  ___bank_bg_endingscene_tilemap     bg_endingscene_tilemap
     00000017  ___bank_bg_endingscene_tilemap_a   bg_endingscene_tilemap_attr
     00000017  ___bank_bg_iceos_desktop_copy__t   bg_iceos_desktop_copy__tilem
     00000017  ___bank_bg_iceos_desktop_copy__t   bg_iceos_desktop_copy__tilem
     00000017  ___bank_bg_iceos_login_2_copy__t   bg_iceos_login_2_copy__tilem
     00000017  ___bank_bg_iceos_login_2_copy__t   bg_iceos_login_2_copy__tilem
     00000017  ___bank_bg_iceos_login_copy__til   bg_iceos_login_copy__tilemap
     00000017  ___bank_bg_iceos_login_copy__til   bg_iceos_login_copy__tilemap
     00000017  ___bank_bg_iceos_platformer2_cop   bg_iceos_platformer2_copy__t
     00000017  ___bank_bg_iceos_platformer2_cop   bg_iceos_platformer2_copy__t
ASxxxx Linker V03.00/V05.40 + sdld,  page 11.
Hexadecimal  [32-Bits]

Area                                    Addr        Size        Decimal Bytes (Attributes)
--------------------------------        ----        ----        ------- ----- ------------
.  .ABS.                            00000000    00000000 =           0. bytes (ABS,CON)

      Value  Global                              Global Defined In Module
      -----  --------------------------------   ------------------------
     00000017  ___bank_bg_iceos_platformer3_cop   bg_iceos_platformer3_copy__t
     00000017  ___bank_bg_iceos_platformer3_cop   bg_iceos_platformer3_copy__t
     00000017  ___bank_bg_iceos_platformer4_til   bg_iceos_platformer4_tilemap
     00000017  ___bank_bg_iceos_platformer4_til   bg_iceos_platformer4_tilemap
     00000017  ___bank_bg_init_copy_1_tilemap     bg_init_copy_1_tilemap
     00000017  ___bank_bg_init_copy_1_tilemap_a   bg_init_copy_1_tilemap_attr
     00000017  ___bank_bg_intro_weather_copy__t   bg_intro_weather_copy__tilem
     00000017  ___bank_bg_intro_weather_copy__t   bg_intro_weather_copy__tilem
     00000017  ___bank_bg_lair_hub_tilemap        bg_lair_hub_tilemap
     00000017  ___bank_bg_lair_hub_tilemap_attr   bg_lair_hub_tilemap_attr
     00000017  ___bank_bg_lair_left_2_copy__til   bg_lair_left_2_copy__tilemap
     00000017  ___bank_bg_lair_left_2_copy__til   bg_lair_left_2_copy__tilemap
     00000017  ___bank_bg_lair_left_2_tilemap     bg_lair_left_2_tilemap
     00000017  ___bank_bg_lair_left_2_tilemap_a   bg_lair_left_2_tilemap_attr
     00000017  ___bank_bg_lair_left_3_tilemap_a   bg_lair_left_3_tilemap_attr
     00000017  ___bank_scene_93_p_hit1            scene_93_p_hit1
     00000018  ___bank_bg_lair_left_3_tilemap     bg_lair_left_3_tilemap
     00000018  ___bank_bg_lair_right_2_copy__ti   bg_lair_right_2_copy__tilema
     00000018  ___bank_bg_lair_right_2_copy__ti   bg_lair_right_2_copy__tilema
     00000018  ___bank_bg_lair_right_2_tilemap    bg_lair_right_2_tilemap
     00000018  ___bank_bg_lair_right_2_tilemap_   bg_lair_right_2_tilemap_attr
     00000018  ___bank_bg_lair_right_3_copy__ti   bg_lair_right_3_copy__tilema
     00000018  ___bank_bg_lair_right_3_copy__ti   bg_lair_right_3_copy__tilema
     00000018  ___bank_bg_lair_right_3_tilemap    bg_lair_right_3_tilemap
     00000018  ___bank_bg_lair_right_3_tilemap_   bg_lair_right_3_tilemap_attr
     00000018  ___bank_bg_lair_right_4_copy__ti   bg_lair_right_4_copy__tilema
     00000018  ___bank_bg_lair_right_4_copy__ti   bg_lair_right_4_copy__tilema
     00000018  ___bank_bg_lair_right_5_tilemap    bg_lair_right_5_tilemap
     00000018  ___bank_bg_lair_right_5_tilemap_   bg_lair_right_5_tilemap_attr
     00000018  ___bank_bg_lencity_dhillybuildin   bg_lencity_dhillybuilding_c_
     00000018  ___bank_bg_lencity_dhillybuildin   bg_lencity_dhillybuilding_c_
     00000018  ___bank_bg_lencity_dhillybuildin   bg_lencity_dhillybuilding_f_
     00000018  ___bank_bg_lencity_dhillybuildin   bg_lencity_dhillybuilding_f_
     00000018  ___bank_bg_lencity_trainstation_   bg_lencity_trainstation_cop_
     00000018  ___bank_bg_lencity_trainstation_   bg_lencity_trainstation_cop_
     00000018  ___bank_bg_options_copy__tilemap   bg_options_copy__tilemap
     00000018  ___bank_bg_options_copy__tilemap   bg_options_copy__tilemap_att
     00000018  ___bank_bg_pixil_frame_0_23_tile   bg_pixil_frame_0_23_tilemap
     00000018  ___bank_bg_pixil_frame_0_23_tile   bg_pixil_frame_0_23_tilemap_
     00000018  ___bank_bg_pixil_frame_0_copy_co   bg_pixil_frame_0_copy_copy__
     00000018  ___bank_bg_pixil_frame_0_copy_co   bg_pixil_frame_0_copy_copy__
     00000018  ___bank_bg_placeholder_copy_copy   bg_placeholder_copy_copy_co_
     00000018  ___bank_bg_placeholder_copy_copy   bg_placeholder_copy_copy_co_
     00000018  ___bank_bg_samsam_copy_tilemap     bg_samsam_copy_tilemap
     00000018  ___bank_bg_samsam_copy_tilemap_a   bg_samsam_copy_tilemap_attr
     00000018  ___bank_bg_shillycity_sara_house   bg_shillycity_sara_house_co_
     00000018  ___bank_bg_shillycity_sara_house   bg_shillycity_sara_house_co_
     00000018  ___bank_bg_shillycityopen_copy__   bg_shillycityopen_copy__tile
     00000018  ___bank_bg_shillycityopen_copy__   bg_shillycityopen_copy__tile
     00000018  ___bank_bg_title_copy_0_tilemap    bg_title_copy_0_tilemap
     00000018  ___bank_bg_title_copy_0_tilemap_   bg_title_copy_0_tilemap_attr
ASxxxx Linker V03.00/V05.40 + sdld,  page 12.
Hexadecimal  [32-Bits]

Area                                    Addr        Size        Decimal Bytes (Attributes)
--------------------------------        ----        ----        ------- ----- ------------
.  .ABS.                            00000000    00000000 =           0. bytes (ABS,CON)

      Value  Global                              Global Defined In Module
      -----  --------------------------------   ------------------------
     00000018  ___bank_bg_title_copy_1_tilemap    bg_title_copy_1_tilemap
     00000018  ___bank_bg_title_copy_1_tilemap_   bg_title_copy_1_tilemap_attr
     00000018  ___bank_bg_title_copy_2_tilemap    bg_title_copy_2_tilemap
     00000018  ___bank_bg_title_copy_2_tilemap_   bg_title_copy_2_tilemap_attr
     00000018  ___bank_bg_title_copy__tilemap     bg_title_copy__tilemap
     00000018  ___bank_bg_title_copy__tilemap_a   bg_title_copy__tilemap_attr
     00000018  ___bank_bg_title_tilemap           bg_title_tilemap
     00000018  ___bank_bg_title_tilemap_attr      bg_title_tilemap_attr
     00000018  ___bank_bg_wakeupsquare_1_tilema   bg_wakeupsquare_1_tilemap
     00000018  ___bank_bg_wakeupsquare_1_tilema   bg_wakeupsquare_1_tilemap_at
     00000018  ___bank_scene_94_p_hit1            scene_94_p_hit1
     00000019  ___bank_actor_60_interact          actor_60_interact
     00000019  ___bank_bg_wakeupsquare_3_copy__   bg_wakeupsquare_3_copy__tile
     00000019  ___bank_bg_wakeupsquare_3_copy__   bg_wakeupsquare_3_copy__tile
     00000019  ___bank_scene_100_collisions       scene_100_collisions
     00000019  ___bank_scene_10_collisions        scene_10_collisions
     00000019  ___bank_scene_11_collisions        scene_11_collisions
     00000019  ___bank_scene_12_collisions        scene_12_collisions
     00000019  ___bank_scene_13_collisions        scene_13_collisions
     00000019  ___bank_scene_14_collisions        scene_14_collisions
     00000019  ___bank_scene_16_collisions        scene_16_collisions
     00000019  ___bank_scene_1_collisions         scene_1_collisions
     00000019  ___bank_scene_22_collisions        scene_22_collisions
     00000019  ___bank_scene_23_collisions        scene_23_collisions
     00000019  ___bank_scene_24_collisions        scene_24_collisions
     00000019  ___bank_scene_25_collisions        scene_25_collisions
     00000019  ___bank_scene_26_collisions        scene_26_collisions
     00000019  ___bank_scene_2_collisions         scene_2_collisions
     00000019  ___bank_scene_33_collisions        scene_33_collisions
     00000019  ___bank_scene_34_sprites           scene_34_sprites
     00000019  ___bank_scene_37_collisions        scene_37_collisions
     00000019  ___bank_scene_38_collisions        scene_38_collisions
     00000019  ___bank_scene_39_collisions        scene_39_collisions
     00000019  ___bank_scene_3_collisions         scene_3_collisions
     00000019  ___bank_scene_40_collisions        scene_40_collisions
     00000019  ___bank_scene_41_collisions        scene_41_collisions
     00000019  ___bank_scene_42_collisions        scene_42_collisions
     00000019  ___bank_scene_43_collisions        scene_43_collisions
     00000019  ___bank_scene_44_collisions        scene_44_collisions
     00000019  ___bank_scene_4_collisions         scene_4_collisions
     00000019  ___bank_scene_54_collisions        scene_54_collisions
     00000019  ___bank_scene_59_collisions        scene_59_collisions
     00000019  ___bank_scene_5_collisions         scene_5_collisions
     00000019  ___bank_scene_60_collisions        scene_60_collisions
     00000019  ___bank_scene_61_collisions        scene_61_collisions
     00000019  ___bank_scene_64_collisions        scene_64_collisions
     00000019  ___bank_scene_66_collisions        scene_66_collisions
     00000019  ___bank_scene_67_collisions        scene_67_collisions
     00000019  ___bank_scene_68_collisions        scene_68_collisions
     00000019  ___bank_scene_69_collisions        scene_69_collisions
     00000019  ___bank_scene_6_collisions         scene_6_collisions
ASxxxx Linker V03.00/V05.40 + sdld,  page 13.
Hexadecimal  [32-Bits]

Area                                    Addr        Size        Decimal Bytes (Attributes)
--------------------------------        ----        ----        ------- ----- ------------
.  .ABS.                            00000000    00000000 =           0. bytes (ABS,CON)

      Value  Global                              Global Defined In Module
      -----  --------------------------------   ------------------------
     00000019  ___bank_scene_70_collisions        scene_70_collisions
     00000019  ___bank_scene_71_collisions        scene_71_collisions
     00000019  ___bank_scene_72_collisions        scene_72_collisions
     00000019  ___bank_scene_73_collisions        scene_73_collisions
     00000019  ___bank_scene_74_collisions        scene_74_collisions
     00000019  ___bank_scene_75_collisions        scene_75_collisions
     00000019  ___bank_scene_7_collisions         scene_7_collisions
     0000001A  ___bank_VM_PROJECTILE              vm_projectiles
     0000001A  ___bank_VM_RTC                     vm_rtc
     0000001A  ___bank_actor_61_interact          actor_61_interact
     0000001A  ___bank_bg_cave_ladder_copy_0_ti   bg_cave_ladder_copy_0_tilese
     0000001A  ___bank_bg_cave_ladder_copy__til   bg_cave_ladder_copy__tileset
     0000001A  ___bank_bg_cinema_tileset          bg_cinema_tileset
     0000001A  ___bank_bg_controls_gb_copy_0_ti   bg_controls_gb_copy_0_tilese
     0000001A  ___bank_bg_dhilly_bridge_tileset   bg_dhilly_bridge_tileset
     0000001A  ___bank_bg_elevator_tileset        bg_elevator_tileset
     0000001A  ___bank_bg_fall_to_shilly_area_c   bg_fall_to_shilly_area_copy_
     0000001A  ___bank_bg_fieldlazy_tileset       bg_fieldlazy_tileset
     0000001A  ___bank_bg_iceos_platformer2_cop   bg_iceos_platformer2_copy__t
     0000001A  ___bank_bg_iceos_platformer3_cop   bg_iceos_platformer3_copy__t
     0000001A  ___bank_bg_iceos_platformer4_til   bg_iceos_platformer4_tileset
     0000001A  ___bank_bg_init_copy_2_tileset     bg_init_copy_2_tileset
     0000001A  ___bank_bg_lair_hub_tileset        bg_lair_hub_tileset
     0000001A  ___bank_bg_lair_left_2_copy__til   bg_lair_left_2_copy__tileset
     0000001A  ___bank_bg_lair_left_2_tileset     bg_lair_left_2_tileset
     0000001A  ___bank_bg_lair_right_3_copy__ti   bg_lair_right_3_copy__tilese
     0000001A  ___bank_bg_lencity_dhillybuildin   bg_lencity_dhillybuilding_c_
     0000001A  ___bank_bg_lencity_dhillybuildin   bg_lencity_dhillybuilding_f_
     0000001A  ___bank_bg_lencity_trainstation_   bg_lencity_trainstation_tile
     0000001A  ___bank_bg_lencityopen_copy_0_ti   bg_lencityopen_copy_0_tilese
     0000001A  ___bank_scene_2_actors             scene_2_actors
     0000001A  ___bank_scene_39_actors            scene_39_actors
     0000001A  ___bank_scene_45_init              scene_45_init
     0000001A  ___bank_scene_52_actors            scene_52_actors
     0000001A  ___bank_scene_53_actors            scene_53_actors
     0000001A  ___bank_scene_78_collisions        scene_78_collisions
     0000001A  ___bank_scene_79_collisions        scene_79_collisions
     0000001A  ___bank_scene_80_collisions        scene_80_collisions
     0000001A  ___bank_scene_81_collisions        scene_81_collisions
     0000001A  ___bank_scene_82_collisions        scene_82_collisions
     0000001A  ___bank_scene_83_collisions        scene_83_collisions
     0000001A  ___bank_scene_84_collisions        scene_84_collisions
     0000001A  ___bank_scene_85_collisions        scene_85_collisions
     0000001A  ___bank_scene_87_collisions        scene_87_collisions
     0000001A  ___bank_scene_8_collisions         scene_8_collisions
     0000001A  ___bank_scene_91_actors            scene_91_actors
     0000001A  ___bank_scene_92_collisions        scene_92_collisions
     0000001A  ___bank_scene_92_init              scene_92_init
     0000001A  ___bank_scene_95_collisions        scene_95_collisions
     0000001A  ___bank_scene_96_collisions        scene_96_collisions
     0000001A  ___bank_scene_97_collisions        scene_97_collisions
ASxxxx Linker V03.00/V05.40 + sdld,  page 14.
Hexadecimal  [32-Bits]

Area                                    Addr        Size        Decimal Bytes (Attributes)
--------------------------------        ----        ----        ------- ----- ------------
.  .ABS.                            00000000    00000000 =           0. bytes (ABS,CON)

      Value  Global                              Global Defined In Module
      -----  --------------------------------   ------------------------
     0000001A  ___bank_scene_98_collisions        scene_98_collisions
     0000001A  ___bank_scene_9_collisions         scene_9_collisions
     0000001A  ___bank_sprite_dhilly_5_level_co   sprite_dhilly_5_level_copy__
     0000001A  ___bank_sprite_highlight_options   sprite_highlight_options_co_
     0000001A  ___bank_trigger_112_interact       trigger_112_interact
     0000001A  ___bank_trigger_113_interact       trigger_113_interact
     0000001A  ___bank_trigger_114_interact       trigger_114_interact
     0000001A  ___bank_trigger_120_interact       trigger_120_interact
     0000001A  ___bank_trigger_40_interact        trigger_40_interact
     0000001A  ___bank_trigger_52_interact        trigger_52_interact
     0000001A  ___bank_trigger_89_interact        trigger_89_interact
     0000001A  b_CGBZeroPalette                   palette
     0000001A  b_SGBTransferPalettes              palette
     0000001A  b_erase_flash                      
     0000001A  b_itoa_fmt                         vm_ui_a
     0000001A  b_music_events_poll                music_manager
     0000001A  b_music_init_driver                music_manager
     0000001A  b_music_init_events                music_manager
     0000001A  b_palette_init                     palette
     0000001A  b_save_sram_banks                  
     0000001A  b_vm_projectile_launch             vm_projectiles
     0000001A  b_vm_projectile_load_type          vm_projectiles
     0000001A  b_vm_rtc_get                       vm_rtc
     0000001A  b_vm_rtc_latch                     vm_rtc
     0000001A  b_vm_rtc_set                       vm_rtc
     0000001A  b_vm_rtc_start                     vm_rtc
     0000001A  l__INITIALIZED                  
     0000001A  l__INITIALIZER                  
     0000001B  ___bank_VM_GBPRINTER               vm_gbprinter
     0000001B  ___bank_VM_LOAD_SAVE               vm_load_save
     0000001B  ___bank_VM_SCENE                   vm_scene
     0000001B  ___bank_actor_18_interact          actor_18_interact
     0000001B  ___bank_actor_21_interact          actor_21_interact
     0000001B  ___bank_actor_33_interact          actor_33_interact
     0000001B  ___bank_actor_34_interact          actor_34_interact
     0000001B  ___bank_actor_38_interact          actor_38_interact
     0000001B  ___bank_actor_39_interact          actor_39_interact
     0000001B  ___bank_actor_41_interact          actor_41_interact
     0000001B  ___bank_actor_42_interact          actor_42_interact
     0000001B  ___bank_bg_dhilly_game_4_tileset   bg_dhilly_game_4_tileset
     0000001B  ___bank_bg_init_copy_0_tileset     bg_init_copy_0_tileset
     0000001B  ___bank_bg_intro_scenary_copy__t   bg_intro_scenary_copy__tiles
     0000001B  ___bank_bg_intro_weather_copy__t   bg_intro_weather_copy__tiles
     0000001B  ___bank_bg_lair_right_2_copy__ti   bg_lair_right_2_copy__tilese
     0000001B  ___bank_bg_lair_right_2_tileset    bg_lair_right_2_tileset
     0000001B  ___bank_bg_lair_right_4_copy__ti   bg_lair_right_4_copy__tilese
     0000001B  ___bank_bg_wakeupsquare_3_copy__   bg_wakeupsquare_3_copy__tile
     0000001B  ___bank_emote_shock                emote_shock
     0000001B  ___bank_frame_image                frame_image
     0000001B  ___bank_palette_0                  palette_0
     0000001B  ___bank_palette_1                  palette_1
ASxxxx Linker V03.00/V05.40 + sdld,  page 15.
Hexadecimal  [32-Bits]

Area                                    Addr        Size        Decimal Bytes (Attributes)
--------------------------------        ----        ----        ------- ----- ------------
.  .ABS.                            00000000    00000000 =           0. bytes (ABS,CON)

      Value  Global                              Global Defined In Module
      -----  --------------------------------   ------------------------
     0000001B  ___bank_palette_10                 palette_10
     0000001B  ___bank_palette_11                 palette_11
     0000001B  ___bank_palette_12                 palette_12
     0000001B  ___bank_palette_13                 palette_13
     0000001B  ___bank_palette_14                 palette_14
     0000001B  ___bank_palette_15                 palette_15
     0000001B  ___bank_palette_16                 palette_16
     0000001B  ___bank_palette_17                 palette_17
     0000001B  ___bank_palette_18                 palette_18
     0000001B  ___bank_palette_19                 palette_19
     0000001B  ___bank_palette_2                  palette_2
     0000001B  ___bank_palette_20                 palette_20
     0000001B  ___bank_palette_21                 palette_21
     0000001B  ___bank_palette_22                 palette_22
     0000001B  ___bank_palette_23                 palette_23
     0000001B  ___bank_palette_24                 palette_24
     0000001B  ___bank_palette_25                 palette_25
     0000001B  ___bank_palette_26                 palette_26
     0000001B  ___bank_palette_27                 palette_27
     0000001B  ___bank_palette_28                 palette_28
     0000001B  ___bank_palette_29                 palette_29
     0000001B  ___bank_palette_3                  palette_3
     0000001B  ___bank_palette_30                 palette_30
     0000001B  ___bank_palette_31                 palette_31
     0000001B  ___bank_palette_32                 palette_32
     0000001B  ___bank_palette_33                 palette_33
     0000001B  ___bank_palette_34                 palette_34
     0000001B  ___bank_palette_35                 palette_35
     0000001B  ___bank_palette_36                 palette_36
     0000001B  ___bank_palette_37                 palette_37
     0000001B  ___bank_palette_38                 palette_38
     0000001B  ___bank_palette_39                 palette_39
     0000001B  ___bank_palette_4                  palette_4
     0000001B  ___bank_palette_40                 palette_40
     0000001B  ___bank_palette_41                 palette_41
     0000001B  ___bank_palette_42                 palette_42
     0000001B  ___bank_palette_43                 palette_43
     0000001B  ___bank_palette_44                 palette_44
     0000001B  ___bank_palette_45                 palette_45
     0000001B  ___bank_palette_46                 palette_46
     0000001B  ___bank_palette_47                 palette_47
     0000001B  ___bank_palette_48                 palette_48
     0000001B  ___bank_palette_49                 palette_49
     0000001B  ___bank_palette_5                  palette_5
     0000001B  ___bank_palette_50                 palette_50
     0000001B  ___bank_palette_51                 palette_51
     0000001B  ___bank_palette_52                 palette_52
     0000001B  ___bank_palette_53                 palette_53
     0000001B  ___bank_palette_54                 palette_54
     0000001B  ___bank_palette_55                 palette_55
     0000001B  ___bank_palette_56                 palette_56
ASxxxx Linker V03.00/V05.40 + sdld,  page 16.
Hexadecimal  [32-Bits]

Area                                    Addr        Size        Decimal Bytes (Attributes)
--------------------------------        ----        ----        ------- ----- ------------
.  .ABS.                            00000000    00000000 =           0. bytes (ABS,CON)

      Value  Global                              Global Defined In Module
      -----  --------------------------------   ------------------------
     0000001B  ___bank_palette_57                 palette_57
     0000001B  ___bank_palette_58                 palette_58
     0000001B  ___bank_palette_59                 palette_59
     0000001B  ___bank_palette_6                  palette_6
     0000001B  ___bank_palette_60                 palette_60
     0000001B  ___bank_palette_61                 palette_61
     0000001B  ___bank_palette_62                 palette_62
     0000001B  ___bank_palette_63                 palette_63
     0000001B  ___bank_palette_64                 palette_64
     0000001B  ___bank_palette_65                 palette_65
     0000001B  ___bank_palette_7                  palette_7
     0000001B  ___bank_palette_8                  palette_8
     0000001B  ___bank_palette_9                  palette_9
     0000001B  ___bank_scene_0                    scene_0
     0000001B  ___bank_scene_0_init               scene_0_init
     0000001B  ___bank_scene_1                    scene_1
     0000001B  ___bank_scene_10                   scene_10
     0000001B  ___bank_scene_100                  scene_100
     0000001B  ___bank_scene_11                   scene_11
     0000001B  ___bank_scene_11_init              scene_11_init
     0000001B  ___bank_scene_12                   scene_12
     0000001B  ___bank_scene_13                   scene_13
     0000001B  ___bank_scene_14                   scene_14
     0000001B  ___bank_scene_15                   scene_15
     0000001B  ___bank_scene_16                   scene_16
     0000001B  ___bank_scene_17                   scene_17
     0000001B  ___bank_scene_18                   scene_18
     0000001B  ___bank_scene_18_actors            scene_18_actors
     0000001B  ___bank_scene_18_init              scene_18_init
     0000001B  ___bank_scene_19                   scene_19
     0000001B  ___bank_scene_19_init              scene_19_init
     0000001B  ___bank_scene_1_init               scene_1_init
     0000001B  ___bank_scene_2                    scene_2
     0000001B  ___bank_scene_20                   scene_20
     0000001B  ___bank_scene_22_actors            scene_22_actors
     0000001B  ___bank_scene_23_init              scene_23_init
     0000001B  ___bank_scene_24_init              scene_24_init
     0000001B  ___bank_scene_25_init              scene_25_init
     0000001B  ___bank_scene_2_init               scene_2_init
     0000001B  ___bank_scene_33_actors            scene_33_actors
     0000001B  ___bank_scene_37_actors            scene_37_actors
     0000001B  ___bank_scene_38_init              scene_38_init
     0000001B  ___bank_scene_3_init               scene_3_init
     0000001B  ___bank_scene_45_actors            scene_45_actors
     0000001B  ___bank_scene_46_actors            scene_46_actors
     0000001B  ___bank_scene_46_p_hit1            scene_46_p_hit1
     0000001B  ___bank_scene_48_p_hit1            scene_48_p_hit1
     0000001B  ___bank_scene_49_p_hit1            scene_49_p_hit1
     0000001B  ___bank_scene_49_triggers          scene_49_triggers
     0000001B  ___bank_scene_4_init               scene_4_init
     0000001B  ___bank_scene_5_init               scene_5_init
ASxxxx Linker V03.00/V05.40 + sdld,  page 17.
Hexadecimal  [32-Bits]

Area                                    Addr        Size        Decimal Bytes (Attributes)
--------------------------------        ----        ----        ------- ----- ------------
.  .ABS.                            00000000    00000000 =           0. bytes (ABS,CON)

      Value  Global                              Global Defined In Module
      -----  --------------------------------   ------------------------
     0000001B  ___bank_scene_64_init              scene_64_init
     0000001B  ___bank_scene_69_init              scene_69_init
     0000001B  ___bank_scene_6_init               scene_6_init
     0000001B  ___bank_scene_73_actors            scene_73_actors
     0000001B  ___bank_scene_74_init              scene_74_init
     0000001B  ___bank_scene_85_init              scene_85_init
     0000001B  ___bank_scene_86_actors            scene_86_actors
     0000001B  ___bank_scene_87_init              scene_87_init
     0000001B  ___bank_scene_8_init               scene_8_init
     0000001B  ___bank_scene_92_actors            scene_92_actors
     0000001B  ___bank_scene_95_init              scene_95_init
     0000001B  ___bank_scene_96_init              scene_96_init
     0000001B  ___bank_scene_97_init              scene_97_init
     0000001B  ___bank_scene_98_init              scene_98_init
     0000001B  ___bank_scene_99_actors            scene_99_actors
     0000001B  ___bank_scene_9_init               scene_9_init
     0000001B  ___bank_script_engine_init         
     0000001B  ___bank_script_input_1             script_input_1
     0000001B  ___bank_script_input_2             script_input_2
     0000001B  ___bank_script_input_4             script_input_4
     0000001B  ___bank_script_input_5             script_input_5
     0000001B  ___bank_script_timer_12            script_timer_12
     0000001B  ___bank_script_timer_13            script_timer_13
     0000001B  ___bank_sprite_blank_interactabl   sprite_blank_interactable_c_
     0000001B  ___bank_sprite_blank_interactabl   sprite_blank_interactable_c_
     0000001B  ___bank_sprite_blank_interactabl   sprite_blank_interactable_c_
     0000001B  ___bank_sprite_car_tileset         sprite_car_tileset
     0000001B  ___bank_sprite_cataa_tileset       sprite_cataa_tileset
     0000001B  ___bank_sprite_dhilly_5_level_co   sprite_dhilly_5_level_copy_
     0000001B  ___bank_sprite_dhilly_bridge_int   sprite_dhilly_bridge_intera
     0000001B  ___bank_sprite_dhilly_saveselect   sprite_dhilly_saveselect
     0000001B  ___bank_sprite_dhilly_saveselect   sprite_dhilly_saveselect_co_
     0000001B  ___bank_sprite_highlight_options   sprite_highlight_options_co
     0000001B  ___bank_sprite_iceosapp_ctf_copy   sprite_iceosapp_ctf_copy_0_t
     0000001B  ___bank_sprite_iceosapp_wveruner   sprite_iceosapp_wveruner_co_
     0000001B  ___bank_sprite_knife_down_copy__   sprite_knife_down_copy__tile
     0000001B  ___bank_sprite_mzdesigns_tileset   sprite_mzdesigns_tileset
     0000001B  ___bank_sprite_shapiro_tileset     sprite_shapiro_tileset
     0000001B  ___bank_sprite_square_cart_copy_   sprite_square_cart_copy_
     0000001B  ___bank_sprite_square_cart_copy_   sprite_square_cart_copy__til
     0000001B  ___bank_sprite_square_full_hitbo   sprite_square_full_hitbox_c_
     0000001B  ___bank_sprite_square_full_hitbo   sprite_square_full_hitbox_c_
     0000001B  ___bank_sprite_square_full_hitbo   sprite_square_full_hitbox_c_
     0000001B  ___bank_sprite_square_full_hitbo   sprite_square_full_hitbox_c_
     0000001B  ___bank_sprite_square_full_hitbo   sprite_square_full_hitbox_c_
     0000001B  ___bank_sprite_static_copy_0_til   sprite_static_copy_0_tileset
     0000001B  ___bank_sprite_static_copy_tiles   sprite_static_copy_tileset
     0000001B  ___bank_trigger_101_interact       trigger_101_interact
     0000001B  ___bank_trigger_102_interact       trigger_102_interact
     0000001B  ___bank_trigger_103_interact       trigger_103_interact
     0000001B  ___bank_trigger_104_interact       trigger_104_interact
ASxxxx Linker V03.00/V05.40 + sdld,  page 18.
Hexadecimal  [32-Bits]

Area                                    Addr        Size        Decimal Bytes (Attributes)
--------------------------------        ----        ----        ------- ----- ------------
.  .ABS.                            00000000    00000000 =           0. bytes (ABS,CON)

      Value  Global                              Global Defined In Module
      -----  --------------------------------   ------------------------
     0000001B  ___bank_trigger_105_interact       trigger_105_interact
     0000001B  ___bank_trigger_106_interact       trigger_106_interact
     0000001B  ___bank_trigger_108_interact       trigger_108_interact
     0000001B  ___bank_trigger_109_interact       trigger_109_interact
     0000001B  ___bank_trigger_110_interact       trigger_110_interact
     0000001B  ___bank_trigger_111_interact       trigger_111_interact
     0000001B  ___bank_trigger_115_interact       trigger_115_interact
     0000001B  ___bank_trigger_69_interact        trigger_69_interact
     0000001B  ___bank_trigger_77_interact        trigger_77_interact
     0000001B  ___bank_trigger_86_interact        trigger_86_interact
     0000001B  ___bank_trigger_90_interact        trigger_90_interact
     0000001B  ___bank_trigger_96_interact        trigger_96_interact
     0000001B  ___bank_trigger_97_interact        trigger_97_interact
     0000001B  ___bank_trigger_99_interact        trigger_99_interact
     0000001B  b_events_init                      events
     0000001B  b_restore_sram                     flasher
     0000001B  b_restore_sram_bank                flasher
     0000001B  b_save_sram                        flasher
     0000001B  b_scroll_rect                      
     0000001B  b_timers_init                      events
     0000001B  b_vm_print_detect                  vm_gbprinter
     0000001B  b_vm_print_overlay                 vm_gbprinter
     0000001B  b_vm_save_clear                    vm_load_save
     0000001B  b_vm_save_peek                     vm_load_save
     0000001B  b_vm_scene_pop                     vm_scene
     0000001B  b_vm_scene_pop_all                 vm_scene
     0000001B  b_vm_scene_push                    vm_scene
     0000001B  b_vm_scene_stack_reset             vm_scene
     0000001C  ___bank_actor_14_interact          actor_14_interact
     0000001C  ___bank_actor_17_interact          actor_17_interact
     0000001C  ___bank_actor_31_interact          actor_31_interact
     0000001C  ___bank_actor_32_interact          actor_32_interact
     0000001C  ___bank_actor_36_interact          actor_36_interact
     0000001C  ___bank_actor_37_interact          actor_37_interact
     0000001C  ___bank_actor_46_interact          actor_46_interact
     0000001C  ___bank_actor_47_interact          actor_47_interact
     0000001C  ___bank_bg_cave_ladder_copy_       bg_cave_ladder_copy_
     0000001C  ___bank_bg_cave_ladder_copy_0      bg_cave_ladder_copy_0
     0000001C  ___bank_bg_chase_shilly            bg_chase_shilly
     0000001C  ___bank_bg_cinema                  bg_cinema
     0000001C  ___bank_bg_controls_gb_copy_       bg_controls_gb_copy_
     0000001C  ___bank_bg_controls_gb_copy_0      bg_controls_gb_copy_0
     0000001C  ___bank_bg_controls_gba_copy_      bg_controls_gba_copy_
     0000001C  ___bank_bg_controls_gba_copy_0     bg_controls_gba_copy_0
     0000001C  ___bank_bg_controls_gbc_copy_      bg_controls_gbc_copy_
     0000001C  ___bank_bg_controls_mobile_copy_   bg_controls_mobile_copy_
     0000001C  ___bank_bg_controls_mobile_copy_   bg_controls_mobile_copy_0
     0000001C  ___bank_bg_dhilly_bridge           bg_dhilly_bridge
     0000001C  ___bank_bg_dhilly_game_1           bg_dhilly_game_1
     0000001C  ___bank_bg_dhilly_game_10          bg_dhilly_game_10
     0000001C  ___bank_bg_dhilly_game_11          bg_dhilly_game_11
ASxxxx Linker V03.00/V05.40 + sdld,  page 19.
Hexadecimal  [32-Bits]

Area                                    Addr        Size        Decimal Bytes (Attributes)
--------------------------------        ----        ----        ------- ----- ------------
.  .ABS.                            00000000    00000000 =           0. bytes (ABS,CON)

      Value  Global                              Global Defined In Module
      -----  --------------------------------   ------------------------
     0000001C  ___bank_bg_dhilly_game_4           bg_dhilly_game_4
     0000001C  ___bank_bg_dhilly_game_5           bg_dhilly_game_5
     0000001C  ___bank_bg_dhilly_game_8           bg_dhilly_game_8
     0000001C  ___bank_bg_dhilly_game_9           bg_dhilly_game_9
     0000001C  ___bank_bg_dhillyhubdown           bg_dhillyhubdown
     0000001C  ___bank_bg_elevator                bg_elevator
     0000001C  ___bank_bg_endingscene             bg_endingscene
     0000001C  ___bank_bg_endingscene2            bg_endingscene2
     0000001C  ___bank_bg_endingscene3            bg_endingscene3
     0000001C  ___bank_bg_endingscene_0           bg_endingscene_0
     0000001C  ___bank_bg_fall_to_shilly_area_c   bg_fall_to_shilly_area_copy
     0000001C  ___bank_bg_fieldlazy               bg_fieldlazy
     0000001C  ___bank_bg_iceos_desktop_copy_     bg_iceos_desktop_copy_
     0000001C  ___bank_bg_iceos_login_2_copy_     bg_iceos_login_2_copy_
     0000001C  ___bank_bg_iceos_login_copy_       bg_iceos_login_copy_
     0000001C  ___bank_bg_iceos_login_copy__til   bg_iceos_login_copy__tileset
     0000001C  ___bank_bg_iceos_platformer2_cop   bg_iceos_platformer2_copy_
     0000001C  ___bank_bg_iceos_platformer3_cop   bg_iceos_platformer3_copy_
     0000001C  ___bank_bg_iceos_platformer4       bg_iceos_platformer4
     0000001C  ___bank_bg_init_copy_              bg_init_copy_
     0000001C  ___bank_bg_init_copy_0             bg_init_copy_0
     0000001C  ___bank_bg_init_copy_1             bg_init_copy_1
     0000001C  ___bank_bg_init_copy_2             bg_init_copy_2
     0000001C  ___bank_bg_intro_scenary_copy_     bg_intro_scenary_copy_
     0000001C  ___bank_bg_intro_weather_copy_     bg_intro_weather_copy_
     0000001C  ___bank_bg_lair_hub                bg_lair_hub
     0000001C  ___bank_bg_lair_left_2             bg_lair_left_2
     0000001C  ___bank_bg_lair_left_2_copy_       bg_lair_left_2_copy_
     0000001C  ___bank_bg_lair_left_3             bg_lair_left_3
     0000001C  ___bank_bg_lair_right              bg_lair_right
     0000001C  ___bank_bg_lair_right_2            bg_lair_right_2
     0000001C  ___bank_bg_lair_right_2_copy_      bg_lair_right_2_copy_
     0000001C  ___bank_bg_lair_right_3            bg_lair_right_3
     0000001C  ___bank_bg_lair_right_3_copy_      bg_lair_right_3_copy_
     0000001C  ___bank_bg_lair_right_4_copy_      bg_lair_right_4_copy_
     0000001C  ___bank_bg_lair_right_5            bg_lair_right_5
     0000001C  ___bank_bg_lencity_dhillybuildin   bg_lencity_dhillybuilding_c
     0000001C  ___bank_bg_lencity_dhillybuildin   bg_lencity_dhillybuilding_f
     0000001C  ___bank_bg_lencity_trainstation    bg_lencity_trainstation
     0000001C  ___bank_bg_lencity_trainstation_   bg_lencity_trainstation_cop
     0000001C  ___bank_bg_lencityopen             bg_lencityopen
     0000001C  ___bank_bg_lencityopen_copy_       bg_lencityopen_copy_
     0000001C  ___bank_bg_lencityopen_copy_0      bg_lencityopen_copy_0
     0000001C  ___bank_bg_options_copy_           bg_options_copy_
     0000001C  ___bank_bg_pixil_frame_0_23        bg_pixil_frame_0_23
     0000001C  ___bank_bg_pixil_frame_0_24        bg_pixil_frame_0_24
     0000001C  ___bank_bg_pixil_frame_0_30        bg_pixil_frame_0_30
     0000001C  ___bank_bg_pixil_frame_0_31        bg_pixil_frame_0_31
     0000001C  ___bank_bg_pixil_frame_0_33        bg_pixil_frame_0_33
     0000001C  ___bank_bg_pixil_frame_0_copy_co   bg_pixil_frame_0_copy_copy_
     0000001C  ___bank_bg_pixil_frame_23_0        bg_pixil_frame_23_0
ASxxxx Linker V03.00/V05.40 + sdld,  page 20.
Hexadecimal  [32-Bits]

Area                                    Addr        Size        Decimal Bytes (Attributes)
--------------------------------        ----        ----        ------- ----- ------------
.  .ABS.                            00000000    00000000 =           0. bytes (ABS,CON)

      Value  Global                              Global Defined In Module
      -----  --------------------------------   ------------------------
     0000001C  ___bank_bg_placeholder_copy_copy   bg_placeholder_copy_copy_co
     0000001C  ___bank_bg_placeholder_copy_copy   bg_placeholder_copy_copy_co_
     0000001C  ___bank_bg_samsam_copy             bg_samsam_copy
     0000001C  ___bank_bg_shillycity_sara_house   bg_shillycity_sara_house_co
     0000001C  ___bank_bg_shillycityopen_copy_    bg_shillycityopen_copy_
     0000001C  ___bank_bg_shillycityopen_copy_0   bg_shillycityopen_copy_0
     0000001C  ___bank_bg_shillycityopen_copy_1   bg_shillycityopen_copy_1
     0000001C  ___bank_bg_square_frozen_future    bg_square_frozen_future
     0000001C  ___bank_bg_theatre                 bg_theatre
     0000001C  ___bank_bg_title                   bg_title
     0000001C  ___bank_bg_title_copy_             bg_title_copy_
     0000001C  ___bank_bg_title_copy_0            bg_title_copy_0
     0000001C  ___bank_bg_title_copy_1            bg_title_copy_1
     0000001C  ___bank_bg_title_copy_1_tileset    bg_title_copy_1_tileset
     0000001C  ___bank_bg_title_copy_2            bg_title_copy_2
     0000001C  ___bank_bg_wakeupsquare_1          bg_wakeupsquare_1
     0000001C  ___bank_bg_wakeupsquare_1_tilese   bg_wakeupsquare_1_tileset
     0000001C  ___bank_bg_wakeupsquare_3_copy_    bg_wakeupsquare_3_copy_
     0000001C  ___bank_scene_0_triggers           scene_0_triggers
     0000001C  ___bank_scene_12_init              scene_12_init
     0000001C  ___bank_scene_13_init              scene_13_init
     0000001C  ___bank_scene_15_init              scene_15_init
     0000001C  ___bank_scene_16_init              scene_16_init
     0000001C  ___bank_scene_17_actors            scene_17_actors
     0000001C  ___bank_scene_17_init              scene_17_init
     0000001C  ___bank_scene_17_triggers          scene_17_triggers
     0000001C  ___bank_scene_18_triggers          scene_18_triggers
     0000001C  ___bank_scene_19_actors            scene_19_actors
     0000001C  ___bank_scene_20_actors            scene_20_actors
     0000001C  ___bank_scene_20_init              scene_20_init
     0000001C  ___bank_scene_22                   scene_22
     0000001C  ___bank_scene_23                   scene_23
     0000001C  ___bank_scene_24                   scene_24
     0000001C  ___bank_scene_25                   scene_25
     0000001C  ___bank_scene_26                   scene_26
     0000001C  ___bank_scene_27                   scene_27
     0000001C  ___bank_scene_28                   scene_28
     0000001C  ___bank_scene_28_init              scene_28_init
     0000001C  ___bank_scene_28_triggers          scene_28_triggers
     0000001C  ___bank_scene_29                   scene_29
     0000001C  ___bank_scene_29_init              scene_29_init
     0000001C  ___bank_scene_3                    scene_3
     0000001C  ___bank_scene_30                   scene_30
     0000001C  ___bank_scene_30_init              scene_30_init
     0000001C  ___bank_scene_30_triggers          scene_30_triggers
     0000001C  ___bank_scene_31                   scene_31
     0000001C  ___bank_scene_31_init              scene_31_init
     0000001C  ___bank_scene_31_triggers          scene_31_triggers
     0000001C  ___bank_scene_32                   scene_32
     0000001C  ___bank_scene_32_init              scene_32_init
     0000001C  ___bank_scene_33                   scene_33
ASxxxx Linker V03.00/V05.40 + sdld,  page 21.
Hexadecimal  [32-Bits]

Area                                    Addr        Size        Decimal Bytes (Attributes)
--------------------------------        ----        ----        ------- ----- ------------
.  .ABS.                            00000000    00000000 =           0. bytes (ABS,CON)

      Value  Global                              Global Defined In Module
      -----  --------------------------------   ------------------------
     0000001C  ___bank_scene_33_init              scene_33_init
     0000001C  ___bank_scene_34                   scene_34
     0000001C  ___bank_scene_34_actors            scene_34_actors
     0000001C  ___bank_scene_34_init              scene_34_init
     0000001C  ___bank_scene_34_triggers          scene_34_triggers
     0000001C  ___bank_scene_35                   scene_35
     0000001C  ___bank_scene_35_init              scene_35_init
     0000001C  ___bank_scene_37                   scene_37
     0000001C  ___bank_scene_37_init              scene_37_init
     0000001C  ___bank_scene_38                   scene_38
     0000001C  ___bank_scene_39                   scene_39
     0000001C  ___bank_scene_39_init              scene_39_init
     0000001C  ___bank_scene_39_sprites           scene_39_sprites
     0000001C  ___bank_scene_3_actors             scene_3_actors
     0000001C  ___bank_scene_4                    scene_4
     0000001C  ___bank_scene_40                   scene_40
     0000001C  ___bank_scene_40_init              scene_40_init
     0000001C  ___bank_scene_40_triggers          scene_40_triggers
     0000001C  ___bank_scene_41                   scene_41
     0000001C  ___bank_scene_41_init              scene_41_init
     0000001C  ___bank_scene_41_triggers          scene_41_triggers
     0000001C  ___bank_scene_42                   scene_42
     0000001C  ___bank_scene_42_init              scene_42_init
     0000001C  ___bank_scene_43                   scene_43
     0000001C  ___bank_scene_43_init              scene_43_init
     0000001C  ___bank_scene_43_triggers          scene_43_triggers
     0000001C  ___bank_scene_44                   scene_44
     0000001C  ___bank_scene_44_init              scene_44_init
     0000001C  ___bank_scene_45                   scene_45
     0000001C  ___bank_scene_46                   scene_46
     0000001C  ___bank_scene_46_projectiles       scene_46_projectiles
     0000001C  ___bank_scene_47                   scene_47
     0000001C  ___bank_scene_47_init              scene_47_init
     0000001C  ___bank_scene_48                   scene_48
     0000001C  ___bank_scene_48_actors            scene_48_actors
     0000001C  ___bank_scene_48_init              scene_48_init
     0000001C  ___bank_scene_48_projectiles       scene_48_projectiles
     0000001C  ___bank_scene_49                   scene_49
     0000001C  ___bank_scene_49_actors            scene_49_actors
     0000001C  ___bank_scene_49_init              scene_49_init
     0000001C  ___bank_scene_49_projectiles       scene_49_projectiles
     0000001C  ___bank_scene_5                    scene_5
     0000001C  ___bank_scene_50                   scene_50
     0000001C  ___bank_scene_50_actors            scene_50_actors
     0000001C  ___bank_scene_50_init              scene_50_init
     0000001C  ___bank_scene_50_projectiles       scene_50_projectiles
     0000001C  ___bank_scene_50_triggers          scene_50_triggers
     0000001C  ___bank_scene_51                   scene_51
     0000001C  ___bank_scene_51_actors            scene_51_actors
     0000001C  ___bank_scene_51_init              scene_51_init
     0000001C  ___bank_scene_52                   scene_52
ASxxxx Linker V03.00/V05.40 + sdld,  page 22.
Hexadecimal  [32-Bits]

Area                                    Addr        Size        Decimal Bytes (Attributes)
--------------------------------        ----        ----        ------- ----- ------------
.  .ABS.                            00000000    00000000 =           0. bytes (ABS,CON)

      Value  Global                              Global Defined In Module
      -----  --------------------------------   ------------------------
     0000001C  ___bank_scene_53                   scene_53
     0000001C  ___bank_scene_53_init              scene_53_init
     0000001C  ___bank_scene_54                   scene_54
     0000001C  ___bank_scene_54_actors            scene_54_actors
     0000001C  ___bank_scene_55                   scene_55
     0000001C  ___bank_scene_55_init              scene_55_init
     0000001C  ___bank_scene_56                   scene_56
     0000001C  ___bank_scene_57                   scene_57
     0000001C  ___bank_scene_57_triggers          scene_57_triggers
     0000001C  ___bank_scene_58                   scene_58
     0000001C  ___bank_scene_58_actors            scene_58_actors
     0000001C  ___bank_scene_58_init              scene_58_init
     0000001C  ___bank_scene_58_triggers          scene_58_triggers
     0000001C  ___bank_scene_59                   scene_59
     0000001C  ___bank_scene_6                    scene_6
     0000001C  ___bank_scene_60                   scene_60
     0000001C  ___bank_scene_60_actors            scene_60_actors
     0000001C  ___bank_scene_61                   scene_61
     0000001C  ___bank_scene_61_actors            scene_61_actors
     0000001C  ___bank_scene_62                   scene_62
     0000001C  ___bank_scene_62_init              scene_62_init
     0000001C  ___bank_scene_62_triggers          scene_62_triggers
     0000001C  ___bank_scene_63                   scene_63
     0000001C  ___bank_scene_64                   scene_64
     0000001C  ___bank_scene_64_actors            scene_64_actors
     0000001C  ___bank_scene_64_triggers          scene_64_triggers
     0000001C  ___bank_scene_65                   scene_65
     0000001C  ___bank_scene_65_triggers          scene_65_triggers
     0000001C  ___bank_scene_66                   scene_66
     0000001C  ___bank_scene_66_triggers          scene_66_triggers
     0000001C  ___bank_scene_67                   scene_67
     0000001C  ___bank_scene_68                   scene_68
     0000001C  ___bank_scene_69                   scene_69
     0000001C  ___bank_scene_7                    scene_7
     0000001C  ___bank_scene_70                   scene_70
     0000001C  ___bank_scene_71                   scene_71
     0000001C  ___bank_scene_71_actors            scene_71_actors
     0000001C  ___bank_scene_71_init              scene_71_init
     0000001C  ___bank_scene_71_triggers          scene_71_triggers
     0000001C  ___bank_scene_72                   scene_72
     0000001C  ___bank_scene_72_triggers          scene_72_triggers
     0000001C  ___bank_scene_73                   scene_73
     0000001C  ___bank_scene_74                   scene_74
     0000001C  ___bank_scene_75                   scene_75
     0000001C  ___bank_scene_75_init              scene_75_init
     0000001C  ___bank_scene_76                   scene_76
     0000001C  ___bank_scene_76_actors            scene_76_actors
     0000001C  ___bank_scene_76_init              scene_76_init
     0000001C  ___bank_scene_77                   scene_77
     0000001C  ___bank_scene_78                   scene_78
     0000001C  ___bank_scene_79                   scene_79
ASxxxx Linker V03.00/V05.40 + sdld,  page 23.
Hexadecimal  [32-Bits]

Area                                    Addr        Size        Decimal Bytes (Attributes)
--------------------------------        ----        ----        ------- ----- ------------
.  .ABS.                            00000000    00000000 =           0. bytes (ABS,CON)

      Value  Global                              Global Defined In Module
      -----  --------------------------------   ------------------------
     0000001C  ___bank_scene_8                    scene_8
     0000001C  ___bank_scene_80                   scene_80
     0000001C  ___bank_scene_80_triggers          scene_80_triggers
     0000001C  ___bank_scene_81                   scene_81
     0000001C  ___bank_scene_81_triggers          scene_81_triggers
     0000001C  ___bank_scene_82                   scene_82
     0000001C  ___bank_scene_82_triggers          scene_82_triggers
     0000001C  ___bank_scene_83                   scene_83
     0000001C  ___bank_scene_83_triggers          scene_83_triggers
     0000001C  ___bank_scene_84                   scene_84
     0000001C  ___bank_scene_84_triggers          scene_84_triggers
     0000001C  ___bank_scene_85                   scene_85
     0000001C  ___bank_scene_86                   scene_86
     0000001C  ___bank_scene_86_init              scene_86_init
     0000001C  ___bank_scene_86_triggers          scene_86_triggers
     0000001C  ___bank_scene_87                   scene_87
     0000001C  ___bank_scene_88                   scene_88
     0000001C  ___bank_scene_88_triggers          scene_88_triggers
     0000001C  ___bank_scene_89                   scene_89
     0000001C  ___bank_scene_89_init              scene_89_init
     0000001C  ___bank_scene_9                    scene_9
     0000001C  ___bank_scene_90                   scene_90
     0000001C  ___bank_scene_90_actors            scene_90_actors
     0000001C  ___bank_scene_90_init              scene_90_init
     0000001C  ___bank_scene_90_triggers          scene_90_triggers
     0000001C  ___bank_scene_91                   scene_91
     0000001C  ___bank_scene_92                   scene_92
     0000001C  ___bank_scene_93                   scene_93
     0000001C  ___bank_scene_93_actors            scene_93_actors
     0000001C  ___bank_scene_93_projectiles       scene_93_projectiles
     0000001C  ___bank_scene_94                   scene_94
     0000001C  ___bank_scene_94_actors            scene_94_actors
     0000001C  ___bank_scene_94_projectiles       scene_94_projectiles
     0000001C  ___bank_scene_95                   scene_95
     0000001C  ___bank_scene_96                   scene_96
     0000001C  ___bank_scene_97                   scene_97
     0000001C  ___bank_scene_98                   scene_98
     0000001C  ___bank_scene_99                   scene_99
     0000001C  ___bank_script_input_0             script_input_0
     0000001C  ___bank_script_input_10            script_input_10
     0000001C  ___bank_script_input_11            script_input_11
     0000001C  ___bank_script_input_12            script_input_12
     0000001C  ___bank_script_input_13            script_input_13
     0000001C  ___bank_script_input_14            script_input_14
     0000001C  ___bank_script_input_8             script_input_8
     0000001C  ___bank_script_input_9             script_input_9
     0000001C  ___bank_script_timer_1             script_timer_1
     0000001C  ___bank_script_timer_10            script_timer_10
     0000001C  ___bank_script_timer_11            script_timer_11
     0000001C  ___bank_script_timer_2             script_timer_2
     0000001C  ___bank_script_timer_3             script_timer_3
ASxxxx Linker V03.00/V05.40 + sdld,  page 24.
Hexadecimal  [32-Bits]

Area                                    Addr        Size        Decimal Bytes (Attributes)
--------------------------------        ----        ----        ------- ----- ------------
.  .ABS.                            00000000    00000000 =           0. bytes (ABS,CON)

      Value  Global                              Global Defined In Module
      -----  --------------------------------   ------------------------
     0000001C  ___bank_script_timer_4             script_timer_4
     0000001C  ___bank_script_timer_5             script_timer_5
     0000001C  ___bank_script_timer_6             script_timer_6
     0000001C  ___bank_script_timer_7             script_timer_7
     0000001C  ___bank_script_timer_8             script_timer_8
     0000001C  ___bank_script_timer_9             script_timer_9
     0000001C  ___bank_sprite_blank_interactabl   sprite_blank_interactable_c
     0000001C  ___bank_sprite_car                 sprite_car
     0000001C  ___bank_sprite_cataa               sprite_cataa
     0000001C  ___bank_sprite_dhilly_bridge_int   sprite_dhilly_bridge_intera_
     0000001C  ___bank_sprite_dhilly_bridge_int   sprite_dhilly_bridge_intera_
     0000001C  ___bank_sprite_dhilly_bridge_int   sprite_dhilly_bridge_intera_
     0000001C  ___bank_sprite_dhilly_saveselect   sprite_dhilly_saveselect_co
     0000001C  ___bank_sprite_dhilly_saveselect   sprite_dhilly_saveselect_co_
     0000001C  ___bank_sprite_dhilly_saveselect   sprite_dhilly_saveselect_co_
     0000001C  ___bank_sprite_dhilly_saveselect   sprite_dhilly_saveselect_co_
     0000001C  ___bank_sprite_dhilly_saveselect   sprite_dhilly_saveselect_co_
     0000001C  ___bank_sprite_dhilly_saveselect   sprite_dhilly_saveselect_til
     0000001C  ___bank_sprite_iceos_cursor_copy   sprite_iceos_cursor_copy_
     0000001C  ___bank_sprite_iceosapp_ctf_copy   sprite_iceosapp_ctf_copy_0
     0000001C  ___bank_sprite_iceosapp_pltfrmr_   sprite_iceosapp_pltfrmr_cop
     0000001C  ___bank_sprite_iceosapp_pltfrmr_   sprite_iceosapp_pltfrmr_cop_
     0000001C  ___bank_sprite_iceosapp_settings   sprite_iceosapp_settings_co
     0000001C  ___bank_sprite_iceosapp_settings   sprite_iceosapp_settings_co_
     0000001C  ___bank_sprite_iceosapp_wveruner   sprite_iceosapp_wveruner_co
     0000001C  ___bank_sprite_knife_down_copy_    sprite_knife_down_copy_
     0000001C  ___bank_sprite_len_city_dhilly_h   sprite_len_city_dhilly_hous
     0000001C  ___bank_sprite_mzdesigns           sprite_mzdesigns
     0000001C  ___bank_sprite_piece_dhilly3_ver   sprite_piece_dhilly3_ver
     0000001C  ___bank_sprite_piece_dhilly3_ver   sprite_piece_dhilly3_ver_co
     0000001C  ___bank_sprite_piece_dhilly3_ver   sprite_piece_dhilly3_ver_co_
     0000001C  ___bank_sprite_piece_dhilly3_ver   sprite_piece_dhilly3_ver_til
     0000001C  ___bank_sprite_shapiro             sprite_shapiro
     0000001C  ___bank_sprite_square_full_hitbo   sprite_square_full_hitbox_c
     0000001C  ___bank_sprite_square_full_hitbo   sprite_square_full_hitbox_c_
     0000001C  ___bank_sprite_square_full_hitbo   sprite_square_full_hitbox_c_
     0000001C  ___bank_sprite_square_full_hitbo   sprite_square_full_hitbox_c_
     0000001C  ___bank_sprite_square_full_hitbo   sprite_square_full_hitbox_c_
     0000001C  ___bank_sprite_square_full_hitbo   sprite_square_full_hitbox_c_
     0000001C  ___bank_sprite_square_full_hitbo   sprite_square_full_hitbox_c_
     0000001C  ___bank_sprite_square_platformin   sprite_square_platforming_c
     0000001C  ___bank_sprite_square_platformin   sprite_square_platforming_c_
     0000001C  ___bank_sprite_static_copy         sprite_static_copy
     0000001C  ___bank_sprite_static_copy_0       sprite_static_copy_0
     0000001C  ___bank_spritesheet_none           spritesheet_none
     0000001C  ___bank_trigger_0_interact         trigger_0_interact
     0000001C  ___bank_trigger_100_interact       trigger_100_interact
     0000001C  ___bank_trigger_107_interact       trigger_107_interact
     0000001C  ___bank_trigger_10_interact        trigger_10_interact
     0000001C  ___bank_trigger_116_interact       trigger_116_interact
     0000001C  ___bank_trigger_117_interact       trigger_117_interact
ASxxxx Linker V03.00/V05.40 + sdld,  page 25.
Hexadecimal  [32-Bits]

Area                                    Addr        Size        Decimal Bytes (Attributes)
--------------------------------        ----        ----        ------- ----- ------------
.  .ABS.                            00000000    00000000 =           0. bytes (ABS,CON)

      Value  Global                              Global Defined In Module
      -----  --------------------------------   ------------------------
     0000001C  ___bank_trigger_118_interact       trigger_118_interact
     0000001C  ___bank_trigger_119_interact       trigger_119_interact
     0000001C  ___bank_trigger_11_interact        trigger_11_interact
     0000001C  ___bank_trigger_12_interact        trigger_12_interact
     0000001C  ___bank_trigger_13_interact        trigger_13_interact
     0000001C  ___bank_trigger_14_interact        trigger_14_interact
     0000001C  ___bank_trigger_15_interact        trigger_15_interact
     0000001C  ___bank_trigger_16_interact        trigger_16_interact
     0000001C  ___bank_trigger_17_interact        trigger_17_interact
     0000001C  ___bank_trigger_18_interact        trigger_18_interact
     0000001C  ___bank_trigger_19_interact        trigger_19_interact
     0000001C  ___bank_trigger_20_interact        trigger_20_interact
     0000001C  ___bank_trigger_21_interact        trigger_21_interact
     0000001C  ___bank_trigger_22_interact        trigger_22_interact
     0000001C  ___bank_trigger_23_interact        trigger_23_interact
     0000001C  ___bank_trigger_24_interact        trigger_24_interact
     0000001C  ___bank_trigger_25_interact        trigger_25_interact
     0000001C  ___bank_trigger_26_interact        trigger_26_interact
     0000001C  ___bank_trigger_27_interact        trigger_27_interact
     0000001C  ___bank_trigger_28_interact        trigger_28_interact
     0000001C  ___bank_trigger_29_interact        trigger_29_interact
     0000001C  ___bank_trigger_2_interact         trigger_2_interact
     0000001C  ___bank_trigger_30_interact        trigger_30_interact
     0000001C  ___bank_trigger_31_interact        trigger_31_interact
     0000001C  ___bank_trigger_32_interact        trigger_32_interact
     0000001C  ___bank_trigger_33_interact        trigger_33_interact
     0000001C  ___bank_trigger_34_interact        trigger_34_interact
     0000001C  ___bank_trigger_35_interact        trigger_35_interact
     0000001C  ___bank_trigger_36_interact        trigger_36_interact
     0000001C  ___bank_trigger_37_interact        trigger_37_interact
     0000001C  ___bank_trigger_38_interact        trigger_38_interact
     0000001C  ___bank_trigger_39_interact        trigger_39_interact
     0000001C  ___bank_trigger_41_interact        trigger_41_interact
     0000001C  ___bank_trigger_42_interact        trigger_42_interact
     0000001C  ___bank_trigger_43_interact        trigger_43_interact
     0000001C  ___bank_trigger_44_interact        trigger_44_interact
     0000001C  ___bank_trigger_45_interact        trigger_45_interact
     0000001C  ___bank_trigger_46_interact        trigger_46_interact
     0000001C  ___bank_trigger_47_interact        trigger_47_interact
     0000001C  ___bank_trigger_48_interact        trigger_48_interact
     0000001C  ___bank_trigger_4_interact         trigger_4_interact
     0000001C  ___bank_trigger_50_interact        trigger_50_interact
     0000001C  ___bank_trigger_51_interact        trigger_51_interact
     0000001C  ___bank_trigger_53_interact        trigger_53_interact
     0000001C  ___bank_trigger_54_interact        trigger_54_interact
     0000001C  ___bank_trigger_55_interact        trigger_55_interact
     0000001C  ___bank_trigger_56_interact        trigger_56_interact
     0000001C  ___bank_trigger_57_interact        trigger_57_interact
     0000001C  ___bank_trigger_58_interact        trigger_58_interact
     0000001C  ___bank_trigger_59_interact        trigger_59_interact
     0000001C  ___bank_trigger_5_interact         trigger_5_interact
ASxxxx Linker V03.00/V05.40 + sdld,  page 26.
Hexadecimal  [32-Bits]

Area                                    Addr        Size        Decimal Bytes (Attributes)
--------------------------------        ----        ----        ------- ----- ------------
.  .ABS.                            00000000    00000000 =           0. bytes (ABS,CON)

      Value  Global                              Global Defined In Module
      -----  --------------------------------   ------------------------
     0000001C  ___bank_trigger_60_interact        trigger_60_interact
     0000001C  ___bank_trigger_62_interact        trigger_62_interact
     0000001C  ___bank_trigger_63_interact        trigger_63_interact
     0000001C  ___bank_trigger_64_interact        trigger_64_interact
     0000001C  ___bank_trigger_65_interact        trigger_65_interact
     0000001C  ___bank_trigger_66_interact        trigger_66_interact
     0000001C  ___bank_trigger_67_interact        trigger_67_interact
     0000001C  ___bank_trigger_68_interact        trigger_68_interact
     0000001C  ___bank_trigger_6_interact         trigger_6_interact
     0000001C  ___bank_trigger_70_interact        trigger_70_interact
     0000001C  ___bank_trigger_71_interact        trigger_71_interact
     0000001C  ___bank_trigger_72_interact        trigger_72_interact
     0000001C  ___bank_trigger_73_interact        trigger_73_interact
     0000001C  ___bank_trigger_74_interact        trigger_74_interact
     0000001C  ___bank_trigger_75_interact        trigger_75_interact
     0000001C  ___bank_trigger_76_interact        trigger_76_interact
     0000001C  ___bank_trigger_78_interact        trigger_78_interact
     0000001C  ___bank_trigger_79_interact        trigger_79_interact
     0000001C  ___bank_trigger_7_interact         trigger_7_interact
     0000001C  ___bank_trigger_80_interact        trigger_80_interact
     0000001C  ___bank_trigger_82_interact        trigger_82_interact
     0000001C  ___bank_trigger_83_interact        trigger_83_interact
     0000001C  ___bank_trigger_84_interact        trigger_84_interact
     0000001C  ___bank_trigger_85_interact        trigger_85_interact
     0000001C  ___bank_trigger_87_interact        trigger_87_interact
     0000001C  ___bank_trigger_88_interact        trigger_88_interact
     0000001C  ___bank_trigger_8_interact         trigger_8_interact
     0000001C  ___bank_trigger_91_interact        trigger_91_interact
     0000001C  ___bank_trigger_92_interact        trigger_92_interact
     0000001C  ___bank_trigger_93_interact        trigger_93_interact
     0000001C  ___bank_trigger_94_interact        trigger_94_interact
     0000001C  ___bank_trigger_98_interact        trigger_98_interact
     0000001C  ___bank_trigger_9_interact         trigger_9_interact
     0000001C  __start_save                    
     0000001C  b_SIO_init                         sio
     0000001C  b_input_init                       input
     0000001C  b_logo_init                        logo
     0000001C  b_logo_update                      logo
     0000001C  b_parallax_init                    parallax
     0000001D  ___bank_bootstrap_script           
     0000001D  ___bank_scene_22_sprites           scene_22_sprites
     0000001D  ___bank_scene_29_triggers          scene_29_triggers
     0000001D  ___bank_scene_32_triggers          scene_32_triggers
     0000001D  ___bank_scene_33_triggers          scene_33_triggers
     0000001D  ___bank_scene_35_triggers          scene_35_triggers
     0000001D  ___bank_scene_37_sprites           scene_37_sprites
     0000001D  ___bank_scene_42_triggers          scene_42_triggers
     0000001D  ___bank_scene_44_triggers          scene_44_triggers
     0000001D  ___bank_scene_45_sprites           scene_45_sprites
     0000001D  ___bank_scene_45_triggers          scene_45_triggers
     0000001D  ___bank_scene_46_sprites           scene_46_sprites
ASxxxx Linker V03.00/V05.40 + sdld,  page 27.
Hexadecimal  [32-Bits]

Area                                    Addr        Size        Decimal Bytes (Attributes)
--------------------------------        ----        ----        ------- ----- ------------
.  .ABS.                            00000000    00000000 =           0. bytes (ABS,CON)

      Value  Global                              Global Defined In Module
      -----  --------------------------------   ------------------------
     0000001D  ___bank_scene_46_triggers          scene_46_triggers
     0000001D  ___bank_scene_48_sprites           scene_48_sprites
     0000001D  ___bank_scene_48_triggers          scene_48_triggers
     0000001D  ___bank_scene_49_sprites           scene_49_sprites
     0000001D  ___bank_scene_50_sprites           scene_50_sprites
     0000001D  ___bank_scene_51_sprites           scene_51_sprites
     0000001D  ___bank_scene_51_triggers          scene_51_triggers
     0000001D  ___bank_scene_52_sprites           scene_52_sprites
     0000001D  ___bank_scene_53_sprites           scene_53_sprites
     0000001D  ___bank_scene_53_triggers          scene_53_triggers
     0000001D  ___bank_scene_54_sprites           scene_54_sprites
     0000001D  ___bank_scene_54_triggers          scene_54_triggers
     0000001D  ___bank_scene_55_triggers          scene_55_triggers
     0000001D  ___bank_scene_56_init              scene_56_init
     0000001D  ___bank_scene_56_triggers          scene_56_triggers
     0000001D  ___bank_scene_57_init              scene_57_init
     0000001D  ___bank_scene_58_sprites           scene_58_sprites
     0000001D  ___bank_scene_59_init              scene_59_init
     0000001D  ___bank_scene_59_triggers          scene_59_triggers
     0000001D  ___bank_scene_60_init              scene_60_init
     0000001D  ___bank_scene_60_sprites           scene_60_sprites
     0000001D  ___bank_scene_60_triggers          scene_60_triggers
     0000001D  ___bank_scene_61_sprites           scene_61_sprites
     0000001D  ___bank_scene_61_triggers          scene_61_triggers
     0000001D  ___bank_scene_63_init              scene_63_init
     0000001D  ___bank_scene_63_triggers          scene_63_triggers
     0000001D  ___bank_scene_64_sprites           scene_64_sprites
     0000001D  ___bank_scene_65_init              scene_65_init
     0000001D  ___bank_scene_66_init              scene_66_init
     0000001D  ___bank_scene_67_init              scene_67_init
     0000001D  ___bank_scene_67_triggers          scene_67_triggers
     0000001D  ___bank_scene_68_init              scene_68_init
     0000001D  ___bank_scene_68_triggers          scene_68_triggers
     0000001D  ___bank_scene_70_triggers          scene_70_triggers
     0000001D  ___bank_scene_71_sprites           scene_71_sprites
     0000001D  ___bank_scene_72_init              scene_72_init
     0000001D  ___bank_scene_73_init              scene_73_init
     0000001D  ___bank_scene_73_sprites           scene_73_sprites
     0000001D  ___bank_scene_75_triggers          scene_75_triggers
     0000001D  ___bank_scene_76_sprites           scene_76_sprites
     0000001D  ___bank_scene_76_triggers          scene_76_triggers
     0000001D  ___bank_scene_77_init              scene_77_init
     0000001D  ___bank_scene_77_triggers          scene_77_triggers
     0000001D  ___bank_scene_78_init              scene_78_init
     0000001D  ___bank_scene_78_triggers          scene_78_triggers
     0000001D  ___bank_scene_79_init              scene_79_init
     0000001D  ___bank_scene_79_triggers          scene_79_triggers
     0000001D  ___bank_scene_80_init              scene_80_init
     0000001D  ___bank_scene_81_init              scene_81_init
     0000001D  ___bank_scene_82_init              scene_82_init
     0000001D  ___bank_scene_83_init              scene_83_init
ASxxxx Linker V03.00/V05.40 + sdld,  page 28.
Hexadecimal  [32-Bits]

Area                                    Addr        Size        Decimal Bytes (Attributes)
--------------------------------        ----        ----        ------- ----- ------------
.  .ABS.                            00000000    00000000 =           0. bytes (ABS,CON)

      Value  Global                              Global Defined In Module
      -----  --------------------------------   ------------------------
     0000001D  ___bank_scene_84_init              scene_84_init
     0000001D  ___bank_scene_86_sprites           scene_86_sprites
     0000001D  ___bank_scene_88_init              scene_88_init
     0000001D  ___bank_scene_89_triggers          scene_89_triggers
     0000001D  ___bank_scene_90_sprites           scene_90_sprites
     0000001D  ___bank_scene_91_sprites           scene_91_sprites
     0000001D  ___bank_scene_91_triggers          scene_91_triggers
     0000001D  ___bank_scene_92_sprites           scene_92_sprites
     0000001D  ___bank_scene_93_init              scene_93_init
     0000001D  ___bank_scene_93_triggers          scene_93_triggers
     0000001D  ___bank_scene_99_sprites           scene_99_sprites
     00000027  l__GSINIT                       
     00000030  l__HEADER7                      
     00000060  l__HEADER4                      
     00000080  ___size_SGB_border_pal             border
     000000AB  l__HEADER11                     
     000001CB  l__CRASH_SCRATCH2               
     00000200  s__CODE                         
     00000267  l__CODE_29                      
     00000700  ___size_SGB_border_map             border
     00000ED4  l__CODE                         
     000010D4  s__HOME                         
     00001800  ___size_SGB_border_chr             border
     00001994  l__DATA                         
     00002000  _rROMB0                            
     00002DB1  l__HOME                         
     00003000  _rROMB1                            
     00003E85  s__BASE                         
     00003E85  s__CODE_0                       
     00003E85  s__INITIALIZER                  
     00003E85  s__LIT                          
     00003E9F  s__GSINIT                       
     00003EC6  s__GSFINAL                      
     00003FFE  l__CODE_14                      
     00003FFE  l__CODE_18                      
     00003FFE  l__CODE_26                      
     00003FFE  l__CODE_5                       
     00003FFE  l__CODE_9                       
     00003FFF  l__CODE_11                      
     00003FFF  l__CODE_12                      
     00003FFF  l__CODE_17                      
     00003FFF  l__CODE_20                      
     00003FFF  l__CODE_22                      
     00003FFF  l__CODE_23                      
     00003FFF  l__CODE_24                      
     00003FFF  l__CODE_3                       
     00003FFF  l__CODE_4                       
     00003FFF  l__CODE_6                       
     00004000  _RTC_SELECT_REG                    vm_rtc
     00004000  _rRAMB                             
     00004000  l__CODE_1                       
ASxxxx Linker V03.00/V05.40 + sdld,  page 29.
Hexadecimal  [32-Bits]

Area                                    Addr        Size        Decimal Bytes (Attributes)
--------------------------------        ----        ----        ------- ----- ------------
.  .ABS.                            00000000    00000000 =           0. bytes (ABS,CON)

      Value  Global                              Global Defined In Module
      -----  --------------------------------   ------------------------
     00004000  l__CODE_10                      
     00004000  l__CODE_13                      
     00004000  l__CODE_15                      
     00004000  l__CODE_16                      
     00004000  l__CODE_19                      
     00004000  l__CODE_2                       
     00004000  l__CODE_21                      
     00004000  l__CODE_25                      
     00004000  l__CODE_27                      
     00004000  l__CODE_28                      
     00004000  l__CODE_7                       
     00004000  l__CODE_8                       
     00006000  _RTC_LATCH_REG                     vm_rtc
     00008000  __VRAM                             
     00008000  __VRAM8000                         
     00008800  __VRAM8800                         
     00009000  __VRAM9000                         
     00009800  __SCRN0                            
     00009C00  __SCRN1                            
     0000A000  _RTC_VALUE_REG                     vm_rtc
     0000A000  __SRAM                             
     0000C000  __RAM                              
     0000C000  _shadow_OAM                     
     0000C0A0  s__DATA                         
     0000D000  __RAMBANK                          
     0000DA34  s__BSS                          
     0000DA34  s__INITIALIZED                  
     0000DA4E  s__HEAP                         
     0000DA4E  s__HEAP_END                     
     0000DF00  .STACK                          
     0000DF00  _shadow_OAM2                       absolute
     0000DFA0  _BkgPalette                        absolute
     0000DFE0  _vwf_tile_data                     absolute
     0000FE00  __OAMRAM                           
     0000FF00  _P1_REG                            
     0000FF00  __IO                               
     0000FF01  _SB_REG                            
     0000FF02  _SC_REG                            
     0000FF04  _DIV_REG                           
     0000FF05  _TIMA_REG                          
     0000FF06  _TMA_REG                           
     0000FF07  _TAC_REG                           
     0000FF0F  _IF_REG                            
     0000FF10  _NR10_REG                          
     0000FF11  _NR11_REG                          
     0000FF12  _NR12_REG                          
     0000FF13  _NR13_REG                          
     0000FF14  _NR14_REG                          
     0000FF16  _NR21_REG                          
     0000FF17  _NR22_REG                          
     0000FF18  _NR23_REG                          
ASxxxx Linker V03.00/V05.40 + sdld,  page 30.
Hexadecimal  [32-Bits]

Area                                    Addr        Size        Decimal Bytes (Attributes)
--------------------------------        ----        ----        ------- ----- ------------
.  .ABS.                            00000000    00000000 =           0. bytes (ABS,CON)

      Value  Global                              Global Defined In Module
      -----  --------------------------------   ------------------------
     0000FF19  _NR24_REG                          
     0000FF1A  _NR30_REG                          
     0000FF1B  _NR31_REG                          
     0000FF1C  _NR32_REG                          
     0000FF1D  _NR33_REG                          
     0000FF1E  _NR34_REG                          
     0000FF20  _NR41_REG                          
     0000FF21  _NR42_REG                          
     0000FF22  _NR43_REG                          
     0000FF23  _NR44_REG                          
     0000FF24  _NR50_REG                          
     0000FF25  _NR51_REG                          
     0000FF26  _NR52_REG                          
     0000FF30  _AUD3WAVE                          
     0000FF30  _PCM_SAMPLE                        
     0000FF30  __AUD3WAVERAM                      
     0000FF40  _LCDC_REG                          
     0000FF41  _STAT_REG                          
     0000FF42  _SCY_REG                           
     0000FF43  _SCX_REG                           
     0000FF44  _LY_REG                            
     0000FF45  _LYC_REG                           
     0000FF46  _DMA_REG                           
     0000FF47  _BGP_REG                           
     0000FF48  _OBP0_REG                          
     0000FF49  _OBP1_REG                          
     0000FF4A  _WY_REG                            
     0000FF4B  _WX_REG                            
     0000FF4D  _KEY1_REG                          
     0000FF4F  _VBK_REG                           
     0000FF51  _HDMA1_REG                         
     0000FF52  _HDMA2_REG                         
     0000FF53  _HDMA3_REG                         
     0000FF54  _HDMA4_REG                         
     0000FF55  _HDMA5_REG                         
     0000FF56  _RP_REG                            
     0000FF68  _BCPS_REG                          
     0000FF69  _BCPD_REG                          
     0000FF6A  _OCPS_REG                          
     0000FF6B  _OCPD_REG                          
     0000FF70  _SVBK_REG                          
     0000FF76  _PCM12_REG                         
     0000FF77  _PCM34_REG                         
     0000FF80  .refresh_OAM                    
     0000FF80  __HRAM                             
     0000FFFF  _IE_REG                            
     00014000  s__CODE_1                       
     00024000  s__CODE_2                       
     00034000  s__CODE_3                       
     00044000  s__CODE_4                       
     00054000  s__CODE_5                       
ASxxxx Linker V03.00/V05.40 + sdld,  page 31.
Hexadecimal  [32-Bits]

Area                                    Addr        Size        Decimal Bytes (Attributes)
--------------------------------        ----        ----        ------- ----- ------------
.  .ABS.                            00000000    00000000 =           0. bytes (ABS,CON)

      Value  Global                              Global Defined In Module
      -----  --------------------------------   ------------------------
     00064000  s__CODE_6                       
     00074000  s__CODE_7                       
     00084000  s__CODE_8                       
     00094000  s__CODE_9                       
     000A4000  s__CODE_10                      
     000B4000  s__CODE_11                      
     000C4000  s__CODE_12                      
     000D4000  s__CODE_13                      
     000E4000  s__CODE_14                      
     000F4000  s__CODE_15                      
     00104000  s__CODE_16                      
     00114000  s__CODE_17                      
     00124000  s__CODE_18                      
     00134000  s__CODE_19                      
     00144000  s__CODE_20                      
     00154000  s__CODE_21                      
     00164000  s__CODE_22                      
     00174000  s__CODE_23                      
     00184000  s__CODE_24                      
     00194000  s__CODE_25                      
     001A4000  s__CODE_26                      
     001B4000  s__CODE_27                      
     001C4000  s__CODE_28                      
     001D4000  s__CODE_29                      

ASxxxx Linker V03.00/V05.40 + sdld,  page 32.
Hexadecimal  [32-Bits]

Area                                    Addr        Size        Decimal Bytes (Attributes)
--------------------------------        ----        ----        ------- ----- ------------
_CODE                               00000200    00000ED4 =        3796. bytes (REL,CON)

      Value  Global                              Global Defined In Module
      -----  --------------------------------   ------------------------
     00000200  ___HandleCrash                     
     0000020A  _SIO_send_byte                     
     0000021D  _SIO_receive                       
     0000022E  _GetWinAddr                        
     00000236  _GetBkgAddr                        
     00000244  _state_init                        
     00000249  _state_update                      
     0000026B  _ui_time_masks                     
     00000273  _ui_print_shift_char               
     000002F6  _ui_draw_frame_row                 
     000002FF  .ui_draw_frame_row                 
     00000328  _script_cmds                       vm_instructions
     00000560  _save_signature                    game_signature
     00000564  _start_scene_x                     
     00000566  _start_scene_y                     
     00000568  _start_scene_dir                   
     00000569  _start_scene                       
     0000056C  _start_player_move_speed           
     0000056D  _start_player_anim_tick            
     0000056E  _ui_fonts                          
     00000574  _core_reset_hook                   main
     0000057C  _main                              main
     00000584  _state_start_fns                   
     00000596  _state_update_fns                  
     000005A8  _hUGE_init                         hUGEDriver_obj
     000005AA  hUGE_init                          hUGEDriver_obj
     00000600  _hUGE_mute_channel                 hUGEDriver_obj
     00000602  hUGE_mute_channel                  hUGEDriver_obj
     00000850  _hUGE_set_position                 hUGEDriver_obj
     00000852  hUGE_set_position                  hUGEDriver_obj
     00000A17  _hUGE_dosound                      hUGEDriver_obj
     00000A17  hUGE_dosound                       hUGEDriver_obj
     00000D43  _get_vram_byte                     
     00000D4B  _get_win_tile_xy                   
     00000D53  _get_bkg_tile_xy                   
     00000D7A  _set_sprite_palette                CGB
     00000D7F  _set_bkg_palette                   CGB
     00000D82  .set_palette                       CGB
     00000DA1  _set_sprite_palette_entry          CGB
     00000DA6  _set_bkg_palette_entry             CGB
     00000DA9  .set_palette_entry                 CGB
     00000DC5  _hide_sprites_range                Metasprites
     00000DF4  __mulsuchar                        mul
     00000DF7  __muluschar                        mul
     00000E00  __mulschar                         mul
     00000E08  __mulint                           mul
     00000E27  __muluchar                         mul
     00000E39  _set_vram_byte                     
     00000E42  _set_win_tile_xy                   
     00000E4B  _set_bkg_tile_xy                   
ASxxxx Linker V03.00/V05.40 + sdld,  page 33.
Hexadecimal  [32-Bits]

Area                                    Addr        Size        Decimal Bytes (Attributes)
--------------------------------        ----        ----        ------- ----- ------------
_CODE                               00000200    00000ED4 =        3796. bytes (REL,CON)

      Value  Global                              Global Defined In Module
      -----  --------------------------------   ------------------------
     00000E7A  .sgb_check                         
     00000E7A  _sgb_check                         
     00000EC2  _sgb_transfer                      
     00000EC7  .sgb_transfer                      
     00000F08  .copy_vram                         
     00000F0E  _get_data                          
     00000F0E  _set_data                          
     00000F0E  _vmemcpy                           
     00000F5C  ___move_metasprite                 Metasprites
     00000F99  ___memcpy                          
     00000F99  _memcpy                            
     00000FCB  _cpu_slow                          CGB
     00000FE6  _cpu_fast                          CGB
     00000FED  __divsuchar                        divmod
     00000FF3  __modsuchar                        divmod
     00000FFC  __divuschar                        divmod
     00001005  __moduschar                        divmod
     00001011  __divschar                         divmod
     00001016  __modschar                         divmod
     0000101D  __divsint                          divmod
     00001026  __modsint                          divmod
     00001032  __divuchar                         divmod
     00001037  __moduchar                         divmod
     0000103E  __divuint                          divmod
     00001047  __moduint                          divmod
     00001053  .div8                              divmod
     00001053  .mod8                              divmod
     0000105B  .div16                             divmod
     0000105B  .mod16                             divmod
     00001091  .divu8                             divmod
     00001091  .modu8                             divmod
     00001094  .divu16                            divmod
     00001094  .modu16                            divmod

ASxxxx Linker V03.00/V05.40 + sdld,  page 34.
Hexadecimal  [32-Bits]

Area                                    Addr        Size        Decimal Bytes (Attributes)
--------------------------------        ----        ----        ------- ----- ------------
_HEADER0                            00000000    00000001 =           1. bytes (ABS,CON)

      Value  Global                              Global Defined In Module
      -----  --------------------------------   ------------------------
     00000020  .call_hl                           Runtime

ASxxxx Linker V03.00/V05.40 + sdld,  page 35.
Hexadecimal  [32-Bits]

Area                                    Addr        Size        Decimal Bytes (Attributes)
--------------------------------        ----        ----        ------- ----- ------------
_HEADER1                            00000000    00000005 =           5. bytes (ABS,CON)

      Value  Global                              Global Defined In Module
      -----  --------------------------------   ------------------------
     00000028  .MemsetSmall                       Runtime

ASxxxx Linker V03.00/V05.40 + sdld,  page 36.
Hexadecimal  [32-Bits]

Area                                    Addr        Size        Decimal Bytes (Attributes)
--------------------------------        ----        ----        ------- ----- ------------
_HEADER2                            00000000    00000007 =           7. bytes (ABS,CON)

      Value  Global                              Global Defined In Module
      -----  --------------------------------   ------------------------
     00000030  .MemcpySmall                       Runtime

ASxxxx Linker V03.00/V05.40 + sdld,  page 37.
Hexadecimal  [32-Bits]

Area                                    Addr        Size        Decimal Bytes (Attributes)
--------------------------------        ----        ----        ------- ----- ------------
_HEADER3                            00000000    00000008 =           8. bytes (ABS,CON)

      Value  Global                              Global Defined In Module
      -----  --------------------------------   ------------------------
ASxxxx Linker V03.00/V05.40 + sdld,  page 38.
Hexadecimal  [32-Bits]

Area                                    Addr        Size        Decimal Bytes (Attributes)
--------------------------------        ----        ----        ------- ----- ------------
_HEADER4                            00000000    00000060 =          96. bytes (ABS,CON)

      Value  Global                              Global Defined In Module
      -----  --------------------------------   ------------------------
     00000080  .int                               Runtime
     0000008F  _wait_int_handler                  Runtime
     0000009C  __standard_VBL_handler             Runtime
     000000AB  _refresh_OAM                       Runtime
     000000CC  _set_interrupts                    Runtime

ASxxxx Linker V03.00/V05.40 + sdld,  page 39.
Hexadecimal  [32-Bits]

Area                                    Addr        Size        Decimal Bytes (Attributes)
--------------------------------        ----        ----        ------- ----- ------------
_HEADER5                            00000000    00000001 =           1. bytes (ABS,CON)

      Value  Global                              Global Defined In Module
      -----  --------------------------------   ------------------------
ASxxxx Linker V03.00/V05.40 + sdld,  page 40.
Hexadecimal  [32-Bits]

Area                                    Addr        Size        Decimal Bytes (Attributes)
--------------------------------        ----        ----        ------- ----- ------------
_HEADER6                            00000000    00000002 =           2. bytes (ABS,CON)

      Value  Global                              Global Defined In Module
      -----  --------------------------------   ------------------------
ASxxxx Linker V03.00/V05.40 + sdld,  page 41.
Hexadecimal  [32-Bits]

Area                                    Addr        Size        Decimal Bytes (Attributes)
--------------------------------        ----        ----        ------- ----- ------------
_HEADER7                            00000000    00000030 =          48. bytes (ABS,CON)

      Value  Global                              Global Defined In Module
      -----  --------------------------------   ------------------------
ASxxxx Linker V03.00/V05.40 + sdld,  page 42.
Hexadecimal  [32-Bits]

Area                                    Addr        Size        Decimal Bytes (Attributes)
--------------------------------        ----        ----        ------- ----- ------------
_HEADER8                            00000000    00000006 =           6. bytes (ABS,CON)

      Value  Global                              Global Defined In Module
      -----  --------------------------------   ------------------------
ASxxxx Linker V03.00/V05.40 + sdld,  page 43.
Hexadecimal  [32-Bits]

Area                                    Addr        Size        Decimal Bytes (Attributes)
--------------------------------        ----        ----        ------- ----- ------------
_HEADER9                            00000000    00000003 =           3. bytes (ABS,CON)

      Value  Global                              Global Defined In Module
      -----  --------------------------------   ------------------------
ASxxxx Linker V03.00/V05.40 + sdld,  page 44.
Hexadecimal  [32-Bits]

Area                                    Addr        Size        Decimal Bytes (Attributes)
--------------------------------        ----        ----        ------- ----- ------------
_HEADERa                            00000000    00000001 =           1. bytes (ABS,CON)

      Value  Global                              Global Defined In Module
      -----  --------------------------------   ------------------------
ASxxxx Linker V03.00/V05.40 + sdld,  page 45.
Hexadecimal  [32-Bits]

Area                                    Addr        Size        Decimal Bytes (Attributes)
--------------------------------        ----        ----        ------- ----- ------------
_HEADERb                            00000000    00000001 =           1. bytes (ABS,CON)

      Value  Global                              Global Defined In Module
      -----  --------------------------------   ------------------------
ASxxxx Linker V03.00/V05.40 + sdld,  page 46.
Hexadecimal  [32-Bits]

Area                                    Addr        Size        Decimal Bytes (Attributes)
--------------------------------        ----        ----        ------- ----- ------------
_HEADERc                            00000000    00000001 =           1. bytes (ABS,CON)

      Value  Global                              Global Defined In Module
      -----  --------------------------------   ------------------------
ASxxxx Linker V03.00/V05.40 + sdld,  page 47.
Hexadecimal  [32-Bits]

Area                                    Addr        Size        Decimal Bytes (Attributes)
--------------------------------        ----        ----        ------- ----- ------------
_HEADERd                            00000000    00000002 =           2. bytes (ABS,CON)

      Value  Global                              Global Defined In Module
      -----  --------------------------------   ------------------------
ASxxxx Linker V03.00/V05.40 + sdld,  page 48.
Hexadecimal  [32-Bits]

Area                                    Addr        Size        Decimal Bytes (Attributes)
--------------------------------        ----        ----        ------- ----- ------------
_HEADERe                            00000000    00000001 =           1. bytes (ABS,CON)

      Value  Global                              Global Defined In Module
      -----  --------------------------------   ------------------------
ASxxxx Linker V03.00/V05.40 + sdld,  page 49.
Hexadecimal  [32-Bits]

Area                                    Addr        Size        Decimal Bytes (Attributes)
--------------------------------        ----        ----        ------- ----- ------------
_HEADERf                            00000000    00000001 =           1. bytes (ABS,CON)

      Value  Global                              Global Defined In Module
      -----  --------------------------------   ------------------------
ASxxxx Linker V03.00/V05.40 + sdld,  page 50.
Hexadecimal  [32-Bits]

Area                                    Addr        Size        Decimal Bytes (Attributes)
--------------------------------        ----        ----        ------- ----- ------------
_HEADER10                           00000000    00000002 =           2. bytes (ABS,CON)

      Value  Global                              Global Defined In Module
      -----  --------------------------------   ------------------------
ASxxxx Linker V03.00/V05.40 + sdld,  page 51.
Hexadecimal  [32-Bits]

Area                                    Addr        Size        Decimal Bytes (Attributes)
--------------------------------        ----        ----        ------- ----- ------------
_HEADER11                           00000000    000000AB =         171. bytes (ABS,CON)

      Value  Global                              Global Defined In Module
      -----  --------------------------------   ------------------------
     00000150  .reset                             Runtime
     00000150  _reset                             Runtime
     00000157  .code_start                        Runtime
     000001B9  _exit                              Runtime
     000001BD  .wait_vbl_done                     Runtime
     000001BD  _vsync                             Runtime
     000001BD  _wait_vbl_done                     Runtime
     000001CD  .remove_VBL                        Runtime
     000001CD  _remove_VBL                        Runtime
     000001D0  .remove_int                        Runtime
     000001ED  .add_VBL                           Runtime
     000001ED  _add_VBL                           Runtime
     000001F0  .add_int                           Runtime

ASxxxx Linker V03.00/V05.40 + sdld,  page 52.
Hexadecimal  [32-Bits]

Area                                    Addr        Size        Decimal Bytes (Attributes)
--------------------------------        ----        ----        ------- ----- ------------
_HOME                               000010D4    00002DB1 =       11697. bytes (REL,CON)

      Value  Global                              Global Defined In Module
      -----  --------------------------------   ------------------------
     000010D4  .memset_simple                     Runtime
     000010DD  .memcpy_simple                     Runtime
     000010FA  .display_off                       Runtime
     000010FA  _display_off                       Runtime
     00001112  _actors_update                     actor
     0000157A  _SetBankedBkgData                  bankdata
     00001596  _SetBankedSpriteData               bankdata
     000015B2  _SetBankedBkgTiles                 bankdata
     000015CE  _SetBankedWinTiles                 bankdata
     000015EA  _ReadBankedFarPtr                  bankdata
     0000160C  _ReadBankedUWORD                   bankdata
     00001626  _MemcpyBanked                      bankdata
     00001648  _MemcpyVRAMBanked                  bankdata
     00001677  _IndexOfFarPtr                     bankdata
     000016FC  _camera_update                     camera
     0000182F  _load_animations                   data_manager
     00001888  _events_update                     events
     0000195B  _timers_update                     events
     000019E4  _input_update                      input
     00001A0A  .sio_ISR                           
     00001A64  .timer_ISR                         
     00001A79  _simple_LCD_isr                    interrupts
     00001AF8  _fullscreen_LCD_isr                interrupts
     00001B24  _VBL_isr                           interrupts
     00001B6E  _isqrt                             math
     00001BCB  _sine_wave                         math
     00001CCB  _dir_lookup                        math
     00001CD3  _dir_angle_lookup                  math
     00001CD7  _hUGETrackerRoutine                music_manager
     00001CFE  _music_events_update               music_manager
     00001D80  _music_play_isr                    music_manager
     00001E21  _parallax_LCD_isr                  parallax
     00001E5E  _projectiles_update                projectiles
     000022DF  _projectiles_render                projectiles
     00002434  _scroll_load_pending_row           scroll
     000024BA  _scroll_load_row                   scroll
     0000252F  _scroll_load_col                   scroll
     00002598  _scroll_load_pending_col           scroll
     00002620  _set_bkg_submap                    
     00002663  _set_xy_win_submap                 
     00002690  .set_xy_win_submap                 
     00002699  .set_xy_bkg_submap                 
     000026A8  .set_xy_submap                     
     000026F4  _sfx_play_isr                      sfx_player
     000027CD  _on_SIO_receive                    sio
     0000280E  _SIO_update                        sio
     00002875  _ui_update                         ui
     000029AD  _vm_sgb_transfer                   vm_sgb
     000029FA  _vm_load_text                      vm_ui
     00002C50  _vm_switch                         vm
ASxxxx Linker V03.00/V05.40 + sdld,  page 53.
Hexadecimal  [32-Bits]

Area                                    Addr        Size        Decimal Bytes (Attributes)
--------------------------------        ----        ----        ------- ----- ------------
_HOME                               000010D4    00002DB1 =       11697. bytes (REL,CON)

      Value  Global                              Global Defined In Module
      -----  --------------------------------   ------------------------
     00002D81  _vm_beginthread                    vm
     00002EA5  _vm_rpn                            vm
     000038BD  _vm_get_far                        vm
     0000392B  _vm_call_native                    vm
     0000393E  _VM_STEP                           vm
     000039A8  _script_runner_update              vm
     00003B0D  _fill_win_rect                     
     00003B1F  _rand                              
     00003B1F  _randw                             
     00003B4A  _initrand                          
     00003B4C  .initrand                          
     00003B55  _get_bkg_data                      
     00003B55  _get_win_data                      
     00003BA2  _get_sprite_data                   
     00003BD5  _abs                               abs
     00003BE2  _set_win_tiles                     
     00003BF6  _set_tile_data                     
     00003BFB  _set_bkg_data                      
     00003BFB  _set_win_data                      
     00003C03  _set_sprite_data                   
     00003C33  _reverse                           reverse
     00003C67  ___call__banked                    far_ptr
     00003C84  _to_far_ptr                        far_ptr
     00003CBA  .add_LCD                           
     00003CBA  _add_LCD                           
     00003CC0  .remove_LCD                        
     00003CC0  _remove_LCD                        
     00003CC6  .fill_rect_wtt                     
     00003CCF  .fill_rect_btt                     
     00003D1C  _joypad_init                       
     00003D6A  .joypad_ex                         
     00003D6A  _joypad_ex                         
     00003DB5  _fill_bkg_rect                     
     00003DC7  ___sdcc_call_hl                    call_hl
     00003DC8  _memset                            memset
     00003DFB  .set_xy_wtt                        SetTileMap
     00003E04  .set_xy_btt                        SetTileMap
     00003E13  .set_xy_tt                         SetTileMap
     00003E57  ___sdcc_bcall_ehl                  
     00003E71  _set_bkg_tiles                     
ASxxxx Linker V03.00/V05.40 + sdld,  page 54.
Hexadecimal  [32-Bits]

Area                                    Addr        Size        Decimal Bytes (Attributes)
--------------------------------        ----        ----        ------- ----- ------------
_INITIALIZER                        00003E85    0000001A =          26. bytes (REL,CON)

      Value  Global                              Global Defined In Module
      -----  --------------------------------   ------------------------
ASxxxx Linker V03.00/V05.40 + sdld,  page 55.
Hexadecimal  [32-Bits]

Area                                    Addr        Size        Decimal Bytes (Attributes)
--------------------------------        ----        ----        ------- ----- ------------
_GSINIT                             00003E9F    00000027 =          39. bytes (REL,CON)

      Value  Global                              Global Defined In Module
      -----  --------------------------------   ------------------------
     00003E9F  gsinit                             Runtime

ASxxxx Linker V03.00/V05.40 + sdld,  page 56.
Hexadecimal  [32-Bits]

Area                                    Addr        Size        Decimal Bytes (Attributes)
--------------------------------        ----        ----        ------- ----- ------------
_GSFINAL                            00003EC6    00000001 =           1. bytes (REL,CON)

      Value  Global                              Global Defined In Module
      -----  --------------------------------   ------------------------
ASxxxx Linker V03.00/V05.40 + sdld,  page 57.
Hexadecimal  [32-Bits]

Area                                    Addr        Size        Decimal Bytes (Attributes)
--------------------------------        ----        ----        ------- ----- ------------
_DATA                               0000C0A0    00001994 =        6548. bytes (REL,CON)

      Value  Global                              Global Defined In Module
      -----  --------------------------------   ------------------------
     0000C0A0  __cpu                              Runtime
     0000C0A1  __is_GBA                           Runtime
     0000C0A2  .mode                              Runtime
     0000C0A3  .sys_time                          Runtime
     0000C0A3  _sys_time                          Runtime
     0000C0A5  .int_0x40                          Runtime
     0000C0B1  _actors                            actor
     0000C4F5  _actors_active_head                actor
     0000C4F7  _actors_active_tail                actor
     0000C4F9  _actors_inactive_head              actor
     0000C4FB  _screen_x                          actor
     0000C4FC  _screen_y                          actor
     0000C4FD  _invalid                           actor
     0000C4FF  _player_moving                     actor
     0000C500  _player_iframes                    actor
     0000C501  _player_collision_actor            actor
     0000C503  _emote_actor                       actor
     0000C505  _emote_timer                       actor
     0000C506  _allocated_sprite_tiles            actor
     0000C507  _allocated_hardware_sprites        actor
     0000C514  _camera_x                          camera
     0000C516  _camera_y                          camera
     0000C518  _camera_offset_x                   camera
     0000C519  _camera_offset_y                   camera
     0000C51A  _camera_deadzone_x                 camera
     0000C51B  _camera_deadzone_y                 camera
     0000C51C  _camera_settings                   camera
     0000C520  _current_scene                     data_manager
     0000C523  _image_bank                        data_manager
     0000C524  _image_ptr                         data_manager
     0000C526  _image_attr_bank                   data_manager
     0000C527  _image_attr_ptr                    data_manager
     0000C529  _collision_bank                    data_manager
     0000C52A  _collision_ptr                     data_manager
     0000C52C  _image_tile_width                  data_manager
     0000C52D  _image_tile_height                 data_manager
     0000C52E  _image_width                       data_manager
     0000C530  _image_height                      data_manager
     0000C532  _sprites_len                       data_manager
     0000C533  _actors_len                        data_manager
     0000C534  _projectiles_len                   data_manager
     0000C535  _player_sprite_len                 data_manager
     0000C536  _scene_type                        data_manager
     0000C537  _scene_LCD_type                    data_manager
     0000C538  _scene_stack                       data_manager
     0000C578  _scene_stack_ptr                   data_manager
     0000C57A  _scene_sprites_base_tiles          data_manager
     0000C5BA  _input_events                      events
     0000C5E2  _input_slots                       events
     0000C5EA  _timer_events                      events
ASxxxx Linker V03.00/V05.40 + sdld,  page 58.
Hexadecimal  [32-Bits]

Area                                    Addr        Size        Decimal Bytes (Attributes)
--------------------------------        ----        ----        ------- ----- ------------
_DATA                               0000C0A0    00001994 =        6548. bytes (REL,CON)

      Value  Global                              Global Defined In Module
      -----  --------------------------------   ------------------------
     0000C5FE  _timer_values                      events
     0000C606  _fade_running                      fade_manager
     0000C607  _fade_frames_per_step              fade_manager
     0000C608  _fade_timer                        fade_manager
     0000C610  _joypads                           input
     0000C615  _frame_joy                         input
     0000C616  _last_joy                          input
     0000C617  _recent_joy                        input
     0000C618  _SIO_status                        
     0000C619  _link_byte_sent                    
     0000C61A  _link_next_mode                    
     0000C61B  _save_blob_size                    load_save
     0000C61D  _routine_queue                     music_manager
     0000C621  _routine_queue_head                music_manager
     0000C622  _routine_queue_tail                music_manager
     0000C623  _music_events                      music_manager
     0000C637  _music_current_track_bank          music_manager
     0000C638  _music_mute_mask                   music_manager
     0000C639  _music_effective_mute              music_manager
     0000C63A  _music_next_track                  music_manager
     0000C63C  _music_current_track               music_manager
     0000C63E  _music_play_isr_counter            music_manager
     0000C63F  _music_play_isr_pause              music_manager
     0000C640  _music_global_mute_mask            music_manager
     0000C641  _music_sfx_priority                music_manager
     0000C642  _DMG_palette                       palette
     0000C645  _SprPalette                        palette
     0000C685  _parallax_rows                     parallax
     0000C697  _parallax_row                      parallax
     0000C699  _projectiles                       projectiles
     0000C752  _projectile_defs                   projectiles
     0000C7C5  _projectiles_active_head           projectiles
     0000C7C7  _projectiles_inactive_head         projectiles
     0000C7CE  _scroll_x                          scroll
     0000C7D0  _scroll_y                          scroll
     0000C7D2  _draw_scroll_x                     scroll
     0000C7D4  _draw_scroll_y                     scroll
     0000C7D6  _scroll_x_max                      scroll
     0000C7D8  _scroll_y_max                      scroll
     0000C7DA  _scroll_offset_x                   scroll
     0000C7DB  _scroll_offset_y                   scroll
     0000C7DC  _pending_h_x                       scroll
     0000C7DD  _pending_h_y                       scroll
     0000C7DE  _pending_h_i                       scroll
     0000C7DF  _pending_w_x                       scroll
     0000C7E0  _pending_w_y                       scroll
     0000C7E1  _pending_w_i                       scroll
     0000C7E2  _current_row                       scroll
     0000C7E4  _new_row                           scroll
     0000C7E6  _current_col                       scroll
     0000C7E8  _new_col                           scroll
ASxxxx Linker V03.00/V05.40 + sdld,  page 59.
Hexadecimal  [32-Bits]

Area                                    Addr        Size        Decimal Bytes (Attributes)
--------------------------------        ----        ----        ------- ----- ------------
_DATA                               0000C0A0    00001994 =        6548. bytes (REL,CON)

      Value  Global                              Global Defined In Module
      -----  --------------------------------   ------------------------
     0000C7EA  .image_tile_width                  
     0000C7EB  _sfx_play_bank                     sfx_player
     0000C7EC  _sfx_play_sample                   sfx_player
     0000C7EE  _sfx_frame_skip                    sfx_player
     0000C7EF  _link_operation_mode               sio
     0000C7F0  _link_packet                       sio
     0000C810  _link_packet_len                   sio
     0000C811  _link_packet_ptr                   sio
     0000C813  _link_packet_received              sio
     0000C814  _link_packet_snd_len               sio
     0000C815  _link_packet_snd_ptr               sio
     0000C817  _link_packet_sent                  sio
     0000C818  __is_CGB                           system
     0000C819  __is_SGB                           system
     0000C81A  __current_ram_bank                 system
     0000C81B  _triggers                          trigger
     0000C913  _last_trigger_tx                   trigger
     0000C914  _last_trigger_ty                   trigger
     0000C915  _last_trigger                      trigger
     0000C916  _win_pos_x                         ui
     0000C917  _win_dest_pos_x                    ui
     0000C918  _win_pos_y                         ui
     0000C919  _win_dest_pos_y                    ui
     0000C91A  _win_speed                         ui
     0000C91B  _text_drawn                        ui
     0000C91C  _current_text_speed                ui
     0000C91D  _text_wait                         ui
     0000C91E  _text_options                      ui
     0000C91F  _text_in_speed                     ui
     0000C920  _text_out_speed                    ui
     0000C921  _text_draw_speed                   ui
     0000C922  _text_ff_joypad                    ui
     0000C923  _text_ff                           ui
     0000C924  _text_bkg_fill                     ui
     0000C925  _ui_text_data                      ui
     0000CA2F  _vwf_current_mask                  ui
     0000CA30  _vwf_current_rotate                ui
     0000CA31  _vwf_inverse_map                   ui
     0000CA32  _vwf_direction                     ui
     0000CA33  _vwf_current_font_desc             ui
     0000CA3B  _vwf_current_font_bank             ui
     0000CA3C  _vwf_current_font_idx              ui
     0000CA3D  _text_render_base_addr             ui
     0000CA3F  _text_scroll_addr                  ui
     0000CA41  _text_scroll_width                 ui
     0000CA42  _text_scroll_height                ui
     0000CA43  _text_scroll_fill                  ui
     0000CA44  _text_sound_mask                   ui
     0000CA45  _text_sound_bank                   ui
     0000CA46  _text_sound_data                   ui
     0000CA48  _overlay_priority                  ui
ASxxxx Linker V03.00/V05.40 + sdld,  page 60.
Hexadecimal  [32-Bits]

Area                                    Addr        Size        Decimal Bytes (Attributes)
--------------------------------        ----        ----        ------- ----- ------------
_DATA                               0000C0A0    00001994 =        6548. bytes (REL,CON)

      Value  Global                              Global Defined In Module
      -----  --------------------------------   ------------------------
     0000CA49  _text_palette                      ui
     0000CA50  __itoa_fmt_len                     vm_ui_a
     0000CA51  .itoa_fmt_buf                      vm_ui_a
     0000CA54  _CTXS                              vm
     0000CB84  _first_ctx                         vm
     0000CB86  _free_ctxs                         vm
     0000CB88  _old_executing_ctx                 vm
     0000CB8A  _executing_ctx                     vm
     0000CB8C  _vm_lock_state                     vm
     0000CB8D  _vm_loaded_state                   vm
     0000CB8E  _vm_exception_code                 vm
     0000CB8F  _vm_exception_params_length        vm
     0000CB90  _vm_exception_params_bank          vm
     0000CB91  _vm_exception_params_offset        vm
     0000CB95  _script_memory                     vm
     0000D99B  _grounded                          platform
     0000D99C  _on_slope                          platform
     0000D99D  _slope_y                           platform
     0000D99E  _on_ladder                         platform
     0000D99F  _pl_vel_x                          platform
     0000D9A1  _pl_vel_y                          platform
     0000D9A3  _plat_min_vel                      platform
     0000D9A5  _plat_walk_vel                     platform
     0000D9A7  _plat_climb_vel                    platform
     0000D9A9  _plat_run_vel                      platform
     0000D9AB  _plat_walk_acc                     platform
     0000D9AD  _plat_run_acc                      platform
     0000D9AF  _plat_dec                          platform
     0000D9B1  _plat_jump_vel                     platform
     0000D9B3  _plat_grav                         platform
     0000D9B5  _plat_hold_grav                    platform
     0000D9B7  _plat_max_fall_vel                 platform
     0000D9B9  _shooter_reached_end               shmup
     0000D9BA  _shooter_dest                      shmup
     0000D9BC  _shooter_direction                 shmup
     0000D9BD  _topdown_grid                      topdown
     0000D9BE  ___rand_seed                       
     0000D9DC  _hUGE_current_wave                 hUGEDriver_obj
     0000D9DC  hUGE_current_wave                  hUGEDriver_obj
     0000D9DD  _hUGE_mute_mask                    hUGEDriver_obj
     0000DA24  ___call_banked_addr                far_ptr
     0000DA24  ___call_banked_ptr                 far_ptr
     0000DA26  ___call_banked_bank                far_ptr
     0000DA28  .int_0x48                          
     0000DA30  ___current_metasprite              Metasprites
     0000DA32  ___current_base_tile               Metasprites
     0000DA33  ___current_base_prop               Metasprites

ASxxxx Linker V03.00/V05.40 + sdld,  page 61.
Hexadecimal  [32-Bits]

Area                                    Addr        Size        Decimal Bytes (Attributes)
--------------------------------        ----        ----        ------- ----- ------------
_INITIALIZED                        0000DA34    0000001A =          26. bytes (REL,CON)

      Value  Global                              Global Defined In Module
      -----  --------------------------------   ------------------------
     0000DA34  _fade_style                        fade_manager
     0000DA35  _game_time                         game_time
     0000DA36  _PRN_PKT_START                     gbprinter
     0000DA44  _hide_sprites                      interrupts
     0000DA45  _show_actors_on_overlay            interrupts
     0000DA46  _overlay_cut_scanline              interrupts
     0000DA47  __submap_tile_offset               
     0000DA48  _triggers_len                      trigger
     0000DA49  _exchange_state                    vm_sio
     0000DA4A  _last_hit_trigger                  pointnclick
     0000DA4B  _shooter_scroll_speed              shmup
     0000DA4C  ___render_shadow_OAM               Metasprites
     0000DA4D  __map_tile_offset                  SetTileMap

ASxxxx Linker V03.00/V05.40 + sdld,  page 62.
Hexadecimal  [32-Bits]

Area                                    Addr        Size        Decimal Bytes (Attributes)
--------------------------------        ----        ----        ------- ----- ------------
_HRAM12                             00000000    00000003 =           3. bytes (ABS,CON)

      Value  Global                              Global Defined In Module
      -----  --------------------------------   ------------------------
     0000FF90  __current_bank                     Runtime
     0000FF92  __shadow_OAM_base                  Runtime

ASxxxx Linker V03.00/V05.40 + sdld,  page 63.
Hexadecimal  [32-Bits]

Area                                    Addr        Size        Decimal Bytes (Attributes)
--------------------------------        ----        ----        ------- ----- ------------
_CODE_9                             00094000    00003FFE =       16382. bytes (REL,CON)

      Value  Global                              Global Defined In Module
      -----  --------------------------------   ------------------------
     00094000  ___func_ACTOR                      actor
     00094000  _actors_init                       actor
     0009403A  _emote_offsets                     actor
     00094049  _emote_metasprite                  actor
     00094055  _player_init                       actor
     0009406A  _deactivate_actor                  actor
     000941CB  _activate_actor                    actor
     0009430A  _activate_actors_in_row            actor
     00094401  _activate_actors_in_col            actor
     00094552  _actor_set_frames                  actor
     000945A8  _actor_set_frame_offset            actor
     000945E3  _actor_get_frame_offset            actor
     000945F5  _actor_set_anim_idle               actor
     00094623  _actor_set_anim_moving             actor
     00094654  _actor_set_dir                     actor
     000946B9  _actor_at_tile                     actor
     0009478D  _actor_in_front_of_player          actor
     00094841  _actor_overlapping_player          actor
     00094ADA  _actor_overlapping_bb              actor
     00094CF9  _actors_handle_player_collision    actor
     00094D85  _check_collision_in_direction      actor
     000955A3  ___func_VM_ACTOR                   vm_actor
     000955A3  _vm_actor_move_to                  vm_actor
     00095F3F  _vm_actor_move_cancel              vm_actor
     00095F75  _vm_actor_activate                 vm_actor
     00095FC6  _vm_actor_deactivate               vm_actor
     00096017  _vm_actor_begin_update             vm_actor
     0009609E  _vm_actor_terminate_update         vm_actor
     000960E5  _vm_actor_set_dir                  vm_actor
     0009612E  _vm_actor_set_anim                 vm_actor
     000961BC  _vm_actor_set_pos                  vm_actor
     00096236  _vm_actor_get_pos                  vm_actor
     000962A5  _vm_actor_get_dir                  vm_actor
     0009631F  _vm_actor_get_angle                vm_actor
     000963A0  _vm_actor_emote                    vm_actor
     00096464  _vm_actor_set_bounds               vm_actor
     000964C2  _vm_actor_set_spritesheet          vm_actor
     0009658C  _vm_actor_replace_tile             vm_actor
     000965F7  _vm_actor_set_anim_tick            vm_actor
     00096635  _vm_actor_set_move_speed           vm_actor
     00096673  _vm_actor_set_anim_frame           vm_actor
     000966B7  _vm_actor_get_anim_frame           vm_actor
     00096701  _vm_actor_set_anim_set             vm_actor
     00096789  _vm_actor_set_spritesheet_by_ref   vm_actor
     00096896  _vm_actor_set_flags                vm_actor
     00096944  _scene_10_init                     scene_10_init
     00096947  GBVM$scene_10_init$0ebd6202_1a75   scene_10_init
     00096947  GBVM$scene_10_init$5b4533a4_b5d0   scene_10_init
     0009694C  GBVM$scene_10_init$autofade$3443   scene_10_init
     00096957  GBVM$scene_10_init$28df34de_4d51   scene_10_init
ASxxxx Linker V03.00/V05.40 + sdld,  page 64.
Hexadecimal  [32-Bits]

Area                                    Addr        Size        Decimal Bytes (Attributes)
--------------------------------        ----        ----        ------- ----- ------------
_CODE_9                             00094000    00003FFE =       16382. bytes (REL,CON)

      Value  Global                              Global Defined In Module
      -----  --------------------------------   ------------------------
     00096959  GBVM$scene_10_init$d42f2841_346b   scene_10_init
     0009698C  _platform_init                     platform
     00096B06  _platform_update                   platform

ASxxxx Linker V03.00/V05.40 + sdld,  page 65.
Hexadecimal  [32-Bits]

Area                                    Addr        Size        Decimal Bytes (Attributes)
--------------------------------        ----        ----        ------- ----- ------------
_CODE_29                            001D4000    00000267 =         615. bytes (REL,CON)

      Value  Global                              Global Defined In Module
      -----  --------------------------------   ------------------------
     001D4000  _bootstrap_script                  
     001D400B  ___func_scene_22_sprites           scene_22_sprites
     001D400B  _scene_22_sprites                  scene_22_sprites
     001D4011  ___func_scene_29_triggers          scene_29_triggers
     001D4011  _scene_29_triggers                 scene_29_triggers
     001D4019  ___func_scene_32_triggers          scene_32_triggers
     001D4019  _scene_32_triggers                 scene_32_triggers
     001D4021  ___func_scene_33_triggers          scene_33_triggers
     001D4021  _scene_33_triggers                 scene_33_triggers
     001D4029  ___func_scene_35_triggers          scene_35_triggers
     001D4029  _scene_35_triggers                 scene_35_triggers
     001D4031  ___func_scene_37_sprites           scene_37_sprites
     001D4031  _scene_37_sprites                  scene_37_sprites
     001D4034  ___func_scene_42_triggers          scene_42_triggers
     001D4034  _scene_42_triggers                 scene_42_triggers
     001D403C  ___func_scene_44_triggers          scene_44_triggers
     001D403C  _scene_44_triggers                 scene_44_triggers
     001D4044  ___func_scene_45_sprites           scene_45_sprites
     001D4044  _scene_45_sprites                  scene_45_sprites
     001D404A  ___func_scene_45_triggers          scene_45_triggers
     001D404A  _scene_45_triggers                 scene_45_triggers
     001D4052  ___func_scene_46_sprites           scene_46_sprites
     001D4052  _scene_46_sprites                  scene_46_sprites
     001D4058  ___func_scene_46_triggers          scene_46_triggers
     001D4058  _scene_46_triggers                 scene_46_triggers
     001D4060  ___func_scene_48_sprites           scene_48_sprites
     001D4060  _scene_48_sprites                  scene_48_sprites
     001D4066  ___func_scene_48_triggers          scene_48_triggers
     001D4066  _scene_48_triggers                 scene_48_triggers
     001D406E  ___func_scene_49_sprites           scene_49_sprites
     001D406E  _scene_49_sprites                  scene_49_sprites
     001D4074  ___func_scene_50_sprites           scene_50_sprites
     001D4074  _scene_50_sprites                  scene_50_sprites
     001D407A  ___func_scene_51_sprites           scene_51_sprites
     001D407A  _scene_51_sprites                  scene_51_sprites
     001D407D  ___func_scene_51_triggers          scene_51_triggers
     001D407D  _scene_51_triggers                 scene_51_triggers
     001D4085  ___func_scene_52_sprites           scene_52_sprites
     001D4085  _scene_52_sprites                  scene_52_sprites
     001D408B  ___func_scene_53_sprites           scene_53_sprites
     001D408B  _scene_53_sprites                  scene_53_sprites
     001D4091  ___func_scene_53_triggers          scene_53_triggers
     001D4091  _scene_53_triggers                 scene_53_triggers
     001D4099  ___func_scene_54_sprites           scene_54_sprites
     001D4099  _scene_54_sprites                  scene_54_sprites
     001D409C  ___func_scene_54_triggers          scene_54_triggers
     001D409C  _scene_54_triggers                 scene_54_triggers
     001D40A4  ___func_scene_55_triggers          scene_55_triggers
     001D40A4  _scene_55_triggers                 scene_55_triggers
     001D40AC  _scene_56_init                     scene_56_init
ASxxxx Linker V03.00/V05.40 + sdld,  page 66.
Hexadecimal  [32-Bits]

Area                                    Addr        Size        Decimal Bytes (Attributes)
--------------------------------        ----        ----        ------- ----- ------------
_CODE_29                            001D4000    00000267 =         615. bytes (REL,CON)

      Value  Global                              Global Defined In Module
      -----  --------------------------------   ------------------------
     001D40AD  GBVM$scene_56_init$autofade$5071   scene_56_init
     001D40B9  ___func_scene_56_triggers          scene_56_triggers
     001D40B9  _scene_56_triggers                 scene_56_triggers
     001D40C1  _scene_57_init                     scene_57_init
     001D40C2  GBVM$scene_57_init$autofade$9708   scene_57_init
     001D40CE  ___func_scene_58_sprites           scene_58_sprites
     001D40CE  _scene_58_sprites                  scene_58_sprites
     001D40D1  _scene_59_init                     scene_59_init
     001D40D2  GBVM$scene_59_init$autofade$fec9   scene_59_init
     001D40DE  ___func_scene_59_triggers          scene_59_triggers
     001D40DE  _scene_59_triggers                 scene_59_triggers
     001D40E6  _scene_60_init                     scene_60_init
     001D40E7  GBVM$scene_60_init$autofade$70c7   scene_60_init
     001D40F3  ___func_scene_60_sprites           scene_60_sprites
     001D40F3  _scene_60_sprites                  scene_60_sprites
     001D40F6  ___func_scene_60_triggers          scene_60_triggers
     001D40F6  _scene_60_triggers                 scene_60_triggers
     001D40FE  ___func_scene_61_sprites           scene_61_sprites
     001D40FE  _scene_61_sprites                  scene_61_sprites
     001D4101  ___func_scene_61_triggers          scene_61_triggers
     001D4101  _scene_61_triggers                 scene_61_triggers
     001D4109  _scene_63_init                     scene_63_init
     001D410A  GBVM$scene_63_init$autofade$8588   scene_63_init
     001D4116  ___func_scene_63_triggers          scene_63_triggers
     001D4116  _scene_63_triggers                 scene_63_triggers
     001D411E  ___func_scene_64_sprites           scene_64_sprites
     001D411E  _scene_64_sprites                  scene_64_sprites
     001D4121  _scene_65_init                     scene_65_init
     001D4122  GBVM$scene_65_init$autofade$40f2   scene_65_init
     001D412E  _scene_66_init                     scene_66_init
     001D412F  GBVM$scene_66_init$autofade$6bed   scene_66_init
     001D413B  _scene_67_init                     scene_67_init
     001D413C  GBVM$scene_67_init$autofade$7fa3   scene_67_init
     001D4148  ___func_scene_67_triggers          scene_67_triggers
     001D4148  _scene_67_triggers                 scene_67_triggers
     001D4150  _scene_68_init                     scene_68_init
     001D4151  GBVM$scene_68_init$autofade$6b0d   scene_68_init
     001D415D  ___func_scene_68_triggers          scene_68_triggers
     001D415D  _scene_68_triggers                 scene_68_triggers
     001D4165  ___func_scene_70_triggers          scene_70_triggers
     001D4165  _scene_70_triggers                 scene_70_triggers
     001D416D  ___func_scene_71_sprites           scene_71_sprites
     001D416D  _scene_71_sprites                  scene_71_sprites
     001D4170  _scene_72_init                     scene_72_init
     001D4171  GBVM$scene_72_init$autofade$2a33   scene_72_init
     001D417D  _scene_73_init                     scene_73_init
     001D417E  GBVM$scene_73_init$autofade$faa6   scene_73_init
     001D418A  ___func_scene_73_sprites           scene_73_sprites
     001D418A  _scene_73_sprites                  scene_73_sprites
     001D418D  ___func_scene_75_triggers          scene_75_triggers
     001D418D  _scene_75_triggers                 scene_75_triggers
ASxxxx Linker V03.00/V05.40 + sdld,  page 67.
Hexadecimal  [32-Bits]

Area                                    Addr        Size        Decimal Bytes (Attributes)
--------------------------------        ----        ----        ------- ----- ------------
_CODE_29                            001D4000    00000267 =         615. bytes (REL,CON)

      Value  Global                              Global Defined In Module
      -----  --------------------------------   ------------------------
     001D4195  ___func_scene_76_sprites           scene_76_sprites
     001D4195  _scene_76_sprites                  scene_76_sprites
     001D4198  ___func_scene_76_triggers          scene_76_triggers
     001D4198  _scene_76_triggers                 scene_76_triggers
     001D41A0  _scene_77_init                     scene_77_init
     001D41A1  GBVM$scene_77_init$autofade$5984   scene_77_init
     001D41AD  ___func_scene_77_triggers          scene_77_triggers
     001D41AD  _scene_77_triggers                 scene_77_triggers
     001D41B5  _scene_78_init                     scene_78_init
     001D41B6  GBVM$scene_78_init$autofade$fb5c   scene_78_init
     001D41C2  ___func_scene_78_triggers          scene_78_triggers
     001D41C2  _scene_78_triggers                 scene_78_triggers
     001D41CA  _scene_79_init                     scene_79_init
     001D41CB  GBVM$scene_79_init$autofade$863a   scene_79_init
     001D41D7  ___func_scene_79_triggers          scene_79_triggers
     001D41D7  _scene_79_triggers                 scene_79_triggers
     001D41DF  _scene_80_init                     scene_80_init
     001D41E0  GBVM$scene_80_init$autofade$e22a   scene_80_init
     001D41EC  _scene_81_init                     scene_81_init
     001D41ED  GBVM$scene_81_init$autofade$22f8   scene_81_init
     001D41F9  _scene_82_init                     scene_82_init
     001D41FA  GBVM$scene_82_init$autofade$9fda   scene_82_init
     001D4206  _scene_83_init                     scene_83_init
     001D4207  GBVM$scene_83_init$autofade$c58b   scene_83_init
     001D4213  _scene_84_init                     scene_84_init
     001D4214  GBVM$scene_84_init$autofade$f208   scene_84_init
     001D4220  ___func_scene_86_sprites           scene_86_sprites
     001D4220  _scene_86_sprites                  scene_86_sprites
     001D4223  _scene_88_init                     scene_88_init
     001D4224  GBVM$scene_88_init$autofade$a281   scene_88_init
     001D4230  ___func_scene_89_triggers          scene_89_triggers
     001D4230  _scene_89_triggers                 scene_89_triggers
     001D4238  ___func_scene_90_sprites           scene_90_sprites
     001D4238  _scene_90_sprites                  scene_90_sprites
     001D423B  ___func_scene_91_sprites           scene_91_sprites
     001D423B  _scene_91_sprites                  scene_91_sprites
     001D4241  ___func_scene_91_triggers          scene_91_triggers
     001D4241  _scene_91_triggers                 scene_91_triggers
     001D4249  ___func_scene_92_sprites           scene_92_sprites
     001D4249  _scene_92_sprites                  scene_92_sprites
     001D424C  _scene_93_init                     scene_93_init
     001D424D  GBVM$scene_93_init$autofade$ed30   scene_93_init
     001D4259  ___func_scene_93_triggers          scene_93_triggers
     001D4259  _scene_93_triggers                 scene_93_triggers
     001D4261  ___func_scene_99_sprites           scene_99_sprites
     001D4261  _scene_99_sprites                  scene_99_sprites
ASxxxx Linker V03.00/V05.40 + sdld,  page 68.
Hexadecimal  [32-Bits]

Area                                    Addr        Size        Decimal Bytes (Attributes)
--------------------------------        ----        ----        ------- ----- ------------
_CODE_11                            000B4000    00003FFF =       16383. bytes (REL,CON)

      Value  Global                              Global Defined In Module
      -----  --------------------------------   ------------------------
     000B4000  _camera_init                       camera
     000B4026  ___func_bg_pixil_frame_0_31_tile   bg_pixil_frame_0_31_tilemap_
     000B4026  _bg_pixil_frame_0_31_tilemap_att   bg_pixil_frame_0_31_tilemap_
     000B4B0C  ___func_bg_pixil_frame_0_31_tile   bg_pixil_frame_0_31_tilemap
     000B4B0C  _bg_pixil_frame_0_31_tilemap       bg_pixil_frame_0_31_tilemap
     000B55F2  ___func_bg_pixil_frame_0_33_tile   bg_pixil_frame_0_33_tilemap_
     000B55F2  _bg_pixil_frame_0_33_tilemap_att   bg_pixil_frame_0_33_tilemap_
     000B5B38  ___func_font_gbs_variable_width    font_gbs_variable_width
     000B69B3  _font_gbs_variable_width           font_gbs_variable_width
     000B69BB  ___func_scene_52_collisions        scene_52_collisions
     000B69BB  _scene_52_collisions               scene_52_collisions
     000B74DD  ___func_scene_53_collisions        scene_53_collisions
     000B74DD  _scene_53_collisions               scene_53_collisions

ASxxxx Linker V03.00/V05.40 + sdld,  page 69.
Hexadecimal  [32-Bits]

Area                                    Addr        Size        Decimal Bytes (Attributes)
--------------------------------        ----        ----        ------- ----- ------------
_CODE_18                            00124000    00003FFE =       16382. bytes (REL,CON)

      Value  Global                              Global Defined In Module
      -----  --------------------------------   ------------------------
     00124000  _core_reset                        core
     00124075  _process_VM                        core
     001242F3  _core_run                          core
     00124417  _projectiles_init                  projectiles
     00124446  _projectile_launch                 projectiles
     0012485D  _actor_11_interact                 actor_11_interact
     00124860  GBVM$actor_11_interact$2f57631d_   actor_11_interact
     00124872  GBVM$actor_11_interact$6db135a1_   actor_11_interact
     00124992  GBVM$actor_11_interact$faac8125_   actor_11_interact
     00124ACE  GBVM$actor_11_interact$03ee4182_   actor_11_interact
     00124ACE  GBVM_END$actor_11_interact$2f576   actor_11_interact
     00124B24  GBVM$actor_11_interact$4ec2a023_   actor_11_interact
     00124B2D  GBVM$actor_11_interact$8c3f6520_   actor_11_interact
     00124BC6  GBVM$actor_11_interact$1031c574_   actor_11_interact
     00124C39  GBVM$actor_11_interact$0c81dd0f_   actor_11_interact
     00124C7F  GBVM_END$actor_11_interact$4ec2a   actor_11_interact
     00124C80  ___func_bg_init_copy_0_tilemap_a   bg_init_copy_0_tilemap_attr
     00124C80  _bg_init_copy_0_tilemap_attr       bg_init_copy_0_tilemap_attr
     00125130  ___func_bg_init_copy_0_tilemap     bg_init_copy_0_tilemap
     00125130  _bg_init_copy_0_tilemap            bg_init_copy_0_tilemap
     001255E0  ___func_bg_init_copy_2_tilemap     bg_init_copy_2_tilemap
     001255E0  _bg_init_copy_2_tilemap            bg_init_copy_2_tilemap
     00125A54  ___func_bg_placeholder_copy_copy   bg_placeholder_copy_copy_co_
     00125A54  _bg_placeholder_copy_copy_co_til   bg_placeholder_copy_copy_co_
     00125EF6  ___func_scene_3_sprites            scene_3_sprites
     00125EF6  _scene_3_sprites                   scene_3_sprites
     00125EF9  ___func_scene_32_collisions        scene_32_collisions
     00125EF9  _scene_32_collisions               scene_32_collisions
     001263A9  ___func_scene_51_collisions        scene_51_collisions
     001263A9  _scene_51_collisions               scene_51_collisions
     00126859  ___func_scene_56_collisions        scene_56_collisions
     00126859  _scene_56_collisions               scene_56_collisions
     00126D09  ___func_scene_77_collisions        scene_77_collisions
     00126D09  _scene_77_collisions               scene_77_collisions
     001271B9  ___func_scene_91_collisions        scene_91_collisions
     001271B9  _scene_91_collisions               scene_91_collisions
     0012762D  ___func_scene_93_collisions        scene_93_collisions
     0012762D  _scene_93_collisions               scene_93_collisions
     00127AA1  ___func_scene_94_collisions        scene_94_collisions
     00127AA1  _scene_94_collisions               scene_94_collisions
     00127F15  ___func_sprite_pixelperfectvoti    sprite_pixelperfectvoti
     00127F15  _sprite_pixelperfectvoti_metaspr   sprite_pixelperfectvoti
     00127F21  _sprite_pixelperfectvoti_metaspr   sprite_pixelperfectvoti
     00127F2D  _sprite_pixelperfectvoti_metaspr   sprite_pixelperfectvoti
     00127F39  _sprite_pixelperfectvoti_metaspr   sprite_pixelperfectvoti
     00127F45  _sprite_pixelperfectvoti_metaspr   sprite_pixelperfectvoti
     00127F51  _sprite_pixelperfectvoti_metaspr   sprite_pixelperfectvoti
     00127F5D  _sprite_pixelperfectvoti_metaspr   sprite_pixelperfectvoti
     00127F69  _sprite_pixelperfectvoti_metaspr   sprite_pixelperfectvoti
     00127F75  _sprite_pixelperfectvoti_metaspr   sprite_pixelperfectvoti
ASxxxx Linker V03.00/V05.40 + sdld,  page 70.
Hexadecimal  [32-Bits]

Area                                    Addr        Size        Decimal Bytes (Attributes)
--------------------------------        ----        ----        ------- ----- ------------
_CODE_18                            00124000    00003FFE =       16382. bytes (REL,CON)

      Value  Global                              Global Defined In Module
      -----  --------------------------------   ------------------------
     00127F81  _sprite_pixelperfectvoti_metaspr   sprite_pixelperfectvoti
     00127F8D  _sprite_pixelperfectvoti_metaspr   sprite_pixelperfectvoti
     00127F99  _sprite_pixelperfectvoti_metaspr   sprite_pixelperfectvoti
     00127FA5  _sprite_pixelperfectvoti_metaspr   sprite_pixelperfectvoti
     00127FB1  _sprite_pixelperfectvoti_metaspr   sprite_pixelperfectvoti
     00127FBD  _sprite_pixelperfectvoti_metaspr   sprite_pixelperfectvoti
     00127FD9  _sprite_pixelperfectvoti_animati   sprite_pixelperfectvoti
     00127FE9  _sprite_pixelperfectvoti_animati   sprite_pixelperfectvoti
     00127FEB  _sprite_pixelperfectvoti           sprite_pixelperfectvoti

ASxxxx Linker V03.00/V05.40 + sdld,  page 71.
Hexadecimal  [32-Bits]

Area                                    Addr        Size        Decimal Bytes (Attributes)
--------------------------------        ----        ----        ------- ----- ------------
_CRASH_HEADER0                      00000000    00000005 =           5. bytes (ABS,CON)

      Value  Global                              Global Defined In Module
      -----  --------------------------------   ------------------------
ASxxxx Linker V03.00/V05.40 + sdld,  page 72.
Hexadecimal  [32-Bits]

Area                                    Addr        Size        Decimal Bytes (Attributes)
--------------------------------        ----        ----        ------- ----- ------------
_CRASH_HEADER1                      00000000    00000004 =           4. bytes (ABS,CON)

      Value  Global                              Global Defined In Module
      -----  --------------------------------   ------------------------
ASxxxx Linker V03.00/V05.40 + sdld,  page 73.
Hexadecimal  [32-Bits]

Area                                    Addr        Size        Decimal Bytes (Attributes)
--------------------------------        ----        ----        ------- ----- ------------
_CODE_20                            00144000    00003FFF =       16383. bytes (REL,CON)

      Value  Global                              Global Defined In Module
      -----  --------------------------------   ------------------------
     00144000  ___HandleCrash_banked              
     00144368  _printer_send_receive              gbprinter
     0014439E  _printer_send_byte                 gbprinter
     001443B1  _printer_send_command              gbprinter
     001443D4  _printer_print_tile                gbprinter
     00144465  _printer_wait                      gbprinter
     00144497  _gbprinter_detect                  gbprinter
     001444B1  _gbprinter_print_overlay           gbprinter
     0014467E  _trigger_reset                     trigger
     0014468E  _trigger_interact                  trigger
     001446CD  _trigger_activate_at               trigger
     00144718  _trigger_at_intersection           trigger
     0014483F  _trigger_activate_at_intersectio   trigger
     00144980  _trigger_at_tile                   trigger
     00144A11  ___func_bg_controls_gb_copy_0_ti   bg_controls_gb_copy_0_tilema
     00144A11  _bg_controls_gb_copy_0_tilemap_a   bg_controls_gb_copy_0_tilema
     00144DA7  ___func_bg_controls_gb_copy_0_ti   bg_controls_gb_copy_0_tilema
     00144DA7  _bg_controls_gb_copy_0_tilemap     bg_controls_gb_copy_0_tilema
     0014513D  ___func_bg_dhilly_game_9_tileset   bg_dhilly_game_9_tileset
     0014513D  _bg_dhilly_game_9_tileset          bg_dhilly_game_9_tileset
     0014545F  ___func_bg_lair_right_5_tileset    bg_lair_right_5_tileset
     0014545F  _bg_lair_right_5_tileset           bg_lair_right_5_tileset
     001457D1  ___func_bg_pixil_frame_0_24_tile   bg_pixil_frame_0_24_tilemap_
     001457D1  _bg_pixil_frame_0_24_tilemap_att   bg_pixil_frame_0_24_tilemap_
     00145AFB  ___func_bg_pixil_frame_0_24_tile   bg_pixil_frame_0_24_tilemap
     00145AFB  _bg_pixil_frame_0_24_tilemap       bg_pixil_frame_0_24_tilemap
     00145E25  ___func_bg_pixil_frame_0_30_tile   bg_pixil_frame_0_30_tilemap_
     00145E25  _bg_pixil_frame_0_30_tilemap_att   bg_pixil_frame_0_30_tilemap_
     001461A9  ___func_bg_pixil_frame_0_30_tile   bg_pixil_frame_0_30_tilemap
     001461A9  _bg_pixil_frame_0_30_tilemap       bg_pixil_frame_0_30_tilemap
     0014652D  ___func_bg_pixil_frame_0_copy_co   bg_pixil_frame_0_copy_copy__
     0014652D  _bg_pixil_frame_0_copy_copy__til   bg_pixil_frame_0_copy_copy__
     001468AF  ___func_bg_pixil_frame_23_0_tile   bg_pixil_frame_23_0_tileset
     001468AF  _bg_pixil_frame_23_0_tileset       bg_pixil_frame_23_0_tileset
     00146BE1  ___func_scene_15_collisions        scene_15_collisions
     00146BE1  _scene_15_collisions               scene_15_collisions
     00146F77  _scene_27_init                     scene_27_init
     00146F7A  GBVM$scene_27_init$f6db9430_269d   scene_27_init
     00146F7C  GBVM$scene_27_init$autofade$4d8c   scene_27_init
     00146F87  GBVM$scene_27_init$f045196f_3bd2   scene_27_init
     00146F93  GBVM$scene_27_init$62385220_ef2b   scene_27_init
     00146FA5  GBVM$scene_27_init$097f8f6e_6022   scene_27_init
     00147059  GBVM$scene_27_init$31d8ae29_d956   scene_27_init
     001470E0  GBVM$scene_27_init$60ab27dc_903a   scene_27_init
     001470E0  GBVM_END$scene_27_init$62385220_   scene_27_init
     001470E2  GBVM$scene_27_init$92ea26af_3cb6   scene_27_init
     001470FB  GBVM$scene_27_init$d5e1dca6_3b3c   scene_27_init
     00147107  GBVM$scene_27_init$365f7133_b168   scene_27_init
     00147157  GBVM$scene_27_init$d50ccc8a_61e1   scene_27_init
     00147159  GBVM$scene_27_init$40c79bb1_1dfa   scene_27_init
ASxxxx Linker V03.00/V05.40 + sdld,  page 74.
Hexadecimal  [32-Bits]

Area                                    Addr        Size        Decimal Bytes (Attributes)
--------------------------------        ----        ----        ------- ----- ------------
_CODE_20                            00144000    00003FFF =       16383. bytes (REL,CON)

      Value  Global                              Global Defined In Module
      -----  --------------------------------   ------------------------
     00147172  GBVM$scene_27_init$cf7b8698_a9c3   scene_27_init
     0014717E  GBVM$scene_27_init$91028f6c_8b49   scene_27_init
     001471BA  GBVM$scene_27_init$ab5eabbd_fa91   scene_27_init
     001471BC  GBVM$scene_27_init$b03fb982_44a9   scene_27_init
     001471D5  GBVM$scene_27_init$86d0fdad_6ad9   scene_27_init
     001471E1  GBVM$scene_27_init$a15aa6e4_ee48   scene_27_init
     0014721C  GBVM$scene_27_init$5e2ff3cd_9468   scene_27_init
     0014721E  GBVM$scene_27_init$0db791bc_ca55   scene_27_init
     00147237  GBVM$scene_27_init$38c554e3_2410   scene_27_init
     00147244  ___func_scene_29_collisions        scene_29_collisions
     00147244  _scene_29_collisions               scene_29_collisions
     0014756E  ___func_scene_30_collisions        scene_30_collisions
     0014756E  _scene_30_collisions               scene_30_collisions
     001478F2  ___func_scene_33_sprites           scene_33_sprites
     001478F2  _scene_33_sprites                  scene_33_sprites
     001478F5  ___func_scene_89_collisions        scene_89_collisions
     001478F5  _scene_89_collisions               scene_89_collisions
     00147C8B  _pointnclick_init                  pointnclick
     00147CC4  _pointnclick_update                pointnclick
ASxxxx Linker V03.00/V05.40 + sdld,  page 75.
Hexadecimal  [32-Bits]

Area                                    Addr        Size        Decimal Bytes (Attributes)
--------------------------------        ----        ----        ------- ----- ------------
_CRASH_SCRATCH2                     00000000    000001CB =         459. bytes (ABS,CON)

      Value  Global                              Global Defined In Module
      -----  --------------------------------   ------------------------
ASxxxx Linker V03.00/V05.40 + sdld,  page 76.
Hexadecimal  [32-Bits]

Area                                    Addr        Size        Decimal Bytes (Attributes)
--------------------------------        ----        ----        ------- ----- ------------
_CODE_12                            000C4000    00003FFF =       16383. bytes (REL,CON)

      Value  Global                              Global Defined In Module
      -----  --------------------------------   ------------------------
     000C4000  _load_init                         data_manager
     000C4013  _spritesheet_none_far              data_manager
     000C4016  _load_bkg_tileset                  data_manager
     000C40F3  _load_background                   data_manager
     000C41B9  _load_sprite                       data_manager
     000C428F  _load_bounds                       data_manager
     000C42AC  _do_load_palette                   data_manager
     000C4331  _load_scene                        data_manager
     000C49BD  _load_player                       data_manager
     000C4A06  _load_emote                        data_manager
     000C4A1F  ___func_bg_lencityopen_copy__til   bg_lencityopen_copy__tilemap
     000C4A1F  _bg_lencityopen_copy__tilemap_at   bg_lencityopen_copy__tilemap
     000C5343  ___func_bg_lencityopen_copy__til   bg_lencityopen_copy__tilemap
     000C5343  _bg_lencityopen_copy__tilemap      bg_lencityopen_copy__tilemap
     000C5C67  ___func_bg_placeholder_copy_copy   bg_placeholder_copy_copy_co_
     000C5C67  _bg_placeholder_copy_copy_co_til   bg_placeholder_copy_copy_co_
     000C662B  ___func_bg_title_copy__tileset     bg_title_copy__tileset
     000C662B  _bg_title_copy__tileset            bg_title_copy__tileset
     000C6B4D  ___func_scene_20_triggers          scene_20_triggers
     000C6B4D  _scene_20_triggers                 scene_20_triggers
     000C6B55  ___func_scene_31_collisions        scene_31_collisions
     000C6B55  _scene_31_collisions               scene_31_collisions
     000C763B  ___func_scene_86_collisions        scene_86_collisions
     000C763B  _scene_86_collisions               scene_86_collisions
ASxxxx Linker V03.00/V05.40 + sdld,  page 77.
Hexadecimal  [32-Bits]

Area                                    Addr        Size        Decimal Bytes (Attributes)
--------------------------------        ----        ----        ------- ----- ------------
_CODE_27                            001B4000    00004000 =       16384. bytes (REL,CON)

      Value  Global                              Global Defined In Module
      -----  --------------------------------   ------------------------
     001B4000  _events_init                       events
     001B4040  _timers_init                       events
     001B4080  _restore_sram_bank                 flasher
     001B40B6  _restore_sram                      flasher
     001B40CC  _save_sram                         flasher
     001B40F8  _scroll_rect                       
     001B4135  ___func_VM_GBPRINTER               vm_gbprinter
     001B4135  _vm_print_detect                   vm_gbprinter
     001B4184  _vm_print_overlay                  vm_gbprinter
     001B41D9  ___func_VM_LOAD_SAVE               vm_load_save
     001B41D9  _vm_save_clear                     vm_load_save
     001B41E8  _vm_save_peek                      vm_load_save
     001B426A  ___func_VM_SCENE                   vm_scene
     001B426A  _vm_scene_push                     vm_scene
     001B42E0  _vm_scene_pop                      vm_scene
     001B42EE  _vm_scene_pop_all                  vm_scene
     001B42F9  _vm_scene_stack_reset              vm_scene
     001B4302  _actor_18_interact                 actor_18_interact
     001B4303  GBVM$actor_18_interact$c825261d_   actor_18_interact
     001B43A3  _actor_21_interact                 actor_21_interact
     001B43A6  GBVM$actor_21_interact$ba42fe0a_   actor_21_interact
     001B43AF  GBVM$actor_21_interact$92f1f7bb_   actor_21_interact
     001B43D2  GBVM$actor_21_interact$8520dd38_   actor_21_interact
     001B43F5  GBVM$actor_21_interact$c10e2420_   actor_21_interact
     001B4428  _actor_33_interact                 actor_33_interact
     001B4429  GBVM$actor_33_interact$a67beaa1_   actor_33_interact
     001B44BC  _actor_34_interact                 actor_34_interact
     001B44BD  GBVM$actor_34_interact$17e9f54c_   actor_34_interact
     001B4550  _actor_38_interact                 actor_38_interact
     001B4553  GBVM$actor_38_interact$89a4fb37_   actor_38_interact
     001B45AD  GBVM$actor_38_interact$946b2e7c_   actor_38_interact
     001B45E0  _actor_39_interact                 actor_39_interact
     001B45E1  GBVM$actor_39_interact$c5f768ac_   actor_39_interact
     001B4674  _actor_41_interact                 actor_41_interact
     001B4677  GBVM$actor_41_interact$db5288b9_   actor_41_interact
     001B4680  GBVM$actor_41_interact$3b768aea_   actor_41_interact
     001B46B2  GBVM$actor_41_interact$962b166a_   actor_41_interact
     001B46E9  GBVM$actor_41_interact$de6e1b4e_   actor_41_interact
     001B4702  GBVM$actor_41_interact$b452ad40_   actor_41_interact
     001B4707  GBVM_END$actor_41_interact$db528   actor_41_interact
     001B4708  _actor_42_interact                 actor_42_interact
     001B470B  GBVM$actor_42_interact$63768d5b_   actor_42_interact
     001B4714  GBVM$actor_42_interact$5f10e037_   actor_42_interact
     001B474F  GBVM$actor_42_interact$a21dbd82_   actor_42_interact
     001B4781  GBVM_END$actor_42_interact$63768   actor_42_interact
     001B4782  ___func_bg_dhilly_game_4_tileset   bg_dhilly_game_4_tileset
     001B4782  _bg_dhilly_game_4_tileset          bg_dhilly_game_4_tileset
     001B47E4  ___func_bg_init_copy_0_tileset     bg_init_copy_0_tileset
     001B47E4  _bg_init_copy_0_tileset            bg_init_copy_0_tileset
     001B4836  ___func_bg_intro_scenary_copy__t   bg_intro_scenary_copy__tiles
ASxxxx Linker V03.00/V05.40 + sdld,  page 78.
Hexadecimal  [32-Bits]

Area                                    Addr        Size        Decimal Bytes (Attributes)
--------------------------------        ----        ----        ------- ----- ------------
_CODE_27                            001B4000    00004000 =       16384. bytes (REL,CON)

      Value  Global                              Global Defined In Module
      -----  --------------------------------   ------------------------
     001B4836  _bg_intro_scenary_copy__tileset    bg_intro_scenary_copy__tiles
     001B4878  ___func_bg_intro_weather_copy__t   bg_intro_weather_copy__tiles
     001B4878  _bg_intro_weather_copy__tileset    bg_intro_weather_copy__tiles
     001B48CA  ___func_bg_lair_right_2_copy__ti   bg_lair_right_2_copy__tilese
     001B48CA  _bg_lair_right_2_copy__tileset     bg_lair_right_2_copy__tilese
     001B490C  ___func_bg_lair_right_2_tileset    bg_lair_right_2_tileset
     001B490C  _bg_lair_right_2_tileset           bg_lair_right_2_tileset
     001B497E  ___func_bg_lair_right_4_copy__ti   bg_lair_right_4_copy__tilese
     001B497E  _bg_lair_right_4_copy__tileset     bg_lair_right_4_copy__tilese
     001B4A00  ___func_bg_wakeupsquare_3_copy__   bg_wakeupsquare_3_copy__tile
     001B4A00  _bg_wakeupsquare_3_copy__tileset   bg_wakeupsquare_3_copy__tile
     001B4A72  ___func_emote_shock                emote_shock
     001B4A72  _emote_shock                       emote_shock
     001B4AB2  ___func_frame_image                frame_image
     001B4AB2  _frame_image                       frame_image
     001B4B42  ___func_palette_0                  palette_0
     001B4B42  _palette_0                         palette_0
     001B4B85  ___func_palette_1                  palette_1
     001B4B85  _palette_1                         palette_1
     001B4BC8  ___func_palette_10                 palette_10
     001B4BC8  _palette_10                        palette_10
     001B4C0B  ___func_palette_11                 palette_11
     001B4C0B  _palette_11                        palette_11
     001B4C4E  ___func_palette_12                 palette_12
     001B4C4E  _palette_12                        palette_12
     001B4C91  ___func_palette_13                 palette_13
     001B4C91  _palette_13                        palette_13
     001B4CD4  ___func_palette_14                 palette_14
     001B4CD4  _palette_14                        palette_14
     001B4D17  ___func_palette_15                 palette_15
     001B4D17  _palette_15                        palette_15
     001B4D5A  ___func_palette_16                 palette_16
     001B4D5A  _palette_16                        palette_16
     001B4D9D  ___func_palette_17                 palette_17
     001B4D9D  _palette_17                        palette_17
     001B4DE0  ___func_palette_18                 palette_18
     001B4DE0  _palette_18                        palette_18
     001B4E23  ___func_palette_19                 palette_19
     001B4E23  _palette_19                        palette_19
     001B4E66  ___func_palette_2                  palette_2
     001B4E66  _palette_2                         palette_2
     001B4EA9  ___func_palette_20                 palette_20
     001B4EA9  _palette_20                        palette_20
     001B4EEC  ___func_palette_21                 palette_21
     001B4EEC  _palette_21                        palette_21
     001B4F2F  ___func_palette_22                 palette_22
     001B4F2F  _palette_22                        palette_22
     001B4F72  ___func_palette_23                 palette_23
     001B4F72  _palette_23                        palette_23
     001B4FB5  ___func_palette_24                 palette_24
     001B4FB5  _palette_24                        palette_24
ASxxxx Linker V03.00/V05.40 + sdld,  page 79.
Hexadecimal  [32-Bits]

Area                                    Addr        Size        Decimal Bytes (Attributes)
--------------------------------        ----        ----        ------- ----- ------------
_CODE_27                            001B4000    00004000 =       16384. bytes (REL,CON)

      Value  Global                              Global Defined In Module
      -----  --------------------------------   ------------------------
     001B4FF8  ___func_palette_25                 palette_25
     001B4FF8  _palette_25                        palette_25
     001B503B  ___func_palette_26                 palette_26
     001B503B  _palette_26                        palette_26
     001B507E  ___func_palette_27                 palette_27
     001B507E  _palette_27                        palette_27
     001B50C1  ___func_palette_28                 palette_28
     001B50C1  _palette_28                        palette_28
     001B5104  ___func_palette_29                 palette_29
     001B5104  _palette_29                        palette_29
     001B5147  ___func_palette_3                  palette_3
     001B5147  _palette_3                         palette_3
     001B518A  ___func_palette_30                 palette_30
     001B518A  _palette_30                        palette_30
     001B51CD  ___func_palette_31                 palette_31
     001B51CD  _palette_31                        palette_31
     001B5210  ___func_palette_32                 palette_32
     001B5210  _palette_32                        palette_32
     001B5253  ___func_palette_33                 palette_33
     001B5253  _palette_33                        palette_33
     001B5296  ___func_palette_34                 palette_34
     001B5296  _palette_34                        palette_34
     001B52D9  ___func_palette_35                 palette_35
     001B52D9  _palette_35                        palette_35
     001B531C  ___func_palette_36                 palette_36
     001B531C  _palette_36                        palette_36
     001B535F  ___func_palette_37                 palette_37
     001B535F  _palette_37                        palette_37
     001B53A2  ___func_palette_38                 palette_38
     001B53A2  _palette_38                        palette_38
     001B53E5  ___func_palette_39                 palette_39
     001B53E5  _palette_39                        palette_39
     001B5428  ___func_palette_4                  palette_4
     001B5428  _palette_4                         palette_4
     001B546B  ___func_palette_40                 palette_40
     001B546B  _palette_40                        palette_40
     001B54AE  ___func_palette_41                 palette_41
     001B54AE  _palette_41                        palette_41
     001B54F1  ___func_palette_42                 palette_42
     001B54F1  _palette_42                        palette_42
     001B5534  ___func_palette_43                 palette_43
     001B5534  _palette_43                        palette_43
     001B5577  ___func_palette_44                 palette_44
     001B5577  _palette_44                        palette_44
     001B55BA  ___func_palette_45                 palette_45
     001B55BA  _palette_45                        palette_45
     001B55FD  ___func_palette_46                 palette_46
     001B55FD  _palette_46                        palette_46
     001B5640  ___func_palette_47                 palette_47
     001B5640  _palette_47                        palette_47
     001B5683  ___func_palette_48                 palette_48
ASxxxx Linker V03.00/V05.40 + sdld,  page 80.
Hexadecimal  [32-Bits]

Area                                    Addr        Size        Decimal Bytes (Attributes)
--------------------------------        ----        ----        ------- ----- ------------
_CODE_27                            001B4000    00004000 =       16384. bytes (REL,CON)

      Value  Global                              Global Defined In Module
      -----  --------------------------------   ------------------------
     001B5683  _palette_48                        palette_48
     001B56C6  ___func_palette_49                 palette_49
     001B56C6  _palette_49                        palette_49
     001B5709  ___func_palette_5                  palette_5
     001B5709  _palette_5                         palette_5
     001B574C  ___func_palette_50                 palette_50
     001B574C  _palette_50                        palette_50
     001B578F  ___func_palette_51                 palette_51
     001B578F  _palette_51                        palette_51
     001B57D2  ___func_palette_52                 palette_52
     001B57D2  _palette_52                        palette_52
     001B5815  ___func_palette_53                 palette_53
     001B5815  _palette_53                        palette_53
     001B5858  ___func_palette_54                 palette_54
     001B5858  _palette_54                        palette_54
     001B589B  ___func_palette_55                 palette_55
     001B589B  _palette_55                        palette_55
     001B58DE  ___func_palette_56                 palette_56
     001B58DE  _palette_56                        palette_56
     001B5921  ___func_palette_57                 palette_57
     001B5921  _palette_57                        palette_57
     001B5964  ___func_palette_58                 palette_58
     001B5964  _palette_58                        palette_58
     001B59A7  ___func_palette_59                 palette_59
     001B59A7  _palette_59                        palette_59
     001B59EA  ___func_palette_6                  palette_6
     001B59EA  _palette_6                         palette_6
     001B5A2D  ___func_palette_60                 palette_60
     001B5A2D  _palette_60                        palette_60
     001B5A70  ___func_palette_61                 palette_61
     001B5A70  _palette_61                        palette_61
     001B5AB3  ___func_palette_62                 palette_62
     001B5AB3  _palette_62                        palette_62
     001B5AF6  ___func_palette_63                 palette_63
     001B5AF6  _palette_63                        palette_63
     001B5B39  ___func_palette_64                 palette_64
     001B5B39  _palette_64                        palette_64
     001B5B7C  ___func_palette_65                 palette_65
     001B5B7C  _palette_65                        palette_65
     001B5BBF  ___func_palette_7                  palette_7
     001B5BBF  _palette_7                         palette_7
     001B5C02  ___func_palette_8                  palette_8
     001B5C02  _palette_8                         palette_8
     001B5C45  ___func_palette_9                  palette_9
     001B5C45  _palette_9                         palette_9
     001B5C88  _scene_0_init                      scene_0_init
     001B5C89  GBVM$scene_0_init$405297da_84b0_   scene_0_init
     001B5C91  GBVM$scene_0_init$9bbe38e7_e671_   scene_0_init
     001B5C91  GBVM_END$scene_0_init$405297da_8   scene_0_init
     001B5C94  GBVM$scene_0_init$autofade$b07ff   scene_0_init
     001B5CA0  ___func_scene_0                    scene_0
ASxxxx Linker V03.00/V05.40 + sdld,  page 81.
Hexadecimal  [32-Bits]

Area                                    Addr        Size        Decimal Bytes (Attributes)
--------------------------------        ----        ----        ------- ----- ------------
_CODE_27                            001B4000    00004000 =       16384. bytes (REL,CON)

      Value  Global                              Global Defined In Module
      -----  --------------------------------   ------------------------
     001B5CA0  _scene_0                           scene_0
     001B5CDB  _scene_1_init                      scene_1_init
     001B5CDE  GBVM$scene_1_init$autofade$acbf8   scene_1_init
     001B5CE9  GBVM$scene_1_init$90878362_b6c9_   scene_1_init
     001B5CEB  GBVM$scene_1_init$e0ece37a_2cb7_   scene_1_init
     001B5D1E  ___func_scene_1                    scene_1
     001B5D1E  _scene_1                           scene_1
     001B5D59  ___func_scene_10                   scene_10
     001B5D59  _scene_10                          scene_10
     001B5D94  ___func_scene_100                  scene_100
     001B5D94  _scene_100                         scene_100
     001B5DCF  _scene_11_init                     scene_11_init
     001B5DD2  GBVM$scene_11_init$autofade$d3df   scene_11_init
     001B5DDD  GBVM$scene_11_init$7c0e35e0_e9bc   scene_11_init
     001B5DDF  GBVM$scene_11_init$be180146_714d   scene_11_init
     001B5E12  ___func_scene_11                   scene_11
     001B5E12  _scene_11                          scene_11
     001B5E4D  ___func_scene_12                   scene_12
     001B5E4D  _scene_12                          scene_12
     001B5E88  ___func_scene_13                   scene_13
     001B5E88  _scene_13                          scene_13
     001B5EC3  ___func_scene_14                   scene_14
     001B5EC3  _scene_14                          scene_14
     001B5EFE  ___func_scene_15                   scene_15
     001B5EFE  _scene_15                          scene_15
     001B5F39  ___func_scene_16                   scene_16
     001B5F39  _scene_16                          scene_16
     001B5F74  ___func_scene_17                   scene_17
     001B5F74  _scene_17                          scene_17
     001B5FAF  ___func_scene_18_actors            scene_18_actors
     001B5FAF  _scene_18_actors                   scene_18_actors
     001B6017  _scene_18_init                     scene_18_init
     001B601A  GBVM$scene_18_init$fd2ab878_1d85   scene_18_init
     001B602F  GBVM$scene_18_init$1e879541_be5a   scene_18_init
     001B6039  GBVM$scene_18_init$16eafe3c_93ce   scene_18_init
     001B6043  GBVM$scene_18_init$06ffe308_f7bf   scene_18_init
     001B6043  GBVM$scene_18_init$b8a154ae_2f34   scene_18_init
     001B6043  GBVM_END$scene_18_init$fd2ab878_   scene_18_init
     001B6048  GBVM$scene_18_init$b43cd252_5218   scene_18_init
     001B6050  GBVM$scene_18_init$autofade$6a94   scene_18_init
     001B6050  GBVM_END$scene_18_init$b43cd252_   scene_18_init
     001B605C  ___func_scene_18                   scene_18
     001B605C  _scene_18                          scene_18
     001B6097  _scene_19_init                     scene_19_init
     001B609A  GBVM$scene_19_init$f022d835_d14e   scene_19_init
     001B60A4  GBVM$scene_19_init$autofade$5fb5   scene_19_init
     001B60AF  GBVM$scene_19_init$5e339b41_06ea   scene_19_init
     001B60D2  GBVM$scene_19_init$18a9dd7f_fb2d   scene_19_init
     001B60DC  GBVM$scene_19_init$09bb1942_818d   scene_19_init
     001B60E8  ___func_scene_19                   scene_19
     001B60E8  _scene_19                          scene_19
ASxxxx Linker V03.00/V05.40 + sdld,  page 82.
Hexadecimal  [32-Bits]

Area                                    Addr        Size        Decimal Bytes (Attributes)
--------------------------------        ----        ----        ------- ----- ------------
_CODE_27                            001B4000    00004000 =       16384. bytes (REL,CON)

      Value  Global                              Global Defined In Module
      -----  --------------------------------   ------------------------
     001B6123  _scene_2_init                      scene_2_init
     001B6126  GBVM$scene_2_init$cfcfe412_89ac_   scene_2_init
     001B612B  GBVM$scene_2_init$6794814f_caef_   scene_2_init
     001B612D  GBVM$scene_2_init$fe03defa_8c2c_   scene_2_init
     001B6137  GBVM$scene_2_init$11b74723_07ec_   scene_2_init
     001B613F  GBVM$scene_2_init$b916dd51_674c_   scene_2_init
     001B613F  GBVM_END$scene_2_init$11b74723_0   scene_2_init
     001B6147  GBVM$scene_2_init$4b99ebdd_1a30_   scene_2_init
     001B6147  GBVM_END$scene_2_init$b916dd51_6   scene_2_init
     001B614F  GBVM$scene_2_init$20f47ec9_9ac5_   scene_2_init
     001B614F  GBVM_END$scene_2_init$4b99ebdd_1   scene_2_init
     001B6157  GBVM$scene_2_init$autofade$bbb2e   scene_2_init
     001B6157  GBVM_END$scene_2_init$20f47ec9_9   scene_2_init
     001B6163  ___func_scene_2                    scene_2
     001B6163  _scene_2                           scene_2
     001B619E  ___func_scene_20                   scene_20
     001B619E  _scene_20                          scene_20
     001B61D9  ___func_scene_22_actors            scene_22_actors
     001B61D9  _scene_22_actors                   scene_22_actors
     001B6241  _scene_23_init                     scene_23_init
     001B6244  GBVM$scene_23_init$ef6694f4_11af   scene_23_init
     001B6246  GBVM$scene_23_init$autofade$a839   scene_23_init
     001B6251  GBVM$scene_23_init$42a485ec_fd03   scene_23_init
     001B625D  GBVM$scene_23_init$c33a5604_37ca   scene_23_init
     001B62A5  GBVM$scene_23_init$78d1d478_e3a7   scene_23_init
     001B62B1  GBVM$scene_23_init$8adb6a1f_6bb9   scene_23_init
     001B62E4  _scene_24_init                     scene_24_init
     001B62E7  GBVM$scene_24_init$autofade$fc3d   scene_24_init
     001B62F2  GBVM$scene_24_init$063e0517_f1a1   scene_24_init
     001B62F4  GBVM$scene_24_init$c54199ad_7db0   scene_24_init
     001B6327  _scene_25_init                     scene_25_init
     001B632A  GBVM$scene_25_init$autofade$6191   scene_25_init
     001B6335  GBVM$scene_25_init$2e962bb2_156d   scene_25_init
     001B6337  GBVM$scene_25_init$6e92f275_c8ee   scene_25_init
     001B636A  _scene_3_init                      scene_3_init
     001B636D  GBVM$scene_3_init$46e05d9d_ab4a_   scene_3_init
     001B636D  GBVM$scene_3_init$9f2deb81_2104_   scene_3_init
     001B6377  GBVM$scene_3_init$8540f10f_090c_   scene_3_init
     001B637C  GBVM$scene_3_init$2b0579bc_b076_   scene_3_init
     001B6385  GBVM$scene_3_init$fd0fba91_0f36_   scene_3_init
     001B638D  GBVM$scene_3_init$1637301d_7d81_   scene_3_init
     001B638D  GBVM_END$scene_3_init$fd0fba91_0   scene_3_init
     001B6395  GBVM$scene_3_init$71340fd5_92f2_   scene_3_init
     001B6395  GBVM_END$scene_3_init$1637301d_7   scene_3_init
     001B639D  GBVM$scene_3_init$autofade$b4341   scene_3_init
     001B639D  GBVM_END$scene_3_init$71340fd5_9   scene_3_init
     001B63A9  ___func_scene_33_actors            scene_33_actors
     001B63A9  _scene_33_actors                   scene_33_actors
     001B6411  ___func_scene_37_actors            scene_37_actors
     001B6411  _scene_37_actors                   scene_37_actors
     001B64AD  _scene_38_init                     scene_38_init
ASxxxx Linker V03.00/V05.40 + sdld,  page 83.
Hexadecimal  [32-Bits]

Area                                    Addr        Size        Decimal Bytes (Attributes)
--------------------------------        ----        ----        ------- ----- ------------
_CODE_27                            001B4000    00004000 =       16384. bytes (REL,CON)

      Value  Global                              Global Defined In Module
      -----  --------------------------------   ------------------------
     001B64B0  GBVM$scene_38_init$autofade$d017   scene_38_init
     001B64BB  GBVM$scene_38_init$35ab9158_b602   scene_38_init
     001B64E8  GBVM$scene_38_init$e2b81bd2_87df   scene_38_init
     001B651B  _scene_4_init                      scene_4_init
     001B651E  GBVM$scene_4_init$0371bad1_8dab_   scene_4_init
     001B651E  GBVM$scene_4_init$0513d5e4_da11_   scene_4_init
     001B6523  GBVM$scene_4_init$autofade$a81f7   scene_4_init
     001B652E  GBVM$scene_4_init$c9427941_78fd_   scene_4_init
     001B6530  GBVM$scene_4_init$803cbdb0_5452_   scene_4_init
     001B6563  ___func_scene_45_actors            scene_45_actors
     001B6563  _scene_45_actors                   scene_45_actors
     001B65CB  ___func_scene_46_actors            scene_46_actors
     001B65CB  _scene_46_actors                   scene_46_actors
     001B6633  _scene_46_p_hit1                   scene_46_p_hit1
     001B6646  GBVM$scene_46_p_hit1$b831451e_65   scene_46_p_hit1
     001B667A  _scene_48_p_hit1                   scene_48_p_hit1
     001B668D  GBVM$scene_48_p_hit1$3b47ba51_e6   scene_48_p_hit1
     001B66C1  _scene_49_p_hit1                   scene_49_p_hit1
     001B66D4  GBVM$scene_49_p_hit1$51de444a_5b   scene_49_p_hit1
     001B6708  ___func_scene_49_triggers          scene_49_triggers
     001B6708  _scene_49_triggers                 scene_49_triggers
     001B6748  _scene_5_init                      scene_5_init
     001B674B  GBVM$scene_5_init$autofade$dd30a   scene_5_init
     001B6756  GBVM$scene_5_init$c354a602_0ca0_   scene_5_init
     001B6758  GBVM$scene_5_init$0583ea31_1033_   scene_5_init
     001B678B  _scene_6_init                      scene_6_init
     001B678E  GBVM$scene_6_init$autofade$dfecf   scene_6_init
     001B6799  GBVM$scene_6_init$335c1883_ea5f_   scene_6_init
     001B679B  GBVM$scene_6_init$658a8332_3df7_   scene_6_init
     001B67CE  _scene_64_init                     scene_64_init
     001B67D1  GBVM$scene_64_init$7815f32b_39ef   scene_64_init
     001B67DB  GBVM$scene_64_init$abdecb31_ec5e   scene_64_init
     001B67E5  GBVM$scene_64_init$autofade$ad13   scene_64_init
     001B67F0  GBVM$scene_64_init$cb9c62d3_a729   scene_64_init
     001B6813  GBVM$scene_64_init$8354f8a5_725c   scene_64_init
     001B681E  _scene_69_init                     scene_69_init
     001B6821  GBVM$scene_69_init$dcbbac9e_1560   scene_69_init
     001B6823  GBVM$scene_69_init$autofade$51c9   scene_69_init
     001B682E  GBVM$scene_69_init$c408e6d6_c717   scene_69_init
     001B687D  GBVM$scene_69_init$3a186f9a_040d   scene_69_init
     001B68B0  ___func_scene_73_actors            scene_73_actors
     001B68B0  _scene_73_actors                   scene_73_actors
     001B6918  _scene_74_init                     scene_74_init
     001B691B  GBVM$scene_74_init$4cdc8b03_3c8e   scene_74_init
     001B691D  GBVM$scene_74_init$autofade$c114   scene_74_init
     001B6928  GBVM$scene_74_init$529236ff_8701   scene_74_init
     001B6974  GBVM$scene_74_init$c5fe1ab8_6251   scene_74_init
     001B69A7  _scene_8_init                      scene_8_init
     001B69AA  GBVM$scene_8_init$autofade$4e26a   scene_8_init
     001B69B5  GBVM$scene_8_init$aa7e2909_2949_   scene_8_init
     001B69B7  GBVM$scene_8_init$a8b1a889_3124_   scene_8_init
ASxxxx Linker V03.00/V05.40 + sdld,  page 84.
Hexadecimal  [32-Bits]

Area                                    Addr        Size        Decimal Bytes (Attributes)
--------------------------------        ----        ----        ------- ----- ------------
_CODE_27                            001B4000    00004000 =       16384. bytes (REL,CON)

      Value  Global                              Global Defined In Module
      -----  --------------------------------   ------------------------
     001B69EA  _scene_85_init                     scene_85_init
     001B69ED  GBVM$scene_85_init$55b7ac1c_1f2c   scene_85_init
     001B69EF  GBVM$scene_85_init$autofade$4426   scene_85_init
     001B69FA  GBVM$scene_85_init$a8c71478_9174   scene_85_init
     001B6A2F  GBVM$scene_85_init$8ad86c3a_d96a   scene_85_init
     001B6A62  ___func_scene_86_actors            scene_86_actors
     001B6A62  _scene_86_actors                   scene_86_actors
     001B6AFE  _scene_87_init                     scene_87_init
     001B6B01  GBVM$scene_87_init$f771dd2f_b8c6   scene_87_init
     001B6B03  GBVM$scene_87_init$autofade$e7bf   scene_87_init
     001B6B0E  GBVM$scene_87_init$b5d843a5_1b83   scene_87_init
     001B6B38  GBVM$scene_87_init$8af9a273_2421   scene_87_init
     001B6B6B  _scene_9_init                      scene_9_init
     001B6B6E  GBVM$scene_9_init$autofade$5627d   scene_9_init
     001B6B79  GBVM$scene_9_init$2f89926b_d846_   scene_9_init
     001B6B7B  GBVM$scene_9_init$4d4fe2a0_e360_   scene_9_init
     001B6BAE  ___func_scene_92_actors            scene_92_actors
     001B6BAE  _scene_92_actors                   scene_92_actors
     001B6C4A  _scene_95_init                     scene_95_init
     001B6C4D  GBVM$scene_95_init$autofade$8049   scene_95_init
     001B6C58  GBVM$scene_95_init$e6eafc5b_6de3   scene_95_init
     001B6C64  GBVM$scene_95_init$6bc03639_3cd1   scene_95_init
     001B6C97  _scene_96_init                     scene_96_init
     001B6C9A  GBVM$scene_96_init$autofade$a4f2   scene_96_init
     001B6CA5  GBVM$scene_96_init$f1e4cd1d_daa0   scene_96_init
     001B6CB1  GBVM$scene_96_init$a66f5265_f130   scene_96_init
     001B6CE4  _scene_97_init                     scene_97_init
     001B6CE7  GBVM$scene_97_init$fd8d848f_6597   scene_97_init
     001B6CE9  GBVM$scene_97_init$autofade$399d   scene_97_init
     001B6CF4  GBVM$scene_97_init$0b1eb191_03a4   scene_97_init
     001B6D00  GBVM$scene_97_init$cf500c93_e529   scene_97_init
     001B6D33  _scene_98_init                     scene_98_init
     001B6D36  GBVM$scene_98_init$autofade$c478   scene_98_init
     001B6D41  GBVM$scene_98_init$ff244a0f_7df9   scene_98_init
     001B6D5A  GBVM$scene_98_init$646cd7bd_e40b   scene_98_init
     001B6D8D  ___func_scene_99_actors            scene_99_actors
     001B6D8D  _scene_99_actors                   scene_99_actors
     001B6DF5  _script_engine_init                
     001B6E75  _script_input_1                    script_input_1
     001B6E77  GBVM$script_input_1$50c02aeb_686   script_input_1
     001B6E80  GBVM$script_input_1$84a21f62_f29   script_input_1
     001B6E95  GBVM$script_input_1$c5becf71_5ab   script_input_1
     001B6E9A  GBVM$script_input_1$3c22b84e_0e2   script_input_1
     001B6EA5  GBVM$script_input_1$787bdba0_440   script_input_1
     001B6EB0  GBVM_END$script_input_1$84a21f62   script_input_1
     001B6EB3  GBVM$script_input_1$88e7216f_245   script_input_1
     001B6EB8  GBVM$script_input_1$4a737eef_c67   script_input_1
     001B6EC3  GBVM$script_input_1$6165b955_582   script_input_1
     001B6ECE  GBVM_END$script_input_1$50c02aeb   script_input_1
     001B6ECF  _script_input_2                    script_input_2
     001B6ED1  GBVM$script_input_2$02285956_566   script_input_2
ASxxxx Linker V03.00/V05.40 + sdld,  page 85.
Hexadecimal  [32-Bits]

Area                                    Addr        Size        Decimal Bytes (Attributes)
--------------------------------        ----        ----        ------- ----- ------------
_CODE_27                            001B4000    00004000 =       16384. bytes (REL,CON)

      Value  Global                              Global Defined In Module
      -----  --------------------------------   ------------------------
     001B6EE6  GBVM$script_input_2$690d3392_3c9   script_input_2
     001B6EEB  GBVM$script_input_2$ed742847_5e9   script_input_2
     001B6EF6  GBVM$script_input_2$9893fa36_ce0   script_input_2
     001B6F01  GBVM$script_input_2$1b701583_e26   script_input_2
     001B6F01  GBVM_END$script_input_2$02285956   script_input_2
     001B6F16  GBVM$script_input_2$b9ed33fd_2b7   script_input_2
     001B6F1B  GBVM$script_input_2$eb60c7af_e73   script_input_2
     001B6F26  GBVM$script_input_2$93c31e0a_836   script_input_2
     001B6F31  GBVM_END$script_input_2$1b701583   script_input_2
     001B6F32  _script_input_4                    script_input_4
     001B6F34  GBVM$script_input_4$c00cd98d_873   script_input_4
     001B6F49  GBVM$script_input_4$5b6e42f9_5b0   script_input_4
     001B6F54  GBVM$script_input_4$c9a1137d_359   script_input_4
     001B6FA7  GBVM_END$script_input_4$c00cd98d   script_input_4
     001B6FA8  _script_input_5                    script_input_5
     001B6FAA  GBVM$script_input_5$ad324b78_922   script_input_5
     001B6FBF  GBVM$script_input_5$a4f46b84_893   script_input_5
     001B6FCA  GBVM$script_input_5$79f15f8c_642   script_input_5
     001B701D  GBVM_END$script_input_5$ad324b78   script_input_5
     001B701E  _script_timer_12                   script_timer_12
     001B7020  GBVM$script_timer_12$3f0f6a6d_16   script_timer_12
     001B7027  GBVM$script_timer_12$f0f10dd3_98   script_timer_12
     001B7041  GBVM$script_timer_12$0737bfb4_0c   script_timer_12
     001B705E  _script_timer_13                   script_timer_13
     001B7060  GBVM$script_timer_13$99299a70_08   script_timer_13
     001B7067  GBVM$script_timer_13$58b89161_f1   script_timer_13
     001B7081  GBVM$script_timer_13$bec85140_44   script_timer_13
     001B709E  ___func_sprite_blank_interactabl   sprite_blank_interactable_c_
     001B709E  _sprite_blank_interactable_c_0_t   sprite_blank_interactable_c_
     001B7120  ___func_sprite_blank_interactabl   sprite_blank_interactable_c_
     001B7120  _sprite_blank_interactable_c_0_m   sprite_blank_interactable_c_
     001B713C  _sprite_blank_interactable_c_0_m   sprite_blank_interactable_c_
     001B713E  _sprite_blank_interactable_c_0_a   sprite_blank_interactable_c_
     001B714E  _sprite_blank_interactable_c_0_a   sprite_blank_interactable_c_
     001B7150  _sprite_blank_interactable_c_0     sprite_blank_interactable_c_
     001B7163  ___func_sprite_blank_interactabl   sprite_blank_interactable_c_
     001B7163  _sprite_blank_interactable_c_til   sprite_blank_interactable_c_
     001B71A5  ___func_sprite_car_tileset         sprite_car_tileset
     001B71A5  _sprite_car_tileset                sprite_car_tileset
     001B71E7  ___func_sprite_cataa_tileset       sprite_cataa_tileset
     001B71E7  _sprite_cataa_tileset              sprite_cataa_tileset
     001B7229  ___func_sprite_dhilly_5_level_co   sprite_dhilly_5_level_copy_
     001B7229  _sprite_dhilly_5_level_copy__met   sprite_dhilly_5_level_copy_
     001B7245  _sprite_dhilly_5_level_copy__met   sprite_dhilly_5_level_copy_
     001B7247  _sprite_dhilly_5_level_copy__ani   sprite_dhilly_5_level_copy_
     001B7257  _sprite_dhilly_5_level_copy__ani   sprite_dhilly_5_level_copy_
     001B7259  _sprite_dhilly_5_level_copy_       sprite_dhilly_5_level_copy_
     001B726C  ___func_sprite_dhilly_bridge_int   sprite_dhilly_bridge_intera
     001B726C  _sprite_dhilly_bridge_intera_met   sprite_dhilly_bridge_intera
     001B7278  _sprite_dhilly_bridge_intera_met   sprite_dhilly_bridge_intera
     001B7284  _sprite_dhilly_bridge_intera_met   sprite_dhilly_bridge_intera
ASxxxx Linker V03.00/V05.40 + sdld,  page 86.
Hexadecimal  [32-Bits]

Area                                    Addr        Size        Decimal Bytes (Attributes)
--------------------------------        ----        ----        ------- ----- ------------
_CODE_27                            001B4000    00004000 =       16384. bytes (REL,CON)

      Value  Global                              Global Defined In Module
      -----  --------------------------------   ------------------------
     001B7290  _sprite_dhilly_bridge_intera_met   sprite_dhilly_bridge_intera
     001B729C  _sprite_dhilly_bridge_intera_met   sprite_dhilly_bridge_intera
     001B72A8  _sprite_dhilly_bridge_intera_met   sprite_dhilly_bridge_intera
     001B72B8  _sprite_dhilly_bridge_intera_ani   sprite_dhilly_bridge_intera
     001B72C8  _sprite_dhilly_bridge_intera_ani   sprite_dhilly_bridge_intera
     001B72CA  _sprite_dhilly_bridge_intera       sprite_dhilly_bridge_intera
     001B72DD  ___func_sprite_dhilly_saveselect   sprite_dhilly_saveselect_co_
     001B72DD  _sprite_dhilly_saveselect_co_1_t   sprite_dhilly_saveselect_co_
     001B731F  ___func_sprite_dhilly_saveselect   sprite_dhilly_saveselect
     001B731F  _sprite_dhilly_saveselect_metasp   sprite_dhilly_saveselect
     001B732B  _sprite_dhilly_saveselect_metasp   sprite_dhilly_saveselect
     001B7337  _sprite_dhilly_saveselect_metasp   sprite_dhilly_saveselect
     001B7343  _sprite_dhilly_saveselect_metasp   sprite_dhilly_saveselect
     001B734F  _sprite_dhilly_saveselect_metasp   sprite_dhilly_saveselect
     001B735B  _sprite_dhilly_saveselect_metasp   sprite_dhilly_saveselect
     001B736B  _sprite_dhilly_saveselect_animat   sprite_dhilly_saveselect
     001B737B  _sprite_dhilly_saveselect_animat   sprite_dhilly_saveselect
     001B737D  _sprite_dhilly_saveselect          sprite_dhilly_saveselect
     001B7390  ___func_sprite_highlight_options   sprite_highlight_options_co
     001B7390  _sprite_highlight_options_co_met   sprite_highlight_options_co
     001B7394  _sprite_highlight_options_co_met   sprite_highlight_options_co
     001B73B8  _sprite_highlight_options_co_met   sprite_highlight_options_co
     001B73D4  _sprite_highlight_options_co_met   sprite_highlight_options_co
     001B73DA  _sprite_highlight_options_co_ani   sprite_highlight_options_co
     001B73EA  _sprite_highlight_options_co_ani   sprite_highlight_options_co
     001B73EC  _sprite_highlight_options_co       sprite_highlight_options_co
     001B73FF  ___func_sprite_iceosapp_ctf_copy   sprite_iceosapp_ctf_copy_0_t
     001B73FF  _sprite_iceosapp_ctf_copy_0_tile   sprite_iceosapp_ctf_copy_0_t
     001B7441  ___func_sprite_iceosapp_wveruner   sprite_iceosapp_wveruner_co_
     001B7441  _sprite_iceosapp_wveruner_co_til   sprite_iceosapp_wveruner_co_
     001B7483  ___func_sprite_knife_down_copy__   sprite_knife_down_copy__tile
     001B7483  _sprite_knife_down_copy__tileset   sprite_knife_down_copy__tile
     001B74C5  ___func_sprite_mzdesigns_tileset   sprite_mzdesigns_tileset
     001B74C5  _sprite_mzdesigns_tileset          sprite_mzdesigns_tileset
     001B7507  ___func_sprite_shapiro_tileset     sprite_shapiro_tileset
     001B7507  _sprite_shapiro_tileset            sprite_shapiro_tileset
     001B7549  ___func_sprite_square_cart_copy_   sprite_square_cart_copy__til
     001B7549  _sprite_square_cart_copy__tilese   sprite_square_cart_copy__til
     001B75AB  ___func_sprite_square_cart_copy_   sprite_square_cart_copy_
     001B75AB  _sprite_square_cart_copy__metasp   sprite_square_cart_copy_
     001B75C7  _sprite_square_cart_copy__metasp   sprite_square_cart_copy_
     001B75C9  _sprite_square_cart_copy__animat   sprite_square_cart_copy_
     001B75D9  _sprite_square_cart_copy__animat   sprite_square_cart_copy_
     001B75DB  _sprite_square_cart_copy_          sprite_square_cart_copy_
     001B75EE  ___func_sprite_square_full_hitbo   sprite_square_full_hitbox_c_
     001B75EE  _sprite_square_full_hitbox_c_2_t   sprite_square_full_hitbox_c_
     001B7650  ___func_sprite_square_full_hitbo   sprite_square_full_hitbox_c_
     001B7650  _sprite_square_full_hitbox_c_2_m   sprite_square_full_hitbox_c_
     001B7674  _sprite_square_full_hitbox_c_2_m   sprite_square_full_hitbox_c_
     001B7676  _sprite_square_full_hitbox_c_2_a   sprite_square_full_hitbox_c_
     001B7686  _sprite_square_full_hitbox_c_2_a   sprite_square_full_hitbox_c_
ASxxxx Linker V03.00/V05.40 + sdld,  page 87.
Hexadecimal  [32-Bits]

Area                                    Addr        Size        Decimal Bytes (Attributes)
--------------------------------        ----        ----        ------- ----- ------------
_CODE_27                            001B4000    00004000 =       16384. bytes (REL,CON)

      Value  Global                              Global Defined In Module
      -----  --------------------------------   ------------------------
     001B7688  _sprite_square_full_hitbox_c_2     sprite_square_full_hitbox_c_
     001B769B  ___func_sprite_square_full_hitbo   sprite_square_full_hitbox_c_
     001B769B  _sprite_square_full_hitbox_c_3_t   sprite_square_full_hitbox_c_
     001B76DD  ___func_sprite_square_full_hitbo   sprite_square_full_hitbox_c_
     001B76DD  _sprite_square_full_hitbox_c_3_m   sprite_square_full_hitbox_c_
     001B7701  _sprite_square_full_hitbox_c_3_m   sprite_square_full_hitbox_c_
     001B7703  _sprite_square_full_hitbox_c_3_a   sprite_square_full_hitbox_c_
     001B7713  _sprite_square_full_hitbox_c_3_a   sprite_square_full_hitbox_c_
     001B7715  _sprite_square_full_hitbox_c_3     sprite_square_full_hitbox_c_
     001B7728  ___func_sprite_square_full_hitbo   sprite_square_full_hitbox_c_
     001B7728  _sprite_square_full_hitbox_c_5_t   sprite_square_full_hitbox_c_
     001B778A  ___func_sprite_static_copy_0_til   sprite_static_copy_0_tileset
     001B778A  _sprite_static_copy_0_tileset      sprite_static_copy_0_tileset
     001B77CC  ___func_sprite_static_copy_tiles   sprite_static_copy_tileset
     001B77CC  _sprite_static_copy_tileset        sprite_static_copy_tileset
     001B780E  _trigger_101_interact              trigger_101_interact
     001B7811  GBVM$trigger_101_interact$abeccb   trigger_101_interact
     001B784D  GBVM$trigger_101_interact$3b50e7   trigger_101_interact
     001B7880  _trigger_102_interact              trigger_102_interact
     001B7883  GBVM$trigger_102_interact$bb84ae   trigger_102_interact
     001B78BF  GBVM$trigger_102_interact$91b5d0   trigger_102_interact
     001B78F2  _trigger_103_interact              trigger_103_interact
     001B78F5  GBVM$trigger_103_interact$3a050a   trigger_103_interact
     001B7931  GBVM$trigger_103_interact$25e67a   trigger_103_interact
     001B7964  _trigger_104_interact              trigger_104_interact
     001B7967  GBVM$trigger_104_interact$114146   trigger_104_interact
     001B79A3  GBVM$trigger_104_interact$01e2c8   trigger_104_interact
     001B79D6  _trigger_105_interact              trigger_105_interact
     001B79D9  GBVM$trigger_105_interact$f42f49   trigger_105_interact
     001B79E3  GBVM$trigger_105_interact$1e04ba   trigger_105_interact
     001B79ED  GBVM$trigger_105_interact$550cea   trigger_105_interact
     001B79F7  GBVM$trigger_105_interact$7fdac4   trigger_105_interact
     001B7A03  GBVM$trigger_105_interact$21b717   trigger_105_interact
     001B7A36  GBVM$trigger_105_interact$df9202   trigger_105_interact
     001B7A69  _trigger_106_interact              trigger_106_interact
     001B7A6C  GBVM$trigger_106_interact$f1bd39   trigger_106_interact
     001B7AB3  GBVM$trigger_106_interact$a0ab72   trigger_106_interact
     001B7AE6  _trigger_108_interact              trigger_108_interact
     001B7AE9  GBVM$trigger_108_interact$297198   trigger_108_interact
     001B7B24  GBVM$trigger_108_interact$22bfc5   trigger_108_interact
     001B7B57  _trigger_109_interact              trigger_109_interact
     001B7B5A  GBVM$trigger_109_interact$3e6e2d   trigger_109_interact
     001B7B96  GBVM$trigger_109_interact$b45d89   trigger_109_interact
     001B7BC9  _trigger_110_interact              trigger_110_interact
     001B7BCC  GBVM$trigger_110_interact$fa5a45   trigger_110_interact
     001B7C08  GBVM$trigger_110_interact$3b7c66   trigger_110_interact
     001B7C3B  _trigger_111_interact              trigger_111_interact
     001B7C3E  GBVM$trigger_111_interact$49437f   trigger_111_interact
     001B7C7A  GBVM$trigger_111_interact$a9e5a3   trigger_111_interact
     001B7CAD  _trigger_115_interact              trigger_115_interact
     001B7CB0  GBVM$trigger_115_interact$c56c3f   trigger_115_interact
ASxxxx Linker V03.00/V05.40 + sdld,  page 88.
Hexadecimal  [32-Bits]

Area                                    Addr        Size        Decimal Bytes (Attributes)
--------------------------------        ----        ----        ------- ----- ------------
_CODE_27                            001B4000    00004000 =       16384. bytes (REL,CON)

      Value  Global                              Global Defined In Module
      -----  --------------------------------   ------------------------
     001B7CC9  GBVM$trigger_115_interact$f12700   trigger_115_interact
     001B7CF3  GBVM$trigger_115_interact$c457e1   trigger_115_interact
     001B7D26  _trigger_69_interact               trigger_69_interact
     001B7D29  GBVM$trigger_69_interact$7b1bf4d   trigger_69_interact
     001B7D35  GBVM$trigger_69_interact$cf39b26   trigger_69_interact
     001B7D67  GBVM_END$trigger_69_interact$7b1   trigger_69_interact
     001B7D68  _trigger_77_interact               trigger_77_interact
     001B7D69  GBVM$trigger_77_interact$4947ab6   trigger_77_interact
     001B7DC1  _trigger_86_interact               trigger_86_interact
     001B7DC4  GBVM$trigger_86_interact$8104522   trigger_86_interact
     001B7DCD  GBVM$trigger_86_interact$21de95a   trigger_86_interact
     001B7E27  GBVM$trigger_86_interact$b188c92   trigger_86_interact
     001B7E59  GBVM_END$trigger_86_interact$810   trigger_86_interact
     001B7E5A  _trigger_90_interact               trigger_90_interact
     001B7E5D  GBVM$trigger_90_interact$22edd77   trigger_90_interact
     001B7E66  GBVM$trigger_90_interact$47ca1a6   trigger_90_interact
     001B7E9B  GBVM$trigger_90_interact$5d2fe49   trigger_90_interact
     001B7ECD  GBVM_END$trigger_90_interact$22e   trigger_90_interact
     001B7ECE  _trigger_96_interact               trigger_96_interact
     001B7ED1  GBVM$trigger_96_interact$aece970   trigger_96_interact
     001B7F1C  _trigger_97_interact               trigger_97_interact
     001B7F1F  GBVM$trigger_97_interact$c44a4e5   trigger_97_interact
     001B7F5B  GBVM$trigger_97_interact$fa093a4   trigger_97_interact
     001B7F8E  _trigger_99_interact               trigger_99_interact
     001B7F91  GBVM$trigger_99_interact$423a9d8   trigger_99_interact
     001B7FCD  GBVM$trigger_99_interact$981adc2   trigger_99_interact

ASxxxx Linker V03.00/V05.40 + sdld,  page 89.
Hexadecimal  [32-Bits]

Area                                    Addr        Size        Decimal Bytes (Attributes)
--------------------------------        ----        ----        ------- ----- ------------
_CODE_21                            00154000    00004000 =       16384. bytes (REL,CON)

      Value  Global                              Global Defined In Module
      -----  --------------------------------   ------------------------
     00154000  _CGBFadeToWhiteStep                fade_manager
     00154039  _CGBFadeToBlackStep                fade_manager
     00154074  _ApplyPaletteChangeColor           fade_manager
     001540B1  _fade_speeds                       fade_manager
     001540B8  _DMGFadeToWhiteStep                fade_manager
     001540D9  _DMGFadeToBlackStep                fade_manager
     001540FC  _ApplyPaletteChangeDMG             fade_manager
     00154152  _fade_init                         fade_manager
     00154173  _fade_in                           fade_manager
     001541AB  _fade_out                          fade_manager
     001541E4  _fade_update                       fade_manager
     00154237  _fade_applypalettechange           fade_manager
     00154249  _fade_setspeed                     fade_manager
     00154259  _fade_in_modal                     fade_manager
     00154273  _fade_out_modal                    fade_manager
     0015428D  _atan2                             math_atan2
     00154426  _atan2_table                       math_atan2
     0015458E  ___func_VM_PALETTE                 vm_palette
     0015458E  _vm_load_palette                   vm_palette
     00154785  ___func_VM_SIO                     vm_sio
     00154785  _vm_sio_set_mode                   vm_sio
     00154797  _vm_sio_exchange                   vm_sio
     00154A79  ___func_avatar_font_0              avatar_font_0
     00154D21  _avatar_font_0                     avatar_font_0
     00154D29  ___func_bg_chase_shilly_tileset    bg_chase_shilly_tileset
     00154D29  _bg_chase_shilly_tileset           bg_chase_shilly_tileset
     00154FFB  ___func_bg_controls_gb_copy__til   bg_controls_gb_copy__tilemap
     00154FFB  _bg_controls_gb_copy__tilemap      bg_controls_gb_copy__tilemap
     00155163  ___func_bg_iceos_login_2_copy__t   bg_iceos_login_2_copy__tiles
     00155163  _bg_iceos_login_2_copy__tileset    bg_iceos_login_2_copy__tiles
     001553F5  ___func_bg_lencityopen_copy__til   bg_lencityopen_copy__tileset
     001553F5  _bg_lencityopen_copy__tileset      bg_lencityopen_copy__tileset
     00155647  ___func_bg_pixil_frame_0_23_tile   bg_pixil_frame_0_23_tileset
     00155647  _bg_pixil_frame_0_23_tileset       bg_pixil_frame_0_23_tileset
     001558F9  ___func_bg_shillycity_sara_house   bg_shillycity_sara_house_co_
     001558F9  _bg_shillycity_sara_house_co_til   bg_shillycity_sara_house_co_
     00155B3B  ___func_bg_shillycityopen_copy__   bg_shillycityopen_copy__tile
     00155B3B  _bg_shillycityopen_copy__tileset   bg_shillycityopen_copy__tile
     00155D3D  ___func_bg_shillycityopen_copy_0   bg_shillycityopen_copy_0_til
     00155D3D  _bg_shillycityopen_copy_0_tilema   bg_shillycityopen_copy_0_til
     00155F31  ___func_bg_shillycityopen_copy_0   bg_shillycityopen_copy_0_til
     00155F31  _bg_shillycityopen_copy_0_tilema   bg_shillycityopen_copy_0_til
     00156125  ___func_bg_shillycityopen_copy_1   bg_shillycityopen_copy_1_til
     00156125  _bg_shillycityopen_copy_1_tilese   bg_shillycityopen_copy_1_til
     001563A7  ___func_bg_square_frozen_future_   bg_square_frozen_future_tile
     001563A7  _bg_square_frozen_future_tileset   bg_square_frozen_future_tile
     00156669  ___func_bg_theatre_tilemap_attr    bg_theatre_tilemap_attr
     00156669  _bg_theatre_tilemap_attr           bg_theatre_tilemap_attr
     0015685D  ___func_bg_theatre_tilemap         bg_theatre_tilemap
     0015685D  _bg_theatre_tilemap                bg_theatre_tilemap
ASxxxx Linker V03.00/V05.40 + sdld,  page 90.
Hexadecimal  [32-Bits]

Area                                    Addr        Size        Decimal Bytes (Attributes)
--------------------------------        ----        ----        ------- ----- ------------
_CODE_21                            00154000    00004000 =       16384. bytes (REL,CON)

      Value  Global                              Global Defined In Module
      -----  --------------------------------   ------------------------
     00156A51  ___func_bg_theatre_tileset         bg_theatre_tileset
     00156A51  _bg_theatre_tileset                bg_theatre_tileset
     00156CD3  ___func_bg_title_copy_0_tileset    bg_title_copy_0_tileset
     00156CD3  _bg_title_copy_0_tileset           bg_title_copy_0_tileset
     00156F65  ___func_cursor_image               cursor_image
     00156F65  _cursor_image                      cursor_image
     00156F75  ___func_scene_46_collisions        scene_46_collisions
     00156F75  _scene_46_collisions               scene_46_collisions
     00157169  _scene_7_init                      scene_7_init
     0015716C  GBVM$scene_7_init$a28f898c_1a47_   scene_7_init
     0015716E  GBVM$scene_7_init$autofade$a3571   scene_7_init
     00157179  GBVM$scene_7_init$a8a9ea39_582e_   scene_7_init
     0015718B  GBVM$scene_7_init$db2f5a6b_be6f_   scene_7_init
     001571C0  GBVM$scene_7_init$c68c1476_e6de_   scene_7_init
     001571D2  GBVM$scene_7_init$4acdde8b_f7d8_   scene_7_init
     00157207  GBVM$scene_7_init$24408b02_f7d8_   scene_7_init
     0015736A  GBVM$scene_7_init$d6f16c20_137d_   scene_7_init
     0015737C  GBVM$scene_7_init$3c77fa29_4a0a_   scene_7_init
     001573B1  GBVM$scene_7_init$2c9926e3_3e60_   scene_7_init
     001573E3  GBVM$scene_7_init$9d8e7023_49cf_   scene_7_init
     001573E3  GBVM_END$scene_7_init$a8a9ea39_5   scene_7_init
     001573E3  GBVM_END$scene_7_init$c68c1476_e   scene_7_init
     001573E3  GBVM_END$scene_7_init$d6f16c20_1   scene_7_init
     00157416  _scene_99_init                     scene_99_init
     00157419  GBVM$scene_99_init$b88d3a46_fc7a   scene_99_init
     0015742A  GBVM$scene_99_init$49bd3f66_2a0f   scene_99_init
     00157435  GBVM$scene_99_init$7eedae8b_899e   scene_99_init
     00157448  GBVM$scene_99_init$d547cc20_1926   scene_99_init
     00157454  GBVM$scene_99_init$c9598ea5_3f29   scene_99_init
     001574B1  GBVM$scene_99_init$5c055f98_43a1   scene_99_init
     001574FD  GBVM$scene_99_init$295e1186_fac5   scene_99_init
     00157509  GBVM$scene_99_init$f09b0747_5271   scene_99_init
     0015751C  GBVM$scene_99_init$c805c7ea_5b74   scene_99_init
     00157614  GBVM$scene_99_init$43e89bc6_7a7f   scene_99_init
     00157620  GBVM$scene_99_init$6fafe1e7_8c33   scene_99_init
     00157653  ___func_sprite_pixelperfectvoti_   sprite_pixelperfectvoti_cop_
     00157653  _sprite_pixelperfectvoti_cop_til   sprite_pixelperfectvoti_cop_
     00157895  ___func_sprite_pixelperfectvoti_   sprite_pixelperfectvoti_tile
     00157895  _sprite_pixelperfectvoti_tileset   sprite_pixelperfectvoti_tile
     00157AB7  _trigger_81_interact               trigger_81_interact
     00157ABA  GBVM$trigger_81_interact$96f3457   trigger_81_interact
     00157AFD  GBVM$trigger_81_interact$4b85dae   trigger_81_interact
     00157B20  GBVM$trigger_81_interact$7d34401   trigger_81_interact
     00157B36  GBVM$trigger_81_interact$7b54a7a   trigger_81_interact
     00157B4F  GBVM$trigger_81_interact$91085c9   trigger_81_interact
     00157D38  GBVM$trigger_81_interact$f9db94d   trigger_81_interact
     00157D6B  _trigger_95_interact               trigger_95_interact
     00157D6E  GBVM$trigger_95_interact$ed1195f   trigger_95_interact
     00157D81  GBVM$trigger_95_interact$ab08f0d   trigger_95_interact
     00157D8D  GBVM$trigger_95_interact$8520651   trigger_95_interact
     00157D97  GBVM$trigger_95_interact$a3f7415   trigger_95_interact
ASxxxx Linker V03.00/V05.40 + sdld,  page 91.
Hexadecimal  [32-Bits]

Area                                    Addr        Size        Decimal Bytes (Attributes)
--------------------------------        ----        ----        ------- ----- ------------
_CODE_21                            00154000    00004000 =       16384. bytes (REL,CON)

      Value  Global                              Global Defined In Module
      -----  --------------------------------   ------------------------
     00157DA3  GBVM$trigger_95_interact$ae2eb50   trigger_95_interact
     00157EF0  GBVM$trigger_95_interact$484c522   trigger_95_interact
     00157EFC  GBVM$trigger_95_interact$1cbcf34   trigger_95_interact
     00157F01  GBVM$trigger_95_interact$226d49a   trigger_95_interact
     00157F0D  GBVM$trigger_95_interact$b243a9b   trigger_95_interact
     00157F12  GBVM$trigger_95_interact$64d7bc2   trigger_95_interact
     00157F1E  GBVM$trigger_95_interact$4fe9e81   trigger_95_interact
     00157F23  GBVM$trigger_95_interact$7a3013b   trigger_95_interact
     00157F2F  GBVM$trigger_95_interact$5db9280   trigger_95_interact
     00157F34  GBVM$trigger_95_interact$ff1ec57   trigger_95_interact
     00157F40  GBVM$trigger_95_interact$3db92a2   trigger_95_interact
     00157F45  GBVM$trigger_95_interact$1948217   trigger_95_interact
     00157F51  GBVM$trigger_95_interact$816440b   trigger_95_interact
     00157F56  GBVM$trigger_95_interact$fefd17e   trigger_95_interact
     00157F62  GBVM$trigger_95_interact$4f99721   trigger_95_interact
     00157F67  GBVM$trigger_95_interact$c8e8ac9   trigger_95_interact
     00157F73  GBVM$trigger_95_interact$7d7c4dd   trigger_95_interact
     00157F78  GBVM$trigger_95_interact$68bf7c7   trigger_95_interact
     00157F84  GBVM$trigger_95_interact$d8253eb   trigger_95_interact
     00157F89  GBVM$trigger_95_interact$e4be23c   trigger_95_interact
     00157F95  GBVM$trigger_95_interact$04cae2b   trigger_95_interact
     00157F9A  GBVM$trigger_95_interact$4e3aba3   trigger_95_interact
     00157FA6  GBVM$trigger_95_interact$79ad486   trigger_95_interact
     00157FAB  GBVM$trigger_95_interact$c2da34e   trigger_95_interact
     00157FB7  GBVM$trigger_95_interact$f8bd9a5   trigger_95_interact
     00157FBC  GBVM$trigger_95_interact$2053af6   trigger_95_interact
     00157FC8  GBVM$trigger_95_interact$f96f83e   trigger_95_interact
     00157FCD  GBVM$trigger_95_interact$1cfa489   trigger_95_interact
ASxxxx Linker V03.00/V05.40 + sdld,  page 92.
Hexadecimal  [32-Bits]

Area                                    Addr        Size        Decimal Bytes (Attributes)
--------------------------------        ----        ----        ------- ----- ------------
_CODE_26                            001A4000    00003FFE =       16382. bytes (REL,CON)

      Value  Global                              Global Defined In Module
      -----  --------------------------------   ------------------------
     001A4068  _save_sram_banks                   
     001A40F0  _erase_flash                       
     001A4106  _music_init_driver                 music_manager
     001A4162  _music_init_events                 music_manager
     001A419E  _music_events_poll                 music_manager
     001A41C6  _music_pause                       music_manager
     001A41E8  _palette_init                      palette
     001A421F  _CGBZeroPalette                    palette
     001A4234  _SGBTransferPalettes               palette
     001A42AC  ___func_VM_PROJECTILE              vm_projectiles
     001A42AC  _vm_projectile_launch              vm_projectiles
     001A42ED  _vm_projectile_load_type           vm_projectiles
     001A437F  ___func_VM_RTC                     vm_rtc
     001A437F  _vm_rtc_latch                      vm_rtc
     001A4387  _vm_rtc_get                        vm_rtc
     001A43EE  _vm_rtc_set                        vm_rtc
     001A444C  _vm_rtc_start                      vm_rtc
     001A446F  _itoa_fmt                          vm_ui_a
     001A44A8  .utoa_fmt                          vm_ui_a
     001A4552  _actor_61_interact                 actor_61_interact
     001A4565  GBVM$actor_61_interact$3c02ddcb_   actor_61_interact
     001A4570  GBVM$actor_61_interact$87012482_   actor_61_interact
     001A4579  GBVM$actor_61_interact$45e7e69a_   actor_61_interact
     001A45AE  GBVM$actor_61_interact$695ad03f_   actor_61_interact
     001A45B0  GBVM$actor_61_interact$d57f0ec0_   actor_61_interact
     001A45BA  GBVM$actor_61_interact$d71152b7_   actor_61_interact
     001A45D3  GBVM$actor_61_interact$f4c553b7_   actor_61_interact
     001A4605  GBVM_END$actor_61_interact$87012   actor_61_interact
     001A4607  ___func_bg_cave_ladder_copy__til   bg_cave_ladder_copy__tileset
     001A4607  _bg_cave_ladder_copy__tileset      bg_cave_ladder_copy__tileset
     001A4749  ___func_bg_cave_ladder_copy_0_ti   bg_cave_ladder_copy_0_tilese
     001A4749  _bg_cave_ladder_copy_0_tileset     bg_cave_ladder_copy_0_tilese
     001A481B  ___func_bg_cinema_tileset          bg_cinema_tileset
     001A481B  _bg_cinema_tileset                 bg_cinema_tileset
     001A495D  ___func_bg_controls_gb_copy_0_ti   bg_controls_gb_copy_0_tilese
     001A495D  _bg_controls_gb_copy_0_tileset     bg_controls_gb_copy_0_tilese
     001A4A7F  ___func_bg_dhilly_bridge_tileset   bg_dhilly_bridge_tileset
     001A4A7F  _bg_dhilly_bridge_tileset          bg_dhilly_bridge_tileset
     001A4BA1  ___func_bg_elevator_tileset        bg_elevator_tileset
     001A4BA1  _bg_elevator_tileset               bg_elevator_tileset
     001A4CA3  ___func_bg_fall_to_shilly_area_c   bg_fall_to_shilly_area_copy_
     001A4CA3  _bg_fall_to_shilly_area_copy_til   bg_fall_to_shilly_area_copy_
     001A4DF5  ___func_bg_fieldlazy_tileset       bg_fieldlazy_tileset
     001A4DF5  _bg_fieldlazy_tileset              bg_fieldlazy_tileset
     001A4EE7  ___func_bg_iceos_platformer2_cop   bg_iceos_platformer2_copy__t
     001A4EE7  _bg_iceos_platformer2_copy__tile   bg_iceos_platformer2_copy__t
     001A5039  ___func_bg_iceos_platformer3_cop   bg_iceos_platformer3_copy__t
     001A5039  _bg_iceos_platformer3_copy__tile   bg_iceos_platformer3_copy__t
     001A519B  ___func_bg_iceos_platformer4_til   bg_iceos_platformer4_tileset
     001A519B  _bg_iceos_platformer4_tileset      bg_iceos_platformer4_tileset
ASxxxx Linker V03.00/V05.40 + sdld,  page 93.
Hexadecimal  [32-Bits]

Area                                    Addr        Size        Decimal Bytes (Attributes)
--------------------------------        ----        ----        ------- ----- ------------
_CODE_26                            001A4000    00003FFE =       16382. bytes (REL,CON)

      Value  Global                              Global Defined In Module
      -----  --------------------------------   ------------------------
     001A524D  ___func_bg_init_copy_2_tileset     bg_init_copy_2_tileset
     001A524D  _bg_init_copy_2_tileset            bg_init_copy_2_tileset
     001A534F  ___func_bg_lair_hub_tileset        bg_lair_hub_tileset
     001A534F  _bg_lair_hub_tileset               bg_lair_hub_tileset
     001A5461  ___func_bg_lair_left_2_copy__til   bg_lair_left_2_copy__tileset
     001A5461  _bg_lair_left_2_copy__tileset      bg_lair_left_2_copy__tileset
     001A5543  ___func_bg_lair_left_2_tileset     bg_lair_left_2_tileset
     001A5543  _bg_lair_left_2_tileset            bg_lair_left_2_tileset
     001A5655  ___func_bg_lair_right_3_copy__ti   bg_lair_right_3_copy__tilese
     001A5655  _bg_lair_right_3_copy__tileset     bg_lair_right_3_copy__tilese
     001A5707  ___func_bg_lencity_dhillybuildin   bg_lencity_dhillybuilding_c_
     001A5707  _bg_lencity_dhillybuilding_c_til   bg_lencity_dhillybuilding_c_
     001A5829  ___func_bg_lencity_dhillybuildin   bg_lencity_dhillybuilding_f_
     001A5829  _bg_lencity_dhillybuilding_f_til   bg_lencity_dhillybuilding_f_
     001A595B  ___func_bg_lencity_trainstation_   bg_lencity_trainstation_tile
     001A595B  _bg_lencity_trainstation_tileset   bg_lencity_trainstation_tile
     001A5AAD  ___func_bg_lencityopen_copy_0_ti   bg_lencityopen_copy_0_tilese
     001A5AAD  _bg_lencityopen_copy_0_tileset     bg_lencityopen_copy_0_tilese
     001A5C0F  ___func_scene_2_actors             scene_2_actors
     001A5C0F  _scene_2_actors                    scene_2_actors
     001A5CAB  ___func_scene_39_actors            scene_39_actors
     001A5CAB  _scene_39_actors                   scene_39_actors
     001A5D7B  _scene_45_init                     scene_45_init
     001A5D7E  GBVM$scene_45_init$autofade$8273   scene_45_init
     001A5D89  GBVM$scene_45_init$1f86a1f2_2951   scene_45_init
     001A5D94  GBVM$scene_45_init$4264318b_9bb6   scene_45_init
     001A5E4C  ___func_scene_52_actors            scene_52_actors
     001A5E4C  _scene_52_actors                   scene_52_actors
     001A5F50  ___func_scene_53_actors            scene_53_actors
     001A5F50  _scene_53_actors                   scene_53_actors
     001A6054  ___func_scene_78_collisions        scene_78_collisions
     001A6054  _scene_78_collisions               scene_78_collisions
     001A61BC  ___func_scene_79_collisions        scene_79_collisions
     001A61BC  _scene_79_collisions               scene_79_collisions
     001A6324  ___func_scene_8_collisions         scene_8_collisions
     001A6324  _scene_8_collisions                scene_8_collisions
     001A648C  ___func_scene_80_collisions        scene_80_collisions
     001A648C  _scene_80_collisions               scene_80_collisions
     001A65F4  ___func_scene_81_collisions        scene_81_collisions
     001A65F4  _scene_81_collisions               scene_81_collisions
     001A675C  ___func_scene_82_collisions        scene_82_collisions
     001A675C  _scene_82_collisions               scene_82_collisions
     001A68C4  ___func_scene_83_collisions        scene_83_collisions
     001A68C4  _scene_83_collisions               scene_83_collisions
     001A6A2C  ___func_scene_84_collisions        scene_84_collisions
     001A6A2C  _scene_84_collisions               scene_84_collisions
     001A6B94  ___func_scene_85_collisions        scene_85_collisions
     001A6B94  _scene_85_collisions               scene_85_collisions
     001A6CFC  ___func_scene_87_collisions        scene_87_collisions
     001A6CFC  _scene_87_collisions               scene_87_collisions
     001A6E64  ___func_scene_9_collisions         scene_9_collisions
ASxxxx Linker V03.00/V05.40 + sdld,  page 94.
Hexadecimal  [32-Bits]

Area                                    Addr        Size        Decimal Bytes (Attributes)
--------------------------------        ----        ----        ------- ----- ------------
_CODE_26                            001A4000    00003FFE =       16382. bytes (REL,CON)

      Value  Global                              Global Defined In Module
      -----  --------------------------------   ------------------------
     001A6E64  _scene_9_collisions                scene_9_collisions
     001A6FCC  ___func_scene_91_actors            scene_91_actors
     001A6FCC  _scene_91_actors                   scene_91_actors
     001A709C  ___func_scene_92_collisions        scene_92_collisions
     001A709C  _scene_92_collisions               scene_92_collisions
     001A7204  _scene_92_init                     scene_92_init
     001A7207  GBVM$scene_92_init$889aa170_6729   scene_92_init
     001A7211  GBVM$scene_92_init$0bc671ee_a3e3   scene_92_init
     001A721B  GBVM$scene_92_init$c9ea0215_0ddf   scene_92_init
     001A7225  GBVM$scene_92_init$999a0919_c39a   scene_92_init
     001A722F  GBVM$scene_92_init$autofade$af3d   scene_92_init
     001A723A  GBVM$scene_92_init$9e82a076_89df   scene_92_init
     001A7246  GBVM$scene_92_init$04c0e42c_8d5c   scene_92_init
     001A7250  GBVM$scene_92_init$463e25b2_ac5c   scene_92_init
     001A725C  GBVM$scene_92_init$785b28fd_1794   scene_92_init
     001A7266  GBVM$scene_92_init$feb5a7d5_e3cf   scene_92_init
     001A7272  GBVM$scene_92_init$16637bd7_f74c   scene_92_init
     001A727C  GBVM$scene_92_init$2cd516e3_ead7   scene_92_init
     001A7295  GBVM$scene_92_init$a7758eba_174b   scene_92_init
     001A72D6  GBVM$scene_92_init$a53c3e67_1dd6   scene_92_init
     001A7309  ___func_scene_95_collisions        scene_95_collisions
     001A7309  _scene_95_collisions               scene_95_collisions
     001A7471  ___func_scene_96_collisions        scene_96_collisions
     001A7471  _scene_96_collisions               scene_96_collisions
     001A75D9  ___func_scene_97_collisions        scene_97_collisions
     001A75D9  _scene_97_collisions               scene_97_collisions
     001A7741  ___func_scene_98_collisions        scene_98_collisions
     001A7741  _scene_98_collisions               scene_98_collisions
     001A78A9  ___func_sprite_dhilly_5_level_co   sprite_dhilly_5_level_copy__
     001A78A9  _sprite_dhilly_5_level_copy__til   sprite_dhilly_5_level_copy__
     001A796B  ___func_sprite_highlight_options   sprite_highlight_options_co_
     001A796B  _sprite_highlight_options_co_til   sprite_highlight_options_co_
     001A7A4D  _trigger_112_interact              trigger_112_interact
     001A7A50  GBVM$trigger_112_interact$f7df9c   trigger_112_interact
     001A7A55  GBVM$trigger_112_interact$e40a4a   trigger_112_interact
     001A7A61  GBVM$trigger_112_interact$d68eb7   trigger_112_interact
     001A7A6C  GBVM$trigger_112_interact$5a54e5   trigger_112_interact
     001A7A7E  GBVM$trigger_112_interact$ac3d68   trigger_112_interact
     001A7AB5  GBVM$trigger_112_interact$167975   trigger_112_interact
     001A7AF0  GBVM$trigger_112_interact$3ce6db   trigger_112_interact
     001A7B22  GBVM_END$trigger_112_interact$5a   trigger_112_interact
     001A7B22  GBVM_END$trigger_112_interact$e4   trigger_112_interact
     001A7B23  _trigger_113_interact              trigger_113_interact
     001A7B26  GBVM$trigger_113_interact$98c533   trigger_113_interact
     001A7B2B  GBVM$trigger_113_interact$828253   trigger_113_interact
     001A7B37  GBVM$trigger_113_interact$e1066b   trigger_113_interact
     001A7B42  GBVM$trigger_113_interact$4dad11   trigger_113_interact
     001A7B54  GBVM$trigger_113_interact$056241   trigger_113_interact
     001A7B8B  GBVM$trigger_113_interact$c65d84   trigger_113_interact
     001A7BC6  GBVM$trigger_113_interact$bb8db2   trigger_113_interact
     001A7BF8  GBVM_END$trigger_113_interact$4d   trigger_113_interact
ASxxxx Linker V03.00/V05.40 + sdld,  page 95.
Hexadecimal  [32-Bits]

Area                                    Addr        Size        Decimal Bytes (Attributes)
--------------------------------        ----        ----        ------- ----- ------------
_CODE_26                            001A4000    00003FFE =       16382. bytes (REL,CON)

      Value  Global                              Global Defined In Module
      -----  --------------------------------   ------------------------
     001A7BF8  GBVM_END$trigger_113_interact$82   trigger_113_interact
     001A7BF9  _trigger_114_interact              trigger_114_interact
     001A7BFC  GBVM$trigger_114_interact$f0a6c8   trigger_114_interact
     001A7C01  GBVM$trigger_114_interact$1b8e2a   trigger_114_interact
     001A7C0D  GBVM$trigger_114_interact$d5e34d   trigger_114_interact
     001A7C18  GBVM$trigger_114_interact$02b0e6   trigger_114_interact
     001A7C2A  GBVM$trigger_114_interact$aa4add   trigger_114_interact
     001A7C61  GBVM$trigger_114_interact$66f4c7   trigger_114_interact
     001A7C9C  GBVM$trigger_114_interact$ba498b   trigger_114_interact
     001A7CCE  GBVM_END$trigger_114_interact$02   trigger_114_interact
     001A7CCE  GBVM_END$trigger_114_interact$1b   trigger_114_interact
     001A7CCF  _trigger_120_interact              trigger_120_interact
     001A7CD2  GBVM$trigger_120_interact$dafcc4   trigger_120_interact
     001A7CF5  GBVM$trigger_120_interact$c2bc67   trigger_120_interact
     001A7D30  GBVM$trigger_120_interact$1ec9b1   trigger_120_interact
     001A7D49  GBVM$trigger_120_interact$4180cb   trigger_120_interact
     001A7D7C  _trigger_40_interact               trigger_40_interact
     001A7D7F  GBVM$trigger_40_interact$d999d4a   trigger_40_interact
     001A7D88  GBVM$trigger_40_interact$95e68fb   trigger_40_interact
     001A7E0A  GBVM$trigger_40_interact$234a960   trigger_40_interact
     001A7E0A  GBVM_END$trigger_40_interact$d99   trigger_40_interact
     001A7E3D  _trigger_52_interact               trigger_52_interact
     001A7E40  GBVM$trigger_52_interact$a39a14d   trigger_52_interact
     001A7E99  GBVM$trigger_52_interact$ab76e17   trigger_52_interact
     001A7EA5  GBVM$trigger_52_interact$87e5b62   trigger_52_interact
     001A7EB8  GBVM$trigger_52_interact$8a77ac9   trigger_52_interact
     001A7EC2  GBVM$trigger_52_interact$5886999   trigger_52_interact
     001A7ECE  GBVM$trigger_52_interact$2d25371   trigger_52_interact
     001A7EED  GBVM$trigger_52_interact$f9cdcca   trigger_52_interact
     001A7F38  GBVM$trigger_52_interact$a91b94f   trigger_52_interact
     001A7F40  GBVM_END$trigger_52_interact$a91   trigger_52_interact
     001A7F41  _trigger_89_interact               trigger_89_interact
     001A7F44  GBVM$trigger_89_interact$8c370b8   trigger_89_interact
     001A7F4D  GBVM$trigger_89_interact$cc59362   trigger_89_interact
     001A7F88  GBVM$trigger_89_interact$066c399   trigger_89_interact
     001A7FFD  GBVM_END$trigger_89_interact$8c3   trigger_89_interact

ASxxxx Linker V03.00/V05.40 + sdld,  page 96.
Hexadecimal  [32-Bits]

Area                                    Addr        Size        Decimal Bytes (Attributes)
--------------------------------        ----        ----        ------- ----- ------------
_CODE_28                            001C4000    00004000 =       16384. bytes (REL,CON)

      Value  Global                              Global Defined In Module
      -----  --------------------------------   ------------------------
     001C4000  _input_init                        input
     001C402B  _parallax_init                     parallax
     001C404B  _SIO_init                          sio
     001C4074  _actor_14_interact                 actor_14_interact
     001C4077  GBVM$actor_14_interact$b19a546f_   actor_14_interact
     001C40AA  _actor_17_interact                 actor_17_interact
     001C40AD  GBVM$actor_17_interact$20918770_   actor_17_interact
     001C40E0  _actor_31_interact                 actor_31_interact
     001C40E1  GBVM$actor_31_interact$a910af4c_   actor_31_interact
     001C4110  _actor_32_interact                 actor_32_interact
     001C4111  GBVM$actor_32_interact$61c485fd_   actor_32_interact
     001C4140  _actor_36_interact                 actor_36_interact
     001C4141  GBVM$actor_36_interact$e1469949_   actor_36_interact
     001C4170  _actor_37_interact                 actor_37_interact
     001C4171  GBVM$actor_37_interact$4a71bbeb_   actor_37_interact
     001C41A0  _actor_46_interact                 actor_46_interact
     001C41A3  GBVM$actor_46_interact$210d807d_   actor_46_interact
     001C41D6  _actor_47_interact                 actor_47_interact
     001C41D9  GBVM$actor_47_interact$faa7bf45_   actor_47_interact
     001C420C  ___func_bg_cave_ladder_copy_       bg_cave_ladder_copy_
     001C420C  _bg_cave_ladder_copy_              bg_cave_ladder_copy_
     001C421A  ___func_bg_cave_ladder_copy_0      bg_cave_ladder_copy_0
     001C421A  _bg_cave_ladder_copy_0             bg_cave_ladder_copy_0
     001C4228  ___func_bg_chase_shilly            bg_chase_shilly
     001C4228  _bg_chase_shilly                   bg_chase_shilly
     001C4236  ___func_bg_cinema                  bg_cinema
     001C4236  _bg_cinema                         bg_cinema
     001C4244  ___func_bg_controls_gb_copy_       bg_controls_gb_copy_
     001C4244  _bg_controls_gb_copy_              bg_controls_gb_copy_
     001C4252  ___func_bg_controls_gb_copy_0      bg_controls_gb_copy_0
     001C4252  _bg_controls_gb_copy_0             bg_controls_gb_copy_0
     001C4260  ___func_bg_controls_gba_copy_      bg_controls_gba_copy_
     001C4260  _bg_controls_gba_copy_             bg_controls_gba_copy_
     001C426E  ___func_bg_controls_gba_copy_0     bg_controls_gba_copy_0
     001C426E  _bg_controls_gba_copy_0            bg_controls_gba_copy_0
     001C427C  ___func_bg_controls_gbc_copy_      bg_controls_gbc_copy_
     001C427C  _bg_controls_gbc_copy_             bg_controls_gbc_copy_
     001C428A  ___func_bg_controls_mobile_copy_   bg_controls_mobile_copy_
     001C428A  _bg_controls_mobile_copy_          bg_controls_mobile_copy_
     001C4298  ___func_bg_controls_mobile_copy_   bg_controls_mobile_copy_0
     001C4298  _bg_controls_mobile_copy_0         bg_controls_mobile_copy_0
     001C42A6  ___func_bg_dhilly_bridge           bg_dhilly_bridge
     001C42A6  _bg_dhilly_bridge                  bg_dhilly_bridge
     001C42B4  ___func_bg_dhilly_game_1           bg_dhilly_game_1
     001C42B4  _bg_dhilly_game_1                  bg_dhilly_game_1
     001C42C2  ___func_bg_dhilly_game_10          bg_dhilly_game_10
     001C42C2  _bg_dhilly_game_10                 bg_dhilly_game_10
     001C42D0  ___func_bg_dhilly_game_11          bg_dhilly_game_11
     001C42D0  _bg_dhilly_game_11                 bg_dhilly_game_11
     001C42DE  ___func_bg_dhilly_game_4           bg_dhilly_game_4
ASxxxx Linker V03.00/V05.40 + sdld,  page 97.
Hexadecimal  [32-Bits]

Area                                    Addr        Size        Decimal Bytes (Attributes)
--------------------------------        ----        ----        ------- ----- ------------
_CODE_28                            001C4000    00004000 =       16384. bytes (REL,CON)

      Value  Global                              Global Defined In Module
      -----  --------------------------------   ------------------------
     001C42DE  _bg_dhilly_game_4                  bg_dhilly_game_4
     001C42EC  ___func_bg_dhilly_game_5           bg_dhilly_game_5
     001C42EC  _bg_dhilly_game_5                  bg_dhilly_game_5
     001C42FA  ___func_bg_dhilly_game_8           bg_dhilly_game_8
     001C42FA  _bg_dhilly_game_8                  bg_dhilly_game_8
     001C4308  ___func_bg_dhilly_game_9           bg_dhilly_game_9
     001C4308  _bg_dhilly_game_9                  bg_dhilly_game_9
     001C4316  ___func_bg_dhillyhubdown           bg_dhillyhubdown
     001C4316  _bg_dhillyhubdown                  bg_dhillyhubdown
     001C4324  ___func_bg_elevator                bg_elevator
     001C4324  _bg_elevator                       bg_elevator
     001C4332  ___func_bg_endingscene_0           bg_endingscene_0
     001C4332  _bg_endingscene_0                  bg_endingscene_0
     001C4340  ___func_bg_endingscene             bg_endingscene
     001C4340  _bg_endingscene                    bg_endingscene
     001C434E  ___func_bg_endingscene2            bg_endingscene2
     001C434E  _bg_endingscene2                   bg_endingscene2
     001C435C  ___func_bg_endingscene3            bg_endingscene3
     001C435C  _bg_endingscene3                   bg_endingscene3
     001C436A  ___func_bg_fall_to_shilly_area_c   bg_fall_to_shilly_area_copy
     001C436A  _bg_fall_to_shilly_area_copy       bg_fall_to_shilly_area_copy
     001C4378  ___func_bg_fieldlazy               bg_fieldlazy
     001C4378  _bg_fieldlazy                      bg_fieldlazy
     001C4386  ___func_bg_iceos_desktop_copy_     bg_iceos_desktop_copy_
     001C4386  _bg_iceos_desktop_copy_            bg_iceos_desktop_copy_
     001C4394  ___func_bg_iceos_login_2_copy_     bg_iceos_login_2_copy_
     001C4394  _bg_iceos_login_2_copy_            bg_iceos_login_2_copy_
     001C43A2  ___func_bg_iceos_login_copy__til   bg_iceos_login_copy__tileset
     001C43A2  _bg_iceos_login_copy__tileset      bg_iceos_login_copy__tileset
     001C43B4  ___func_bg_iceos_login_copy_       bg_iceos_login_copy_
     001C43B4  _bg_iceos_login_copy_              bg_iceos_login_copy_
     001C43C2  ___func_bg_iceos_platformer2_cop   bg_iceos_platformer2_copy_
     001C43C2  _bg_iceos_platformer2_copy_        bg_iceos_platformer2_copy_
     001C43D0  ___func_bg_iceos_platformer3_cop   bg_iceos_platformer3_copy_
     001C43D0  _bg_iceos_platformer3_copy_        bg_iceos_platformer3_copy_
     001C43DE  ___func_bg_iceos_platformer4       bg_iceos_platformer4
     001C43DE  _bg_iceos_platformer4              bg_iceos_platformer4
     001C43EC  ___func_bg_init_copy_              bg_init_copy_
     001C43EC  _bg_init_copy_                     bg_init_copy_
     001C43FA  ___func_bg_init_copy_0             bg_init_copy_0
     001C43FA  _bg_init_copy_0                    bg_init_copy_0
     001C4408  ___func_bg_init_copy_1             bg_init_copy_1
     001C4408  _bg_init_copy_1                    bg_init_copy_1
     001C4416  ___func_bg_init_copy_2             bg_init_copy_2
     001C4416  _bg_init_copy_2                    bg_init_copy_2
     001C4424  ___func_bg_intro_scenary_copy_     bg_intro_scenary_copy_
     001C4424  _bg_intro_scenary_copy_            bg_intro_scenary_copy_
     001C4432  ___func_bg_intro_weather_copy_     bg_intro_weather_copy_
     001C4432  _bg_intro_weather_copy_            bg_intro_weather_copy_
     001C4440  ___func_bg_lair_hub                bg_lair_hub
     001C4440  _bg_lair_hub                       bg_lair_hub
ASxxxx Linker V03.00/V05.40 + sdld,  page 98.
Hexadecimal  [32-Bits]

Area                                    Addr        Size        Decimal Bytes (Attributes)
--------------------------------        ----        ----        ------- ----- ------------
_CODE_28                            001C4000    00004000 =       16384. bytes (REL,CON)

      Value  Global                              Global Defined In Module
      -----  --------------------------------   ------------------------
     001C444E  ___func_bg_lair_left_2_copy_       bg_lair_left_2_copy_
     001C444E  _bg_lair_left_2_copy_              bg_lair_left_2_copy_
     001C445C  ___func_bg_lair_left_2             bg_lair_left_2
     001C445C  _bg_lair_left_2                    bg_lair_left_2
     001C446A  ___func_bg_lair_left_3             bg_lair_left_3
     001C446A  _bg_lair_left_3                    bg_lair_left_3
     001C4478  ___func_bg_lair_right_2_copy_      bg_lair_right_2_copy_
     001C4478  _bg_lair_right_2_copy_             bg_lair_right_2_copy_
     001C4486  ___func_bg_lair_right_2            bg_lair_right_2
     001C4486  _bg_lair_right_2                   bg_lair_right_2
     001C4494  ___func_bg_lair_right_3_copy_      bg_lair_right_3_copy_
     001C4494  _bg_lair_right_3_copy_             bg_lair_right_3_copy_
     001C44A2  ___func_bg_lair_right_3            bg_lair_right_3
     001C44A2  _bg_lair_right_3                   bg_lair_right_3
     001C44B0  ___func_bg_lair_right_4_copy_      bg_lair_right_4_copy_
     001C44B0  _bg_lair_right_4_copy_             bg_lair_right_4_copy_
     001C44BE  ___func_bg_lair_right_5            bg_lair_right_5
     001C44BE  _bg_lair_right_5                   bg_lair_right_5
     001C44CC  ___func_bg_lair_right              bg_lair_right
     001C44CC  _bg_lair_right                     bg_lair_right
     001C44DA  ___func_bg_lencity_dhillybuildin   bg_lencity_dhillybuilding_c
     001C44DA  _bg_lencity_dhillybuilding_c       bg_lencity_dhillybuilding_c
     001C44E8  ___func_bg_lencity_dhillybuildin   bg_lencity_dhillybuilding_f
     001C44E8  _bg_lencity_dhillybuilding_f       bg_lencity_dhillybuilding_f
     001C44F6  ___func_bg_lencity_trainstation_   bg_lencity_trainstation_cop
     001C44F6  _bg_lencity_trainstation_cop       bg_lencity_trainstation_cop
     001C4504  ___func_bg_lencity_trainstation    bg_lencity_trainstation
     001C4504  _bg_lencity_trainstation           bg_lencity_trainstation
     001C4512  ___func_bg_lencityopen_copy_       bg_lencityopen_copy_
     001C4512  _bg_lencityopen_copy_              bg_lencityopen_copy_
     001C4520  ___func_bg_lencityopen_copy_0      bg_lencityopen_copy_0
     001C4520  _bg_lencityopen_copy_0             bg_lencityopen_copy_0
     001C452E  ___func_bg_lencityopen             bg_lencityopen
     001C452E  _bg_lencityopen                    bg_lencityopen
     001C453C  ___func_bg_options_copy_           bg_options_copy_
     001C453C  _bg_options_copy_                  bg_options_copy_
     001C454A  ___func_bg_pixil_frame_0_23        bg_pixil_frame_0_23
     001C454A  _bg_pixil_frame_0_23               bg_pixil_frame_0_23
     001C4558  ___func_bg_pixil_frame_0_24        bg_pixil_frame_0_24
     001C4558  _bg_pixil_frame_0_24               bg_pixil_frame_0_24
     001C4566  ___func_bg_pixil_frame_0_30        bg_pixil_frame_0_30
     001C4566  _bg_pixil_frame_0_30               bg_pixil_frame_0_30
     001C4574  ___func_bg_pixil_frame_0_31        bg_pixil_frame_0_31
     001C4574  _bg_pixil_frame_0_31               bg_pixil_frame_0_31
     001C4582  ___func_bg_pixil_frame_0_33        bg_pixil_frame_0_33
     001C4582  _bg_pixil_frame_0_33               bg_pixil_frame_0_33
     001C4590  ___func_bg_pixil_frame_0_copy_co   bg_pixil_frame_0_copy_copy_
     001C4590  _bg_pixil_frame_0_copy_copy_       bg_pixil_frame_0_copy_copy_
     001C459E  ___func_bg_pixil_frame_23_0        bg_pixil_frame_23_0
     001C459E  _bg_pixil_frame_23_0               bg_pixil_frame_23_0
     001C45AC  ___func_bg_placeholder_copy_copy   bg_placeholder_copy_copy_co_
ASxxxx Linker V03.00/V05.40 + sdld,  page 99.
Hexadecimal  [32-Bits]

Area                                    Addr        Size        Decimal Bytes (Attributes)
--------------------------------        ----        ----        ------- ----- ------------
_CODE_28                            001C4000    00004000 =       16384. bytes (REL,CON)

      Value  Global                              Global Defined In Module
      -----  --------------------------------   ------------------------
     001C45AC  _bg_placeholder_copy_copy_co_0     bg_placeholder_copy_copy_co_
     001C45BA  ___func_bg_placeholder_copy_copy   bg_placeholder_copy_copy_co
     001C45BA  _bg_placeholder_copy_copy_co       bg_placeholder_copy_copy_co
     001C45C8  ___func_bg_samsam_copy             bg_samsam_copy
     001C45C8  _bg_samsam_copy                    bg_samsam_copy
     001C45D6  ___func_bg_shillycity_sara_house   bg_shillycity_sara_house_co
     001C45D6  _bg_shillycity_sara_house_co       bg_shillycity_sara_house_co
     001C45E4  ___func_bg_shillycityopen_copy_    bg_shillycityopen_copy_
     001C45E4  _bg_shillycityopen_copy_           bg_shillycityopen_copy_
     001C45F2  ___func_bg_shillycityopen_copy_0   bg_shillycityopen_copy_0
     001C45F2  _bg_shillycityopen_copy_0          bg_shillycityopen_copy_0
     001C4600  ___func_bg_shillycityopen_copy_1   bg_shillycityopen_copy_1
     001C4600  _bg_shillycityopen_copy_1          bg_shillycityopen_copy_1
     001C460E  ___func_bg_square_frozen_future    bg_square_frozen_future
     001C460E  _bg_square_frozen_future           bg_square_frozen_future
     001C461C  ___func_bg_theatre                 bg_theatre
     001C461C  _bg_theatre                        bg_theatre
     001C462A  ___func_bg_title_copy_             bg_title_copy_
     001C462A  _bg_title_copy_                    bg_title_copy_
     001C4638  ___func_bg_title_copy_0            bg_title_copy_0
     001C4638  _bg_title_copy_0                   bg_title_copy_0
     001C4646  ___func_bg_title_copy_1_tileset    bg_title_copy_1_tileset
     001C4646  _bg_title_copy_1_tileset           bg_title_copy_1_tileset
     001C4658  ___func_bg_title_copy_1            bg_title_copy_1
     001C4658  _bg_title_copy_1                   bg_title_copy_1
     001C4666  ___func_bg_title_copy_2            bg_title_copy_2
     001C4666  _bg_title_copy_2                   bg_title_copy_2
     001C4674  ___func_bg_title                   bg_title
     001C4674  _bg_title                          bg_title
     001C4682  ___func_bg_wakeupsquare_1_tilese   bg_wakeupsquare_1_tileset
     001C4682  _bg_wakeupsquare_1_tileset         bg_wakeupsquare_1_tileset
     001C46A4  ___func_bg_wakeupsquare_1          bg_wakeupsquare_1
     001C46A4  _bg_wakeupsquare_1                 bg_wakeupsquare_1
     001C46B2  ___func_bg_wakeupsquare_3_copy_    bg_wakeupsquare_3_copy_
     001C46B2  _bg_wakeupsquare_3_copy_           bg_wakeupsquare_3_copy_
     001C46C0  ___func_scene_0_triggers           scene_0_triggers
     001C46C0  _scene_0_triggers                  scene_0_triggers
     001C46E8  _scene_12_init                     scene_12_init
     001C46E9  GBVM$scene_12_init$autofade$8ab2   scene_12_init
     001C46F5  _scene_13_init                     scene_13_init
     001C46F6  GBVM$scene_13_init$autofade$1a3b   scene_13_init
     001C4702  _scene_15_init                     scene_15_init
     001C4703  GBVM$scene_15_init$625cb4a5_29bc   scene_15_init
     001C4708  GBVM$scene_15_init$726c7601_78a5   scene_15_init
     001C470D  GBVM$scene_15_init$8be0500c_e3ac   scene_15_init
     001C4715  GBVM$scene_15_init$b54057a1_f427   scene_15_init
     001C4715  GBVM_END$scene_15_init$8be0500c_   scene_15_init
     001C4721  _scene_16_init                     scene_16_init
     001C4722  GBVM$scene_16_init$autofade$3642   scene_16_init
     001C4722  GBVM$scene_16_init$c01c134d_b431   scene_16_init
     001C472E  ___func_scene_17_actors            scene_17_actors
ASxxxx Linker V03.00/V05.40 + sdld,  page 100.
Hexadecimal  [32-Bits]

Area                                    Addr        Size        Decimal Bytes (Attributes)
--------------------------------        ----        ----        ------- ----- ------------
_CODE_28                            001C4000    00004000 =       16384. bytes (REL,CON)

      Value  Global                              Global Defined In Module
      -----  --------------------------------   ------------------------
     001C472E  _scene_17_actors                   scene_17_actors
     001C4762  _scene_17_init                     scene_17_init
     001C4763  GBVM$scene_17_init$52cb8907_0394   scene_17_init
     001C4763  GBVM$scene_17_init$cefb32c8_e934   scene_17_init
     001C476B  GBVM$scene_17_init$46f9034a_ca1e   scene_17_init
     001C476B  GBVM_END$scene_17_init$52cb8907_   scene_17_init
     001C4777  ___func_scene_17_triggers          scene_17_triggers
     001C4777  _scene_17_triggers                 scene_17_triggers
     001C4787  ___func_scene_18_triggers          scene_18_triggers
     001C4787  _scene_18_triggers                 scene_18_triggers
     001C479F  ___func_scene_19_actors            scene_19_actors
     001C479F  _scene_19_actors                   scene_19_actors
     001C47D3  ___func_scene_20_actors            scene_20_actors
     001C47D3  _scene_20_actors                   scene_20_actors
     001C4807  _scene_20_init                     scene_20_init
     001C4808  GBVM$scene_20_init$5487a0a2_b6d4   scene_20_init
     001C4808  GBVM$scene_20_init$autofade$8a38   scene_20_init
     001C4814  ___func_scene_22                   scene_22
     001C4814  _scene_22                          scene_22
     001C484F  ___func_scene_23                   scene_23
     001C484F  _scene_23                          scene_23
     001C488A  ___func_scene_24                   scene_24
     001C488A  _scene_24                          scene_24
     001C48C5  ___func_scene_25                   scene_25
     001C48C5  _scene_25                          scene_25
     001C4900  ___func_scene_26                   scene_26
     001C4900  _scene_26                          scene_26
     001C493B  ___func_scene_27                   scene_27
     001C493B  _scene_27                          scene_27
     001C4976  _scene_28_init                     scene_28_init
     001C4977  GBVM$scene_28_init$autofade$f1ca   scene_28_init
     001C4983  ___func_scene_28_triggers          scene_28_triggers
     001C4983  _scene_28_triggers                 scene_28_triggers
     001C49AB  ___func_scene_28                   scene_28
     001C49AB  _scene_28                          scene_28
     001C49E6  _scene_29_init                     scene_29_init
     001C49E7  GBVM$scene_29_init$autofade$44fe   scene_29_init
     001C49F3  ___func_scene_29                   scene_29
     001C49F3  _scene_29                          scene_29
     001C4A2E  ___func_scene_3_actors             scene_3_actors
     001C4A2E  _scene_3_actors                    scene_3_actors
     001C4A62  ___func_scene_3                    scene_3
     001C4A62  _scene_3                           scene_3
     001C4A9D  _scene_30_init                     scene_30_init
     001C4A9E  GBVM$scene_30_init$autofade$e0ce   scene_30_init
     001C4AAA  ___func_scene_30_triggers          scene_30_triggers
     001C4AAA  _scene_30_triggers                 scene_30_triggers
     001C4ABA  ___func_scene_30                   scene_30
     001C4ABA  _scene_30                          scene_30
     001C4AF5  _scene_31_init                     scene_31_init
     001C4AF6  GBVM$scene_31_init$autofade$6f00   scene_31_init
ASxxxx Linker V03.00/V05.40 + sdld,  page 101.
Hexadecimal  [32-Bits]

Area                                    Addr        Size        Decimal Bytes (Attributes)
--------------------------------        ----        ----        ------- ----- ------------
_CODE_28                            001C4000    00004000 =       16384. bytes (REL,CON)

      Value  Global                              Global Defined In Module
      -----  --------------------------------   ------------------------
     001C4B02  ___func_scene_31_triggers          scene_31_triggers
     001C4B02  _scene_31_triggers                 scene_31_triggers
     001C4B1A  ___func_scene_31                   scene_31
     001C4B1A  _scene_31                          scene_31
     001C4B55  _scene_32_init                     scene_32_init
     001C4B56  GBVM$scene_32_init$autofade$6187   scene_32_init
     001C4B62  ___func_scene_32                   scene_32
     001C4B62  _scene_32                          scene_32
     001C4B9D  _scene_33_init                     scene_33_init
     001C4BA0  GBVM$scene_33_init$bbece732_fb3d   scene_33_init
     001C4BAA  GBVM$scene_33_init$cdfbb1cd_1f65   scene_33_init
     001C4BB4  GBVM$scene_33_init$c2ffcbf6_d80c   scene_33_init
     001C4BBE  GBVM$scene_33_init$autofade$5a8e   scene_33_init
     001C4BCA  ___func_scene_33                   scene_33
     001C4BCA  _scene_33                          scene_33
     001C4C05  ___func_scene_34_actors            scene_34_actors
     001C4C05  _scene_34_actors                   scene_34_actors
     001C4C39  _scene_34_init                     scene_34_init
     001C4C3A  GBVM$scene_34_init$7c6c4d91_d25b   scene_34_init
     001C4C3F  GBVM$scene_34_init$7bebe5f7_65ef   scene_34_init
     001C4C47  GBVM$scene_34_init$autofade$e578   scene_34_init
     001C4C47  GBVM_END$scene_34_init$7bebe5f7_   scene_34_init
     001C4C53  ___func_scene_34_triggers          scene_34_triggers
     001C4C53  _scene_34_triggers                 scene_34_triggers
     001C4C6B  ___func_scene_34                   scene_34
     001C4C6B  _scene_34                          scene_34
     001C4CA6  _scene_35_init                     scene_35_init
     001C4CA7  GBVM$scene_35_init$aecaed7a_c476   scene_35_init
     001C4CA7  GBVM$scene_35_init$autofade$22f6   scene_35_init
     001C4CB3  ___func_scene_35                   scene_35
     001C4CB3  _scene_35                          scene_35
     001C4CEE  _scene_37_init                     scene_37_init
     001C4CEF  GBVM$scene_37_init$autofade$37b5   scene_37_init
     001C4CFB  ___func_scene_37                   scene_37
     001C4CFB  _scene_37                          scene_37
     001C4D36  ___func_scene_38                   scene_38
     001C4D36  _scene_38                          scene_38
     001C4D71  _scene_39_init                     scene_39_init
     001C4D72  GBVM$scene_39_init$autofade$5937   scene_39_init
     001C4D7E  ___func_scene_39_sprites           scene_39_sprites
     001C4D7E  _scene_39_sprites                  scene_39_sprites
     001C4D8A  ___func_scene_39                   scene_39
     001C4D8A  _scene_39                          scene_39
     001C4DC5  ___func_scene_4                    scene_4
     001C4DC5  _scene_4                           scene_4
     001C4E00  _scene_40_init                     scene_40_init
     001C4E01  GBVM$scene_40_init$601668df_1452   scene_40_init
     001C4E09  GBVM$scene_40_init$autofade$9ee2   scene_40_init
     001C4E09  GBVM_END$scene_40_init$601668df_   scene_40_init
     001C4E15  ___func_scene_40_triggers          scene_40_triggers
     001C4E15  _scene_40_triggers                 scene_40_triggers
ASxxxx Linker V03.00/V05.40 + sdld,  page 102.
Hexadecimal  [32-Bits]

Area                                    Addr        Size        Decimal Bytes (Attributes)
--------------------------------        ----        ----        ------- ----- ------------
_CODE_28                            001C4000    00004000 =       16384. bytes (REL,CON)

      Value  Global                              Global Defined In Module
      -----  --------------------------------   ------------------------
     001C4E2D  ___func_scene_40                   scene_40
     001C4E2D  _scene_40                          scene_40
     001C4E68  _scene_41_init                     scene_41_init
     001C4E69  GBVM$scene_41_init$57d21853_f0ae   scene_41_init
     001C4E71  GBVM$scene_41_init$autofade$57f8   scene_41_init
     001C4E71  GBVM_END$scene_41_init$57d21853_   scene_41_init
     001C4E7D  ___func_scene_41_triggers          scene_41_triggers
     001C4E7D  _scene_41_triggers                 scene_41_triggers
     001C4EA5  ___func_scene_41                   scene_41
     001C4EA5  _scene_41                          scene_41
     001C4EE0  _scene_42_init                     scene_42_init
     001C4EE1  GBVM$scene_42_init$8b695d08_d1d1   scene_42_init
     001C4EE9  GBVM$scene_42_init$autofade$d358   scene_42_init
     001C4EE9  GBVM_END$scene_42_init$8b695d08_   scene_42_init
     001C4EF5  ___func_scene_42                   scene_42
     001C4EF5  _scene_42                          scene_42
     001C4F30  _scene_43_init                     scene_43_init
     001C4F31  GBVM$scene_43_init$dda00c65_f444   scene_43_init
     001C4F39  GBVM$scene_43_init$autofade$8ed2   scene_43_init
     001C4F39  GBVM_END$scene_43_init$dda00c65_   scene_43_init
     001C4F45  ___func_scene_43_triggers          scene_43_triggers
     001C4F45  _scene_43_triggers                 scene_43_triggers
     001C4F75  ___func_scene_43                   scene_43
     001C4F75  _scene_43                          scene_43
     001C4FB0  _scene_44_init                     scene_44_init
     001C4FB1  GBVM$scene_44_init$07cf6cd3_6dad   scene_44_init
     001C4FB9  GBVM$scene_44_init$autofade$3d85   scene_44_init
     001C4FB9  GBVM_END$scene_44_init$07cf6cd3_   scene_44_init
     001C4FC5  ___func_scene_44                   scene_44
     001C4FC5  _scene_44                          scene_44
     001C5000  ___func_scene_45                   scene_45
     001C5000  _scene_45                          scene_45
     001C503B  ___func_scene_46_projectiles       scene_46_projectiles
     001C503B  _scene_46_projectiles              scene_46_projectiles
     001C5052  ___func_scene_46                   scene_46
     001C5052  _scene_46                          scene_46
     001C508D  _scene_47_init                     scene_47_init
     001C508E  GBVM$scene_47_init$autofade$bf9e   scene_47_init
     001C509A  ___func_scene_47                   scene_47
     001C509A  _scene_47                          scene_47
     001C50D5  ___func_scene_48_actors            scene_48_actors
     001C50D5  _scene_48_actors                   scene_48_actors
     001C5109  _scene_48_init                     scene_48_init
     001C510A  GBVM$scene_48_init$236009b7_9d0c   scene_48_init
     001C5112  GBVM$scene_48_init$autofade$73c1   scene_48_init
     001C5112  GBVM_END$scene_48_init$236009b7_   scene_48_init
     001C511E  ___func_scene_48_projectiles       scene_48_projectiles
     001C511E  _scene_48_projectiles              scene_48_projectiles
     001C5135  ___func_scene_48                   scene_48
     001C5135  _scene_48                          scene_48
     001C5170  ___func_scene_49_actors            scene_49_actors
ASxxxx Linker V03.00/V05.40 + sdld,  page 103.
Hexadecimal  [32-Bits]

Area                                    Addr        Size        Decimal Bytes (Attributes)
--------------------------------        ----        ----        ------- ----- ------------
_CODE_28                            001C4000    00004000 =       16384. bytes (REL,CON)

      Value  Global                              Global Defined In Module
      -----  --------------------------------   ------------------------
     001C5170  _scene_49_actors                   scene_49_actors
     001C51A4  _scene_49_init                     scene_49_init
     001C51A5  GBVM$scene_49_init$8861a7c2_fc58   scene_49_init
     001C51AD  GBVM$scene_49_init$autofade$40bc   scene_49_init
     001C51AD  GBVM_END$scene_49_init$8861a7c2_   scene_49_init
     001C51B9  ___func_scene_49_projectiles       scene_49_projectiles
     001C51B9  _scene_49_projectiles              scene_49_projectiles
     001C51D0  ___func_scene_49                   scene_49
     001C51D0  _scene_49                          scene_49
     001C520B  ___func_scene_5                    scene_5
     001C520B  _scene_5                           scene_5
     001C5246  ___func_scene_50_actors            scene_50_actors
     001C5246  _scene_50_actors                   scene_50_actors
     001C527A  _scene_50_init                     scene_50_init
     001C527D  GBVM$scene_50_init$dc06e429_6c9e   scene_50_init
     001C5287  GBVM$scene_50_init$autofade$8493   scene_50_init
     001C5293  ___func_scene_50_projectiles       scene_50_projectiles
     001C5293  _scene_50_projectiles              scene_50_projectiles
     001C52AA  ___func_scene_50_triggers          scene_50_triggers
     001C52AA  _scene_50_triggers                 scene_50_triggers
     001C52BA  ___func_scene_50                   scene_50
     001C52BA  _scene_50                          scene_50
     001C52F5  ___func_scene_51_actors            scene_51_actors
     001C52F5  _scene_51_actors                   scene_51_actors
     001C5329  _scene_51_init                     scene_51_init
     001C532C  GBVM$scene_51_init$d15fa5fe_937c   scene_51_init
     001C5336  GBVM$scene_51_init$autofade$ec3a   scene_51_init
     001C5342  ___func_scene_51                   scene_51
     001C5342  _scene_51                          scene_51
     001C537D  ___func_scene_52                   scene_52
     001C537D  _scene_52                          scene_52
     001C53B8  _scene_53_init                     scene_53_init
     001C53B9  GBVM$scene_53_init$autofade$282e   scene_53_init
     001C53C5  ___func_scene_53                   scene_53
     001C53C5  _scene_53                          scene_53
     001C5400  ___func_scene_54_actors            scene_54_actors
     001C5400  _scene_54_actors                   scene_54_actors
     001C5434  ___func_scene_54                   scene_54
     001C5434  _scene_54                          scene_54
     001C546F  _scene_55_init                     scene_55_init
     001C5470  GBVM$scene_55_init$autofade$4dfe   scene_55_init
     001C547C  ___func_scene_55                   scene_55
     001C547C  _scene_55                          scene_55
     001C54B7  ___func_scene_56                   scene_56
     001C54B7  _scene_56                          scene_56
     001C54F2  ___func_scene_57_triggers          scene_57_triggers
     001C54F2  _scene_57_triggers                 scene_57_triggers
     001C5502  ___func_scene_57                   scene_57
     001C5502  _scene_57                          scene_57
     001C553D  ___func_scene_58_actors            scene_58_actors
     001C553D  _scene_58_actors                   scene_58_actors
ASxxxx Linker V03.00/V05.40 + sdld,  page 104.
Hexadecimal  [32-Bits]

Area                                    Addr        Size        Decimal Bytes (Attributes)
--------------------------------        ----        ----        ------- ----- ------------
_CODE_28                            001C4000    00004000 =       16384. bytes (REL,CON)

      Value  Global                              Global Defined In Module
      -----  --------------------------------   ------------------------
     001C5571  _scene_58_init                     scene_58_init
     001C5572  GBVM$scene_58_init$cfa12eab_d8ac   scene_58_init
     001C5577  GBVM$scene_58_init$bfc1fd8b_0cd0   scene_58_init
     001C557F  GBVM$scene_58_init$autofade$21fd   scene_58_init
     001C557F  GBVM_END$scene_58_init$bfc1fd8b_   scene_58_init
     001C558B  ___func_scene_58_triggers          scene_58_triggers
     001C558B  _scene_58_triggers                 scene_58_triggers
     001C559B  ___func_scene_58                   scene_58
     001C559B  _scene_58                          scene_58
     001C55D6  ___func_scene_59                   scene_59
     001C55D6  _scene_59                          scene_59
     001C5611  ___func_scene_6                    scene_6
     001C5611  _scene_6                           scene_6
     001C564C  ___func_scene_60_actors            scene_60_actors
     001C564C  _scene_60_actors                   scene_60_actors
     001C5680  ___func_scene_60                   scene_60
     001C5680  _scene_60                          scene_60
     001C56BB  ___func_scene_61_actors            scene_61_actors
     001C56BB  _scene_61_actors                   scene_61_actors
     001C56EF  ___func_scene_61                   scene_61
     001C56EF  _scene_61                          scene_61
     001C572A  _scene_62_init                     scene_62_init
     001C572B  GBVM$scene_62_init$eee0145f_4e81   scene_62_init
     001C5730  GBVM$scene_62_init$35fa002e_9419   scene_62_init
     001C5738  GBVM$scene_62_init$autofade$9fcd   scene_62_init
     001C5738  GBVM_END$scene_62_init$35fa002e_   scene_62_init
     001C5744  ___func_scene_62_triggers          scene_62_triggers
     001C5744  _scene_62_triggers                 scene_62_triggers
     001C575C  ___func_scene_62                   scene_62
     001C575C  _scene_62                          scene_62
     001C5797  ___func_scene_63                   scene_63
     001C5797  _scene_63                          scene_63
     001C57D2  ___func_scene_64_actors            scene_64_actors
     001C57D2  _scene_64_actors                   scene_64_actors
     001C5806  ___func_scene_64_triggers          scene_64_triggers
     001C5806  _scene_64_triggers                 scene_64_triggers
     001C581E  ___func_scene_64                   scene_64
     001C581E  _scene_64                          scene_64
     001C5859  ___func_scene_65_triggers          scene_65_triggers
     001C5859  _scene_65_triggers                 scene_65_triggers
     001C5869  ___func_scene_65                   scene_65
     001C5869  _scene_65                          scene_65
     001C58A4  ___func_scene_66_triggers          scene_66_triggers
     001C58A4  _scene_66_triggers                 scene_66_triggers
     001C58B4  ___func_scene_66                   scene_66
     001C58B4  _scene_66                          scene_66
     001C58EF  ___func_scene_67                   scene_67
     001C58EF  _scene_67                          scene_67
     001C592A  ___func_scene_68                   scene_68
     001C592A  _scene_68                          scene_68
     001C5965  ___func_scene_69                   scene_69
ASxxxx Linker V03.00/V05.40 + sdld,  page 105.
Hexadecimal  [32-Bits]

Area                                    Addr        Size        Decimal Bytes (Attributes)
--------------------------------        ----        ----        ------- ----- ------------
_CODE_28                            001C4000    00004000 =       16384. bytes (REL,CON)

      Value  Global                              Global Defined In Module
      -----  --------------------------------   ------------------------
     001C5965  _scene_69                          scene_69
     001C59A0  ___func_scene_7                    scene_7
     001C59A0  _scene_7                           scene_7
     001C59DB  ___func_scene_70                   scene_70
     001C59DB  _scene_70                          scene_70
     001C5A16  ___func_scene_71_actors            scene_71_actors
     001C5A16  _scene_71_actors                   scene_71_actors
     001C5A4A  _scene_71_init                     scene_71_init
     001C5A4D  GBVM$scene_71_init$248594c9_755a   scene_71_init
     001C5A57  GBVM$scene_71_init$autofade$4c04   scene_71_init
     001C5A63  ___func_scene_71_triggers          scene_71_triggers
     001C5A63  _scene_71_triggers                 scene_71_triggers
     001C5A7B  ___func_scene_71                   scene_71
     001C5A7B  _scene_71                          scene_71
     001C5AB6  ___func_scene_72_triggers          scene_72_triggers
     001C5AB6  _scene_72_triggers                 scene_72_triggers
     001C5ACE  ___func_scene_72                   scene_72
     001C5ACE  _scene_72                          scene_72
     001C5B09  ___func_scene_73                   scene_73
     001C5B09  _scene_73                          scene_73
     001C5B44  ___func_scene_74                   scene_74
     001C5B44  _scene_74                          scene_74
     001C5B7F  _scene_75_init                     scene_75_init
     001C5B80  GBVM$scene_75_init$42582032_0008   scene_75_init
     001C5B82  GBVM$scene_75_init$autofade$9684   scene_75_init
     001C5B8E  ___func_scene_75                   scene_75
     001C5B8E  _scene_75                          scene_75
     001C5BC9  ___func_scene_76_actors            scene_76_actors
     001C5BC9  _scene_76_actors                   scene_76_actors
     001C5BFD  _scene_76_init                     scene_76_init
     001C5C00  GBVM$scene_76_init$780a3648_225e   scene_76_init
     001C5C0A  GBVM$scene_76_init$autofade$691e   scene_76_init
     001C5C16  ___func_scene_76                   scene_76
     001C5C16  _scene_76                          scene_76
     001C5C51  ___func_scene_77                   scene_77
     001C5C51  _scene_77                          scene_77
     001C5C8C  ___func_scene_78                   scene_78
     001C5C8C  _scene_78                          scene_78
     001C5CC7  ___func_scene_79                   scene_79
     001C5CC7  _scene_79                          scene_79
     001C5D02  ___func_scene_8                    scene_8
     001C5D02  _scene_8                           scene_8
     001C5D3D  ___func_scene_80_triggers          scene_80_triggers
     001C5D3D  _scene_80_triggers                 scene_80_triggers
     001C5D4D  ___func_scene_80                   scene_80
     001C5D4D  _scene_80                          scene_80
     001C5D88  ___func_scene_81_triggers          scene_81_triggers
     001C5D88  _scene_81_triggers                 scene_81_triggers
     001C5DA0  ___func_scene_81                   scene_81
     001C5DA0  _scene_81                          scene_81
     001C5DDB  ___func_scene_82_triggers          scene_82_triggers
ASxxxx Linker V03.00/V05.40 + sdld,  page 106.
Hexadecimal  [32-Bits]

Area                                    Addr        Size        Decimal Bytes (Attributes)
--------------------------------        ----        ----        ------- ----- ------------
_CODE_28                            001C4000    00004000 =       16384. bytes (REL,CON)

      Value  Global                              Global Defined In Module
      -----  --------------------------------   ------------------------
     001C5DDB  _scene_82_triggers                 scene_82_triggers
     001C5DEB  ___func_scene_82                   scene_82
     001C5DEB  _scene_82                          scene_82
     001C5E26  ___func_scene_83_triggers          scene_83_triggers
     001C5E26  _scene_83_triggers                 scene_83_triggers
     001C5E36  ___func_scene_83                   scene_83
     001C5E36  _scene_83                          scene_83
     001C5E71  ___func_scene_84_triggers          scene_84_triggers
     001C5E71  _scene_84_triggers                 scene_84_triggers
     001C5E89  ___func_scene_84                   scene_84
     001C5E89  _scene_84                          scene_84
     001C5EC4  ___func_scene_85                   scene_85
     001C5EC4  _scene_85                          scene_85
     001C5EFF  _scene_86_init                     scene_86_init
     001C5F00  GBVM$scene_86_init$26de457d_dea0   scene_86_init
     001C5F02  GBVM$scene_86_init$autofade$759a   scene_86_init
     001C5F0E  ___func_scene_86_triggers          scene_86_triggers
     001C5F0E  _scene_86_triggers                 scene_86_triggers
     001C5F26  ___func_scene_86                   scene_86
     001C5F26  _scene_86                          scene_86
     001C5F61  ___func_scene_87                   scene_87
     001C5F61  _scene_87                          scene_87
     001C5F9C  ___func_scene_88_triggers          scene_88_triggers
     001C5F9C  _scene_88_triggers                 scene_88_triggers
     001C5FB4  ___func_scene_88                   scene_88
     001C5FB4  _scene_88                          scene_88
     001C5FEF  _scene_89_init                     scene_89_init
     001C5FF0  GBVM$scene_89_init$0422a9e2_2a1c   scene_89_init
     001C5FF5  GBVM$scene_89_init$1fa0f01a_d3ee   scene_89_init
     001C5FFA  GBVM$scene_89_init$d11e478d_1e25   scene_89_init
     001C6002  GBVM$scene_89_init$0346e57e_0895   scene_89_init
     001C6002  GBVM_END$scene_89_init$d11e478d_   scene_89_init
     001C600E  ___func_scene_89                   scene_89
     001C600E  _scene_89                          scene_89
     001C6049  ___func_scene_9                    scene_9
     001C6049  _scene_9                           scene_9
     001C6084  ___func_scene_90_actors            scene_90_actors
     001C6084  _scene_90_actors                   scene_90_actors
     001C60B8  _scene_90_init                     scene_90_init
     001C60B9  GBVM$scene_90_init$fa746752_91d8   scene_90_init
     001C60B9  GBVM$scene_90_init$fb9c9014_bb2c   scene_90_init
     001C60C1  GBVM$scene_90_init$f3b7cb72_7611   scene_90_init
     001C60C1  GBVM_END$scene_90_init$fa746752_   scene_90_init
     001C60CD  ___func_scene_90_triggers          scene_90_triggers
     001C60CD  _scene_90_triggers                 scene_90_triggers
     001C60DD  ___func_scene_90                   scene_90
     001C60DD  _scene_90                          scene_90
     001C6118  ___func_scene_91                   scene_91
     001C6118  _scene_91                          scene_91
     001C6153  ___func_scene_92                   scene_92
     001C6153  _scene_92                          scene_92
ASxxxx Linker V03.00/V05.40 + sdld,  page 107.
Hexadecimal  [32-Bits]

Area                                    Addr        Size        Decimal Bytes (Attributes)
--------------------------------        ----        ----        ------- ----- ------------
_CODE_28                            001C4000    00004000 =       16384. bytes (REL,CON)

      Value  Global                              Global Defined In Module
      -----  --------------------------------   ------------------------
     001C618E  ___func_scene_93_actors            scene_93_actors
     001C618E  _scene_93_actors                   scene_93_actors
     001C61C2  ___func_scene_93_projectiles       scene_93_projectiles
     001C61C2  _scene_93_projectiles              scene_93_projectiles
     001C61F0  ___func_scene_93                   scene_93
     001C61F0  _scene_93                          scene_93
     001C622B  ___func_scene_94_actors            scene_94_actors
     001C622B  _scene_94_actors                   scene_94_actors
     001C625F  ___func_scene_94_projectiles       scene_94_projectiles
     001C625F  _scene_94_projectiles              scene_94_projectiles
     001C628D  ___func_scene_94                   scene_94
     001C628D  _scene_94                          scene_94
     001C62C8  ___func_scene_95                   scene_95
     001C62C8  _scene_95                          scene_95
     001C6303  ___func_scene_96                   scene_96
     001C6303  _scene_96                          scene_96
     001C633E  ___func_scene_97                   scene_97
     001C633E  _scene_97                          scene_97
     001C6379  ___func_scene_98                   scene_98
     001C6379  _scene_98                          scene_98
     001C63B4  ___func_scene_99                   scene_99
     001C63B4  _scene_99                          scene_99
     001C63EF  _script_input_0                    script_input_0
     001C63F1  GBVM$script_input_0$ce017bc0_26a   script_input_0
     001C6424  _script_input_10                   script_input_10
     001C6426  GBVM$script_input_10$71572d2b_d8   script_input_10
     001C6459  _script_input_11                   script_input_11
     001C645B  GBVM$script_input_11$c7888e8f_19   script_input_11
     001C648E  _script_input_12                   script_input_12
     001C6490  GBVM$script_input_12$d8d67bec_c5   script_input_12
     001C64C3  _script_input_13                   script_input_13
     001C64C5  GBVM$script_input_13$033f28e7_d5   script_input_13
     001C64E2  _script_input_14                   script_input_14
     001C64E4  GBVM$script_input_14$5c139784_a9   script_input_14
     001C6501  _script_input_8                    script_input_8
     001C6503  GBVM$script_input_8$33739dd6_245   script_input_8
     001C6536  _script_input_9                    script_input_9
     001C6538  GBVM$script_input_9$21795474_98a   script_input_9
     001C656B  GBVM$script_timer_1$2f5b301e_889   script_timer_1
     001C656B  _script_timer_1                    script_timer_1
     001C6573  GBVM$script_timer_1$0f8abb82_152   script_timer_1
     001C657B  GBVM$script_timer_1$d4f918fc_f37   script_timer_1
     001C658D  GBVM$script_timer_1$182f11e3_e74   script_timer_1
     001C6592  GBVM$script_timer_1$9be5b23c_52a   script_timer_1
     001C659A  GBVM$script_timer_1$63b7fefa_27e   script_timer_1
     001C659F  GBVM$script_timer_1$46cb08d0_a14   script_timer_1
     001C65A4  GBVM_END$script_timer_1$d4f918fc   script_timer_1
     001C65A5  GBVM$script_timer_10$8831fda4_5e   script_timer_10
     001C65A5  _script_timer_10                   script_timer_10
     001C65AD  GBVM$script_timer_10$091215af_44   script_timer_10
     001C65B5  GBVM$script_timer_10$1f3612da_56   script_timer_10
ASxxxx Linker V03.00/V05.40 + sdld,  page 108.
Hexadecimal  [32-Bits]

Area                                    Addr        Size        Decimal Bytes (Attributes)
--------------------------------        ----        ----        ------- ----- ------------
_CODE_28                            001C4000    00004000 =       16384. bytes (REL,CON)

      Value  Global                              Global Defined In Module
      -----  --------------------------------   ------------------------
     001C65C7  GBVM$script_timer_10$f9975148_89   script_timer_10
     001C65CC  GBVM$script_timer_10$faf73771_00   script_timer_10
     001C65D4  GBVM$script_timer_10$3685b4f7_fb   script_timer_10
     001C65D9  GBVM$script_timer_10$ce1ee4fd_fd   script_timer_10
     001C65DE  GBVM_END$script_timer_10$1f3612d   script_timer_10
     001C65DF  GBVM$script_timer_11$fe5e202f_3e   script_timer_11
     001C65DF  _script_timer_11                   script_timer_11
     001C65E7  GBVM$script_timer_11$252f74b8_c5   script_timer_11
     001C65EF  GBVM$script_timer_11$493eb579_50   script_timer_11
     001C6601  GBVM$script_timer_11$01d27383_c8   script_timer_11
     001C6606  GBVM$script_timer_11$c57aede9_16   script_timer_11
     001C660E  GBVM$script_timer_11$a2292622_79   script_timer_11
     001C6613  GBVM$script_timer_11$8657cd22_f0   script_timer_11
     001C6618  GBVM_END$script_timer_11$493eb57   script_timer_11
     001C6619  GBVM$script_timer_2$76bb2971_1a2   script_timer_2
     001C6619  _script_timer_2                    script_timer_2
     001C6621  GBVM$script_timer_2$5f2e621c_241   script_timer_2
     001C6633  GBVM$script_timer_2$04a550a3_fa0   script_timer_2
     001C663B  GBVM$script_timer_2$34fcb5b5_5cf   script_timer_2
     001C6640  GBVM_END$script_timer_2$5f2e621c   script_timer_2
     001C6641  GBVM$script_timer_3$060584de_e34   script_timer_3
     001C6641  _script_timer_3                    script_timer_3
     001C6649  GBVM$script_timer_3$c9383860_af4   script_timer_3
     001C665B  GBVM$script_timer_3$02155324_9a2   script_timer_3
     001C6663  GBVM$script_timer_3$da9d2df6_6f3   script_timer_3
     001C6668  GBVM_END$script_timer_3$c9383860   script_timer_3
     001C6669  _script_timer_4                    script_timer_4
     001C666B  GBVM$script_timer_4$fa984c70_65f   script_timer_4
     001C6687  GBVM$script_timer_4$1324658c_d03   script_timer_4
     001C66A3  _script_timer_5                    script_timer_5
     001C66A5  GBVM$script_timer_5$e0af6988_5eb   script_timer_5
     001C66C1  GBVM$script_timer_5$aa8b29d4_1b1   script_timer_5
     001C66DD  _script_timer_6                    script_timer_6
     001C66DF  GBVM$script_timer_6$07caf72c_887   script_timer_6
     001C66FC  _script_timer_7                    script_timer_7
     001C66FE  GBVM$script_timer_7$659c9e10_e8f   script_timer_7
     001C671B  GBVM$script_timer_8$185ac14c_619   script_timer_8
     001C671B  _script_timer_8                    script_timer_8
     001C6723  GBVM$script_timer_8$3b6608a1_d95   script_timer_8
     001C6735  GBVM$script_timer_8$9c4b4753_b02   script_timer_8
     001C673D  GBVM$script_timer_8$9aa444f6_39a   script_timer_8
     001C6742  GBVM_END$script_timer_8$3b6608a1   script_timer_8
     001C6743  GBVM$script_timer_9$218a776c_d0d   script_timer_9
     001C6743  _script_timer_9                    script_timer_9
     001C674B  GBVM$script_timer_9$ff3631b0_1a4   script_timer_9
     001C675D  GBVM$script_timer_9$e444dffa_795   script_timer_9
     001C6765  GBVM$script_timer_9$c45b0792_102   script_timer_9
     001C676A  GBVM_END$script_timer_9$ff3631b0   script_timer_9
     001C676B  ___func_sprite_blank_interactabl   sprite_blank_interactable_c
     001C676B  _sprite_blank_interactable_c_met   sprite_blank_interactable_c
     001C6777  _sprite_blank_interactable_c_met   sprite_blank_interactable_c
ASxxxx Linker V03.00/V05.40 + sdld,  page 109.
Hexadecimal  [32-Bits]

Area                                    Addr        Size        Decimal Bytes (Attributes)
--------------------------------        ----        ----        ------- ----- ------------
_CODE_28                            001C4000    00004000 =       16384. bytes (REL,CON)

      Value  Global                              Global Defined In Module
      -----  --------------------------------   ------------------------
     001C6779  _sprite_blank_interactable_c_ani   sprite_blank_interactable_c
     001C6789  _sprite_blank_interactable_c_ani   sprite_blank_interactable_c
     001C678B  _sprite_blank_interactable_c       sprite_blank_interactable_c
     001C679E  ___func_sprite_car                 sprite_car
     001C679E  _sprite_car_metasprite_0           sprite_car
     001C67AA  _sprite_car_metasprites            sprite_car
     001C67AC  _sprite_car_animations             sprite_car
     001C67BC  _sprite_car_animations_lookup      sprite_car
     001C67BE  _sprite_car                        sprite_car
     001C67D1  ___func_sprite_cataa               sprite_cataa
     001C67D1  _sprite_cataa_metasprite_0         sprite_cataa
     001C67DD  _sprite_cataa_metasprites          sprite_cataa
     001C67DF  _sprite_cataa_animations           sprite_cataa
     001C67EF  _sprite_cataa_animations_lookup    sprite_cataa
     001C67F1  _sprite_cataa                      sprite_cataa
     001C6804  ___func_sprite_dhilly_bridge_int   sprite_dhilly_bridge_intera_
     001C6804  _sprite_dhilly_bridge_intera_0_t   sprite_dhilly_bridge_intera_
     001C6826  ___func_sprite_dhilly_bridge_int   sprite_dhilly_bridge_intera_
     001C6826  _sprite_dhilly_bridge_intera_0_m   sprite_dhilly_bridge_intera_
     001C6832  _sprite_dhilly_bridge_intera_0_m   sprite_dhilly_bridge_intera_
     001C6834  _sprite_dhilly_bridge_intera_0_a   sprite_dhilly_bridge_intera_
     001C6844  _sprite_dhilly_bridge_intera_0_a   sprite_dhilly_bridge_intera_
     001C6846  _sprite_dhilly_bridge_intera_0     sprite_dhilly_bridge_intera_
     001C6859  ___func_sprite_dhilly_bridge_int   sprite_dhilly_bridge_intera_
     001C6859  _sprite_dhilly_bridge_intera_til   sprite_dhilly_bridge_intera_
     001C687B  ___func_sprite_dhilly_saveselect   sprite_dhilly_saveselect_co_
     001C687B  _sprite_dhilly_saveselect_co_0_t   sprite_dhilly_saveselect_co_
     001C689D  ___func_sprite_dhilly_saveselect   sprite_dhilly_saveselect_co_
     001C689D  _sprite_dhilly_saveselect_co_0_m   sprite_dhilly_saveselect_co_
     001C68A9  _sprite_dhilly_saveselect_co_0_m   sprite_dhilly_saveselect_co_
     001C68AB  _sprite_dhilly_saveselect_co_0_a   sprite_dhilly_saveselect_co_
     001C68BB  _sprite_dhilly_saveselect_co_0_a   sprite_dhilly_saveselect_co_
     001C68BD  _sprite_dhilly_saveselect_co_0     sprite_dhilly_saveselect_co_
     001C68D0  ___func_sprite_dhilly_saveselect   sprite_dhilly_saveselect_co_
     001C68D0  _sprite_dhilly_saveselect_co_1_m   sprite_dhilly_saveselect_co_
     001C68DC  _sprite_dhilly_saveselect_co_1_m   sprite_dhilly_saveselect_co_
     001C68DE  _sprite_dhilly_saveselect_co_1_a   sprite_dhilly_saveselect_co_
     001C68EE  _sprite_dhilly_saveselect_co_1_a   sprite_dhilly_saveselect_co_
     001C68F0  _sprite_dhilly_saveselect_co_1     sprite_dhilly_saveselect_co_
     001C6903  ___func_sprite_dhilly_saveselect   sprite_dhilly_saveselect_co_
     001C6903  _sprite_dhilly_saveselect_co_til   sprite_dhilly_saveselect_co_
     001C6925  ___func_sprite_dhilly_saveselect   sprite_dhilly_saveselect_co
     001C6925  _sprite_dhilly_saveselect_co_met   sprite_dhilly_saveselect_co
     001C6931  _sprite_dhilly_saveselect_co_met   sprite_dhilly_saveselect_co
     001C6933  _sprite_dhilly_saveselect_co_ani   sprite_dhilly_saveselect_co
     001C6943  _sprite_dhilly_saveselect_co_ani   sprite_dhilly_saveselect_co
     001C6945  _sprite_dhilly_saveselect_co       sprite_dhilly_saveselect_co
     001C6958  ___func_sprite_dhilly_saveselect   sprite_dhilly_saveselect_til
     001C6958  _sprite_dhilly_saveselect_tilese   sprite_dhilly_saveselect_til
     001C697A  ___func_sprite_iceos_cursor_copy   sprite_iceos_cursor_copy_
     001C697A  _sprite_iceos_cursor_copy__metas   sprite_iceos_cursor_copy_
ASxxxx Linker V03.00/V05.40 + sdld,  page 110.
Hexadecimal  [32-Bits]

Area                                    Addr        Size        Decimal Bytes (Attributes)
--------------------------------        ----        ----        ------- ----- ------------
_CODE_28                            001C4000    00004000 =       16384. bytes (REL,CON)

      Value  Global                              Global Defined In Module
      -----  --------------------------------   ------------------------
     001C697E  _sprite_iceos_cursor_copy__metas   sprite_iceos_cursor_copy_
     001C6980  _sprite_iceos_cursor_copy__anima   sprite_iceos_cursor_copy_
     001C6990  _sprite_iceos_cursor_copy__anima   sprite_iceos_cursor_copy_
     001C6992  _sprite_iceos_cursor_copy_         sprite_iceos_cursor_copy_
     001C69A5  ___func_sprite_iceosapp_ctf_copy   sprite_iceosapp_ctf_copy_0
     001C69A5  _sprite_iceosapp_ctf_copy_0_meta   sprite_iceosapp_ctf_copy_0
     001C69B1  _sprite_iceosapp_ctf_copy_0_meta   sprite_iceosapp_ctf_copy_0
     001C69B3  _sprite_iceosapp_ctf_copy_0_anim   sprite_iceosapp_ctf_copy_0
     001C69C3  _sprite_iceosapp_ctf_copy_0_anim   sprite_iceosapp_ctf_copy_0
     001C69C5  _sprite_iceosapp_ctf_copy_0        sprite_iceosapp_ctf_copy_0
     001C69D8  ___func_sprite_iceosapp_pltfrmr_   sprite_iceosapp_pltfrmr_cop_
     001C69D8  _sprite_iceosapp_pltfrmr_cop_til   sprite_iceosapp_pltfrmr_cop_
     001C69FA  ___func_sprite_iceosapp_pltfrmr_   sprite_iceosapp_pltfrmr_cop
     001C69FA  _sprite_iceosapp_pltfrmr_cop_met   sprite_iceosapp_pltfrmr_cop
     001C6A06  _sprite_iceosapp_pltfrmr_cop_met   sprite_iceosapp_pltfrmr_cop
     001C6A08  _sprite_iceosapp_pltfrmr_cop_ani   sprite_iceosapp_pltfrmr_cop
     001C6A18  _sprite_iceosapp_pltfrmr_cop_ani   sprite_iceosapp_pltfrmr_cop
     001C6A1A  _sprite_iceosapp_pltfrmr_cop       sprite_iceosapp_pltfrmr_cop
     001C6A2D  ___func_sprite_iceosapp_settings   sprite_iceosapp_settings_co_
     001C6A2D  _sprite_iceosapp_settings_co_til   sprite_iceosapp_settings_co_
     001C6A4F  ___func_sprite_iceosapp_settings   sprite_iceosapp_settings_co
     001C6A4F  _sprite_iceosapp_settings_co_met   sprite_iceosapp_settings_co
     001C6A5B  _sprite_iceosapp_settings_co_met   sprite_iceosapp_settings_co
     001C6A5D  _sprite_iceosapp_settings_co_ani   sprite_iceosapp_settings_co
     001C6A6D  _sprite_iceosapp_settings_co_ani   sprite_iceosapp_settings_co
     001C6A6F  _sprite_iceosapp_settings_co       sprite_iceosapp_settings_co
     001C6A82  ___func_sprite_iceosapp_wveruner   sprite_iceosapp_wveruner_co
     001C6A82  _sprite_iceosapp_wveruner_co_met   sprite_iceosapp_wveruner_co
     001C6A8E  _sprite_iceosapp_wveruner_co_met   sprite_iceosapp_wveruner_co
     001C6A90  _sprite_iceosapp_wveruner_co_ani   sprite_iceosapp_wveruner_co
     001C6AA0  _sprite_iceosapp_wveruner_co_ani   sprite_iceosapp_wveruner_co
     001C6AA2  _sprite_iceosapp_wveruner_co       sprite_iceosapp_wveruner_co
     001C6AB5  ___func_sprite_knife_down_copy_    sprite_knife_down_copy_
     001C6AB5  _sprite_knife_down_copy__metaspr   sprite_knife_down_copy_
     001C6AC1  _sprite_knife_down_copy__metaspr   sprite_knife_down_copy_
     001C6AC3  _sprite_knife_down_copy__animati   sprite_knife_down_copy_
     001C6AD3  _sprite_knife_down_copy__animati   sprite_knife_down_copy_
     001C6AD5  _sprite_knife_down_copy_           sprite_knife_down_copy_
     001C6AE8  ___func_sprite_len_city_dhilly_h   sprite_len_city_dhilly_hous
     001C6AE8  _sprite_len_city_dhilly_hous_met   sprite_len_city_dhilly_hous
     001C6AEC  _sprite_len_city_dhilly_hous_met   sprite_len_city_dhilly_hous
     001C6AEE  _sprite_len_city_dhilly_hous_ani   sprite_len_city_dhilly_hous
     001C6AFE  _sprite_len_city_dhilly_hous_ani   sprite_len_city_dhilly_hous
     001C6B00  _sprite_len_city_dhilly_hous       sprite_len_city_dhilly_hous
     001C6B13  ___func_sprite_mzdesigns           sprite_mzdesigns
     001C6B13  _sprite_mzdesigns_metasprite_0     sprite_mzdesigns
     001C6B1F  _sprite_mzdesigns_metasprites      sprite_mzdesigns
     001C6B21  _sprite_mzdesigns_animations       sprite_mzdesigns
     001C6B31  _sprite_mzdesigns_animations_loo   sprite_mzdesigns
     001C6B33  _sprite_mzdesigns                  sprite_mzdesigns
     001C6B46  ___func_sprite_piece_dhilly3_ver   sprite_piece_dhilly3_ver_co_
ASxxxx Linker V03.00/V05.40 + sdld,  page 111.
Hexadecimal  [32-Bits]

Area                                    Addr        Size        Decimal Bytes (Attributes)
--------------------------------        ----        ----        ------- ----- ------------
_CODE_28                            001C4000    00004000 =       16384. bytes (REL,CON)

      Value  Global                              Global Defined In Module
      -----  --------------------------------   ------------------------
     001C6B46  _sprite_piece_dhilly3_ver_co_til   sprite_piece_dhilly3_ver_co_
     001C6B68  ___func_sprite_piece_dhilly3_ver   sprite_piece_dhilly3_ver_co
     001C6B68  _sprite_piece_dhilly3_ver_co_met   sprite_piece_dhilly3_ver_co
     001C6B74  _sprite_piece_dhilly3_ver_co_met   sprite_piece_dhilly3_ver_co
     001C6B76  _sprite_piece_dhilly3_ver_co_ani   sprite_piece_dhilly3_ver_co
     001C6B86  _sprite_piece_dhilly3_ver_co_ani   sprite_piece_dhilly3_ver_co
     001C6B88  _sprite_piece_dhilly3_ver_co       sprite_piece_dhilly3_ver_co
     001C6B9B  ___func_sprite_piece_dhilly3_ver   sprite_piece_dhilly3_ver_til
     001C6B9B  _sprite_piece_dhilly3_ver_tilese   sprite_piece_dhilly3_ver_til
     001C6BBD  ___func_sprite_piece_dhilly3_ver   sprite_piece_dhilly3_ver
     001C6BBD  _sprite_piece_dhilly3_ver_metasp   sprite_piece_dhilly3_ver
     001C6BC9  _sprite_piece_dhilly3_ver_metasp   sprite_piece_dhilly3_ver
     001C6BCB  _sprite_piece_dhilly3_ver_animat   sprite_piece_dhilly3_ver
     001C6BDB  _sprite_piece_dhilly3_ver_animat   sprite_piece_dhilly3_ver
     001C6BDD  _sprite_piece_dhilly3_ver          sprite_piece_dhilly3_ver
     001C6BF0  ___func_sprite_shapiro             sprite_shapiro
     001C6BF0  _sprite_shapiro_metasprite_0       sprite_shapiro
     001C6BFC  _sprite_shapiro_metasprite_1       sprite_shapiro
     001C6C00  _sprite_shapiro_metasprites        sprite_shapiro
     001C6C04  _sprite_shapiro_animations         sprite_shapiro
     001C6C14  _sprite_shapiro_animations_looku   sprite_shapiro
     001C6C16  _sprite_shapiro                    sprite_shapiro
     001C6C29  ___func_sprite_square_full_hitbo   sprite_square_full_hitbox_c_
     001C6C29  _sprite_square_full_hitbox_c_1_t   sprite_square_full_hitbox_c_
     001C6C4B  ___func_sprite_square_full_hitbo   sprite_square_full_hitbox_c_
     001C6C4B  _sprite_square_full_hitbox_c_1_m   sprite_square_full_hitbox_c_
     001C6C57  _sprite_square_full_hitbox_c_1_m   sprite_square_full_hitbox_c_
     001C6C59  _sprite_square_full_hitbox_c_1_a   sprite_square_full_hitbox_c_
     001C6C69  _sprite_square_full_hitbox_c_1_a   sprite_square_full_hitbox_c_
     001C6C6B  _sprite_square_full_hitbox_c_1     sprite_square_full_hitbox_c_
     001C6C7E  ___func_sprite_square_full_hitbo   sprite_square_full_hitbox_c_
     001C6C7E  _sprite_square_full_hitbox_c_4_t   sprite_square_full_hitbox_c_
     001C6CA0  ___func_sprite_square_full_hitbo   sprite_square_full_hitbox_c_
     001C6CA0  _sprite_square_full_hitbox_c_4_m   sprite_square_full_hitbox_c_
     001C6CAC  _sprite_square_full_hitbox_c_4_m   sprite_square_full_hitbox_c_
     001C6CAE  _sprite_square_full_hitbox_c_4_a   sprite_square_full_hitbox_c_
     001C6CBE  _sprite_square_full_hitbox_c_4_a   sprite_square_full_hitbox_c_
     001C6CC0  _sprite_square_full_hitbox_c_4     sprite_square_full_hitbox_c_
     001C6CD3  ___func_sprite_square_full_hitbo   sprite_square_full_hitbox_c_
     001C6CD3  _sprite_square_full_hitbox_c_5_m   sprite_square_full_hitbox_c_
     001C6CE7  _sprite_square_full_hitbox_c_5_m   sprite_square_full_hitbox_c_
     001C6CE9  _sprite_square_full_hitbox_c_5_a   sprite_square_full_hitbox_c_
     001C6CF9  _sprite_square_full_hitbox_c_5_a   sprite_square_full_hitbox_c_
     001C6CFB  _sprite_square_full_hitbox_c_5     sprite_square_full_hitbox_c_
     001C6D0E  ___func_sprite_square_full_hitbo   sprite_square_full_hitbox_c_
     001C6D0E  _sprite_square_full_hitbox_c_til   sprite_square_full_hitbox_c_
     001C6D30  ___func_sprite_square_full_hitbo   sprite_square_full_hitbox_c
     001C6D30  _sprite_square_full_hitbox_c_met   sprite_square_full_hitbox_c
     001C6D38  _sprite_square_full_hitbox_c_met   sprite_square_full_hitbox_c
     001C6D3A  _sprite_square_full_hitbox_c_ani   sprite_square_full_hitbox_c
     001C6D4A  _sprite_square_full_hitbox_c_ani   sprite_square_full_hitbox_c
ASxxxx Linker V03.00/V05.40 + sdld,  page 112.
Hexadecimal  [32-Bits]

Area                                    Addr        Size        Decimal Bytes (Attributes)
--------------------------------        ----        ----        ------- ----- ------------
_CODE_28                            001C4000    00004000 =       16384. bytes (REL,CON)

      Value  Global                              Global Defined In Module
      -----  --------------------------------   ------------------------
     001C6D4C  _sprite_square_full_hitbox_c       sprite_square_full_hitbox_c
     001C6D5F  ___func_sprite_square_platformin   sprite_square_platforming_c_
     001C6D5F  _sprite_square_platforming_c_til   sprite_square_platforming_c_
     001C6D81  ___func_sprite_square_platformin   sprite_square_platforming_c
     001C6D81  _sprite_square_platforming_c_met   sprite_square_platforming_c
     001C6D8D  _sprite_square_platforming_c_met   sprite_square_platforming_c
     001C6D8F  _sprite_square_platforming_c_ani   sprite_square_platforming_c
     001C6D9F  _sprite_square_platforming_c_ani   sprite_square_platforming_c
     001C6DA1  _sprite_square_platforming_c       sprite_square_platforming_c
     001C6DB4  ___func_sprite_static_copy_0       sprite_static_copy_0
     001C6DB4  _sprite_static_copy_0_metasprite   sprite_static_copy_0
     001C6DC0  _sprite_static_copy_0_metasprite   sprite_static_copy_0
     001C6DC2  _sprite_static_copy_0_animations   sprite_static_copy_0
     001C6DD2  _sprite_static_copy_0_animations   sprite_static_copy_0
     001C6DD4  _sprite_static_copy_0              sprite_static_copy_0
     001C6DE7  ___func_sprite_static_copy         sprite_static_copy
     001C6DE7  _sprite_static_copy_metasprite_0   sprite_static_copy
     001C6DF3  _sprite_static_copy_metasprites    sprite_static_copy
     001C6DF5  _sprite_static_copy_animations     sprite_static_copy
     001C6E05  _sprite_static_copy_animations_l   sprite_static_copy
     001C6E07  _sprite_static_copy                sprite_static_copy
     001C6E1A  _spritesheet_none_metasprite       spritesheet_none
     001C6E1E  _spritesheet_none_metasprites      spritesheet_none
     001C6E20  _spritesheet_none                  spritesheet_none
     001C6E33  _trigger_0_interact                trigger_0_interact
     001C6E36  GBVM$trigger_0_interact$e044ddc5   trigger_0_interact
     001C6E69  _trigger_10_interact               trigger_10_interact
     001C6E6A  GBVM$trigger_10_interact$a9b7672   trigger_10_interact
     001C6E75  GBVM$trigger_10_interact$5fb992e   trigger_10_interact
     001C6E81  _trigger_100_interact              trigger_100_interact
     001C6E84  GBVM$trigger_100_interact$21da02   trigger_100_interact
     001C6EB7  _trigger_107_interact              trigger_107_interact
     001C6EBA  GBVM$trigger_107_interact$041e9b   trigger_107_interact
     001C6EED  _trigger_11_interact               trigger_11_interact
     001C6EEE  GBVM$trigger_11_interact$846dbf8   trigger_11_interact
     001C6F01  GBVM$trigger_11_interact$2f35445   trigger_11_interact
     001C6F0D  _trigger_116_interact              trigger_116_interact
     001C6F10  GBVM$trigger_116_interact$617696   trigger_116_interact
     001C6F43  _trigger_117_interact              trigger_117_interact
     001C6F46  GBVM$trigger_117_interact$cfe9fc   trigger_117_interact
     001C6F79  _trigger_118_interact              trigger_118_interact
     001C6F7C  GBVM$trigger_118_interact$3d9ecb   trigger_118_interact
     001C6FAF  _trigger_119_interact              trigger_119_interact
     001C6FB2  GBVM$trigger_119_interact$131028   trigger_119_interact
     001C6FE5  _trigger_12_interact               trigger_12_interact
     001C6FE8  GBVM$trigger_12_interact$25a4b66   trigger_12_interact
     001C701B  _trigger_13_interact               trigger_13_interact
     001C701E  GBVM$trigger_13_interact$3ee20ca   trigger_13_interact
     001C7051  _trigger_14_interact               trigger_14_interact
     001C7054  GBVM$trigger_14_interact$c0f03dd   trigger_14_interact
     001C705F  GBVM$trigger_14_interact$035d83a   trigger_14_interact
ASxxxx Linker V03.00/V05.40 + sdld,  page 113.
Hexadecimal  [32-Bits]

Area                                    Addr        Size        Decimal Bytes (Attributes)
--------------------------------        ----        ----        ------- ----- ------------
_CODE_28                            001C4000    00004000 =       16384. bytes (REL,CON)

      Value  Global                              Global Defined In Module
      -----  --------------------------------   ------------------------
     001C706B  _trigger_15_interact               trigger_15_interact
     001C706E  GBVM$trigger_15_interact$10c11a2   trigger_15_interact
     001C70A1  _trigger_16_interact               trigger_16_interact
     001C70A4  GBVM$trigger_16_interact$3eb0a32   trigger_16_interact
     001C70D7  _trigger_17_interact               trigger_17_interact
     001C70DA  GBVM$trigger_17_interact$a9b8c56   trigger_17_interact
     001C710D  _trigger_18_interact               trigger_18_interact
     001C7110  GBVM$trigger_18_interact$9eef5b8   trigger_18_interact
     001C7143  _trigger_19_interact               trigger_19_interact
     001C7146  GBVM$trigger_19_interact$8fda88b   trigger_19_interact
     001C7179  _trigger_2_interact                trigger_2_interact
     001C717C  GBVM$trigger_2_interact$56862952   trigger_2_interact
     001C71AF  _trigger_20_interact               trigger_20_interact
     001C71B2  GBVM$trigger_20_interact$83aa293   trigger_20_interact
     001C71E5  _trigger_21_interact               trigger_21_interact
     001C71E8  GBVM$trigger_21_interact$b9bf450   trigger_21_interact
     001C721B  _trigger_22_interact               trigger_22_interact
     001C721E  GBVM$trigger_22_interact$2710379   trigger_22_interact
     001C7251  _trigger_23_interact               trigger_23_interact
     001C7254  GBVM$trigger_23_interact$38b7672   trigger_23_interact
     001C7287  _trigger_24_interact               trigger_24_interact
     001C728A  GBVM$trigger_24_interact$a4dd1ab   trigger_24_interact
     001C72BD  _trigger_25_interact               trigger_25_interact
     001C72C0  GBVM$trigger_25_interact$79d6d5e   trigger_25_interact
     001C72F3  _trigger_26_interact               trigger_26_interact
     001C72F6  GBVM$trigger_26_interact$71a2187   trigger_26_interact
     001C7329  _trigger_27_interact               trigger_27_interact
     001C732C  GBVM$trigger_27_interact$b61bc51   trigger_27_interact
     001C735F  _trigger_28_interact               trigger_28_interact
     001C7362  GBVM$trigger_28_interact$3a8d810   trigger_28_interact
     001C7395  _trigger_29_interact               trigger_29_interact
     001C7398  GBVM$trigger_29_interact$6e36158   trigger_29_interact
     001C73CB  _trigger_30_interact               trigger_30_interact
     001C73CE  GBVM$trigger_30_interact$0292255   trigger_30_interact
     001C7401  _trigger_31_interact               trigger_31_interact
     001C7404  GBVM$trigger_31_interact$c57ba6a   trigger_31_interact
     001C7437  _trigger_32_interact               trigger_32_interact
     001C743A  GBVM$trigger_32_interact$f299054   trigger_32_interact
     001C746D  _trigger_33_interact               trigger_33_interact
     001C7470  GBVM$trigger_33_interact$587f0d3   trigger_33_interact
     001C74A3  _trigger_34_interact               trigger_34_interact
     001C74A6  GBVM$trigger_34_interact$ad5edec   trigger_34_interact
     001C74D9  _trigger_35_interact               trigger_35_interact
     001C74DC  GBVM$trigger_35_interact$8fc0739   trigger_35_interact
     001C750F  _trigger_36_interact               trigger_36_interact
     001C7512  GBVM$trigger_36_interact$08926b7   trigger_36_interact
     001C7545  _trigger_37_interact               trigger_37_interact
     001C7548  GBVM$trigger_37_interact$0ccf826   trigger_37_interact
     001C757B  _trigger_38_interact               trigger_38_interact
     001C757E  GBVM$trigger_38_interact$f5dad4a   trigger_38_interact
     001C75B1  _trigger_39_interact               trigger_39_interact
ASxxxx Linker V03.00/V05.40 + sdld,  page 114.
Hexadecimal  [32-Bits]

Area                                    Addr        Size        Decimal Bytes (Attributes)
--------------------------------        ----        ----        ------- ----- ------------
_CODE_28                            001C4000    00004000 =       16384. bytes (REL,CON)

      Value  Global                              Global Defined In Module
      -----  --------------------------------   ------------------------
     001C75B4  GBVM$trigger_39_interact$07bb2f2   trigger_39_interact
     001C75E7  _trigger_4_interact                trigger_4_interact
     001C75EA  GBVM$trigger_4_interact$b44a8b08   trigger_4_interact
     001C761D  _trigger_41_interact               trigger_41_interact
     001C7620  GBVM$trigger_41_interact$85ea0ef   trigger_41_interact
     001C7653  _trigger_42_interact               trigger_42_interact
     001C7656  GBVM$trigger_42_interact$9d3d6c8   trigger_42_interact
     001C7689  _trigger_43_interact               trigger_43_interact
     001C768C  GBVM$trigger_43_interact$da65b24   trigger_43_interact
     001C76BF  _trigger_44_interact               trigger_44_interact
     001C76C2  GBVM$trigger_44_interact$52682d5   trigger_44_interact
     001C76F5  _trigger_45_interact               trigger_45_interact
     001C76F8  GBVM$trigger_45_interact$82a870c   trigger_45_interact
     001C772B  _trigger_46_interact               trigger_46_interact
     001C772E  GBVM$trigger_46_interact$e400edc   trigger_46_interact
     001C7761  _trigger_47_interact               trigger_47_interact
     001C7764  GBVM$trigger_47_interact$b77a64f   trigger_47_interact
     001C7797  _trigger_48_interact               trigger_48_interact
     001C779A  GBVM$trigger_48_interact$71315c6   trigger_48_interact
     001C77CD  _trigger_5_interact                trigger_5_interact
     001C77D0  GBVM$trigger_5_interact$297a463a   trigger_5_interact
     001C7803  _trigger_50_interact               trigger_50_interact
     001C7806  GBVM$trigger_50_interact$18df773   trigger_50_interact
     001C780E  GBVM$trigger_50_interact$b1c72e3   trigger_50_interact
     001C7811  _trigger_51_interact               trigger_51_interact
     001C7814  GBVM$trigger_51_interact$4cea9f1   trigger_51_interact
     001C7847  _trigger_53_interact               trigger_53_interact
     001C784A  GBVM$trigger_53_interact$5655ac3   trigger_53_interact
     001C787D  _trigger_54_interact               trigger_54_interact
     001C7880  GBVM$trigger_54_interact$87ec8de   trigger_54_interact
     001C78B3  _trigger_55_interact               trigger_55_interact
     001C78B6  GBVM$trigger_55_interact$fa58eef   trigger_55_interact
     001C78CD  _trigger_56_interact               trigger_56_interact
     001C78D0  GBVM$trigger_56_interact$ce8cb17   trigger_56_interact
     001C78E7  _trigger_57_interact               trigger_57_interact
     001C78EA  GBVM$trigger_57_interact$219dce1   trigger_57_interact
     001C7901  _trigger_58_interact               trigger_58_interact
     001C7904  GBVM$trigger_58_interact$26e7e3f   trigger_58_interact
     001C791B  _trigger_59_interact               trigger_59_interact
     001C791E  GBVM$trigger_59_interact$7236c4d   trigger_59_interact
     001C7935  _trigger_6_interact                trigger_6_interact
     001C7938  GBVM$trigger_6_interact$e5629228   trigger_6_interact
     001C796B  _trigger_60_interact               trigger_60_interact
     001C796E  GBVM$trigger_60_interact$d4592df   trigger_60_interact
     001C79A1  _trigger_62_interact               trigger_62_interact
     001C79A4  GBVM$trigger_62_interact$bcf7284   trigger_62_interact
     001C79D7  _trigger_63_interact               trigger_63_interact
     001C79DA  GBVM$trigger_63_interact$c1d3876   trigger_63_interact
     001C7A0D  _trigger_64_interact               trigger_64_interact
     001C7A10  GBVM$trigger_64_interact$170cca8   trigger_64_interact
     001C7A43  _trigger_65_interact               trigger_65_interact
ASxxxx Linker V03.00/V05.40 + sdld,  page 115.
Hexadecimal  [32-Bits]

Area                                    Addr        Size        Decimal Bytes (Attributes)
--------------------------------        ----        ----        ------- ----- ------------
_CODE_28                            001C4000    00004000 =       16384. bytes (REL,CON)

      Value  Global                              Global Defined In Module
      -----  --------------------------------   ------------------------
     001C7A46  GBVM$trigger_65_interact$9209edf   trigger_65_interact
     001C7A79  _trigger_66_interact               trigger_66_interact
     001C7A7C  GBVM$trigger_66_interact$8de7c39   trigger_66_interact
     001C7AAF  _trigger_67_interact               trigger_67_interact
     001C7AB2  GBVM$trigger_67_interact$3da3d07   trigger_67_interact
     001C7AE5  _trigger_68_interact               trigger_68_interact
     001C7AE8  GBVM$trigger_68_interact$54b5d7c   trigger_68_interact
     001C7B1B  _trigger_7_interact                trigger_7_interact
     001C7B1E  GBVM$trigger_7_interact$1f69a0bd   trigger_7_interact
     001C7B51  _trigger_70_interact               trigger_70_interact
     001C7B54  GBVM$trigger_70_interact$8abedb9   trigger_70_interact
     001C7B87  _trigger_71_interact               trigger_71_interact
     001C7B8A  GBVM$trigger_71_interact$75d3fef   trigger_71_interact
     001C7BBD  _trigger_72_interact               trigger_72_interact
     001C7BC0  GBVM$trigger_72_interact$1e9ac54   trigger_72_interact
     001C7BF3  _trigger_73_interact               trigger_73_interact
     001C7BF6  GBVM$trigger_73_interact$2e46f4b   trigger_73_interact
     001C7C29  _trigger_74_interact               trigger_74_interact
     001C7C2C  GBVM$trigger_74_interact$72bf148   trigger_74_interact
     001C7C5F  _trigger_75_interact               trigger_75_interact
     001C7C62  GBVM$trigger_75_interact$d2c9178   trigger_75_interact
     001C7C95  _trigger_76_interact               trigger_76_interact
     001C7C98  GBVM$trigger_76_interact$73b65c1   trigger_76_interact
     001C7CCB  _trigger_78_interact               trigger_78_interact
     001C7CCE  GBVM$trigger_78_interact$1feeadd   trigger_78_interact
     001C7D01  _trigger_79_interact               trigger_79_interact
     001C7D04  GBVM$trigger_79_interact$a673b68   trigger_79_interact
     001C7D37  _trigger_8_interact                trigger_8_interact
     001C7D38  GBVM$trigger_8_interact$56f43454   trigger_8_interact
     001C7D43  GBVM$trigger_8_interact$2fab958f   trigger_8_interact
     001C7D4F  _trigger_80_interact               trigger_80_interact
     001C7D52  GBVM$trigger_80_interact$af24421   trigger_80_interact
     001C7D85  _trigger_82_interact               trigger_82_interact
     001C7D88  GBVM$trigger_82_interact$4ef2d41   trigger_82_interact
     001C7DBB  _trigger_83_interact               trigger_83_interact
     001C7DBE  GBVM$trigger_83_interact$21f9104   trigger_83_interact
     001C7DF1  _trigger_84_interact               trigger_84_interact
     001C7DF4  GBVM$trigger_84_interact$af61af1   trigger_84_interact
     001C7E27  _trigger_85_interact               trigger_85_interact
     001C7E2A  GBVM$trigger_85_interact$d2c6acd   trigger_85_interact
     001C7E5D  _trigger_87_interact               trigger_87_interact
     001C7E60  GBVM$trigger_87_interact$5e1ea60   trigger_87_interact
     001C7E93  _trigger_88_interact               trigger_88_interact
     001C7E96  GBVM$trigger_88_interact$f3f101d   trigger_88_interact
     001C7EC9  _trigger_9_interact                trigger_9_interact
     001C7ECA  GBVM$trigger_9_interact$e3ff0ade   trigger_9_interact
     001C7ED5  GBVM$trigger_9_interact$bccca52d   trigger_9_interact
     001C7EE1  _trigger_91_interact               trigger_91_interact
     001C7EE4  GBVM$trigger_91_interact$682889e   trigger_91_interact
     001C7F17  _trigger_92_interact               trigger_92_interact
     001C7F1A  GBVM$trigger_92_interact$5646e46   trigger_92_interact
ASxxxx Linker V03.00/V05.40 + sdld,  page 116.
Hexadecimal  [32-Bits]

Area                                    Addr        Size        Decimal Bytes (Attributes)
--------------------------------        ----        ----        ------- ----- ------------
_CODE_28                            001C4000    00004000 =       16384. bytes (REL,CON)

      Value  Global                              Global Defined In Module
      -----  --------------------------------   ------------------------
     001C7F4D  _trigger_93_interact               trigger_93_interact
     001C7F50  GBVM$trigger_93_interact$c9361a6   trigger_93_interact
     001C7F83  _trigger_94_interact               trigger_94_interact
     001C7F86  GBVM$trigger_94_interact$571909c   trigger_94_interact
     001C7FB9  _trigger_98_interact               trigger_98_interact
     001C7FBC  GBVM$trigger_98_interact$d9c1bb7   trigger_98_interact
     001C7FEF  _logo_init                         logo
     001C7FFF  _logo_update                       logo

ASxxxx Linker V03.00/V05.40 + sdld,  page 117.
Hexadecimal  [32-Bits]

Area                                    Addr        Size        Decimal Bytes (Attributes)
--------------------------------        ----        ----        ------- ----- ------------
_HEADER_SIO0                        00000000    00000004 =           4. bytes (ABS,CON)

      Value  Global                              Global Defined In Module
      -----  --------------------------------   ------------------------
ASxxxx Linker V03.00/V05.40 + sdld,  page 118.
Hexadecimal  [32-Bits]

Area                                    Addr        Size        Decimal Bytes (Attributes)
--------------------------------        ----        ----        ------- ----- ------------
_HEADER_TIMER0                      00000000    00000004 =           4. bytes (ABS,CON)

      Value  Global                              Global Defined In Module
      -----  --------------------------------   ------------------------
ASxxxx Linker V03.00/V05.40 + sdld,  page 119.
Hexadecimal  [32-Bits]

Area                                    Addr        Size        Decimal Bytes (Attributes)
--------------------------------        ----        ----        ------- ----- ------------
_CODE_6                             00064000    00003FFF =       16383. bytes (REL,CON)

      Value  Global                              Global Defined In Module
      -----  --------------------------------   ------------------------
     00064000  _remove_LCD_ISRs                   interrupts
     0006401B  ___func_bg_controls_mobile_copy_   bg_controls_mobile_copy__til
     0006401B  _bg_controls_mobile_copy__tilese   bg_controls_mobile_copy__til
     0006569D  ___func_bg_init_copy_1_tileset     bg_init_copy_1_tileset
     0006569D  _bg_init_copy_1_tileset            bg_init_copy_1_tileset
     000658EF  ___func_scene_62_collisions        scene_62_collisions
     000658EF  _scene_62_collisions               scene_62_collisions

ASxxxx Linker V03.00/V05.40 + sdld,  page 120.
Hexadecimal  [32-Bits]

Area                                    Addr        Size        Decimal Bytes (Attributes)
--------------------------------        ----        ----        ------- ----- ------------
_CODE_19                            00134000    00004000 =       16384. bytes (REL,CON)

      Value  Global                              Global Defined In Module
      -----  --------------------------------   ------------------------
     00134000  _data_init                         load_save
     0013404B  _save_points                       load_save
     001340AB  _data_slot_address                 load_save
     00134123  _data_save                         load_save
     001341E4  _data_load                         load_save
     001342F8  _data_clear                        load_save
     00134325  _data_peek                         load_save
     001343C6  ___func_VM_CAMERA                  vm_camera
     001343C6  _vm_camera_move_to                 vm_camera
     00134619  _vm_camera_set_pos                 vm_camera
     00134660  _camera_shake_frames               vm_camera
     0013478F  _actor_19_interact                 actor_19_interact
     00134792  GBVM$actor_19_interact$dd7c1f19_   actor_19_interact
     0013479B  GBVM$actor_19_interact$e54995c6_   actor_19_interact
     001347FF  GBVM$actor_19_interact$ce919703_   actor_19_interact
     00134B28  GBVM$actor_19_interact$83741991_   actor_19_interact
     00134B63  GBVM$actor_19_interact$8b126717_   actor_19_interact
     00134B86  GBVM$actor_19_interact$b9d5a0e7_   actor_19_interact
     00134B8B  GBVM_END$actor_19_interact$dd7c1   actor_19_interact
     00134B8C  _actor_6_interact                  actor_6_interact
     00134B8F  GBVM$actor_6_interact$56cf4c83_7   actor_6_interact
     00134BA1  GBVM$actor_6_interact$59654b28_c   actor_6_interact
     00134BCC  GBVM$actor_6_interact$d59e252c_2   actor_6_interact
     00134C06  GBVM$actor_6_interact$2c32c49a_0   actor_6_interact
     00134C0F  GBVM$actor_6_interact$b2bede53_7   actor_6_interact
     00134C21  GBVM$actor_6_interact$77653c6d_5   actor_6_interact
     00134C62  GBVM$actor_6_interact$e9887081_f   actor_6_interact
     00134C67  GBVM$actor_6_interact$3f375ce8_7   actor_6_interact
     00134C70  GBVM$actor_6_interact$406da35e_4   actor_6_interact
     00134C82  GBVM$actor_6_interact$dc1baad9_c   actor_6_interact
     00134CC6  GBVM$actor_6_interact$b8cfbe49_5   actor_6_interact
     00134CD1  GBVM_END$actor_6_interact$406da3   actor_6_interact
     00134CD4  GBVM$actor_6_interact$e46515e3_8   actor_6_interact
     00134CDF  GBVM$actor_6_interact$49c230c6_f   actor_6_interact
     00134CE9  GBVM$actor_6_interact$511b2bfa_a   actor_6_interact
     00134CFF  GBVM$actor_6_interact$c38458c6_b   actor_6_interact
     00134D22  GBVM$actor_6_interact$b68c0ca2_4   actor_6_interact
     00134D45  GBVM$actor_6_interact$1fbe127e_f   actor_6_interact
     00134D68  GBVM$actor_6_interact$406a4f03_2   actor_6_interact
     00134D6D  GBVM$actor_6_interact$0936d447_9   actor_6_interact
     00134D6D  GBVM$actor_6_interact$b1c00b78_d   actor_6_interact
     00134D9F  GBVM_END$actor_6_interact$3f375c   actor_6_interact
     00134DA2  GBVM$actor_6_interact$bed24b14_a   actor_6_interact
     00134DAD  GBVM_END$actor_6_interact$b2bede   actor_6_interact
     00134DB0  GBVM$actor_6_interact$3ae4184f_5   actor_6_interact
     00134DBB  GBVM$actor_6_interact$c245c75a_a   actor_6_interact
     00134DC5  GBVM$actor_6_interact$5644c2d7_4   actor_6_interact
     00134DDB  GBVM$actor_6_interact$9e2f8347_e   actor_6_interact
     00134DFE  GBVM$actor_6_interact$cebea94a_f   actor_6_interact
     00134E21  GBVM$actor_6_interact$7c4c2944_b   actor_6_interact
ASxxxx Linker V03.00/V05.40 + sdld,  page 121.
Hexadecimal  [32-Bits]

Area                                    Addr        Size        Decimal Bytes (Attributes)
--------------------------------        ----        ----        ------- ----- ------------
_CODE_19                            00134000    00004000 =       16384. bytes (REL,CON)

      Value  Global                              Global Defined In Module
      -----  --------------------------------   ------------------------
     00134E44  GBVM$actor_6_interact$c67ce9d0_a   actor_6_interact
     00134E49  GBVM$actor_6_interact$0b1dad75_e   actor_6_interact
     00134E49  GBVM$actor_6_interact$1d5b5926_f   actor_6_interact
     00134E7B  GBVM_END$actor_6_interact$2c32c4   actor_6_interact
     00134E7E  GBVM$actor_6_interact$c64389d8_8   actor_6_interact
     00134F60  GBVM$actor_6_interact$c4cc7c6e_2   actor_6_interact
     00134F60  GBVM_END$actor_6_interact$56cf4c   actor_6_interact
     00134F61  ___func_bg_dhilly_bridge_tilemap   bg_dhilly_bridge_tilemap_att
     00134F61  _bg_dhilly_bridge_tilemap_attr     bg_dhilly_bridge_tilemap_att
     00135349  ___func_bg_dhilly_bridge_tilemap   bg_dhilly_bridge_tilemap
     00135349  _bg_dhilly_bridge_tilemap          bg_dhilly_bridge_tilemap
     00135731  ___func_bg_dhilly_game_10_tilese   bg_dhilly_game_10_tileset
     00135731  _bg_dhilly_game_10_tileset         bg_dhilly_game_10_tileset
     00135B13  ___func_bg_endingscene3_tileset    bg_endingscene3_tileset
     00135B13  _bg_endingscene3_tileset           bg_endingscene3_tileset
     00135EB5  ___func_bg_init_copy__tilemap_at   bg_init_copy__tilemap_attr
     00135EB5  _bg_init_copy__tilemap_attr        bg_init_copy__tilemap_attr
     0013624D  ___func_bg_init_copy__tilemap      bg_init_copy__tilemap
     0013624D  _bg_init_copy__tilemap             bg_init_copy__tilemap
     001365E5  ___func_bg_pixil_frame_0_33_tile   bg_pixil_frame_0_33_tileset
     001365E5  _bg_pixil_frame_0_33_tileset       bg_pixil_frame_0_33_tileset
     001369B7  ___func_bg_placeholder_copy_copy   bg_placeholder_copy_copy_co_
     001369B7  _bg_placeholder_copy_copy_co_0_t   bg_placeholder_copy_copy_co_
     00136DA9  ___func_scene_0_collisions         scene_0_collisions
     00136DA9  _scene_0_collisions                scene_0_collisions
     00137141  ___func_scene_76_collisions        scene_76_collisions
     00137141  _scene_76_collisions               scene_76_collisions
     00137529  _scene_91_init                     scene_91_init
     0013752C  GBVM$scene_91_init$e2e2b94a_4d61   scene_91_init
     00137536  GBVM$scene_91_init$70348248_2f63   scene_91_init
     00137540  GBVM$scene_91_init$99f9177a_e1f8   scene_91_init
     0013754A  GBVM$scene_91_init$autofade$7936   scene_91_init
     00137555  GBVM$scene_91_init$f0af8fa9_5954   scene_91_init
     00137561  GBVM$scene_91_init$e02d5b37_e6d2   scene_91_init
     001376C7  GBVM$scene_91_init$468966f6_1b1e   scene_91_init
     001376D2  GBVM$scene_91_init$6666d375_ee09   scene_91_init
     001376EB  GBVM$scene_91_init$1a30f6ca_3b26   scene_91_init
     001378B3  GBVM$scene_91_init$db1b0bec_431b   scene_91_init
     001378BF  GBVM$scene_91_init$4fbf6707_3a78   scene_91_init
     001378C9  GBVM$scene_91_init$472270da_5ec5   scene_91_init
     001378E2  GBVM$scene_91_init$6d348af8_1efd   scene_91_init
     001378EE  GBVM$scene_91_init$77038ecd_9c69   scene_91_init
     001378F8  GBVM$scene_91_init$fe8b3be6_6be5   scene_91_init
     00137902  GBVM$scene_91_init$4655ecd7_8eda   scene_91_init
     0013790D  _script_input_3                    script_input_3
     0013790F  GBVM$script_input_3$55c83d82_487   script_input_3
     0013791B  GBVM$script_input_3$a123a214_013   script_input_3
     0013792E  GBVM$script_input_3$68a1a8e5_243   script_input_3
     00137970  GBVM$script_input_3$9f8440a1_e14   script_input_3
     00137975  GBVM$script_input_3$7cd4a2bb_cd6   script_input_3
     0013798A  GBVM$script_input_3$8874a317_a58   script_input_3
ASxxxx Linker V03.00/V05.40 + sdld,  page 122.
Hexadecimal  [32-Bits]

Area                                    Addr        Size        Decimal Bytes (Attributes)
--------------------------------        ----        ----        ------- ----- ------------
_CODE_19                            00134000    00004000 =       16384. bytes (REL,CON)

      Value  Global                              Global Defined In Module
      -----  --------------------------------   ------------------------
     001379BC  GBVM_END$script_input_3$7cd4a2bb   script_input_3
     001379BF  GBVM$script_input_3$9de9af64_935   script_input_3
     00137A06  GBVM$script_input_3$dc285c28_a5e   script_input_3
     00137A0B  GBVM$script_input_3$62d228f0_d69   script_input_3
     00137A20  GBVM$script_input_3$f5579410_554   script_input_3
     00137A22  GBVM$script_input_3$8d06284f_0dd   script_input_3
     00137A26  GBVM$script_input_3$a3c32d5f_d34   script_input_3
     00137A26  GBVM_END$script_input_3$55c83d82   script_input_3
     00137A26  GBVM_END$script_input_3$62d228f0   script_input_3
     00137A26  GBVM_END$script_input_3$a123a214   script_input_3
     00137A3B  GBVM$script_input_3$761b08aa_792   script_input_3
     00137A4E  GBVM$script_input_3$dc2fbdd8_a70   script_input_3
     00137A90  GBVM$script_input_3$4fb90156_88a   script_input_3
     00137A95  GBVM$script_input_3$221af5e9_3d8   script_input_3
     00137AAA  GBVM$script_input_3$1b2ff2de_5d8   script_input_3
     00137ADC  GBVM_END$script_input_3$221af5e9   script_input_3
     00137ADF  GBVM$script_input_3$ecc51592_28a   script_input_3
     00137B26  GBVM$script_input_3$516efec1_0a0   script_input_3
     00137B2B  GBVM$script_input_3$5d33b9cf_afc   script_input_3
     00137B40  GBVM$script_input_3$96313b76_69b   script_input_3
     00137B42  GBVM$script_input_3$136171f6_3e3   script_input_3
     00137B46  GBVM$script_input_3$130ff29f_6b9   script_input_3
     00137B46  GBVM_END$script_input_3$5d33b9cf   script_input_3
     00137B46  GBVM_END$script_input_3$761b08aa   script_input_3
     00137B46  GBVM_END$script_input_3$a3c32d5f   script_input_3
     00137B5B  GBVM$script_input_3$5d6112cd_c56   script_input_3
     00137B6E  GBVM$script_input_3$0746de00_0d6   script_input_3
     00137BB0  GBVM$script_input_3$487a2ddc_9bd   script_input_3
     00137BB5  GBVM$script_input_3$aaa31f96_858   script_input_3
     00137BCA  GBVM$script_input_3$4cd17205_f1a   script_input_3
     00137BFC  GBVM_END$script_input_3$aaa31f96   script_input_3
     00137BFF  GBVM$script_input_3$ecfcf6a5_686   script_input_3
     00137C46  GBVM$script_input_3$2213368f_86b   script_input_3
     00137C4B  GBVM$script_input_3$78320308_cf0   script_input_3
     00137C60  GBVM$script_input_3$4e157ea2_141   script_input_3
     00137C62  GBVM$script_input_3$6df45fbb_2d5   script_input_3
     00137C66  GBVM_END$script_input_3$130ff29f   script_input_3
     00137C66  GBVM_END$script_input_3$5d6112cd   script_input_3
     00137C66  GBVM_END$script_input_3$78320308   script_input_3
     00137C67  _script_input_6                    script_input_6
     00137C69  GBVM$script_input_6$26e09350_147   script_input_6
     00137C75  GBVM$script_input_6$1c4ae581_5d6   script_input_6
     00137CEF  GBVM$script_input_6$5c51c236_02d   script_input_6
     00137D04  GBVM$script_input_6$5e634b95_ab9   script_input_6
     00137D06  GBVM$script_input_6$2cd0efdf_325   script_input_6
     00137D08  GBVM$script_input_6$24d14534_8b9   script_input_6
     00137D0A  GBVM$script_input_6$6fa2f185_ae5   script_input_6
     00137D30  GBVM$script_input_6$deff1e8e_798   script_input_6
     00137D30  GBVM_END$script_input_6$26e09350   script_input_6
     00137D30  GBVM_END$script_input_6$5c51c236   script_input_6
     00137D45  GBVM$script_input_6$472871e0_ca6   script_input_6
ASxxxx Linker V03.00/V05.40 + sdld,  page 123.
Hexadecimal  [32-Bits]

Area                                    Addr        Size        Decimal Bytes (Attributes)
--------------------------------        ----        ----        ------- ----- ------------
_CODE_19                            00134000    00004000 =       16384. bytes (REL,CON)

      Value  Global                              Global Defined In Module
      -----  --------------------------------   ------------------------
     00137D45  GBVM_END$script_input_6$deff1e8e   script_input_6
     00137D5A  GBVM$script_input_6$ae63155b_3bb   script_input_6
     00137D6C  GBVM$script_input_6$23510e5b_f7f   script_input_6
     00137D7E  GBVM$script_input_6$69ae116a_225   script_input_6
     00137D90  GBVM$script_input_6$7b9e6fd9_309   script_input_6
     00137DBE  GBVM$script_input_6$47654bd1_8af   script_input_6
     00137DD0  GBVM$script_input_6$92cae9c7_a2d   script_input_6
     00137DFC  GBVM$script_input_6$9b14389c_71c   script_input_6
     00137E0E  GBVM$script_input_6$225ca5d4_791   script_input_6
     00137E3A  GBVM$script_input_6$3d22e4bb_0e1   script_input_6
     00137E5D  GBVM_END$script_input_6$47654bd1   script_input_6
     00137E5D  GBVM_END$script_input_6$69ae116a   script_input_6
     00137E5D  GBVM_END$script_input_6$9b14389c   script_input_6
     00137E60  GBVM$script_input_6$49803dfa_939   script_input_6
     00137E9B  GBVM$script_input_6$4893b62d_5b1   script_input_6
     00137E9B  GBVM_END$script_input_6$23510e5b   script_input_6
     00137EAD  GBVM$script_input_6$60e30f04_ad2   script_input_6
     00137EDB  GBVM$script_input_6$9f301dd1_0c0   script_input_6
     00137EED  GBVM$script_input_6$9ebfaa13_928   script_input_6
     00137F19  GBVM$script_input_6$cf380b9b_1e4   script_input_6
     00137F2B  GBVM$script_input_6$75e89b32_8e4   script_input_6
     00137F57  GBVM$script_input_6$33127132_7ba   script_input_6
     00137F7A  GBVM_END$script_input_6$4893b62d   script_input_6
     00137F7A  GBVM_END$script_input_6$9f301dd1   script_input_6
     00137F7A  GBVM_END$script_input_6$cf380b9b   script_input_6
     00137F7D  GBVM$script_input_6$33e8ca53_477   script_input_6
     00137FB8  GBVM$script_input_6$bf610301_8aa   script_input_6
     00137FB8  GBVM_END$script_input_6$472871e0   script_input_6
     00137FB8  GBVM_END$script_input_6$ae63155b   script_input_6
     00137FCD  GBVM$script_input_6$0bfdc793_454   script_input_6
     00137FFF  GBVM_END$script_input_6$bf610301   script_input_6
ASxxxx Linker V03.00/V05.40 + sdld,  page 124.
Hexadecimal  [32-Bits]

Area                                    Addr        Size        Decimal Bytes (Attributes)
--------------------------------        ----        ----        ------- ----- ------------
_CODE_15                            000F4000    00004000 =       16384. bytes (REL,CON)

      Value  Global                              Global Defined In Module
      -----  --------------------------------   ------------------------
     000F4000  _scroll_init                       scroll
     000F402A  _scroll_reset                      scroll
     000F404A  _scroll_update                     scroll
     000F4181  _scroll_viewport                   scroll
     000F461A  _scroll_repaint                    scroll
     000F462A  _scroll_render_rows                scroll
     000F46C0  _scroll_queue_row                  scroll
     000F46E2  _scroll_queue_col                  scroll
     000F472D  ___func_VM_GAMEBOY                 vm_gameboy
     000F472D  _vm_set_sprites_visible            vm_gameboy
     000F4744  _vm_input_wait                     vm_gameboy
     000F476D  _vm_context_prepare                vm_gameboy
     000F4798  _vm_input_attach                   vm_gameboy
     000F47AE  _vm_input_detach                   vm_gameboy
     000F47C2  _vm_input_get                      vm_gameboy
     000F47F6  _vm_fade                           vm_gameboy
     000F4826  _vm_timer_prepare                  vm_gameboy
     000F4851  _vm_timer_set                      vm_gameboy
     000F486C  _vm_timer_stop                     vm_gameboy
     000F4880  _vm_timer_reset                    vm_gameboy
     000F4897  _vm_get_tile_xy                    vm_gameboy
     000F496D  _vm_replace_tile                   vm_gameboy
     000F4A18  _vm_poll                           vm_gameboy
     000F4AEA  _vm_set_sprite_mode                vm_gameboy
     000F4AFE  _vm_replace_tile_xy                vm_gameboy
     000F4CDE  _vm_rumble                         vm_gameboy
     000F4CFE  _vm_load_tileset                   vm_gameboy
     000F4DCF  ___func_VM_MUSIC                   vm_music
     000F4DCF  _vm_music_play                     vm_music
     000F4E1C  _vm_music_stop                     vm_music
     000F4E3E  _vm_music_mute                     vm_music
     000F4E7C  _vm_music_routine                  vm_music
     000F4EA3  _vm_music_setpos                   vm_music
     000F4EA9  _vm_sound_mastervol                vm_music
     000F4EAF  _vm_sfx_play                       vm_music
     000F4F22  ___func_bg_pixil_frame_23_0_tile   bg_pixil_frame_23_0_tilemap_
     000F4F22  _bg_pixil_frame_23_0_tilemap_att   bg_pixil_frame_23_0_tilemap_
     000F562A  ___func_bg_pixil_frame_23_0_tile   bg_pixil_frame_23_0_tilemap
     000F562A  _bg_pixil_frame_23_0_tilemap       bg_pixil_frame_23_0_tilemap
     000F5D32  _scene_100_init                    scene_100_init
     000F5D33  GBVM$scene_100_init$autofade$bac   scene_100_init
     000F5D3F  _scene_22_init                     scene_22_init
     000F5D42  GBVM$scene_22_init$6056ea0b_08c9   scene_22_init
     000F5D4C  GBVM$scene_22_init$42c09fb7_b9c7   scene_22_init
     000F5D56  GBVM$scene_22_init$autofade$d8fb   scene_22_init
     000F5D61  GBVM$scene_22_init$c8fe7447_aa50   scene_22_init
     000F5D63  GBVM$scene_22_init$f19583a4_2613   scene_22_init
     000F5D86  GBVM$scene_22_init$665ad255_374b   scene_22_init
     000F5D91  GBVM$scene_22_init$db36edc5_6d2a   scene_22_init
     000F5E21  GBVM$scene_22_init$50e00df0_e484   scene_22_init
ASxxxx Linker V03.00/V05.40 + sdld,  page 125.
Hexadecimal  [32-Bits]

Area                                    Addr        Size        Decimal Bytes (Attributes)
--------------------------------        ----        ----        ------- ----- ------------
_CODE_15                            000F4000    00004000 =       16384. bytes (REL,CON)

      Value  Global                              Global Defined In Module
      -----  --------------------------------   ------------------------
     000F5E65  GBVM$scene_22_init$d0b43725_21b9   scene_22_init
     000F5E6E  GBVM$scene_22_init$406c7c51_ddac   scene_22_init
     000F5F4A  GBVM$scene_22_init$e6137795_9622   scene_22_init
     000F5FB7  GBVM$scene_22_init$174caa07_2162   scene_22_init
     000F5FB7  GBVM_END$scene_22_init$d0b43725_   scene_22_init
     000F5FDA  GBVM$scene_22_init$289b98c3_fcae   scene_22_init
     000F601F  GBVM$scene_22_init$9a77ec11_5111   scene_22_init
     000F6021  GBVM$scene_22_init$eb5d1f69_0780   scene_22_init
     000F6044  GBVM$scene_22_init$a9f54ed7_6950   scene_22_init
     000F6050  GBVM$scene_22_init$3f549fd3_bbf4   scene_22_init
     000F605A  GBVM$scene_22_init$aad20d28_30a8   scene_22_init
     000F6066  GBVM$scene_22_init$d0c87ab4_7def   scene_22_init
     000F6078  GBVM$scene_22_init$3f952b79_b9ef   scene_22_init
     000F6209  GBVM$scene_22_init$d0689da5_eb4a   scene_22_init
     000F63F4  GBVM$scene_22_init$83fe7251_7a0d   scene_22_init
     000F63F4  GBVM_END$scene_22_init$d0c87ab4_   scene_22_init
     000F6400  GBVM$scene_22_init$ff5840b5_19b5   scene_22_init
     000F6405  GBVM$scene_22_init$1bd4a06f_5fb0   scene_22_init
     000F6438  ___func_scene_28_collisions        scene_28_collisions
     000F6438  _scene_28_collisions               scene_28_collisions
     000F6B40  _scene_61_init                     scene_61_init
     000F6B43  GBVM$scene_61_init$autofade$8127   scene_61_init
     000F6B4E  GBVM$scene_61_init$fb3ea0aa_331a   scene_61_init
     000F6B5A  GBVM$scene_61_init$98367c59_c2ed   scene_61_init
     000F6B66  GBVM$scene_61_init$ac05ebe6_542f   scene_61_init
     000F6BFD  GBVM$scene_61_init$91d922f4_c896   scene_61_init
     000F6C46  GBVM$scene_61_init$ec41c41a_73d1   scene_61_init
     000F6C4F  GBVM$scene_61_init$a0cda12c_32a8   scene_61_init
     000F6CA3  GBVM$scene_61_init$8ca7bafe_669e   scene_61_init
     000F6CFD  GBVM$scene_61_init$81627faf_c13b   scene_61_init
     000F6D35  GBVM$scene_61_init$21429fc1_c20e   scene_61_init
     000F6D9B  GBVM$scene_61_init$f72ba775_11d5   scene_61_init
     000F6DAD  GBVM$scene_61_init$f30f573f_7b19   scene_61_init
     000F6E2C  GBVM$scene_61_init$3e2beb71_68bc   scene_61_init
     000F6EC7  GBVM$scene_61_init$a347cbc6_95b0   scene_61_init
     000F6EC7  GBVM_END$scene_61_init$f72ba775_   scene_61_init
     000F6F39  GBVM$scene_61_init$dd4d5267_efe9   scene_61_init
     000F6F89  GBVM$scene_61_init$2e16fcc2_9842   scene_61_init
     000F6F92  GBVM$scene_61_init$444709c7_79d5   scene_61_init
     000F6FE3  GBVM$scene_61_init$ebd45b0b_7e4e   scene_61_init
     000F7037  GBVM$scene_61_init$3d735b9a_af4a   scene_61_init
     000F706B  GBVM$scene_61_init$458dd584_00b5   scene_61_init
     000F70BF  GBVM$scene_61_init$3604b350_305c   scene_61_init
     000F70D1  GBVM$scene_61_init$bb9c59d8_15cf   scene_61_init
     000F7171  GBVM$scene_61_init$95896111_57cf   scene_61_init
     000F722D  GBVM$scene_61_init$48f97692_8a61   scene_61_init
     000F722D  GBVM_END$scene_61_init$2e16fcc2_   scene_61_init
     000F722D  GBVM_END$scene_61_init$3604b350_   scene_61_init
     000F722D  GBVM_END$scene_61_init$ec41c41a_   scene_61_init
     000F7232  GBVM$scene_61_init$869f66ab_94bb   scene_61_init
     000F7272  GBVM_END$scene_61_init$fb3ea0aa_   scene_61_init
ASxxxx Linker V03.00/V05.40 + sdld,  page 126.
Hexadecimal  [32-Bits]

Area                                    Addr        Size        Decimal Bytes (Attributes)
--------------------------------        ----        ----        ------- ----- ------------
_CODE_15                            000F4000    00004000 =       16384. bytes (REL,CON)

      Value  Global                              Global Defined In Module
      -----  --------------------------------   ------------------------
     000F7273  _adventure_init                    adventure
     000F7288  _adventure_update                  adventure
     000F793F  _topdown_init                      topdown
     000F79D6  _topdown_update                    topdown
ASxxxx Linker V03.00/V05.40 + sdld,  page 127.
Hexadecimal  [32-Bits]

Area                                    Addr        Size        Decimal Bytes (Attributes)
--------------------------------        ----        ----        ------- ----- ------------
_CODE_1                             00014000    00004000 =       16384. bytes (REL,CON)

      Value  Global                              Global Defined In Module
      -----  --------------------------------   ------------------------
     00014000  _ui_swap_tiles                     
     0001404A  _ui_print_make_mask_lr             
     00014066  _ui_print_make_mask_rl             
     00014082  _ui_init                           ui
     00014153  _ui_load_tiles                     ui
     000141AA  _ui_draw_frame                     ui
     00014244  _ui_print_reset                    ui
     00014295  _ui_set_start_tile                 ui
     000142C1  _ui_print_render                   ui
     00014557  _ui_draw_text_buffer_char          ui
     00014A51  _ui_run_menu                       ui
     00014C28  _ui_run_modal                      ui
     00014CE2  ___func_VM_SGB                     vm_sgb
     00014CE2  ___func_bg_lencityopen_copy_0_ti   bg_lencityopen_copy_0_tilema
     00014CE2  _bg_lencityopen_copy_0_tilemap_a   bg_lencityopen_copy_0_tilema
     00015804  ___func_bg_lencityopen_tilemap_a   bg_lencityopen_tilemap_attr
     00015804  _bg_lencityopen_tilemap_attr       bg_lencityopen_tilemap_attr
     00017F14  ___func_scene_17_sprites           scene_17_sprites
     00017F14  _scene_17_sprites                  scene_17_sprites
     00017F17  ___func_sprite_pixelperfectvoti_   sprite_pixelperfectvoti_cop
     00017F17  _sprite_pixelperfectvoti_cop_met   sprite_pixelperfectvoti_cop
     00017F23  _sprite_pixelperfectvoti_cop_met   sprite_pixelperfectvoti_cop
     00017F2F  _sprite_pixelperfectvoti_cop_met   sprite_pixelperfectvoti_cop
     00017F3B  _sprite_pixelperfectvoti_cop_met   sprite_pixelperfectvoti_cop
     00017F47  _sprite_pixelperfectvoti_cop_met   sprite_pixelperfectvoti_cop
     00017F53  _sprite_pixelperfectvoti_cop_met   sprite_pixelperfectvoti_cop
     00017F5F  _sprite_pixelperfectvoti_cop_met   sprite_pixelperfectvoti_cop
     00017F6B  _sprite_pixelperfectvoti_cop_met   sprite_pixelperfectvoti_cop
     00017F77  _sprite_pixelperfectvoti_cop_met   sprite_pixelperfectvoti_cop
     00017F83  _sprite_pixelperfectvoti_cop_met   sprite_pixelperfectvoti_cop
     00017F8F  _sprite_pixelperfectvoti_cop_met   sprite_pixelperfectvoti_cop
     00017F9B  _sprite_pixelperfectvoti_cop_met   sprite_pixelperfectvoti_cop
     00017FA7  _sprite_pixelperfectvoti_cop_met   sprite_pixelperfectvoti_cop
     00017FB3  _sprite_pixelperfectvoti_cop_met   sprite_pixelperfectvoti_cop
     00017FBF  _sprite_pixelperfectvoti_cop_met   sprite_pixelperfectvoti_cop
     00017FDB  _sprite_pixelperfectvoti_cop_ani   sprite_pixelperfectvoti_cop
     00017FEB  _sprite_pixelperfectvoti_cop_ani   sprite_pixelperfectvoti_cop
     00017FED  _sprite_pixelperfectvoti_cop       sprite_pixelperfectvoti_cop

ASxxxx Linker V03.00/V05.40 + sdld,  page 128.
Hexadecimal  [32-Bits]

Area                                    Addr        Size        Decimal Bytes (Attributes)
--------------------------------        ----        ----        ------- ----- ------------
_CODE_22                            00164000    00003FFF =       16383. bytes (REL,CON)

      Value  Global                              Global Defined In Module
      -----  --------------------------------   ------------------------
     00164000  _set_sgb_border                    sgb_border
     001641EA  ___func_VM_MATH                    vm_math
     001641EA  _vm_sin_scale                      vm_math
     00164286  _vm_cos_scale                      vm_math
     00164324  _actor_25_interact                 actor_25_interact
     00164325  GBVM$actor_25_interact$a49e3cfa_   actor_25_interact
     0016432E  GBVM$actor_25_interact$607693b5_   actor_25_interact
     00164333  GBVM$actor_25_interact$565adb43_   actor_25_interact
     00164437  GBVM$actor_25_interact$4b1ca0be_   actor_25_interact
     001644D7  GBVM_END$actor_25_interact$a49e3   actor_25_interact
     001644D8  ___func_bg_cinema_tilemap_attr     bg_cinema_tilemap_attr
     001644D8  _bg_cinema_tilemap_attr            bg_cinema_tilemap_attr
     001646B8  ___func_bg_cinema_tilemap          bg_cinema_tilemap
     001646B8  _bg_cinema_tilemap                 bg_cinema_tilemap
     00164898  ___func_bg_controls_gba_copy__ti   bg_controls_gba_copy__tilema
     00164898  _bg_controls_gba_copy__tilemap_a   bg_controls_gba_copy__tilema
     00164A00  ___func_bg_controls_gba_copy__ti   bg_controls_gba_copy__tilema
     00164A00  _bg_controls_gba_copy__tilemap     bg_controls_gba_copy__tilema
     00164B68  ___func_bg_controls_gba_copy_0_t   bg_controls_gba_copy_0_tilem
     00164B68  _bg_controls_gba_copy_0_tilemap_   bg_controls_gba_copy_0_tilem
     00164CD0  ___func_bg_controls_gba_copy_0_t   bg_controls_gba_copy_0_tilem
     00164CD0  _bg_controls_gba_copy_0_tilemap    bg_controls_gba_copy_0_tilem
     00164E38  ___func_bg_controls_gbc_copy__ti   bg_controls_gbc_copy__tilema
     00164E38  _bg_controls_gbc_copy__tilemap_a   bg_controls_gbc_copy__tilema
     00164FA0  ___func_bg_controls_gbc_copy__ti   bg_controls_gbc_copy__tilema
     00164FA0  _bg_controls_gbc_copy__tilemap     bg_controls_gbc_copy__tilema
     00165108  ___func_bg_controls_mobile_copy_   bg_controls_mobile_copy__til
     00165108  _bg_controls_mobile_copy__tilema   bg_controls_mobile_copy__til
     00165270  ___func_bg_controls_mobile_copy_   bg_controls_mobile_copy__til
     00165270  _bg_controls_mobile_copy__tilema   bg_controls_mobile_copy__til
     001653D8  ___func_bg_controls_mobile_copy_   bg_controls_mobile_copy_0_ti
     001653D8  _bg_controls_mobile_copy_0_tilem   bg_controls_mobile_copy_0_ti
     00165540  ___func_bg_controls_mobile_copy_   bg_controls_mobile_copy_0_ti
     00165540  _bg_controls_mobile_copy_0_tilem   bg_controls_mobile_copy_0_ti
     001656A8  ___func_bg_dhilly_game_1_tilemap   bg_dhilly_game_1_tilemap_att
     001656A8  _bg_dhilly_game_1_tilemap_attr     bg_dhilly_game_1_tilemap_att
     00165810  ___func_bg_dhilly_game_1_tilemap   bg_dhilly_game_1_tilemap
     00165810  _bg_dhilly_game_1_tilemap          bg_dhilly_game_1_tilemap
     00165978  ___func_bg_dhilly_game_10_tilema   bg_dhilly_game_10_tilemap_at
     00165978  _bg_dhilly_game_10_tilemap_attr    bg_dhilly_game_10_tilemap_at
     00165AE0  ___func_bg_dhilly_game_10_tilema   bg_dhilly_game_10_tilemap
     00165AE0  _bg_dhilly_game_10_tilemap         bg_dhilly_game_10_tilemap
     00165C48  ___func_bg_dhilly_game_5_tileset   bg_dhilly_game_5_tileset
     00165C48  _bg_dhilly_game_5_tileset          bg_dhilly_game_5_tileset
     00165E1A  ___func_bg_iceos_desktop_copy__t   bg_iceos_desktop_copy__tiles
     00165E1A  _bg_iceos_desktop_copy__tileset    bg_iceos_desktop_copy__tiles
     00165FFC  ___func_bg_lair_right_3_tileset    bg_lair_right_3_tileset
     00165FFC  _bg_lair_right_3_tileset           bg_lair_right_3_tileset
     0016618E  ___func_bg_lair_right_tileset      bg_lair_right_tileset
     0016618E  _bg_lair_right_tileset             bg_lair_right_tileset
ASxxxx Linker V03.00/V05.40 + sdld,  page 129.
Hexadecimal  [32-Bits]

Area                                    Addr        Size        Decimal Bytes (Attributes)
--------------------------------        ----        ----        ------- ----- ------------
_CODE_22                            00164000    00003FFF =       16383. bytes (REL,CON)

      Value  Global                              Global Defined In Module
      -----  --------------------------------   ------------------------
     00166370  ___func_bg_lencity_trainstation_   bg_lencity_trainstation_cop_
     00166370  _bg_lencity_trainstation_cop_til   bg_lencity_trainstation_cop_
     00166522  ___func_bg_lencity_trainstation_   bg_lencity_trainstation_tile
     00166522  _bg_lencity_trainstation_tilemap   bg_lencity_trainstation_tile
     001666AE  ___func_bg_lencity_trainstation_   bg_lencity_trainstation_tile
     001666AE  _bg_lencity_trainstation_tilemap   bg_lencity_trainstation_tile
     0016683A  ___func_bg_pixil_frame_0_30_tile   bg_pixil_frame_0_30_tileset
     0016683A  _bg_pixil_frame_0_30_tileset       bg_pixil_frame_0_30_tileset
     001669DC  ___func_bg_shillycityopen_copy_0   bg_shillycityopen_copy_0_til
     001669DC  _bg_shillycityopen_copy_0_tilese   bg_shillycityopen_copy_0_til
     00166BAE  ___func_bg_square_frozen_future_   bg_square_frozen_future_tile
     00166BAE  _bg_square_frozen_future_tilemap   bg_square_frozen_future_tile
     00166D3A  ___func_bg_square_frozen_future_   bg_square_frozen_future_tile
     00166D3A  _bg_square_frozen_future_tilemap   bg_square_frozen_future_tile
     00166EC6  ___func_scene_19_collisions        scene_19_collisions
     00166EC6  _scene_19_collisions               scene_19_collisions
     00167052  ___func_scene_20_collisions        scene_20_collisions
     00167052  _scene_20_collisions               scene_20_collisions
     001671DE  ___func_scene_27_collisions        scene_27_collisions
     001671DE  _scene_27_collisions               scene_27_collisions
     0016736A  ___func_scene_35_collisions        scene_35_collisions
     0016736A  _scene_35_collisions               scene_35_collisions
     001674F6  ___func_scene_45_collisions        scene_45_collisions
     001674F6  _scene_45_collisions               scene_45_collisions
     001676D6  ___func_scene_48_collisions        scene_48_collisions
     001676D6  _scene_48_collisions               scene_48_collisions
     001678CA  _scene_54_init                     scene_54_init
     001678CB  GBVM$scene_54_init$autofade$d0b2   scene_54_init
     001678D6  GBVM$scene_54_init$6763bb91_1f3e   scene_54_init
     00167921  GBVM$scene_54_init$879d4390_2983   scene_54_init
     00167977  GBVM$scene_54_init$22bfcb52_db09   scene_54_init
     00167980  GBVM$scene_54_init$87d9f00b_79f4   scene_54_init
     00167A27  GBVM$scene_54_init$1ba458ac_5737   scene_54_init
     00167A85  GBVM_END$scene_54_init$22bfcb52_   scene_54_init
     00167A86  ___func_scene_63_collisions        scene_63_collisions
     00167A86  _scene_63_collisions               scene_63_collisions
     00167C7A  _scene_94_init                     scene_94_init
     00167C7D  GBVM$scene_94_init$autofade$4fde   scene_94_init
     00167C88  GBVM$scene_94_init$dd0c04e4_23b7   scene_94_init
     00167C99  GBVM$scene_94_init$a13c3c65_8a51   scene_94_init
     00167CBC  GBVM$scene_94_init$9665cdc7_e79d   scene_94_init
     00167CC8  GBVM$scene_94_init$3a746393_cacc   scene_94_init
     00167DF2  GBVM$scene_94_init$63ac437a_978e   scene_94_init
     00167DFA  GBVM$scene_94_init$f0ffbd1e_46ce   scene_94_init
     00167DFA  GBVM_END$scene_94_init$63ac437a_   scene_94_init
     00167E02  GBVM$scene_94_init$e2b70224_370e   scene_94_init
     00167E02  GBVM_END$scene_94_init$f0ffbd1e_   scene_94_init
     00167E07  GBVM$scene_94_init$29e649b3_84a9   scene_94_init
     00167E0C  GBVM$scene_94_init$52f2c40a_fee8   scene_94_init
     00167E41  _trigger_121_interact              trigger_121_interact
     00167E44  GBVM$trigger_121_interact$9b886c   trigger_121_interact
ASxxxx Linker V03.00/V05.40 + sdld,  page 130.
Hexadecimal  [32-Bits]

Area                                    Addr        Size        Decimal Bytes (Attributes)
--------------------------------        ----        ----        ------- ----- ------------
_CODE_22                            00164000    00003FFF =       16383. bytes (REL,CON)

      Value  Global                              Global Defined In Module
      -----  --------------------------------   ------------------------
     00167E57  GBVM$trigger_121_interact$74d8aa   trigger_121_interact
     00167E7A  GBVM$trigger_121_interact$dcfdc9   trigger_121_interact
     00167E86  GBVM$trigger_121_interact$30085d   trigger_121_interact
     00167FB0  GBVM$trigger_121_interact$8a53d6   trigger_121_interact
     00167FB8  GBVM$trigger_121_interact$597ee9   trigger_121_interact
     00167FB8  GBVM_END$trigger_121_interact$8a   trigger_121_interact
     00167FC0  GBVM$trigger_121_interact$4eb190   trigger_121_interact
     00167FC0  GBVM_END$trigger_121_interact$59   trigger_121_interact
     00167FC5  GBVM$trigger_121_interact$2885f2   trigger_121_interact
     00167FCA  GBVM$trigger_121_interact$995d42   trigger_121_interact
ASxxxx Linker V03.00/V05.40 + sdld,  page 131.
Hexadecimal  [32-Bits]

Area                                    Addr        Size        Decimal Bytes (Attributes)
--------------------------------        ----        ----        ------- ----- ------------
_CODE_14                            000E4000    00003FFE =       16382. bytes (REL,CON)

      Value  Global                              Global Defined In Module
      -----  --------------------------------   ------------------------
     000E4000  ___func_VM_UI                      vm_ui
     000E4000  _vm_display_text                   vm_ui
     000E406E  _vm_switch_text_layer              vm_ui
     000E4088  _vm_overlay_setpos                 vm_ui
     000E40A2  _vm_overlay_wait                   vm_ui
     000E4132  _vm_overlay_move_to                vm_ui
     000E4176  _vm_overlay_set_scroll             vm_ui
     000E41AF  _vm_overlay_clear                  vm_ui
     000E4281  _vm_overlay_show                   vm_ui
     000E42CF  _vm_choice                         vm_ui
     000E43EA  _vm_set_font                       vm_ui
     000E4419  _vm_overlay_scroll                 vm_ui
     000E447A  _vm_overlay_set_submap             vm_ui
     000E44E6  _vm_overlay_set_submap_ex          vm_ui
     000E45E7  _vm_overlay_set_map                vm_ui
     000E4746  _vm_set_text_sound                 vm_ui
     000E475F  ___func_bg_dhilly_game_8_tileset   bg_dhilly_game_8_tileset
     000E475F  _bg_dhilly_game_8_tileset          bg_dhilly_game_8_tileset
     000E4EB1  ___func_bg_endingscene_tileset     bg_endingscene_tileset
     000E4EB1  _bg_endingscene_tileset            bg_endingscene_tileset
     000E5683  ___func_bg_fieldlazy_tilemap_att   bg_fieldlazy_tilemap_attr
     000E5683  _bg_fieldlazy_tilemap_attr         bg_fieldlazy_tilemap_attr
     000E5DC1  ___func_bg_fieldlazy_tilemap       bg_fieldlazy_tilemap
     000E5DC1  _bg_fieldlazy_tilemap              bg_fieldlazy_tilemap
     000E64FF  ___func_bg_init_copy_2_tilemap_a   bg_init_copy_2_tilemap_attr
     000E64FF  _bg_init_copy_2_tilemap_attr       bg_init_copy_2_tilemap_attr
     000E6973  ___func_scene_27_triggers          scene_27_triggers
     000E6973  _scene_27_triggers                 scene_27_triggers
     000E697B  ___func_scene_49_collisions        scene_49_collisions
     000E697B  _scene_49_collisions               scene_49_collisions
     000E70B9  _trigger_1_interact                trigger_1_interact
     000E70BC  GBVM$trigger_1_interact$e21a431d   trigger_1_interact
     000E70DF  GBVM$trigger_1_interact$d9f8fbc3   trigger_1_interact
     000E7371  GBVM$trigger_1_interact$1f1286d8   trigger_1_interact
     000E73C5  GBVM$trigger_1_interact$0f504e86   trigger_1_interact
     000E73D7  GBVM$trigger_1_interact$e5b96354   trigger_1_interact
     000E757C  GBVM$trigger_1_interact$510c6f77   trigger_1_interact
     000E773A  GBVM$trigger_1_interact$d57e49d7   trigger_1_interact
     000E773A  GBVM_END$trigger_1_interact$0f50   trigger_1_interact
     000E778C  GBVM$trigger_1_interact$644d12f5   trigger_1_interact
     000E77EA  GBVM$trigger_1_interact$631d8410   trigger_1_interact
     000E7803  GBVM$trigger_1_interact$3423e295   trigger_1_interact
     000E7836  _shmup_init                        shmup
     000E78D3  _shmup_update                      shmup

ASxxxx Linker V03.00/V05.40 + sdld,  page 132.
Hexadecimal  [32-Bits]

Area                                    Addr        Size        Decimal Bytes (Attributes)
--------------------------------        ----        ----        ------- ----- ------------
_CODE_10                            000A4000    00004000 =       16384. bytes (REL,CON)

      Value  Global                              Global Defined In Module
      -----  --------------------------------   ------------------------
     000A4000  ___func_VM_MAIN                    vm
     000A4000  _vm_call                           vm
     000A4042  _vm_ret                            vm
     000A40A2  _vm_call_far                       vm
     000A4121  _vm_ret_far                        vm
     000A4199  _vm_push                           vm
     000A41C4  _vm_pop                            vm
     000A41FF  _vm_loop                           vm
     000A428A  _vm_jump                           vm
     000A4296  _wait_frames                       vm
     000A430C  _vm_invoke                         vm
     000A4439  _vm_join                           vm
     000A449B  _vm_terminate                      vm
     000A44C8  _vm_if                             vm
     000A460D  _vm_if_const                       vm
     000A4722  _vm_push_value                     vm
     000A4774  _vm_push_value_ind                 vm
     000A47E9  _vm_push_reference                 vm
     000A4840  _vm_reserve                        vm
     000A486E  _vm_set                            vm
     000A48CF  _vm_set_const                      vm
     000A48FB  _vm_get_tlocal                     vm
     000A4988  _vm_test_terminate                 vm
     000A4993  _vm_idle                           vm
     000A499F  _vm_init_rng                       vm
     000A49CB  _vm_rand                           vm
     000A4A0D  _vm_lock                           vm
     000A4A1C  _vm_unlock                         vm
     000A4A2F  _vm_raise                          vm
     000A4A71  _vm_set_indirect                   vm
     000A4AEC  _vm_get_indirect                   vm
     000A4B67  _vm_poll_loaded                    vm
     000A4B97  _vm_memset                         vm
     000A4BD1  _vm_memcpy                         vm
     000A4C4E  _script_runner_init                vm
     000A4D05  _script_execute                    vm
     000A4E6B  _script_terminate                  vm
     000A4ED0  _script_detach_hthread             vm
     000A4F0C  ___func_bg_lencityopen_copy_0_ti   bg_lencityopen_copy_0_tilema
     000A4F0C  _bg_lencityopen_copy_0_tilemap     bg_lencityopen_copy_0_tilema
     000A5A2E  ___func_bg_samsam_copy_tileset     bg_samsam_copy_tileset
     000A5A2E  _bg_samsam_copy_tileset            bg_samsam_copy_tileset
     000A5CD0  ___func_bg_shillycityopen_copy_1   bg_shillycityopen_copy_1_til
     000A5CD0  _bg_shillycityopen_copy_1_tilema   bg_shillycityopen_copy_1_til
     000A6E64  ___func_scene_19_triggers          scene_19_triggers
     000A6E64  _scene_19_triggers                 scene_19_triggers
     000A6E6C  ___func_scene_99_collisions        scene_99_collisions
     000A6E6C  _scene_99_collisions               scene_99_collisions
ASxxxx Linker V03.00/V05.40 + sdld,  page 133.
Hexadecimal  [32-Bits]

Area                                    Addr        Size        Decimal Bytes (Attributes)
--------------------------------        ----        ----        ------- ----- ------------
_CODE_25                            00194000    00004000 =       16384. bytes (REL,CON)

      Value  Global                              Global Defined In Module
      -----  --------------------------------   ------------------------
     00194000  _actor_60_interact                 actor_60_interact
     00194013  GBVM$actor_60_interact$7101973d_   actor_60_interact
     0019401E  GBVM$actor_60_interact$5e1bef0f_   actor_60_interact
     00194027  GBVM$actor_60_interact$8dd9e55e_   actor_60_interact
     0019405C  GBVM$actor_60_interact$ca98d14c_   actor_60_interact
     0019405E  GBVM$actor_60_interact$6372ab8f_   actor_60_interact
     00194068  GBVM$actor_60_interact$b4899d65_   actor_60_interact
     00194081  GBVM$actor_60_interact$ab368065_   actor_60_interact
     001940B3  GBVM_END$actor_60_interact$5e1be   actor_60_interact
     001940B5  ___func_bg_wakeupsquare_3_copy__   bg_wakeupsquare_3_copy__tile
     001940B5  _bg_wakeupsquare_3_copy__tilemap   bg_wakeupsquare_3_copy__tile
     0019421D  ___func_bg_wakeupsquare_3_copy__   bg_wakeupsquare_3_copy__tile
     0019421D  _bg_wakeupsquare_3_copy__tilemap   bg_wakeupsquare_3_copy__tile
     00194385  ___func_scene_1_collisions         scene_1_collisions
     00194385  _scene_1_collisions                scene_1_collisions
     001944ED  ___func_scene_10_collisions        scene_10_collisions
     001944ED  _scene_10_collisions               scene_10_collisions
     00194655  ___func_scene_100_collisions       scene_100_collisions
     00194655  _scene_100_collisions              scene_100_collisions
     001947BD  ___func_scene_11_collisions        scene_11_collisions
     001947BD  _scene_11_collisions               scene_11_collisions
     00194925  ___func_scene_12_collisions        scene_12_collisions
     00194925  _scene_12_collisions               scene_12_collisions
     00194A8D  ___func_scene_13_collisions        scene_13_collisions
     00194A8D  _scene_13_collisions               scene_13_collisions
     00194BF5  ___func_scene_14_collisions        scene_14_collisions
     00194BF5  _scene_14_collisions               scene_14_collisions
     00194D5D  ___func_scene_16_collisions        scene_16_collisions
     00194D5D  _scene_16_collisions               scene_16_collisions
     00194EC5  ___func_scene_2_collisions         scene_2_collisions
     00194EC5  _scene_2_collisions                scene_2_collisions
     0019502D  ___func_scene_22_collisions        scene_22_collisions
     0019502D  _scene_22_collisions               scene_22_collisions
     00195195  ___func_scene_23_collisions        scene_23_collisions
     00195195  _scene_23_collisions               scene_23_collisions
     001952FD  ___func_scene_24_collisions        scene_24_collisions
     001952FD  _scene_24_collisions               scene_24_collisions
     00195465  ___func_scene_25_collisions        scene_25_collisions
     00195465  _scene_25_collisions               scene_25_collisions
     001955CD  ___func_scene_26_collisions        scene_26_collisions
     001955CD  _scene_26_collisions               scene_26_collisions
     00195735  ___func_scene_3_collisions         scene_3_collisions
     00195735  _scene_3_collisions                scene_3_collisions
     0019589D  ___func_scene_33_collisions        scene_33_collisions
     0019589D  _scene_33_collisions               scene_33_collisions
     00195A05  ___func_scene_34_sprites           scene_34_sprites
     00195A05  _scene_34_sprites                  scene_34_sprites
     00195A08  ___func_scene_37_collisions        scene_37_collisions
     00195A08  _scene_37_collisions               scene_37_collisions
     00195B70  ___func_scene_38_collisions        scene_38_collisions
ASxxxx Linker V03.00/V05.40 + sdld,  page 134.
Hexadecimal  [32-Bits]

Area                                    Addr        Size        Decimal Bytes (Attributes)
--------------------------------        ----        ----        ------- ----- ------------
_CODE_25                            00194000    00004000 =       16384. bytes (REL,CON)

      Value  Global                              Global Defined In Module
      -----  --------------------------------   ------------------------
     00195B70  _scene_38_collisions               scene_38_collisions
     00195CD8  ___func_scene_39_collisions        scene_39_collisions
     00195CD8  _scene_39_collisions               scene_39_collisions
     00195E40  ___func_scene_4_collisions         scene_4_collisions
     00195E40  _scene_4_collisions                scene_4_collisions
     00195FA8  ___func_scene_40_collisions        scene_40_collisions
     00195FA8  _scene_40_collisions               scene_40_collisions
     00196110  ___func_scene_41_collisions        scene_41_collisions
     00196110  _scene_41_collisions               scene_41_collisions
     00196278  ___func_scene_42_collisions        scene_42_collisions
     00196278  _scene_42_collisions               scene_42_collisions
     001963E0  ___func_scene_43_collisions        scene_43_collisions
     001963E0  _scene_43_collisions               scene_43_collisions
     00196548  ___func_scene_44_collisions        scene_44_collisions
     00196548  _scene_44_collisions               scene_44_collisions
     001966B0  ___func_scene_5_collisions         scene_5_collisions
     001966B0  _scene_5_collisions                scene_5_collisions
     00196818  ___func_scene_54_collisions        scene_54_collisions
     00196818  _scene_54_collisions               scene_54_collisions
     00196980  ___func_scene_59_collisions        scene_59_collisions
     00196980  _scene_59_collisions               scene_59_collisions
     00196AE8  ___func_scene_6_collisions         scene_6_collisions
     00196AE8  _scene_6_collisions                scene_6_collisions
     00196C50  ___func_scene_60_collisions        scene_60_collisions
     00196C50  _scene_60_collisions               scene_60_collisions
     00196DB8  ___func_scene_61_collisions        scene_61_collisions
     00196DB8  _scene_61_collisions               scene_61_collisions
     00196F20  ___func_scene_64_collisions        scene_64_collisions
     00196F20  _scene_64_collisions               scene_64_collisions
     00197088  ___func_scene_66_collisions        scene_66_collisions
     00197088  _scene_66_collisions               scene_66_collisions
     001971F0  ___func_scene_67_collisions        scene_67_collisions
     001971F0  _scene_67_collisions               scene_67_collisions
     00197358  ___func_scene_68_collisions        scene_68_collisions
     00197358  _scene_68_collisions               scene_68_collisions
     001974C0  ___func_scene_69_collisions        scene_69_collisions
     001974C0  _scene_69_collisions               scene_69_collisions
     00197628  ___func_scene_7_collisions         scene_7_collisions
     00197628  _scene_7_collisions                scene_7_collisions
     00197790  ___func_scene_70_collisions        scene_70_collisions
     00197790  _scene_70_collisions               scene_70_collisions
     001978F8  ___func_scene_71_collisions        scene_71_collisions
     001978F8  _scene_71_collisions               scene_71_collisions
     00197A60  ___func_scene_72_collisions        scene_72_collisions
     00197A60  _scene_72_collisions               scene_72_collisions
     00197BC8  ___func_scene_73_collisions        scene_73_collisions
     00197BC8  _scene_73_collisions               scene_73_collisions
     00197D30  ___func_scene_74_collisions        scene_74_collisions
     00197D30  _scene_74_collisions               scene_74_collisions
     00197E98  ___func_scene_75_collisions        scene_75_collisions
     00197E98  _scene_75_collisions               scene_75_collisions

ASxxxx Linker V03.00/V05.40 + sdld,  page 135.
Hexadecimal  [32-Bits]

Area                                    Addr        Size        Decimal Bytes (Attributes)
--------------------------------        ----        ----        ------- ----- ------------
_CODE_13                            000D4000    00004000 =       16384. bytes (REL,CON)

      Value  Global                              Global Defined In Module
      -----  --------------------------------   ------------------------
     000D4000  ___func_bg_cave_ladder_copy__til   bg_cave_ladder_copy__tilemap
     000D4000  _bg_cave_ladder_copy__tilemap_at   bg_cave_ladder_copy__tilemap
     000D44B0  ___func_bg_dhilly_game_1_tileset   bg_dhilly_game_1_tileset
     000D44B0  _bg_dhilly_game_1_tileset          bg_dhilly_game_1_tileset
     000D4CE2  ___func_bg_endingscene2_tileset    bg_endingscene2_tileset
     000D4CE2  _bg_endingscene2_tileset           bg_endingscene2_tileset
     000D55A4  ___func_bg_pixil_frame_0_31_tile   bg_pixil_frame_0_31_tileset
     000D55A4  _bg_pixil_frame_0_31_tileset       bg_pixil_frame_0_31_tileset
     000D5D86  _scene_46_init                     scene_46_init
     000D5D89  GBVM$scene_46_init$0ea2a4e8_ae35   scene_46_init
     000D5D9E  GBVM$scene_46_init$bbc510a6_e659   scene_46_init
     000D5DA9  GBVM$scene_46_init$87f1944b_9dd4   scene_46_init
     000D5DA9  GBVM_END$scene_46_init$0ea2a4e8_   scene_46_init
     000D5DB3  GBVM$scene_46_init$149a40a8_c9b0   scene_46_init
     000D5DBD  GBVM$scene_46_init$autofade$24dd   scene_46_init
     000D5DC8  GBVM$scene_46_init$3bc2cada_8ed4   scene_46_init
     000D5DEB  GBVM$scene_46_init$4aa472ba_f2a2   scene_46_init
     000D5E0E  GBVM$scene_46_init$16c29a8b_d197   scene_46_init
     000D5E1A  GBVM$scene_46_init$302707ca_f480   scene_46_init
     000D5E2D  GBVM$scene_46_init$9cb07c09_6354   scene_46_init
     000D5E39  GBVM$scene_46_init$b10b88a1_7f7a   scene_46_init
     000D5E43  GBVM$scene_46_init$90f55dd5_6fb8   scene_46_init
     000D5E66  GBVM$scene_46_init$3181dabc_5b64   scene_46_init
     000D5E72  GBVM$scene_46_init$9f0aeba9_32cd   scene_46_init
     000D5E84  GBVM$scene_46_init$ec8efb11_63c4   scene_46_init
     000D6017  GBVM$scene_46_init$6ff0da5b_fe53   scene_46_init
     000D61C6  GBVM$scene_46_init$eb77abc0_9805   scene_46_init
     000D61C6  GBVM_END$scene_46_init$9f0aeba9_   scene_46_init
     000D61D2  GBVM$scene_46_init$b00386b6_e0e0   scene_46_init
     000D61DC  GBVM$scene_46_init$31b91c9f_39e5   scene_46_init
     000D61FF  GBVM$scene_46_init$9602c3b9_d0ae   scene_46_init
     000D6287  GBVM$scene_46_init$4c455e39_7bd6   scene_46_init
     000D6299  GBVM$scene_46_init$8eef0480_0276   scene_46_init
     000D6314  GBVM$scene_46_init$50df4659_1ca9   scene_46_init
     000D63AB  GBVM$scene_46_init$c0acf176_dfcf   scene_46_init
     000D63AB  GBVM_END$scene_46_init$4c455e39_   scene_46_init
     000D6450  GBVM$scene_46_init$0ea619ed_9d53   scene_46_init
     000D6596  GBVM$scene_46_init$370f757f_dcf7   scene_46_init
     000D65B9  GBVM$scene_46_init$96165d7d_e0b1   scene_46_init
     000D65C3  GBVM$scene_46_init$fe661bc0_05f7   scene_46_init
     000D65CB  GBVM$scene_46_init$6231105d_fe55   scene_46_init
     000D65CB  GBVM_END$scene_46_init$fe661bc0_   scene_46_init
     000D65EA  GBVM$scene_46_init$eb9c692c_a0d4   scene_46_init
     000D660E  ___func_scene_47_collisions        scene_47_collisions
     000D660E  _scene_47_collisions               scene_47_collisions
     000D6F32  _scene_52_init                     scene_52_init
     000D6F35  GBVM$scene_52_init$autofade$0bdf   scene_52_init
     000D6F40  GBVM$scene_52_init$2e7e813e_479e   scene_52_init
     000D6F63  GBVM$scene_52_init$027b7477_7797   scene_52_init
     000D6FCC  GBVM$scene_52_init$380be75a_7d48   scene_52_init
ASxxxx Linker V03.00/V05.40 + sdld,  page 136.
Hexadecimal  [32-Bits]

Area                                    Addr        Size        Decimal Bytes (Attributes)
--------------------------------        ----        ----        ------- ----- ------------
_CODE_13                            000D4000    00004000 =       16384. bytes (REL,CON)

      Value  Global                              Global Defined In Module
      -----  --------------------------------   ------------------------
     000D6FEF  GBVM$scene_52_init$221ca81e_d7b5   scene_52_init
     000D70D7  GBVM$scene_52_init$51f9cdd0_1cd8   scene_52_init
     000D712E  GBVM$scene_52_init$24e00350_a0de   scene_52_init
     000D7151  GBVM$scene_52_init$d8f551ee_2d38   scene_52_init
     000D7163  GBVM$scene_52_init$54f4a1c1_9982   scene_52_init
     000D7417  GBVM$scene_52_init$37b477c2_3157   scene_52_init
     000D7725  GBVM$scene_52_init$cc09ac5e_c50b   scene_52_init
     000D7725  GBVM_END$scene_52_init$d8f551ee_   scene_52_init
     000D7758  _scene_70_init                     scene_70_init
     000D7759  GBVM$scene_70_init$768e6c88_9ae7   scene_70_init
     000D775E  GBVM$scene_70_init$014f9e83_2e61   scene_70_init
     000D7760  GBVM$scene_70_init$autofade$4d84   scene_70_init
     000D776C  _trigger_61_interact               trigger_61_interact
     000D776F  GBVM$trigger_61_interact$f00d71c   trigger_61_interact
     000D7788  GBVM$trigger_61_interact$88f4b74   trigger_61_interact
     000D77C3  GBVM$trigger_61_interact$eae0880   trigger_61_interact
     000D77CF  GBVM$trigger_61_interact$01f0b36   trigger_61_interact
     000D77D9  GBVM$trigger_61_interact$bd23a18   trigger_61_interact
     000D77FC  GBVM$trigger_61_interact$a33c1f3   trigger_61_interact
     000D780E  GBVM$trigger_61_interact$ebf4382   trigger_61_interact
     000D7BA8  GBVM$trigger_61_interact$3e8ef67   trigger_61_interact
     000D7F7D  GBVM$trigger_61_interact$bfa2947   trigger_61_interact
     000D7F7D  GBVM_END$trigger_61_interact$a33   trigger_61_interact
     000D7FA0  GBVM$trigger_61_interact$1f3323c   trigger_61_interact
     000D7FAA  GBVM$trigger_61_interact$f92b93e   trigger_61_interact
     000D7FCD  GBVM$trigger_61_interact$271884d   trigger_61_interact

ASxxxx Linker V03.00/V05.40 + sdld,  page 137.
Hexadecimal  [32-Bits]

Area                                    Addr        Size        Decimal Bytes (Attributes)
--------------------------------        ----        ----        ------- ----- ------------
_CODE_16                            00104000    00004000 =       16384. bytes (REL,CON)

      Value  Global                              Global Defined In Module
      -----  --------------------------------   ------------------------
     00104000  ___func_bg_cave_ladder_copy__til   bg_cave_ladder_copy__tilemap
     00104000  _bg_cave_ladder_copy__tilemap      bg_cave_ladder_copy__tilemap
     001044B0  ___func_bg_cave_ladder_copy_0_ti   bg_cave_ladder_copy_0_tilema
     001044B0  _bg_cave_ladder_copy_0_tilemap_a   bg_cave_ladder_copy_0_tilema
     00104A41  ___func_bg_dhilly_game_11_tilese   bg_dhilly_game_11_tileset
     00104A41  _bg_dhilly_game_11_tileset         bg_dhilly_game_11_tileset
     00104FD3  ___func_bg_dhillyhubdown_tileset   bg_dhillyhubdown_tileset
     00104FD3  _bg_dhillyhubdown_tileset          bg_dhillyhubdown_tileset
     00105615  ___func_bg_endingscene_0_tileset   bg_endingscene_0_tileset
     00105615  _bg_endingscene_0_tileset          bg_endingscene_0_tileset
     00105C87  ___func_bg_init_copy__tileset      bg_init_copy__tileset
     00105C87  _bg_init_copy__tileset             bg_init_copy__tileset
     00105CA9  ___func_bg_intro_scenary_copy__t   bg_intro_scenary_copy__tilem
     00105CA9  _bg_intro_scenary_copy__tilemap_   bg_intro_scenary_copy__tilem
     00106285  ___func_bg_intro_scenary_copy__t   bg_intro_scenary_copy__tilem
     00106285  _bg_intro_scenary_copy__tilemap    bg_intro_scenary_copy__tilem
     00106861  ___func_bg_pixil_frame_0_24_tile   bg_pixil_frame_0_24_tileset
     00106861  _bg_pixil_frame_0_24_tileset       bg_pixil_frame_0_24_tileset
     00106E13  ___func_bg_title_copy_2_tileset    bg_title_copy_2_tileset
     00106E13  _bg_title_copy_2_tileset           bg_title_copy_2_tileset
     00107445  ___func_scene_17_collisions        scene_17_collisions
     00107445  _scene_17_collisions               scene_17_collisions
     00107A21  ___func_scene_20_sprites           scene_20_sprites
     00107A21  _scene_20_sprites                  scene_20_sprites
     00107A24  ___func_scene_90_collisions        scene_90_collisions
     00107A24  _scene_90_collisions               scene_90_collisions

ASxxxx Linker V03.00/V05.40 + sdld,  page 138.
Hexadecimal  [32-Bits]

Area                                    Addr        Size        Decimal Bytes (Attributes)
--------------------------------        ----        ----        ------- ----- ------------
_CODE_17                            00114000    00003FFF =       16383. bytes (REL,CON)

      Value  Global                              Global Defined In Module
      -----  --------------------------------   ------------------------
     00114000  ___func_bg_cave_ladder_copy_0_ti   bg_cave_ladder_copy_0_tilema
     00114000  _bg_cave_ladder_copy_0_tilemap     bg_cave_ladder_copy_0_tilema
     00114591  ___func_bg_chase_shilly_tilemap_   bg_chase_shilly_tilemap_attr
     00114591  _bg_chase_shilly_tilemap_attr      bg_chase_shilly_tilemap_attr
     00114B1F  ___func_bg_chase_shilly_tilemap    bg_chase_shilly_tilemap
     00114B1F  _bg_chase_shilly_tilemap           bg_chase_shilly_tilemap
     001150AD  ___func_bg_fall_to_shilly_area_c   bg_fall_to_shilly_area_copy_
     001150AD  _bg_fall_to_shilly_area_copy_til   bg_fall_to_shilly_area_copy_
     0011555D  ___func_bg_fall_to_shilly_area_c   bg_fall_to_shilly_area_copy_
     0011555D  _bg_fall_to_shilly_area_copy_til   bg_fall_to_shilly_area_copy_
     00115A0D  ___func_bg_lair_left_3_tileset     bg_lair_left_3_tileset
     00115A0D  _bg_lair_left_3_tileset            bg_lair_left_3_tileset
     00115F7F  ___func_bg_lencityopen_tileset     bg_lencityopen_tileset
     00115F7F  _bg_lencityopen_tileset            bg_lencityopen_tileset
     00116471  ___func_bg_pixil_frame_0_33_tile   bg_pixil_frame_0_33_tilemap
     00116471  _bg_pixil_frame_0_33_tilemap       bg_pixil_frame_0_33_tilemap
     001169B7  _scene_26_init                     scene_26_init
     001169BA  GBVM$scene_26_init$autofade$3cbe   scene_26_init
     001169C5  GBVM$scene_26_init$254f12a9_f041   scene_26_init
     00116A21  GBVM$scene_26_init$ef63553c_124e   scene_26_init
     00116A54  ___func_scene_50_collisions        scene_50_collisions
     00116A54  _scene_50_collisions               scene_50_collisions
     00116F9A  ___func_scene_55_collisions        scene_55_collisions
     00116F9A  _scene_55_collisions               scene_55_collisions
     0011752B  ___func_scene_57_collisions        scene_57_collisions
     0011752B  _scene_57_collisions               scene_57_collisions
     00117A71  ___func_scene_88_collisions        scene_88_collisions
     00117A71  _scene_88_collisions               scene_88_collisions

ASxxxx Linker V03.00/V05.40 + sdld,  page 139.
Hexadecimal  [32-Bits]

Area                                    Addr        Size        Decimal Bytes (Attributes)
--------------------------------        ----        ----        ------- ----- ------------
_CODE_8                             00084000    00004000 =       16384. bytes (REL,CON)

      Value  Global                              Global Defined In Module
      -----  --------------------------------   ------------------------
     00084000  ___func_bg_controls_gb_copy__til   bg_controls_gb_copy__tilemap
     00084000  _bg_controls_gb_copy__tilemap_at   bg_controls_gb_copy__tilemap
     00084168  ___func_bg_options_copy__tileset   bg_options_copy__tileset
     00084168  _bg_options_copy__tileset          bg_options_copy__tileset
     000857EA  ___func_bg_shillycityopen_copy_1   bg_shillycityopen_copy_1_til
     000857EA  _bg_shillycityopen_copy_1_tilema   bg_shillycityopen_copy_1_til
     0008697E  ___func_bg_title_tileset           bg_title_tileset
     0008697E  _bg_title_tileset                  bg_title_tileset

ASxxxx Linker V03.00/V05.40 + sdld,  page 140.
Hexadecimal  [32-Bits]

Area                                    Addr        Size        Decimal Bytes (Attributes)
--------------------------------        ----        ----        ------- ----- ------------
_CODE_2                             00024000    00004000 =       16384. bytes (REL,CON)

      Value  Global                              Global Defined In Module
      -----  --------------------------------   ------------------------
     00024000  ___func_bg_controls_gb_copy__til   bg_controls_gb_copy__tileset
     00024000  _bg_controls_gb_copy__tileset      bg_controls_gb_copy__tileset
     00025682  ___func_bg_lencityopen_tilemap     bg_lencityopen_tilemap
     00025682  _bg_lencityopen_tilemap            bg_lencityopen_tilemap
     00027D92  _scene_14_init                     scene_14_init
     00027D95  GBVM$scene_14_init$9c352026_c96a   scene_14_init
     00027D9F  GBVM$scene_14_init$autofade$bb79   scene_14_init
     00027DAA  GBVM$scene_14_init$a9202b4d_c1e5   scene_14_init
     00027DBC  GBVM$scene_14_init$74f815b4_edc1   scene_14_init
     00027EBD  GBVM$scene_14_init$9fa14a7c_13ed   scene_14_init
     00027FC6  GBVM$scene_14_init$e2e7282e_93b4   scene_14_init
     00027FC6  GBVM_END$scene_14_init$a9202b4d_   scene_14_init
     00027FF9  ___func_scene_18_sprites           scene_18_sprites
     00027FF9  _scene_18_sprites                  scene_18_sprites
     00027FFF  GBVM$script_input_7$be5ab726_cce   script_input_7
     00027FFF  _script_input_7                    script_input_7

ASxxxx Linker V03.00/V05.40 + sdld,  page 141.
Hexadecimal  [32-Bits]

Area                                    Addr        Size        Decimal Bytes (Attributes)
--------------------------------        ----        ----        ------- ----- ------------
_CODE_3                             00034000    00003FFF =       16383. bytes (REL,CON)

      Value  Global                              Global Defined In Module
      -----  --------------------------------   ------------------------
     00034000  ___func_bg_controls_gba_copy__ti   bg_controls_gba_copy__tilese
     00034000  _bg_controls_gba_copy__tileset     bg_controls_gba_copy__tilese
     00035682  ___func_bg_lair_right_tilemap_at   bg_lair_right_tilemap_attr
     00035682  _bg_lair_right_tilemap_attr        bg_lair_right_tilemap_attr
     000358E6  ___func_scene_18_collisions        scene_18_collisions
     000358E6  _scene_18_collisions               scene_18_collisions
     00037FF6  ___func_scene_93_sprites           scene_93_sprites
     00037FF6  _scene_93_sprites                  scene_93_sprites

ASxxxx Linker V03.00/V05.40 + sdld,  page 142.
Hexadecimal  [32-Bits]

Area                                    Addr        Size        Decimal Bytes (Attributes)
--------------------------------        ----        ----        ------- ----- ------------
_CODE_4                             00044000    00003FFF =       16383. bytes (REL,CON)

      Value  Global                              Global Defined In Module
      -----  --------------------------------   ------------------------
     00044000  ___func_bg_controls_gba_copy_0_t   bg_controls_gba_copy_0_tiles
     00044000  _bg_controls_gba_copy_0_tileset    bg_controls_gba_copy_0_tiles
     00045682  ___func_bg_lair_right_tilemap      bg_lair_right_tilemap
     00045682  _bg_lair_right_tilemap             bg_lair_right_tilemap
     000458E6  ___func_scene_34_collisions        scene_34_collisions
     000458E6  _scene_34_collisions               scene_34_collisions
     00047FF6  ___func_scene_94_sprites           scene_94_sprites
     00047FF6  _scene_94_sprites                  scene_94_sprites

ASxxxx Linker V03.00/V05.40 + sdld,  page 143.
Hexadecimal  [32-Bits]

Area                                    Addr        Size        Decimal Bytes (Attributes)
--------------------------------        ----        ----        ------- ----- ------------
_CODE_5                             00054000    00003FFE =       16382. bytes (REL,CON)

      Value  Global                              Global Defined In Module
      -----  --------------------------------   ------------------------
     00054000  ___func_bg_controls_gbc_copy__ti   bg_controls_gbc_copy__tilese
     00054000  _bg_controls_gbc_copy__tileset     bg_controls_gbc_copy__tilese
     00055682  ___func_scene_15_triggers          scene_15_triggers
     00055682  _scene_15_triggers                 scene_15_triggers
     0005568A  ___func_scene_58_collisions        scene_58_collisions
     0005568A  _scene_58_collisions               scene_58_collisions
     00057D9A  ___func_scene_65_collisions        scene_65_collisions
     00057D9A  _scene_65_collisions               scene_65_collisions

ASxxxx Linker V03.00/V05.40 + sdld,  page 144.
Hexadecimal  [32-Bits]

Area                                    Addr        Size        Decimal Bytes (Attributes)
--------------------------------        ----        ----        ------- ----- ------------
_CODE_7                             00074000    00004000 =       16384. bytes (REL,CON)

      Value  Global                              Global Defined In Module
      -----  --------------------------------   ------------------------
     00074000  ___func_bg_controls_mobile_copy_   bg_controls_mobile_copy_0_ti
     00074000  _bg_controls_mobile_copy_0_tiles   bg_controls_mobile_copy_0_ti
     00075682  ___func_bg_placeholder_copy_copy   bg_placeholder_copy_copy_co_
     00075682  _bg_placeholder_copy_copy_co_til   bg_placeholder_copy_copy_co_
     00076046  _SGB_border_chr                    border
     00076046  ___func_SGB_border_chr             border
     00076046  ___func_SGB_border_map             border
     00076046  ___func_SGB_border_pal             border
     00077846  _SGB_border_map                    border
     00077F46  _SGB_border_pal                    border
     00077FC6  GBVM$script_timer_0$3f1f2645_84f   script_timer_0
     00077FC6  _script_timer_0                    script_timer_0
     00077FCE  GBVM$script_timer_0$a2f80124_cdd   script_timer_0
     00077FD6  GBVM$script_timer_0$09017a49_e1d   script_timer_0
     00077FE8  GBVM$script_timer_0$d2966a0b_523   script_timer_0
     00077FED  GBVM$script_timer_0$2c7c07e2_0e6   script_timer_0
     00077FF5  GBVM$script_timer_0$eb1b15b1_4f0   script_timer_0
     00077FFA  GBVM$script_timer_0$1c12bf3f_173   script_timer_0
     00077FFF  GBVM_END$script_timer_0$09017a49   script_timer_0

ASxxxx Linker V03.00/V05.40 + sdld,  page 145.
Hexadecimal  [32-Bits]

Area                                    Addr        Size        Decimal Bytes (Attributes)
--------------------------------        ----        ----        ------- ----- ------------
_CODE_23                            00174000    00003FFF =       16383. bytes (REL,CON)

      Value  Global                              Global Defined In Module
      -----  --------------------------------   ------------------------
     00174000  ___func_bg_dhilly_game_11_tilema   bg_dhilly_game_11_tilemap_at
     00174000  _bg_dhilly_game_11_tilemap_attr    bg_dhilly_game_11_tilemap_at
     00174168  ___func_bg_dhilly_game_11_tilema   bg_dhilly_game_11_tilemap
     00174168  _bg_dhilly_game_11_tilemap         bg_dhilly_game_11_tilemap
     001742D0  ___func_bg_dhilly_game_4_tilemap   bg_dhilly_game_4_tilemap_att
     001742D0  _bg_dhilly_game_4_tilemap_attr     bg_dhilly_game_4_tilemap_att
     00174438  ___func_bg_dhilly_game_4_tilemap   bg_dhilly_game_4_tilemap
     00174438  _bg_dhilly_game_4_tilemap          bg_dhilly_game_4_tilemap
     001745A0  ___func_bg_dhilly_game_5_tilemap   bg_dhilly_game_5_tilemap_att
     001745A0  _bg_dhilly_game_5_tilemap_attr     bg_dhilly_game_5_tilemap_att
     00174708  ___func_bg_dhilly_game_5_tilemap   bg_dhilly_game_5_tilemap
     00174708  _bg_dhilly_game_5_tilemap          bg_dhilly_game_5_tilemap
     00174870  ___func_bg_dhilly_game_8_tilemap   bg_dhilly_game_8_tilemap_att
     00174870  _bg_dhilly_game_8_tilemap_attr     bg_dhilly_game_8_tilemap_att
     001749D8  ___func_bg_dhilly_game_8_tilemap   bg_dhilly_game_8_tilemap
     001749D8  _bg_dhilly_game_8_tilemap          bg_dhilly_game_8_tilemap
     00174B40  ___func_bg_dhilly_game_9_tilemap   bg_dhilly_game_9_tilemap_att
     00174B40  _bg_dhilly_game_9_tilemap_attr     bg_dhilly_game_9_tilemap_att
     00174CA8  ___func_bg_dhilly_game_9_tilemap   bg_dhilly_game_9_tilemap
     00174CA8  _bg_dhilly_game_9_tilemap          bg_dhilly_game_9_tilemap
     00174E10  ___func_bg_dhillyhubdown_tilemap   bg_dhillyhubdown_tilemap_att
     00174E10  _bg_dhillyhubdown_tilemap_attr     bg_dhillyhubdown_tilemap_att
     00174F78  ___func_bg_dhillyhubdown_tilemap   bg_dhillyhubdown_tilemap
     00174F78  _bg_dhillyhubdown_tilemap          bg_dhillyhubdown_tilemap
     001750E0  ___func_bg_elevator_tilemap_attr   bg_elevator_tilemap_attr
     001750E0  _bg_elevator_tilemap_attr          bg_elevator_tilemap_attr
     00175248  ___func_bg_elevator_tilemap        bg_elevator_tilemap
     00175248  _bg_elevator_tilemap               bg_elevator_tilemap
     001753B0  ___func_bg_endingscene_0_tilemap   bg_endingscene_0_tilemap_att
     001753B0  _bg_endingscene_0_tilemap_attr     bg_endingscene_0_tilemap_att
     00175518  ___func_bg_endingscene_0_tilemap   bg_endingscene_0_tilemap
     00175518  _bg_endingscene_0_tilemap          bg_endingscene_0_tilemap
     00175680  ___func_bg_endingscene_tilemap_a   bg_endingscene_tilemap_attr
     00175680  _bg_endingscene_tilemap_attr       bg_endingscene_tilemap_attr
     001757E8  ___func_bg_endingscene_tilemap     bg_endingscene_tilemap
     001757E8  _bg_endingscene_tilemap            bg_endingscene_tilemap
     00175950  ___func_bg_endingscene2_tilemap_   bg_endingscene2_tilemap_attr
     00175950  _bg_endingscene2_tilemap_attr      bg_endingscene2_tilemap_attr
     00175AB8  ___func_bg_endingscene2_tilemap    bg_endingscene2_tilemap
     00175AB8  _bg_endingscene2_tilemap           bg_endingscene2_tilemap
     00175C20  ___func_bg_endingscene3_tilemap_   bg_endingscene3_tilemap_attr
     00175C20  _bg_endingscene3_tilemap_attr      bg_endingscene3_tilemap_attr
     00175D88  ___func_bg_endingscene3_tilemap    bg_endingscene3_tilemap
     00175D88  _bg_endingscene3_tilemap           bg_endingscene3_tilemap
     00175EF0  ___func_bg_iceos_desktop_copy__t   bg_iceos_desktop_copy__tilem
     00175EF0  _bg_iceos_desktop_copy__tilemap_   bg_iceos_desktop_copy__tilem
     00176058  ___func_bg_iceos_desktop_copy__t   bg_iceos_desktop_copy__tilem
     00176058  _bg_iceos_desktop_copy__tilemap    bg_iceos_desktop_copy__tilem
     001761C0  ___func_bg_iceos_login_2_copy__t   bg_iceos_login_2_copy__tilem
     001761C0  _bg_iceos_login_2_copy__tilemap_   bg_iceos_login_2_copy__tilem
ASxxxx Linker V03.00/V05.40 + sdld,  page 146.
Hexadecimal  [32-Bits]

Area                                    Addr        Size        Decimal Bytes (Attributes)
--------------------------------        ----        ----        ------- ----- ------------
_CODE_23                            00174000    00003FFF =       16383. bytes (REL,CON)

      Value  Global                              Global Defined In Module
      -----  --------------------------------   ------------------------
     00176328  ___func_bg_iceos_login_2_copy__t   bg_iceos_login_2_copy__tilem
     00176328  _bg_iceos_login_2_copy__tilemap    bg_iceos_login_2_copy__tilem
     00176490  ___func_bg_iceos_login_copy__til   bg_iceos_login_copy__tilemap
     00176490  _bg_iceos_login_copy__tilemap_at   bg_iceos_login_copy__tilemap
     001765F8  ___func_bg_iceos_login_copy__til   bg_iceos_login_copy__tilemap
     001765F8  _bg_iceos_login_copy__tilemap      bg_iceos_login_copy__tilemap
     00176760  ___func_bg_iceos_platformer2_cop   bg_iceos_platformer2_copy__t
     00176760  _bg_iceos_platformer2_copy__tile   bg_iceos_platformer2_copy__t
     001768C8  ___func_bg_iceos_platformer2_cop   bg_iceos_platformer2_copy__t
     001768C8  _bg_iceos_platformer2_copy__tile   bg_iceos_platformer2_copy__t
     00176A30  ___func_bg_iceos_platformer3_cop   bg_iceos_platformer3_copy__t
     00176A30  _bg_iceos_platformer3_copy__tile   bg_iceos_platformer3_copy__t
     00176B98  ___func_bg_iceos_platformer3_cop   bg_iceos_platformer3_copy__t
     00176B98  _bg_iceos_platformer3_copy__tile   bg_iceos_platformer3_copy__t
     00176D00  ___func_bg_iceos_platformer4_til   bg_iceos_platformer4_tilemap
     00176D00  _bg_iceos_platformer4_tilemap_at   bg_iceos_platformer4_tilemap
     00176E68  ___func_bg_iceos_platformer4_til   bg_iceos_platformer4_tilemap
     00176E68  _bg_iceos_platformer4_tilemap      bg_iceos_platformer4_tilemap
     00176FD0  ___func_bg_init_copy_1_tilemap_a   bg_init_copy_1_tilemap_attr
     00176FD0  _bg_init_copy_1_tilemap_attr       bg_init_copy_1_tilemap_attr
     00177138  ___func_bg_init_copy_1_tilemap     bg_init_copy_1_tilemap
     00177138  _bg_init_copy_1_tilemap            bg_init_copy_1_tilemap
     001772A0  ___func_bg_intro_weather_copy__t   bg_intro_weather_copy__tilem
     001772A0  _bg_intro_weather_copy__tilemap_   bg_intro_weather_copy__tilem
     00177408  ___func_bg_intro_weather_copy__t   bg_intro_weather_copy__tilem
     00177408  _bg_intro_weather_copy__tilemap    bg_intro_weather_copy__tilem
     00177570  ___func_bg_lair_hub_tilemap_attr   bg_lair_hub_tilemap_attr
     00177570  _bg_lair_hub_tilemap_attr          bg_lair_hub_tilemap_attr
     001776D8  ___func_bg_lair_hub_tilemap        bg_lair_hub_tilemap
     001776D8  _bg_lair_hub_tilemap               bg_lair_hub_tilemap
     00177840  ___func_bg_lair_left_2_copy__til   bg_lair_left_2_copy__tilemap
     00177840  _bg_lair_left_2_copy__tilemap_at   bg_lair_left_2_copy__tilemap
     001779A8  ___func_bg_lair_left_2_copy__til   bg_lair_left_2_copy__tilemap
     001779A8  _bg_lair_left_2_copy__tilemap      bg_lair_left_2_copy__tilemap
     00177B10  ___func_bg_lair_left_2_tilemap_a   bg_lair_left_2_tilemap_attr
     00177B10  _bg_lair_left_2_tilemap_attr       bg_lair_left_2_tilemap_attr
     00177C78  ___func_bg_lair_left_2_tilemap     bg_lair_left_2_tilemap
     00177C78  _bg_lair_left_2_tilemap            bg_lair_left_2_tilemap
     00177DE0  ___func_bg_lair_left_3_tilemap_a   bg_lair_left_3_tilemap_attr
     00177DE0  _bg_lair_left_3_tilemap_attr       bg_lair_left_3_tilemap_attr
     00177F48  _scene_93_p_hit1                   scene_93_p_hit1
     00177F5B  GBVM$scene_93_p_hit1$b91b26b7_69   scene_93_p_hit1
     00177F66  GBVM$scene_93_p_hit1$dc718dc0_05   scene_93_p_hit1
     00177F6F  GBVM$scene_93_p_hit1$475d0adc_2e   scene_93_p_hit1
     00177FA4  GBVM$scene_93_p_hit1$9282fe03_17   scene_93_p_hit1
     00177FCB  GBVM$scene_93_p_hit1$eef473a3_45   scene_93_p_hit1
     00177FFD  GBVM_END$scene_93_p_hit1$dc718dc   scene_93_p_hit1

ASxxxx Linker V03.00/V05.40 + sdld,  page 147.
Hexadecimal  [32-Bits]

Area                                    Addr        Size        Decimal Bytes (Attributes)
--------------------------------        ----        ----        ------- ----- ------------
_CODE_24                            00184000    00003FFF =       16383. bytes (REL,CON)

      Value  Global                              Global Defined In Module
      -----  --------------------------------   ------------------------
     00184000  ___func_bg_lair_left_3_tilemap     bg_lair_left_3_tilemap
     00184000  _bg_lair_left_3_tilemap            bg_lair_left_3_tilemap
     00184168  ___func_bg_lair_right_2_copy__ti   bg_lair_right_2_copy__tilema
     00184168  _bg_lair_right_2_copy__tilemap_a   bg_lair_right_2_copy__tilema
     001842D0  ___func_bg_lair_right_2_copy__ti   bg_lair_right_2_copy__tilema
     001842D0  _bg_lair_right_2_copy__tilemap     bg_lair_right_2_copy__tilema
     00184438  ___func_bg_lair_right_2_tilemap_   bg_lair_right_2_tilemap_attr
     00184438  _bg_lair_right_2_tilemap_attr      bg_lair_right_2_tilemap_attr
     001845A0  ___func_bg_lair_right_2_tilemap    bg_lair_right_2_tilemap
     001845A0  _bg_lair_right_2_tilemap           bg_lair_right_2_tilemap
     00184708  ___func_bg_lair_right_3_copy__ti   bg_lair_right_3_copy__tilema
     00184708  _bg_lair_right_3_copy__tilemap_a   bg_lair_right_3_copy__tilema
     00184870  ___func_bg_lair_right_3_copy__ti   bg_lair_right_3_copy__tilema
     00184870  _bg_lair_right_3_copy__tilemap     bg_lair_right_3_copy__tilema
     001849D8  ___func_bg_lair_right_3_tilemap_   bg_lair_right_3_tilemap_attr
     001849D8  _bg_lair_right_3_tilemap_attr      bg_lair_right_3_tilemap_attr
     00184B40  ___func_bg_lair_right_3_tilemap    bg_lair_right_3_tilemap
     00184B40  _bg_lair_right_3_tilemap           bg_lair_right_3_tilemap
     00184CA8  ___func_bg_lair_right_4_copy__ti   bg_lair_right_4_copy__tilema
     00184CA8  _bg_lair_right_4_copy__tilemap_a   bg_lair_right_4_copy__tilema
     00184E10  ___func_bg_lair_right_4_copy__ti   bg_lair_right_4_copy__tilema
     00184E10  _bg_lair_right_4_copy__tilemap     bg_lair_right_4_copy__tilema
     00184F78  ___func_bg_lair_right_5_tilemap_   bg_lair_right_5_tilemap_attr
     00184F78  _bg_lair_right_5_tilemap_attr      bg_lair_right_5_tilemap_attr
     001850E0  ___func_bg_lair_right_5_tilemap    bg_lair_right_5_tilemap
     001850E0  _bg_lair_right_5_tilemap           bg_lair_right_5_tilemap
     00185248  ___func_bg_lencity_dhillybuildin   bg_lencity_dhillybuilding_c_
     00185248  _bg_lencity_dhillybuilding_c_til   bg_lencity_dhillybuilding_c_
     001853B0  ___func_bg_lencity_dhillybuildin   bg_lencity_dhillybuilding_c_
     001853B0  _bg_lencity_dhillybuilding_c_til   bg_lencity_dhillybuilding_c_
     00185518  ___func_bg_lencity_dhillybuildin   bg_lencity_dhillybuilding_f_
     00185518  _bg_lencity_dhillybuilding_f_til   bg_lencity_dhillybuilding_f_
     00185680  ___func_bg_lencity_dhillybuildin   bg_lencity_dhillybuilding_f_
     00185680  _bg_lencity_dhillybuilding_f_til   bg_lencity_dhillybuilding_f_
     001857E8  ___func_bg_lencity_trainstation_   bg_lencity_trainstation_cop_
     001857E8  _bg_lencity_trainstation_cop_til   bg_lencity_trainstation_cop_
     00185950  ___func_bg_lencity_trainstation_   bg_lencity_trainstation_cop_
     00185950  _bg_lencity_trainstation_cop_til   bg_lencity_trainstation_cop_
     00185AB8  ___func_bg_options_copy__tilemap   bg_options_copy__tilemap_att
     00185AB8  _bg_options_copy__tilemap_attr     bg_options_copy__tilemap_att
     00185C20  ___func_bg_options_copy__tilemap   bg_options_copy__tilemap
     00185C20  _bg_options_copy__tilemap          bg_options_copy__tilemap
     00185D88  ___func_bg_pixil_frame_0_23_tile   bg_pixil_frame_0_23_tilemap_
     00185D88  _bg_pixil_frame_0_23_tilemap_att   bg_pixil_frame_0_23_tilemap_
     00185EF0  ___func_bg_pixil_frame_0_23_tile   bg_pixil_frame_0_23_tilemap
     00185EF0  _bg_pixil_frame_0_23_tilemap       bg_pixil_frame_0_23_tilemap
     00186058  ___func_bg_pixil_frame_0_copy_co   bg_pixil_frame_0_copy_copy__
     00186058  _bg_pixil_frame_0_copy_copy__til   bg_pixil_frame_0_copy_copy__
     001861C0  ___func_bg_pixil_frame_0_copy_co   bg_pixil_frame_0_copy_copy__
     001861C0  _bg_pixil_frame_0_copy_copy__til   bg_pixil_frame_0_copy_copy__
ASxxxx Linker V03.00/V05.40 + sdld,  page 148.
Hexadecimal  [32-Bits]

Area                                    Addr        Size        Decimal Bytes (Attributes)
--------------------------------        ----        ----        ------- ----- ------------
_CODE_24                            00184000    00003FFF =       16383. bytes (REL,CON)

      Value  Global                              Global Defined In Module
      -----  --------------------------------   ------------------------
     00186328  ___func_bg_placeholder_copy_copy   bg_placeholder_copy_copy_co_
     00186328  _bg_placeholder_copy_copy_co_0_t   bg_placeholder_copy_copy_co_
     00186490  ___func_bg_placeholder_copy_copy   bg_placeholder_copy_copy_co_
     00186490  _bg_placeholder_copy_copy_co_0_t   bg_placeholder_copy_copy_co_
     001865F8  ___func_bg_samsam_copy_tilemap_a   bg_samsam_copy_tilemap_attr
     001865F8  _bg_samsam_copy_tilemap_attr       bg_samsam_copy_tilemap_attr
     00186760  ___func_bg_samsam_copy_tilemap     bg_samsam_copy_tilemap
     00186760  _bg_samsam_copy_tilemap            bg_samsam_copy_tilemap
     001868C8  ___func_bg_shillycity_sara_house   bg_shillycity_sara_house_co_
     001868C8  _bg_shillycity_sara_house_co_til   bg_shillycity_sara_house_co_
     00186A30  ___func_bg_shillycity_sara_house   bg_shillycity_sara_house_co_
     00186A30  _bg_shillycity_sara_house_co_til   bg_shillycity_sara_house_co_
     00186B98  ___func_bg_shillycityopen_copy__   bg_shillycityopen_copy__tile
     00186B98  _bg_shillycityopen_copy__tilemap   bg_shillycityopen_copy__tile
     00186D00  ___func_bg_shillycityopen_copy__   bg_shillycityopen_copy__tile
     00186D00  _bg_shillycityopen_copy__tilemap   bg_shillycityopen_copy__tile
     00186E68  ___func_bg_title_copy__tilemap_a   bg_title_copy__tilemap_attr
     00186E68  _bg_title_copy__tilemap_attr       bg_title_copy__tilemap_attr
     00186FD0  ___func_bg_title_copy__tilemap     bg_title_copy__tilemap
     00186FD0  _bg_title_copy__tilemap            bg_title_copy__tilemap
     00187138  ___func_bg_title_copy_0_tilemap_   bg_title_copy_0_tilemap_attr
     00187138  _bg_title_copy_0_tilemap_attr      bg_title_copy_0_tilemap_attr
     001872A0  ___func_bg_title_copy_0_tilemap    bg_title_copy_0_tilemap
     001872A0  _bg_title_copy_0_tilemap           bg_title_copy_0_tilemap
     00187408  ___func_bg_title_copy_1_tilemap_   bg_title_copy_1_tilemap_attr
     00187408  _bg_title_copy_1_tilemap_attr      bg_title_copy_1_tilemap_attr
     00187570  ___func_bg_title_copy_1_tilemap    bg_title_copy_1_tilemap
     00187570  _bg_title_copy_1_tilemap           bg_title_copy_1_tilemap
     001876D8  ___func_bg_title_copy_2_tilemap_   bg_title_copy_2_tilemap_attr
     001876D8  _bg_title_copy_2_tilemap_attr      bg_title_copy_2_tilemap_attr
     00187840  ___func_bg_title_copy_2_tilemap    bg_title_copy_2_tilemap
     00187840  _bg_title_copy_2_tilemap           bg_title_copy_2_tilemap
     001879A8  ___func_bg_title_tilemap_attr      bg_title_tilemap_attr
     001879A8  _bg_title_tilemap_attr             bg_title_tilemap_attr
     00187B10  ___func_bg_title_tilemap           bg_title_tilemap
     00187B10  _bg_title_tilemap                  bg_title_tilemap
     00187C78  ___func_bg_wakeupsquare_1_tilema   bg_wakeupsquare_1_tilemap_at
     00187C78  _bg_wakeupsquare_1_tilemap_attr    bg_wakeupsquare_1_tilemap_at
     00187DE0  ___func_bg_wakeupsquare_1_tilema   bg_wakeupsquare_1_tilemap
     00187DE0  _bg_wakeupsquare_1_tilemap         bg_wakeupsquare_1_tilemap
     00187F48  _scene_94_p_hit1                   scene_94_p_hit1
     00187F5B  GBVM$scene_94_p_hit1$e11165bf_a9   scene_94_p_hit1
     00187F66  GBVM$scene_94_p_hit1$d221c700_f5   scene_94_p_hit1
     00187F6F  GBVM$scene_94_p_hit1$175c4453_c8   scene_94_p_hit1
     00187FA4  GBVM$scene_94_p_hit1$4b947e5b_25   scene_94_p_hit1
     00187FCB  GBVM$scene_94_p_hit1$dd1dab78_c3   scene_94_p_hit1
     00187FFD  GBVM_END$scene_94_p_hit1$d221c70   scene_94_p_hit1

ASxxxx Linker V03.00/V05.40 + sdld,  page 149.
Hexadecimal  [32-Bits]

Area                                    Addr        Size        Decimal Bytes (Attributes)
--------------------------------        ----        ----        ------- ----- ------------
_HEADER_LCD0                        00000000    00000003 =           3. bytes (ABS,CON)

      Value  Global                              Global Defined In Module
      -----  --------------------------------   ------------------------
ASxxxx Linker V03.00/V05.40 + sdld,  page 150.

Files Linked                              [ module(s) ]

/tmp/_gbstools/gbdk/lib/gb/crt0.o         [ Runtime ]
/tmp/_gbsbuild/obj/absolute.rel           [ absolute ]
/tmp/_gbsbuild/obj/actor.rel              [ actor ]
/tmp/_gbsbuild/obj/bankdata.rel           [ bankdata ]
/tmp/_gbsbuild/obj/bootstrap.rel          [  ]
/tmp/_gbsbuild/obj/camera.rel             [ camera ]
/tmp/_gbsbuild/obj/core.rel               [ core ]
/tmp/_gbsbuild/obj/crash_handler.rel      [  ]
/tmp/_gbsbuild/obj/data_manager.rel       [ data_manager ]
/tmp/_gbsbuild/obj/events.rel             [ events ]
/tmp/_gbsbuild/obj/fade_manager.rel       [ fade_manager ]
/tmp/_gbsbuild/obj/flasher_s.rel          [  ]
/tmp/_gbsbuild/obj/flasher.rel            [ flasher ]
/tmp/_gbsbuild/obj/game_time.rel          [ game_time ]
/tmp/_gbsbuild/obj/gbprinter.rel          [ gbprinter ]
/tmp/_gbsbuild/obj/input.rel              [ input ]
/tmp/_gbsbuild/obj/interrupt_sio.rel      [  ]
/tmp/_gbsbuild/obj/interrupt_timer.rel    [  ]
/tmp/_gbsbuild/obj/interrupts.rel         [ interrupts ]
/tmp/_gbsbuild/obj/load_save.rel          [ load_save ]
/tmp/_gbsbuild/obj/math_atan2.rel         [ math_atan2 ]
/tmp/_gbsbuild/obj/math.rel               [ math ]
/tmp/_gbsbuild/obj/music_manager.rel      [ music_manager ]
/tmp/_gbsbuild/obj/palette.rel            [ palette ]
/tmp/_gbsbuild/obj/parallax.rel           [ parallax ]
/tmp/_gbsbuild/obj/projectiles.rel        [ projectiles ]
/tmp/_gbsbuild/obj/scroll_a.rel           [  ]
/tmp/_gbsbuild/obj/scroll.rel             [ scroll ]
/tmp/_gbsbuild/obj/set_tile_submap.rel    [  ]
/tmp/_gbsbuild/obj/sfx_player.rel         [ sfx_player ]
/tmp/_gbsbuild/obj/sgb_border.rel         [ sgb_border ]
/tmp/_gbsbuild/obj/sio.rel                [ sio ]
/tmp/_gbsbuild/obj/states_caller.rel      [  ]
/tmp/_gbsbuild/obj/system.rel             [ system ]
/tmp/_gbsbuild/obj/trigger.rel            [ trigger ]
/tmp/_gbsbuild/obj/ui_a.rel               [  ]
/tmp/_gbsbuild/obj/ui.rel                 [ ui ]
/tmp/_gbsbuild/obj/vm_actor.rel           [ vm_actor ]
/tmp/_gbsbuild/obj/vm_camera.rel          [ vm_camera ]
/tmp/_gbsbuild/obj/vm_gameboy.rel         [ vm_gameboy ]
/tmp/_gbsbuild/obj/vm_gbprinter.rel       [ vm_gbprinter ]
/tmp/_gbsbuild/obj/vm_instructions.rel    [ vm_instructions ]
/tmp/_gbsbuild/obj/vm_load_save.rel       [ vm_load_save ]
/tmp/_gbsbuild/obj/vm_math.rel            [ vm_math ]
/tmp/_gbsbuild/obj/vm_music.rel           [ vm_music ]
/tmp/_gbsbuild/obj/vm_palette.rel         [ vm_palette ]
/tmp/_gbsbuild/obj/vm_projectiles.rel     [ vm_projectiles ]
/tmp/_gbsbuild/obj/vm_rtc.rel             [ vm_rtc ]
/tmp/_gbsbuild/obj/vm_scene.rel           [ vm_scene ]
/tmp/_gbsbuild/obj/vm_sgb.rel             [ vm_sgb ]
/tmp/_gbsbuild/obj/vm_sio.rel             [ vm_sio ]
/tmp/_gbsbuild/obj/vm_ui_a.rel            [ vm_ui_a ]
/tmp/_gbsbuild/obj/vm_ui.rel              [ vm_ui ]
/tmp/_gbsbuild/obj/vm.rel                 [ vm ]
/tmp/_gbsbuild/obj/actor_11_interact.rel  [ actor_11_interact ]
/tmp/_gbsbuild/obj/actor_14_interact.rel  [ actor_14_interact ]
/tmp/_gbsbuild/obj/actor_17_interact.rel  [ actor_17_interact ]
/tmp/_gbsbuild/obj/actor_18_interact.rel  [ actor_18_interact ]
/tmp/_gbsbuild/obj/actor_19_interact.rel  [ actor_19_interact ]
/tmp/_gbsbuild/obj/actor_21_interact.rel  [ actor_21_interact ]
/tmp/_gbsbuild/obj/actor_25_interact.rel  [ actor_25_interact ]
/tmp/_gbsbuild/obj/actor_31_interact.rel  [ actor_31_interact ]
/tmp/_gbsbuild/obj/actor_32_interact.rel  [ actor_32_interact ]
/tmp/_gbsbuild/obj/actor_33_interact.rel  [ actor_33_interact ]
/tmp/_gbsbuild/obj/actor_34_interact.rel  [ actor_34_interact ]
/tmp/_gbsbuild/obj/actor_36_interact.rel  [ actor_36_interact ]
/tmp/_gbsbuild/obj/actor_37_interact.rel  [ actor_37_interact ]
/tmp/_gbsbuild/obj/actor_38_interact.rel  [ actor_38_interact ]
/tmp/_gbsbuild/obj/actor_39_interact.rel  [ actor_39_interact ]
/tmp/_gbsbuild/obj/actor_41_interact.rel  [ actor_41_interact ]
/tmp/_gbsbuild/obj/actor_42_interact.rel  [ actor_42_interact ]
/tmp/_gbsbuild/obj/actor_46_interact.rel  [ actor_46_interact ]
/tmp/_gbsbuild/obj/actor_47_interact.rel  [ actor_47_interact ]
/tmp/_gbsbuild/obj/actor_6_interact.rel   [ actor_6_interact ]
/tmp/_gbsbuild/obj/actor_60_interact.rel  [ actor_60_interact ]
/tmp/_gbsbuild/obj/actor_61_interact.rel  [ actor_61_interact ]
/tmp/_gbsbuild/obj/avatar_font_0.rel      [ avatar_font_0 ]
/tmp/_gbsbuild/obj/bg_cave_ladder_copy__tilemap_attr.rel
                                          [ bg_cave_ladder_copy__tilemap_att ]
/tmp/_gbsbuild/obj/bg_cave_ladder_copy__tilemap.rel
                                          [ bg_cave_ladder_copy__tilemap ]
/tmp/_gbsbuild/obj/bg_cave_ladder_copy__tileset.rel
                                          [ bg_cave_ladder_copy__tileset ]
/tmp/_gbsbuild/obj/bg_cave_ladder_copy_.rel
                                          [ bg_cave_ladder_copy_ ]
/tmp/_gbsbuild/obj/bg_cave_ladder_copy_0_tilemap_attr.rel
                                          [ bg_cave_ladder_copy_0_tilemap_at ]
/tmp/_gbsbuild/obj/bg_cave_ladder_copy_0_tilemap.rel
                                          [ bg_cave_ladder_copy_0_tilemap ]
/tmp/_gbsbuild/obj/bg_cave_ladder_copy_0_tileset.rel
                                          [ bg_cave_ladder_copy_0_tileset ]
/tmp/_gbsbuild/obj/bg_cave_ladder_copy_0.rel
                                          [ bg_cave_ladder_copy_0 ]
/tmp/_gbsbuild/obj/bg_chase_shilly_tilemap_attr.rel
                                          [ bg_chase_shilly_tilemap_attr ]
/tmp/_gbsbuild/obj/bg_chase_shilly_tilemap.rel
                                          [ bg_chase_shilly_tilemap ]
/tmp/_gbsbuild/obj/bg_chase_shilly_tileset.rel
                                          [ bg_chase_shilly_tileset ]
/tmp/_gbsbuild/obj/bg_chase_shilly.rel    [ bg_chase_shilly ]
/tmp/_gbsbuild/obj/bg_cinema_tilemap_attr.rel
                                          [ bg_cinema_tilemap_attr ]
/tmp/_gbsbuild/obj/bg_cinema_tilemap.rel  [ bg_cinema_tilemap ]
/tmp/_gbsbuild/obj/bg_cinema_tileset.rel  [ bg_cinema_tileset ]
/tmp/_gbsbuild/obj/bg_cinema.rel          [ bg_cinema ]
/tmp/_gbsbuild/obj/bg_controls_gb_copy__tilemap_attr.rel
                                          [ bg_controls_gb_copy__tilemap_att ]
/tmp/_gbsbuild/obj/bg_controls_gb_copy__tilemap.rel
                                          [ bg_controls_gb_copy__tilemap ]
/tmp/_gbsbuild/obj/bg_controls_gb_copy__tileset.rel
                                          [ bg_controls_gb_copy__tileset ]
/tmp/_gbsbuild/obj/bg_controls_gb_copy_.rel
                                          [ bg_controls_gb_copy_ ]
/tmp/_gbsbuild/obj/bg_controls_gb_copy_0_tilemap_attr.rel
                                          [ bg_controls_gb_copy_0_tilemap_at ]
/tmp/_gbsbuild/obj/bg_controls_gb_copy_0_tilemap.rel
                                          [ bg_controls_gb_copy_0_tilemap ]
/tmp/_gbsbuild/obj/bg_controls_gb_copy_0_tileset.rel
                                          [ bg_controls_gb_copy_0_tileset ]
/tmp/_gbsbuild/obj/bg_controls_gb_copy_0.rel
                                          [ bg_controls_gb_copy_0 ]
/tmp/_gbsbuild/obj/bg_controls_gba_copy__tilemap_attr.rel
                                          [ bg_controls_gba_copy__tilemap_at ]
/tmp/_gbsbuild/obj/bg_controls_gba_copy__tilemap.rel
                                          [ bg_controls_gba_copy__tilemap ]
/tmp/_gbsbuild/obj/bg_controls_gba_copy__tileset.rel
                                          [ bg_controls_gba_copy__tileset ]
/tmp/_gbsbuild/obj/bg_controls_gba_copy_.rel
                                          [ bg_controls_gba_copy_ ]
/tmp/_gbsbuild/obj/bg_controls_gba_copy_0_tilemap_attr.rel
                                          [ bg_controls_gba_copy_0_tilemap_a ]
/tmp/_gbsbuild/obj/bg_controls_gba_copy_0_tilemap.rel
                                          [ bg_controls_gba_copy_0_tilemap ]
/tmp/_gbsbuild/obj/bg_controls_gba_copy_0_tileset.rel
                                          [ bg_controls_gba_copy_0_tileset ]
/tmp/_gbsbuild/obj/bg_controls_gba_copy_0.rel
                                          [ bg_controls_gba_copy_0 ]
/tmp/_gbsbuild/obj/bg_controls_gbc_copy__tilemap_attr.rel
                                          [ bg_controls_gbc_copy__tilemap_at ]
/tmp/_gbsbuild/obj/bg_controls_gbc_copy__tilemap.rel
                                          [ bg_controls_gbc_copy__tilemap ]
/tmp/_gbsbuild/obj/bg_controls_gbc_copy__tileset.rel
                                          [ bg_controls_gbc_copy__tileset ]
/tmp/_gbsbuild/obj/bg_controls_gbc_copy_.rel
                                          [ bg_controls_gbc_copy_ ]
/tmp/_gbsbuild/obj/bg_controls_mobile_copy__tilemap_attr.rel
                                          [ bg_controls_mobile_copy__tilemap ]
/tmp/_gbsbuild/obj/bg_controls_mobile_copy__tilemap.rel
                                          [ bg_controls_mobile_copy__tilemap ]
/tmp/_gbsbuild/obj/bg_controls_mobile_copy__tileset.rel
                                          [ bg_controls_mobile_copy__tileset ]
/tmp/_gbsbuild/obj/bg_controls_mobile_copy_.rel
                                          [ bg_controls_mobile_copy_ ]
/tmp/_gbsbuild/obj/bg_controls_mobile_copy_0_tilemap_attr.rel
                                          [ bg_controls_mobile_copy_0_tilema ]
/tmp/_gbsbuild/obj/bg_controls_mobile_copy_0_tilemap.rel
                                          [ bg_controls_mobile_copy_0_tilema ]
/tmp/_gbsbuild/obj/bg_controls_mobile_copy_0_tileset.rel
                                          [ bg_controls_mobile_copy_0_tilese ]
/tmp/_gbsbuild/obj/bg_controls_mobile_copy_0.rel
                                          [ bg_controls_mobile_copy_0 ]
/tmp/_gbsbuild/obj/bg_dhilly_bridge_tilemap_attr.rel
                                          [ bg_dhilly_bridge_tilemap_attr ]
/tmp/_gbsbuild/obj/bg_dhilly_bridge_tilemap.rel
                                          [ bg_dhilly_bridge_tilemap ]
/tmp/_gbsbuild/obj/bg_dhilly_bridge_tileset.rel
                                          [ bg_dhilly_bridge_tileset ]
/tmp/_gbsbuild/obj/bg_dhilly_bridge.rel   [ bg_dhilly_bridge ]
/tmp/_gbsbuild/obj/bg_dhilly_game_1_tilemap_attr.rel
                                          [ bg_dhilly_game_1_tilemap_attr ]
/tmp/_gbsbuild/obj/bg_dhilly_game_1_tilemap.rel
                                          [ bg_dhilly_game_1_tilemap ]
/tmp/_gbsbuild/obj/bg_dhilly_game_1_tileset.rel
                                          [ bg_dhilly_game_1_tileset ]
/tmp/_gbsbuild/obj/bg_dhilly_game_1.rel   [ bg_dhilly_game_1 ]
/tmp/_gbsbuild/obj/bg_dhilly_game_10_tilemap_attr.rel
                                          [ bg_dhilly_game_10_tilemap_attr ]
/tmp/_gbsbuild/obj/bg_dhilly_game_10_tilemap.rel
                                          [ bg_dhilly_game_10_tilemap ]
/tmp/_gbsbuild/obj/bg_dhilly_game_10_tileset.rel
                                          [ bg_dhilly_game_10_tileset ]
/tmp/_gbsbuild/obj/bg_dhilly_game_10.rel  [ bg_dhilly_game_10 ]
/tmp/_gbsbuild/obj/bg_dhilly_game_11_tilemap_attr.rel
                                          [ bg_dhilly_game_11_tilemap_attr ]
/tmp/_gbsbuild/obj/bg_dhilly_game_11_tilemap.rel
                                          [ bg_dhilly_game_11_tilemap ]
/tmp/_gbsbuild/obj/bg_dhilly_game_11_tileset.rel
                                          [ bg_dhilly_game_11_tileset ]
/tmp/_gbsbuild/obj/bg_dhilly_game_11.rel  [ bg_dhilly_game_11 ]
/tmp/_gbsbuild/obj/bg_dhilly_game_4_tilemap_attr.rel
                                          [ bg_dhilly_game_4_tilemap_attr ]
/tmp/_gbsbuild/obj/bg_dhilly_game_4_tilemap.rel
                                          [ bg_dhilly_game_4_tilemap ]
/tmp/_gbsbuild/obj/bg_dhilly_game_4_tileset.rel
                                          [ bg_dhilly_game_4_tileset ]
/tmp/_gbsbuild/obj/bg_dhilly_game_4.rel   [ bg_dhilly_game_4 ]
/tmp/_gbsbuild/obj/bg_dhilly_game_5_tilemap_attr.rel
                                          [ bg_dhilly_game_5_tilemap_attr ]
/tmp/_gbsbuild/obj/bg_dhilly_game_5_tilemap.rel
                                          [ bg_dhilly_game_5_tilemap ]
/tmp/_gbsbuild/obj/bg_dhilly_game_5_tileset.rel
                                          [ bg_dhilly_game_5_tileset ]
/tmp/_gbsbuild/obj/bg_dhilly_game_5.rel   [ bg_dhilly_game_5 ]
/tmp/_gbsbuild/obj/bg_dhilly_game_8_tilemap_attr.rel
                                          [ bg_dhilly_game_8_tilemap_attr ]
/tmp/_gbsbuild/obj/bg_dhilly_game_8_tilemap.rel
                                          [ bg_dhilly_game_8_tilemap ]
/tmp/_gbsbuild/obj/bg_dhilly_game_8_tileset.rel
                                          [ bg_dhilly_game_8_tileset ]
/tmp/_gbsbuild/obj/bg_dhilly_game_8.rel   [ bg_dhilly_game_8 ]
/tmp/_gbsbuild/obj/bg_dhilly_game_9_tilemap_attr.rel
                                          [ bg_dhilly_game_9_tilemap_attr ]
/tmp/_gbsbuild/obj/bg_dhilly_game_9_tilemap.rel
                                          [ bg_dhilly_game_9_tilemap ]
/tmp/_gbsbuild/obj/bg_dhilly_game_9_tileset.rel
                                          [ bg_dhilly_game_9_tileset ]
/tmp/_gbsbuild/obj/bg_dhilly_game_9.rel   [ bg_dhilly_game_9 ]
/tmp/_gbsbuild/obj/bg_dhillyhubdown_tilemap_attr.rel
                                          [ bg_dhillyhubdown_tilemap_attr ]
/tmp/_gbsbuild/obj/bg_dhillyhubdown_tilemap.rel
                                          [ bg_dhillyhubdown_tilemap ]
/tmp/_gbsbuild/obj/bg_dhillyhubdown_tileset.rel
                                          [ bg_dhillyhubdown_tileset ]
/tmp/_gbsbuild/obj/bg_dhillyhubdown.rel   [ bg_dhillyhubdown ]
/tmp/_gbsbuild/obj/bg_elevator_tilemap_attr.rel
                                          [ bg_elevator_tilemap_attr ]
/tmp/_gbsbuild/obj/bg_elevator_tilemap.rel
                                          [ bg_elevator_tilemap ]
/tmp/_gbsbuild/obj/bg_elevator_tileset.rel
                                          [ bg_elevator_tileset ]
/tmp/_gbsbuild/obj/bg_elevator.rel        [ bg_elevator ]
/tmp/_gbsbuild/obj/bg_endingscene_0_tilemap_attr.rel
                                          [ bg_endingscene_0_tilemap_attr ]
/tmp/_gbsbuild/obj/bg_endingscene_0_tilemap.rel
                                          [ bg_endingscene_0_tilemap ]
/tmp/_gbsbuild/obj/bg_endingscene_0_tileset.rel
                                          [ bg_endingscene_0_tileset ]
/tmp/_gbsbuild/obj/bg_endingscene_0.rel   [ bg_endingscene_0 ]
/tmp/_gbsbuild/obj/bg_endingscene_tilemap_attr.rel
                                          [ bg_endingscene_tilemap_attr ]
/tmp/_gbsbuild/obj/bg_endingscene_tilemap.rel
                                          [ bg_endingscene_tilemap ]
/tmp/_gbsbuild/obj/bg_endingscene_tileset.rel
                                          [ bg_endingscene_tileset ]
/tmp/_gbsbuild/obj/bg_endingscene.rel     [ bg_endingscene ]
/tmp/_gbsbuild/obj/bg_endingscene2_tilemap_attr.rel
                                          [ bg_endingscene2_tilemap_attr ]
/tmp/_gbsbuild/obj/bg_endingscene2_tilemap.rel
                                          [ bg_endingscene2_tilemap ]
/tmp/_gbsbuild/obj/bg_endingscene2_tileset.rel
                                          [ bg_endingscene2_tileset ]
/tmp/_gbsbuild/obj/bg_endingscene2.rel    [ bg_endingscene2 ]
/tmp/_gbsbuild/obj/bg_endingscene3_tilemap_attr.rel
                                          [ bg_endingscene3_tilemap_attr ]
/tmp/_gbsbuild/obj/bg_endingscene3_tilemap.rel
                                          [ bg_endingscene3_tilemap ]
/tmp/_gbsbuild/obj/bg_endingscene3_tileset.rel
                                          [ bg_endingscene3_tileset ]
/tmp/_gbsbuild/obj/bg_endingscene3.rel    [ bg_endingscene3 ]
/tmp/_gbsbuild/obj/bg_fall_to_shilly_area_copy_tilemap_attr.rel
                                          [ bg_fall_to_shilly_area_copy_tile ]
/tmp/_gbsbuild/obj/bg_fall_to_shilly_area_copy_tilemap.rel
                                          [ bg_fall_to_shilly_area_copy_tile ]
/tmp/_gbsbuild/obj/bg_fall_to_shilly_area_copy_tileset.rel
                                          [ bg_fall_to_shilly_area_copy_tile ]
/tmp/_gbsbuild/obj/bg_fall_to_shilly_area_copy.rel
                                          [ bg_fall_to_shilly_area_copy ]
/tmp/_gbsbuild/obj/bg_fieldlazy_tilemap_attr.rel
                                          [ bg_fieldlazy_tilemap_attr ]
/tmp/_gbsbuild/obj/bg_fieldlazy_tilemap.rel
                                          [ bg_fieldlazy_tilemap ]
/tmp/_gbsbuild/obj/bg_fieldlazy_tileset.rel
                                          [ bg_fieldlazy_tileset ]
/tmp/_gbsbuild/obj/bg_fieldlazy.rel       [ bg_fieldlazy ]
/tmp/_gbsbuild/obj/bg_iceos_desktop_copy__tilemap_attr.rel
                                          [ bg_iceos_desktop_copy__tilemap_a ]
/tmp/_gbsbuild/obj/bg_iceos_desktop_copy__tilemap.rel
                                          [ bg_iceos_desktop_copy__tilemap ]
/tmp/_gbsbuild/obj/bg_iceos_desktop_copy__tileset.rel
                                          [ bg_iceos_desktop_copy__tileset ]
/tmp/_gbsbuild/obj/bg_iceos_desktop_copy_.rel
                                          [ bg_iceos_desktop_copy_ ]
/tmp/_gbsbuild/obj/bg_iceos_login_2_copy__tilemap_attr.rel
                                          [ bg_iceos_login_2_copy__tilemap_a ]
/tmp/_gbsbuild/obj/bg_iceos_login_2_copy__tilemap.rel
                                          [ bg_iceos_login_2_copy__tilemap ]
/tmp/_gbsbuild/obj/bg_iceos_login_2_copy__tileset.rel
                                          [ bg_iceos_login_2_copy__tileset ]
/tmp/_gbsbuild/obj/bg_iceos_login_2_copy_.rel
                                          [ bg_iceos_login_2_copy_ ]
/tmp/_gbsbuild/obj/bg_iceos_login_copy__tilemap_attr.rel
                                          [ bg_iceos_login_copy__tilemap_att ]
/tmp/_gbsbuild/obj/bg_iceos_login_copy__tilemap.rel
                                          [ bg_iceos_login_copy__tilemap ]
/tmp/_gbsbuild/obj/bg_iceos_login_copy__tileset.rel
                                          [ bg_iceos_login_copy__tileset ]
/tmp/_gbsbuild/obj/bg_iceos_login_copy_.rel
                                          [ bg_iceos_login_copy_ ]
/tmp/_gbsbuild/obj/bg_iceos_platformer2_copy__tilemap_attr.rel
                                          [ bg_iceos_platformer2_copy__tilem ]
/tmp/_gbsbuild/obj/bg_iceos_platformer2_copy__tilemap.rel
                                          [ bg_iceos_platformer2_copy__tilem ]
/tmp/_gbsbuild/obj/bg_iceos_platformer2_copy__tileset.rel
                                          [ bg_iceos_platformer2_copy__tiles ]
/tmp/_gbsbuild/obj/bg_iceos_platformer2_copy_.rel
                                          [ bg_iceos_platformer2_copy_ ]
/tmp/_gbsbuild/obj/bg_iceos_platformer3_copy__tilemap_attr.rel
                                          [ bg_iceos_platformer3_copy__tilem ]
/tmp/_gbsbuild/obj/bg_iceos_platformer3_copy__tilemap.rel
                                          [ bg_iceos_platformer3_copy__tilem ]
/tmp/_gbsbuild/obj/bg_iceos_platformer3_copy__tileset.rel
                                          [ bg_iceos_platformer3_copy__tiles ]
/tmp/_gbsbuild/obj/bg_iceos_platformer3_copy_.rel
                                          [ bg_iceos_platformer3_copy_ ]
/tmp/_gbsbuild/obj/bg_iceos_platformer4_tilemap_attr.rel
                                          [ bg_iceos_platformer4_tilemap_att ]
/tmp/_gbsbuild/obj/bg_iceos_platformer4_tilemap.rel
                                          [ bg_iceos_platformer4_tilemap ]
/tmp/_gbsbuild/obj/bg_iceos_platformer4_tileset.rel
                                          [ bg_iceos_platformer4_tileset ]
/tmp/_gbsbuild/obj/bg_iceos_platformer4.rel
                                          [ bg_iceos_platformer4 ]
/tmp/_gbsbuild/obj/bg_init_copy__tilemap_attr.rel
                                          [ bg_init_copy__tilemap_attr ]
/tmp/_gbsbuild/obj/bg_init_copy__tilemap.rel
                                          [ bg_init_copy__tilemap ]
/tmp/_gbsbuild/obj/bg_init_copy__tileset.rel
                                          [ bg_init_copy__tileset ]
/tmp/_gbsbuild/obj/bg_init_copy_.rel      [ bg_init_copy_ ]
/tmp/_gbsbuild/obj/bg_init_copy_0_tilemap_attr.rel
                                          [ bg_init_copy_0_tilemap_attr ]
/tmp/_gbsbuild/obj/bg_init_copy_0_tilemap.rel
                                          [ bg_init_copy_0_tilemap ]
/tmp/_gbsbuild/obj/bg_init_copy_0_tileset.rel
                                          [ bg_init_copy_0_tileset ]
/tmp/_gbsbuild/obj/bg_init_copy_0.rel     [ bg_init_copy_0 ]
/tmp/_gbsbuild/obj/bg_init_copy_1_tilemap_attr.rel
                                          [ bg_init_copy_1_tilemap_attr ]
/tmp/_gbsbuild/obj/bg_init_copy_1_tilemap.rel
                                          [ bg_init_copy_1_tilemap ]
/tmp/_gbsbuild/obj/bg_init_copy_1_tileset.rel
                                          [ bg_init_copy_1_tileset ]
/tmp/_gbsbuild/obj/bg_init_copy_1.rel     [ bg_init_copy_1 ]
/tmp/_gbsbuild/obj/bg_init_copy_2_tilemap_attr.rel
                                          [ bg_init_copy_2_tilemap_attr ]
/tmp/_gbsbuild/obj/bg_init_copy_2_tilemap.rel
                                          [ bg_init_copy_2_tilemap ]
/tmp/_gbsbuild/obj/bg_init_copy_2_tileset.rel
                                          [ bg_init_copy_2_tileset ]
/tmp/_gbsbuild/obj/bg_init_copy_2.rel     [ bg_init_copy_2 ]
/tmp/_gbsbuild/obj/bg_intro_scenary_copy__tilemap_attr.rel
                                          [ bg_intro_scenary_copy__tilemap_a ]
/tmp/_gbsbuild/obj/bg_intro_scenary_copy__tilemap.rel
                                          [ bg_intro_scenary_copy__tilemap ]
/tmp/_gbsbuild/obj/bg_intro_scenary_copy__tileset.rel
                                          [ bg_intro_scenary_copy__tileset ]
/tmp/_gbsbuild/obj/bg_intro_scenary_copy_.rel
                                          [ bg_intro_scenary_copy_ ]
/tmp/_gbsbuild/obj/bg_intro_weather_copy__tilemap_attr.rel
                                          [ bg_intro_weather_copy__tilemap_a ]
/tmp/_gbsbuild/obj/bg_intro_weather_copy__tilemap.rel
                                          [ bg_intro_weather_copy__tilemap ]
/tmp/_gbsbuild/obj/bg_intro_weather_copy__tileset.rel
                                          [ bg_intro_weather_copy__tileset ]
/tmp/_gbsbuild/obj/bg_intro_weather_copy_.rel
                                          [ bg_intro_weather_copy_ ]
/tmp/_gbsbuild/obj/bg_lair_hub_tilemap_attr.rel
                                          [ bg_lair_hub_tilemap_attr ]
/tmp/_gbsbuild/obj/bg_lair_hub_tilemap.rel
                                          [ bg_lair_hub_tilemap ]
/tmp/_gbsbuild/obj/bg_lair_hub_tileset.rel
                                          [ bg_lair_hub_tileset ]
/tmp/_gbsbuild/obj/bg_lair_hub.rel        [ bg_lair_hub ]
/tmp/_gbsbuild/obj/bg_lair_left_2_copy__tilemap_attr.rel
                                          [ bg_lair_left_2_copy__tilemap_att ]
/tmp/_gbsbuild/obj/bg_lair_left_2_copy__tilemap.rel
                                          [ bg_lair_left_2_copy__tilemap ]
/tmp/_gbsbuild/obj/bg_lair_left_2_copy__tileset.rel
                                          [ bg_lair_left_2_copy__tileset ]
/tmp/_gbsbuild/obj/bg_lair_left_2_copy_.rel
                                          [ bg_lair_left_2_copy_ ]
/tmp/_gbsbuild/obj/bg_lair_left_2_tilemap_attr.rel
                                          [ bg_lair_left_2_tilemap_attr ]
/tmp/_gbsbuild/obj/bg_lair_left_2_tilemap.rel
                                          [ bg_lair_left_2_tilemap ]
/tmp/_gbsbuild/obj/bg_lair_left_2_tileset.rel
                                          [ bg_lair_left_2_tileset ]
/tmp/_gbsbuild/obj/bg_lair_left_2.rel     [ bg_lair_left_2 ]
/tmp/_gbsbuild/obj/bg_lair_left_3_tilemap_attr.rel
                                          [ bg_lair_left_3_tilemap_attr ]
/tmp/_gbsbuild/obj/bg_lair_left_3_tilemap.rel
                                          [ bg_lair_left_3_tilemap ]
/tmp/_gbsbuild/obj/bg_lair_left_3_tileset.rel
                                          [ bg_lair_left_3_tileset ]
/tmp/_gbsbuild/obj/bg_lair_left_3.rel     [ bg_lair_left_3 ]
/tmp/_gbsbuild/obj/bg_lair_right_2_copy__tilemap_attr.rel
                                          [ bg_lair_right_2_copy__tilemap_at ]
/tmp/_gbsbuild/obj/bg_lair_right_2_copy__tilemap.rel
                                          [ bg_lair_right_2_copy__tilemap ]
/tmp/_gbsbuild/obj/bg_lair_right_2_copy__tileset.rel
                                          [ bg_lair_right_2_copy__tileset ]
/tmp/_gbsbuild/obj/bg_lair_right_2_copy_.rel
                                          [ bg_lair_right_2_copy_ ]
/tmp/_gbsbuild/obj/bg_lair_right_2_tilemap_attr.rel
                                          [ bg_lair_right_2_tilemap_attr ]
/tmp/_gbsbuild/obj/bg_lair_right_2_tilemap.rel
                                          [ bg_lair_right_2_tilemap ]
/tmp/_gbsbuild/obj/bg_lair_right_2_tileset.rel
                                          [ bg_lair_right_2_tileset ]
/tmp/_gbsbuild/obj/bg_lair_right_2.rel    [ bg_lair_right_2 ]
/tmp/_gbsbuild/obj/bg_lair_right_3_copy__tilemap_attr.rel
                                          [ bg_lair_right_3_copy__tilemap_at ]
/tmp/_gbsbuild/obj/bg_lair_right_3_copy__tilemap.rel
                                          [ bg_lair_right_3_copy__tilemap ]
/tmp/_gbsbuild/obj/bg_lair_right_3_copy__tileset.rel
                                          [ bg_lair_right_3_copy__tileset ]
/tmp/_gbsbuild/obj/bg_lair_right_3_copy_.rel
                                          [ bg_lair_right_3_copy_ ]
/tmp/_gbsbuild/obj/bg_lair_right_3_tilemap_attr.rel
                                          [ bg_lair_right_3_tilemap_attr ]
/tmp/_gbsbuild/obj/bg_lair_right_3_tilemap.rel
                                          [ bg_lair_right_3_tilemap ]
/tmp/_gbsbuild/obj/bg_lair_right_3_tileset.rel
                                          [ bg_lair_right_3_tileset ]
/tmp/_gbsbuild/obj/bg_lair_right_3.rel    [ bg_lair_right_3 ]
/tmp/_gbsbuild/obj/bg_lair_right_4_copy__tilemap_attr.rel
                                          [ bg_lair_right_4_copy__tilemap_at ]
/tmp/_gbsbuild/obj/bg_lair_right_4_copy__tilemap.rel
                                          [ bg_lair_right_4_copy__tilemap ]
/tmp/_gbsbuild/obj/bg_lair_right_4_copy__tileset.rel
                                          [ bg_lair_right_4_copy__tileset ]
/tmp/_gbsbuild/obj/bg_lair_right_4_copy_.rel
                                          [ bg_lair_right_4_copy_ ]
/tmp/_gbsbuild/obj/bg_lair_right_5_tilemap_attr.rel
                                          [ bg_lair_right_5_tilemap_attr ]
/tmp/_gbsbuild/obj/bg_lair_right_5_tilemap.rel
                                          [ bg_lair_right_5_tilemap ]
/tmp/_gbsbuild/obj/bg_lair_right_5_tileset.rel
                                          [ bg_lair_right_5_tileset ]
/tmp/_gbsbuild/obj/bg_lair_right_5.rel    [ bg_lair_right_5 ]
/tmp/_gbsbuild/obj/bg_lair_right_tilemap_attr.rel
                                          [ bg_lair_right_tilemap_attr ]
/tmp/_gbsbuild/obj/bg_lair_right_tilemap.rel
                                          [ bg_lair_right_tilemap ]
/tmp/_gbsbuild/obj/bg_lair_right_tileset.rel
                                          [ bg_lair_right_tileset ]
/tmp/_gbsbuild/obj/bg_lair_right.rel      [ bg_lair_right ]
/tmp/_gbsbuild/obj/bg_lencity_dhillybuilding_c_tilemap_attr.rel
                                          [ bg_lencity_dhillybuilding_c_tile ]
/tmp/_gbsbuild/obj/bg_lencity_dhillybuilding_c_tilemap.rel
                                          [ bg_lencity_dhillybuilding_c_tile ]
/tmp/_gbsbuild/obj/bg_lencity_dhillybuilding_c_tileset.rel
                                          [ bg_lencity_dhillybuilding_c_tile ]
/tmp/_gbsbuild/obj/bg_lencity_dhillybuilding_c.rel
                                          [ bg_lencity_dhillybuilding_c ]
/tmp/_gbsbuild/obj/bg_lencity_dhillybuilding_f_tilemap_attr.rel
                                          [ bg_lencity_dhillybuilding_f_tile ]
/tmp/_gbsbuild/obj/bg_lencity_dhillybuilding_f_tilemap.rel
                                          [ bg_lencity_dhillybuilding_f_tile ]
/tmp/_gbsbuild/obj/bg_lencity_dhillybuilding_f_tileset.rel
                                          [ bg_lencity_dhillybuilding_f_tile ]
/tmp/_gbsbuild/obj/bg_lencity_dhillybuilding_f.rel
                                          [ bg_lencity_dhillybuilding_f ]
/tmp/_gbsbuild/obj/bg_lencity_trainstation_cop_tilemap_attr.rel
                                          [ bg_lencity_trainstation_cop_tile ]
/tmp/_gbsbuild/obj/bg_lencity_trainstation_cop_tilemap.rel
                                          [ bg_lencity_trainstation_cop_tile ]
/tmp/_gbsbuild/obj/bg_lencity_trainstation_cop_tileset.rel
                                          [ bg_lencity_trainstation_cop_tile ]
/tmp/_gbsbuild/obj/bg_lencity_trainstation_cop.rel
                                          [ bg_lencity_trainstation_cop ]
/tmp/_gbsbuild/obj/bg_lencity_trainstation_tilemap_attr.rel
                                          [ bg_lencity_trainstation_tilemap_ ]
/tmp/_gbsbuild/obj/bg_lencity_trainstation_tilemap.rel
                                          [ bg_lencity_trainstation_tilemap ]
/tmp/_gbsbuild/obj/bg_lencity_trainstation_tileset.rel
                                          [ bg_lencity_trainstation_tileset ]
/tmp/_gbsbuild/obj/bg_lencity_trainstation.rel
                                          [ bg_lencity_trainstation ]
/tmp/_gbsbuild/obj/bg_lencityopen_copy__tilemap_attr.rel
                                          [ bg_lencityopen_copy__tilemap_att ]
/tmp/_gbsbuild/obj/bg_lencityopen_copy__tilemap.rel
                                          [ bg_lencityopen_copy__tilemap ]
/tmp/_gbsbuild/obj/bg_lencityopen_copy__tileset.rel
                                          [ bg_lencityopen_copy__tileset ]
/tmp/_gbsbuild/obj/bg_lencityopen_copy_.rel
                                          [ bg_lencityopen_copy_ ]
/tmp/_gbsbuild/obj/bg_lencityopen_copy_0_tilemap_attr.rel
                                          [ bg_lencityopen_copy_0_tilemap_at ]
/tmp/_gbsbuild/obj/bg_lencityopen_copy_0_tilemap.rel
                                          [ bg_lencityopen_copy_0_tilemap ]
/tmp/_gbsbuild/obj/bg_lencityopen_copy_0_tileset.rel
                                          [ bg_lencityopen_copy_0_tileset ]
/tmp/_gbsbuild/obj/bg_lencityopen_copy_0.rel
                                          [ bg_lencityopen_copy_0 ]
/tmp/_gbsbuild/obj/bg_lencityopen_tilemap_attr.rel
                                          [ bg_lencityopen_tilemap_attr ]
/tmp/_gbsbuild/obj/bg_lencityopen_tilemap.rel
                                          [ bg_lencityopen_tilemap ]
/tmp/_gbsbuild/obj/bg_lencityopen_tileset.rel
                                          [ bg_lencityopen_tileset ]
/tmp/_gbsbuild/obj/bg_lencityopen.rel     [ bg_lencityopen ]
/tmp/_gbsbuild/obj/bg_options_copy__tilemap_attr.rel
                                          [ bg_options_copy__tilemap_attr ]
/tmp/_gbsbuild/obj/bg_options_copy__tilemap.rel
                                          [ bg_options_copy__tilemap ]
/tmp/_gbsbuild/obj/bg_options_copy__tileset.rel
                                          [ bg_options_copy__tileset ]
/tmp/_gbsbuild/obj/bg_options_copy_.rel   [ bg_options_copy_ ]
/tmp/_gbsbuild/obj/bg_pixil_frame_0_23_tilemap_attr.rel
                                          [ bg_pixil_frame_0_23_tilemap_attr ]
/tmp/_gbsbuild/obj/bg_pixil_frame_0_23_tilemap.rel
                                          [ bg_pixil_frame_0_23_tilemap ]
/tmp/_gbsbuild/obj/bg_pixil_frame_0_23_tileset.rel
                                          [ bg_pixil_frame_0_23_tileset ]
/tmp/_gbsbuild/obj/bg_pixil_frame_0_23.rel
                                          [ bg_pixil_frame_0_23 ]
/tmp/_gbsbuild/obj/bg_pixil_frame_0_24_tilemap_attr.rel
                                          [ bg_pixil_frame_0_24_tilemap_attr ]
/tmp/_gbsbuild/obj/bg_pixil_frame_0_24_tilemap.rel
                                          [ bg_pixil_frame_0_24_tilemap ]
/tmp/_gbsbuild/obj/bg_pixil_frame_0_24_tileset.rel
                                          [ bg_pixil_frame_0_24_tileset ]
/tmp/_gbsbuild/obj/bg_pixil_frame_0_24.rel
                                          [ bg_pixil_frame_0_24 ]
/tmp/_gbsbuild/obj/bg_pixil_frame_0_30_tilemap_attr.rel
                                          [ bg_pixil_frame_0_30_tilemap_attr ]
/tmp/_gbsbuild/obj/bg_pixil_frame_0_30_tilemap.rel
                                          [ bg_pixil_frame_0_30_tilemap ]
/tmp/_gbsbuild/obj/bg_pixil_frame_0_30_tileset.rel
                                          [ bg_pixil_frame_0_30_tileset ]
/tmp/_gbsbuild/obj/bg_pixil_frame_0_30.rel
                                          [ bg_pixil_frame_0_30 ]
/tmp/_gbsbuild/obj/bg_pixil_frame_0_31_tilemap_attr.rel
                                          [ bg_pixil_frame_0_31_tilemap_attr ]
/tmp/_gbsbuild/obj/bg_pixil_frame_0_31_tilemap.rel
                                          [ bg_pixil_frame_0_31_tilemap ]
/tmp/_gbsbuild/obj/bg_pixil_frame_0_31_tileset.rel
                                          [ bg_pixil_frame_0_31_tileset ]
/tmp/_gbsbuild/obj/bg_pixil_frame_0_31.rel
                                          [ bg_pixil_frame_0_31 ]
/tmp/_gbsbuild/obj/bg_pixil_frame_0_33_tilemap_attr.rel
                                          [ bg_pixil_frame_0_33_tilemap_attr ]
/tmp/_gbsbuild/obj/bg_pixil_frame_0_33_tilemap.rel
                                          [ bg_pixil_frame_0_33_tilemap ]
/tmp/_gbsbuild/obj/bg_pixil_frame_0_33_tileset.rel
                                          [ bg_pixil_frame_0_33_tileset ]
/tmp/_gbsbuild/obj/bg_pixil_frame_0_33.rel
                                          [ bg_pixil_frame_0_33 ]
/tmp/_gbsbuild/obj/bg_pixil_frame_0_copy_copy__tilemap_attr.rel
                                          [ bg_pixil_frame_0_copy_copy__tile ]
/tmp/_gbsbuild/obj/bg_pixil_frame_0_copy_copy__tilemap.rel
                                          [ bg_pixil_frame_0_copy_copy__tile ]
/tmp/_gbsbuild/obj/bg_pixil_frame_0_copy_copy__tileset.rel
                                          [ bg_pixil_frame_0_copy_copy__tile ]
/tmp/_gbsbuild/obj/bg_pixil_frame_0_copy_copy_.rel
                                          [ bg_pixil_frame_0_copy_copy_ ]
/tmp/_gbsbuild/obj/bg_pixil_frame_23_0_tilemap_attr.rel
                                          [ bg_pixil_frame_23_0_tilemap_attr ]
/tmp/_gbsbuild/obj/bg_pixil_frame_23_0_tilemap.rel
                                          [ bg_pixil_frame_23_0_tilemap ]
/tmp/_gbsbuild/obj/bg_pixil_frame_23_0_tileset.rel
                                          [ bg_pixil_frame_23_0_tileset ]
/tmp/_gbsbuild/obj/bg_pixil_frame_23_0.rel
                                          [ bg_pixil_frame_23_0 ]
/tmp/_gbsbuild/obj/bg_placeholder_copy_copy_co_0_tilemap_attr.rel
                                          [ bg_placeholder_copy_copy_co_0_ti ]
/tmp/_gbsbuild/obj/bg_placeholder_copy_copy_co_0_tilemap.rel
                                          [ bg_placeholder_copy_copy_co_0_ti ]
/tmp/_gbsbuild/obj/bg_placeholder_copy_copy_co_0_tileset.rel
                                          [ bg_placeholder_copy_copy_co_0_ti ]
/tmp/_gbsbuild/obj/bg_placeholder_copy_copy_co_0.rel
                                          [ bg_placeholder_copy_copy_co_0 ]
/tmp/_gbsbuild/obj/bg_placeholder_copy_copy_co_tilemap_attr.rel
                                          [ bg_placeholder_copy_copy_co_tile ]
/tmp/_gbsbuild/obj/bg_placeholder_copy_copy_co_tilemap.rel
                                          [ bg_placeholder_copy_copy_co_tile ]
/tmp/_gbsbuild/obj/bg_placeholder_copy_copy_co_tileset.rel
                                          [ bg_placeholder_copy_copy_co_tile ]
/tmp/_gbsbuild/obj/bg_placeholder_copy_copy_co.rel
                                          [ bg_placeholder_copy_copy_co ]
/tmp/_gbsbuild/obj/bg_samsam_copy_tilemap_attr.rel
                                          [ bg_samsam_copy_tilemap_attr ]
/tmp/_gbsbuild/obj/bg_samsam_copy_tilemap.rel
                                          [ bg_samsam_copy_tilemap ]
/tmp/_gbsbuild/obj/bg_samsam_copy_tileset.rel
                                          [ bg_samsam_copy_tileset ]
/tmp/_gbsbuild/obj/bg_samsam_copy.rel     [ bg_samsam_copy ]
/tmp/_gbsbuild/obj/bg_shillycity_sara_house_co_tilemap_attr.rel
                                          [ bg_shillycity_sara_house_co_tile ]
/tmp/_gbsbuild/obj/bg_shillycity_sara_house_co_tilemap.rel
                                          [ bg_shillycity_sara_house_co_tile ]
/tmp/_gbsbuild/obj/bg_shillycity_sara_house_co_tileset.rel
                                          [ bg_shillycity_sara_house_co_tile ]
/tmp/_gbsbuild/obj/bg_shillycity_sara_house_co.rel
                                          [ bg_shillycity_sara_house_co ]
/tmp/_gbsbuild/obj/bg_shillycityopen_copy__tilemap_attr.rel
                                          [ bg_shillycityopen_copy__tilemap_ ]
/tmp/_gbsbuild/obj/bg_shillycityopen_copy__tilemap.rel
                                          [ bg_shillycityopen_copy__tilemap ]
/tmp/_gbsbuild/obj/bg_shillycityopen_copy__tileset.rel
                                          [ bg_shillycityopen_copy__tileset ]
/tmp/_gbsbuild/obj/bg_shillycityopen_copy_.rel
                                          [ bg_shillycityopen_copy_ ]
/tmp/_gbsbuild/obj/bg_shillycityopen_copy_0_tilemap_attr.rel
                                          [ bg_shillycityopen_copy_0_tilemap ]
/tmp/_gbsbuild/obj/bg_shillycityopen_copy_0_tilemap.rel
                                          [ bg_shillycityopen_copy_0_tilemap ]
/tmp/_gbsbuild/obj/bg_shillycityopen_copy_0_tileset.rel
                                          [ bg_shillycityopen_copy_0_tileset ]
/tmp/_gbsbuild/obj/bg_shillycityopen_copy_0.rel
                                          [ bg_shillycityopen_copy_0 ]
/tmp/_gbsbuild/obj/bg_shillycityopen_copy_1_tilemap_attr.rel
                                          [ bg_shillycityopen_copy_1_tilemap ]
/tmp/_gbsbuild/obj/bg_shillycityopen_copy_1_tilemap.rel
                                          [ bg_shillycityopen_copy_1_tilemap ]
/tmp/_gbsbuild/obj/bg_shillycityopen_copy_1_tileset.rel
                                          [ bg_shillycityopen_copy_1_tileset ]
/tmp/_gbsbuild/obj/bg_shillycityopen_copy_1.rel
                                          [ bg_shillycityopen_copy_1 ]
/tmp/_gbsbuild/obj/bg_square_frozen_future_tilemap_attr.rel
                                          [ bg_square_frozen_future_tilemap_ ]
/tmp/_gbsbuild/obj/bg_square_frozen_future_tilemap.rel
                                          [ bg_square_frozen_future_tilemap ]
/tmp/_gbsbuild/obj/bg_square_frozen_future_tileset.rel
                                          [ bg_square_frozen_future_tileset ]
/tmp/_gbsbuild/obj/bg_square_frozen_future.rel
                                          [ bg_square_frozen_future ]
/tmp/_gbsbuild/obj/bg_theatre_tilemap_attr.rel
                                          [ bg_theatre_tilemap_attr ]
/tmp/_gbsbuild/obj/bg_theatre_tilemap.rel
                                          [ bg_theatre_tilemap ]
/tmp/_gbsbuild/obj/bg_theatre_tileset.rel
                                          [ bg_theatre_tileset ]
/tmp/_gbsbuild/obj/bg_theatre.rel         [ bg_theatre ]
/tmp/_gbsbuild/obj/bg_title_copy__tilemap_attr.rel
                                          [ bg_title_copy__tilemap_attr ]
/tmp/_gbsbuild/obj/bg_title_copy__tilemap.rel
                                          [ bg_title_copy__tilemap ]
/tmp/_gbsbuild/obj/bg_title_copy__tileset.rel
                                          [ bg_title_copy__tileset ]
/tmp/_gbsbuild/obj/bg_title_copy_.rel     [ bg_title_copy_ ]
/tmp/_gbsbuild/obj/bg_title_copy_0_tilemap_attr.rel
                                          [ bg_title_copy_0_tilemap_attr ]
/tmp/_gbsbuild/obj/bg_title_copy_0_tilemap.rel
                                          [ bg_title_copy_0_tilemap ]
/tmp/_gbsbuild/obj/bg_title_copy_0_tileset.rel
                                          [ bg_title_copy_0_tileset ]
/tmp/_gbsbuild/obj/bg_title_copy_0.rel    [ bg_title_copy_0 ]
/tmp/_gbsbuild/obj/bg_title_copy_1_tilemap_attr.rel
                                          [ bg_title_copy_1_tilemap_attr ]
/tmp/_gbsbuild/obj/bg_title_copy_1_tilemap.rel
                                          [ bg_title_copy_1_tilemap ]
/tmp/_gbsbuild/obj/bg_title_copy_1_tileset.rel
                                          [ bg_title_copy_1_tileset ]
/tmp/_gbsbuild/obj/bg_title_copy_1.rel    [ bg_title_copy_1 ]
/tmp/_gbsbuild/obj/bg_title_copy_2_tilemap_attr.rel
                                          [ bg_title_copy_2_tilemap_attr ]
/tmp/_gbsbuild/obj/bg_title_copy_2_tilemap.rel
                                          [ bg_title_copy_2_tilemap ]
/tmp/_gbsbuild/obj/bg_title_copy_2_tileset.rel
                                          [ bg_title_copy_2_tileset ]
/tmp/_gbsbuild/obj/bg_title_copy_2.rel    [ bg_title_copy_2 ]
/tmp/_gbsbuild/obj/bg_title_tilemap_attr.rel
                                          [ bg_title_tilemap_attr ]
/tmp/_gbsbuild/obj/bg_title_tilemap.rel   [ bg_title_tilemap ]
/tmp/_gbsbuild/obj/bg_title_tileset.rel   [ bg_title_tileset ]
/tmp/_gbsbuild/obj/bg_title.rel           [ bg_title ]
/tmp/_gbsbuild/obj/bg_wakeupsquare_1_tilemap_attr.rel
                                          [ bg_wakeupsquare_1_tilemap_attr ]
/tmp/_gbsbuild/obj/bg_wakeupsquare_1_tilemap.rel
                                          [ bg_wakeupsquare_1_tilemap ]
/tmp/_gbsbuild/obj/bg_wakeupsquare_1_tileset.rel
                                          [ bg_wakeupsquare_1_tileset ]
/tmp/_gbsbuild/obj/bg_wakeupsquare_1.rel  [ bg_wakeupsquare_1 ]
/tmp/_gbsbuild/obj/bg_wakeupsquare_3_copy__tilemap_attr.rel
                                          [ bg_wakeupsquare_3_copy__tilemap_ ]
/tmp/_gbsbuild/obj/bg_wakeupsquare_3_copy__tilemap.rel
                                          [ bg_wakeupsquare_3_copy__tilemap ]
/tmp/_gbsbuild/obj/bg_wakeupsquare_3_copy__tileset.rel
                                          [ bg_wakeupsquare_3_copy__tileset ]
/tmp/_gbsbuild/obj/bg_wakeupsquare_3_copy_.rel
                                          [ bg_wakeupsquare_3_copy_ ]
/tmp/_gbsbuild/obj/border.rel             [ border ]
/tmp/_gbsbuild/obj/cursor_image.rel       [ cursor_image ]
/tmp/_gbsbuild/obj/emote_shock.rel        [ emote_shock ]
/tmp/_gbsbuild/obj/font_gbs_variable_width.rel
                                          [ font_gbs_variable_width ]
/tmp/_gbsbuild/obj/frame_image.rel        [ frame_image ]
/tmp/_gbsbuild/obj/game_signature.rel     [ game_signature ]
/tmp/_gbsbuild/obj/palette_0.rel          [ palette_0 ]
/tmp/_gbsbuild/obj/palette_1.rel          [ palette_1 ]
/tmp/_gbsbuild/obj/palette_10.rel         [ palette_10 ]
/tmp/_gbsbuild/obj/palette_11.rel         [ palette_11 ]
/tmp/_gbsbuild/obj/palette_12.rel         [ palette_12 ]
/tmp/_gbsbuild/obj/palette_13.rel         [ palette_13 ]
/tmp/_gbsbuild/obj/palette_14.rel         [ palette_14 ]
/tmp/_gbsbuild/obj/palette_15.rel         [ palette_15 ]
/tmp/_gbsbuild/obj/palette_16.rel         [ palette_16 ]
/tmp/_gbsbuild/obj/palette_17.rel         [ palette_17 ]
/tmp/_gbsbuild/obj/palette_18.rel         [ palette_18 ]
/tmp/_gbsbuild/obj/palette_19.rel         [ palette_19 ]
/tmp/_gbsbuild/obj/palette_2.rel          [ palette_2 ]
/tmp/_gbsbuild/obj/palette_20.rel         [ palette_20 ]
/tmp/_gbsbuild/obj/palette_21.rel         [ palette_21 ]
/tmp/_gbsbuild/obj/palette_22.rel         [ palette_22 ]
/tmp/_gbsbuild/obj/palette_23.rel         [ palette_23 ]
/tmp/_gbsbuild/obj/palette_24.rel         [ palette_24 ]
/tmp/_gbsbuild/obj/palette_25.rel         [ palette_25 ]
/tmp/_gbsbuild/obj/palette_26.rel         [ palette_26 ]
/tmp/_gbsbuild/obj/palette_27.rel         [ palette_27 ]
/tmp/_gbsbuild/obj/palette_28.rel         [ palette_28 ]
/tmp/_gbsbuild/obj/palette_29.rel         [ palette_29 ]
/tmp/_gbsbuild/obj/palette_3.rel          [ palette_3 ]
/tmp/_gbsbuild/obj/palette_30.rel         [ palette_30 ]
/tmp/_gbsbuild/obj/palette_31.rel         [ palette_31 ]
/tmp/_gbsbuild/obj/palette_32.rel         [ palette_32 ]
/tmp/_gbsbuild/obj/palette_33.rel         [ palette_33 ]
/tmp/_gbsbuild/obj/palette_34.rel         [ palette_34 ]
/tmp/_gbsbuild/obj/palette_35.rel         [ palette_35 ]
/tmp/_gbsbuild/obj/palette_36.rel         [ palette_36 ]
/tmp/_gbsbuild/obj/palette_37.rel         [ palette_37 ]
/tmp/_gbsbuild/obj/palette_38.rel         [ palette_38 ]
/tmp/_gbsbuild/obj/palette_39.rel         [ palette_39 ]
/tmp/_gbsbuild/obj/palette_4.rel          [ palette_4 ]
/tmp/_gbsbuild/obj/palette_40.rel         [ palette_40 ]
/tmp/_gbsbuild/obj/palette_41.rel         [ palette_41 ]
/tmp/_gbsbuild/obj/palette_42.rel         [ palette_42 ]
/tmp/_gbsbuild/obj/palette_43.rel         [ palette_43 ]
/tmp/_gbsbuild/obj/palette_44.rel         [ palette_44 ]
/tmp/_gbsbuild/obj/palette_45.rel         [ palette_45 ]
/tmp/_gbsbuild/obj/palette_46.rel         [ palette_46 ]
/tmp/_gbsbuild/obj/palette_47.rel         [ palette_47 ]
/tmp/_gbsbuild/obj/palette_48.rel         [ palette_48 ]
/tmp/_gbsbuild/obj/palette_49.rel         [ palette_49 ]
/tmp/_gbsbuild/obj/palette_5.rel          [ palette_5 ]
/tmp/_gbsbuild/obj/palette_50.rel         [ palette_50 ]
/tmp/_gbsbuild/obj/palette_51.rel         [ palette_51 ]
/tmp/_gbsbuild/obj/palette_52.rel         [ palette_52 ]
/tmp/_gbsbuild/obj/palette_53.rel         [ palette_53 ]
/tmp/_gbsbuild/obj/palette_54.rel         [ palette_54 ]
/tmp/_gbsbuild/obj/palette_55.rel         [ palette_55 ]
/tmp/_gbsbuild/obj/palette_56.rel         [ palette_56 ]
/tmp/_gbsbuild/obj/palette_57.rel         [ palette_57 ]
/tmp/_gbsbuild/obj/palette_58.rel         [ palette_58 ]
/tmp/_gbsbuild/obj/palette_59.rel         [ palette_59 ]
/tmp/_gbsbuild/obj/palette_6.rel          [ palette_6 ]
/tmp/_gbsbuild/obj/palette_60.rel         [ palette_60 ]
/tmp/_gbsbuild/obj/palette_61.rel         [ palette_61 ]
/tmp/_gbsbuild/obj/palette_62.rel         [ palette_62 ]
/tmp/_gbsbuild/obj/palette_63.rel         [ palette_63 ]
/tmp/_gbsbuild/obj/palette_64.rel         [ palette_64 ]
/tmp/_gbsbuild/obj/palette_65.rel         [ palette_65 ]
/tmp/_gbsbuild/obj/palette_7.rel          [ palette_7 ]
/tmp/_gbsbuild/obj/palette_8.rel          [ palette_8 ]
/tmp/_gbsbuild/obj/palette_9.rel          [ palette_9 ]
/tmp/_gbsbuild/obj/scene_0_collisions.rel
                                          [ scene_0_collisions ]
/tmp/_gbsbuild/obj/scene_0_init.rel       [ scene_0_init ]
/tmp/_gbsbuild/obj/scene_0_triggers.rel   [ scene_0_triggers ]
/tmp/_gbsbuild/obj/scene_0.rel            [ scene_0 ]
/tmp/_gbsbuild/obj/scene_1_collisions.rel
                                          [ scene_1_collisions ]
/tmp/_gbsbuild/obj/scene_1_init.rel       [ scene_1_init ]
/tmp/_gbsbuild/obj/scene_1.rel            [ scene_1 ]
/tmp/_gbsbuild/obj/scene_10_collisions.rel
                                          [ scene_10_collisions ]
/tmp/_gbsbuild/obj/scene_10_init.rel      [ scene_10_init ]
/tmp/_gbsbuild/obj/scene_10.rel           [ scene_10 ]
/tmp/_gbsbuild/obj/scene_100_collisions.rel
                                          [ scene_100_collisions ]
/tmp/_gbsbuild/obj/scene_100_init.rel     [ scene_100_init ]
/tmp/_gbsbuild/obj/scene_100.rel          [ scene_100 ]
/tmp/_gbsbuild/obj/scene_11_collisions.rel
                                          [ scene_11_collisions ]
/tmp/_gbsbuild/obj/scene_11_init.rel      [ scene_11_init ]
/tmp/_gbsbuild/obj/scene_11.rel           [ scene_11 ]
/tmp/_gbsbuild/obj/scene_12_collisions.rel
                                          [ scene_12_collisions ]
/tmp/_gbsbuild/obj/scene_12_init.rel      [ scene_12_init ]
/tmp/_gbsbuild/obj/scene_12.rel           [ scene_12 ]
/tmp/_gbsbuild/obj/scene_13_collisions.rel
                                          [ scene_13_collisions ]
/tmp/_gbsbuild/obj/scene_13_init.rel      [ scene_13_init ]
/tmp/_gbsbuild/obj/scene_13.rel           [ scene_13 ]
/tmp/_gbsbuild/obj/scene_14_collisions.rel
                                          [ scene_14_collisions ]
/tmp/_gbsbuild/obj/scene_14_init.rel      [ scene_14_init ]
/tmp/_gbsbuild/obj/scene_14.rel           [ scene_14 ]
/tmp/_gbsbuild/obj/scene_15_collisions.rel
                                          [ scene_15_collisions ]
/tmp/_gbsbuild/obj/scene_15_init.rel      [ scene_15_init ]
/tmp/_gbsbuild/obj/scene_15_triggers.rel  [ scene_15_triggers ]
/tmp/_gbsbuild/obj/scene_15.rel           [ scene_15 ]
/tmp/_gbsbuild/obj/scene_16_collisions.rel
                                          [ scene_16_collisions ]
/tmp/_gbsbuild/obj/scene_16_init.rel      [ scene_16_init ]
/tmp/_gbsbuild/obj/scene_16.rel           [ scene_16 ]
/tmp/_gbsbuild/obj/scene_17_actors.rel    [ scene_17_actors ]
/tmp/_gbsbuild/obj/scene_17_collisions.rel
                                          [ scene_17_collisions ]
/tmp/_gbsbuild/obj/scene_17_init.rel      [ scene_17_init ]
/tmp/_gbsbuild/obj/scene_17_sprites.rel   [ scene_17_sprites ]
/tmp/_gbsbuild/obj/scene_17_triggers.rel  [ scene_17_triggers ]
/tmp/_gbsbuild/obj/scene_17.rel           [ scene_17 ]
/tmp/_gbsbuild/obj/scene_18_actors.rel    [ scene_18_actors ]
/tmp/_gbsbuild/obj/scene_18_collisions.rel
                                          [ scene_18_collisions ]
/tmp/_gbsbuild/obj/scene_18_init.rel      [ scene_18_init ]
/tmp/_gbsbuild/obj/scene_18_sprites.rel   [ scene_18_sprites ]
/tmp/_gbsbuild/obj/scene_18_triggers.rel  [ scene_18_triggers ]
/tmp/_gbsbuild/obj/scene_18.rel           [ scene_18 ]
/tmp/_gbsbuild/obj/scene_19_actors.rel    [ scene_19_actors ]
/tmp/_gbsbuild/obj/scene_19_collisions.rel
                                          [ scene_19_collisions ]
/tmp/_gbsbuild/obj/scene_19_init.rel      [ scene_19_init ]
/tmp/_gbsbuild/obj/scene_19_triggers.rel  [ scene_19_triggers ]
/tmp/_gbsbuild/obj/scene_19.rel           [ scene_19 ]
/tmp/_gbsbuild/obj/scene_2_actors.rel     [ scene_2_actors ]
/tmp/_gbsbuild/obj/scene_2_collisions.rel
                                          [ scene_2_collisions ]
/tmp/_gbsbuild/obj/scene_2_init.rel       [ scene_2_init ]
/tmp/_gbsbuild/obj/scene_2.rel            [ scene_2 ]
/tmp/_gbsbuild/obj/scene_20_actors.rel    [ scene_20_actors ]
/tmp/_gbsbuild/obj/scene_20_collisions.rel
                                          [ scene_20_collisions ]
/tmp/_gbsbuild/obj/scene_20_init.rel      [ scene_20_init ]
/tmp/_gbsbuild/obj/scene_20_sprites.rel   [ scene_20_sprites ]
/tmp/_gbsbuild/obj/scene_20_triggers.rel  [ scene_20_triggers ]
/tmp/_gbsbuild/obj/scene_20.rel           [ scene_20 ]
/tmp/_gbsbuild/obj/scene_22_actors.rel    [ scene_22_actors ]
/tmp/_gbsbuild/obj/scene_22_collisions.rel
                                          [ scene_22_collisions ]
/tmp/_gbsbuild/obj/scene_22_init.rel      [ scene_22_init ]
/tmp/_gbsbuild/obj/scene_22_sprites.rel   [ scene_22_sprites ]
/tmp/_gbsbuild/obj/scene_22.rel           [ scene_22 ]
/tmp/_gbsbuild/obj/scene_23_collisions.rel
                                          [ scene_23_collisions ]
/tmp/_gbsbuild/obj/scene_23_init.rel      [ scene_23_init ]
/tmp/_gbsbuild/obj/scene_23.rel           [ scene_23 ]
/tmp/_gbsbuild/obj/scene_24_collisions.rel
                                          [ scene_24_collisions ]
/tmp/_gbsbuild/obj/scene_24_init.rel      [ scene_24_init ]
/tmp/_gbsbuild/obj/scene_24.rel           [ scene_24 ]
/tmp/_gbsbuild/obj/scene_25_collisions.rel
                                          [ scene_25_collisions ]
/tmp/_gbsbuild/obj/scene_25_init.rel      [ scene_25_init ]
/tmp/_gbsbuild/obj/scene_25.rel           [ scene_25 ]
/tmp/_gbsbuild/obj/scene_26_collisions.rel
                                          [ scene_26_collisions ]
/tmp/_gbsbuild/obj/scene_26_init.rel      [ scene_26_init ]
/tmp/_gbsbuild/obj/scene_26.rel           [ scene_26 ]
/tmp/_gbsbuild/obj/scene_27_collisions.rel
                                          [ scene_27_collisions ]
/tmp/_gbsbuild/obj/scene_27_init.rel      [ scene_27_init ]
/tmp/_gbsbuild/obj/scene_27_triggers.rel  [ scene_27_triggers ]
/tmp/_gbsbuild/obj/scene_27.rel           [ scene_27 ]
/tmp/_gbsbuild/obj/scene_28_collisions.rel
                                          [ scene_28_collisions ]
/tmp/_gbsbuild/obj/scene_28_init.rel      [ scene_28_init ]
/tmp/_gbsbuild/obj/scene_28_triggers.rel  [ scene_28_triggers ]
/tmp/_gbsbuild/obj/scene_28.rel           [ scene_28 ]
/tmp/_gbsbuild/obj/scene_29_collisions.rel
                                          [ scene_29_collisions ]
/tmp/_gbsbuild/obj/scene_29_init.rel      [ scene_29_init ]
/tmp/_gbsbuild/obj/scene_29_triggers.rel  [ scene_29_triggers ]
/tmp/_gbsbuild/obj/scene_29.rel           [ scene_29 ]
/tmp/_gbsbuild/obj/scene_3_actors.rel     [ scene_3_actors ]
/tmp/_gbsbuild/obj/scene_3_collisions.rel
                                          [ scene_3_collisions ]
/tmp/_gbsbuild/obj/scene_3_init.rel       [ scene_3_init ]
/tmp/_gbsbuild/obj/scene_3_sprites.rel    [ scene_3_sprites ]
/tmp/_gbsbuild/obj/scene_3.rel            [ scene_3 ]
/tmp/_gbsbuild/obj/scene_30_collisions.rel
                                          [ scene_30_collisions ]
/tmp/_gbsbuild/obj/scene_30_init.rel      [ scene_30_init ]
/tmp/_gbsbuild/obj/scene_30_triggers.rel  [ scene_30_triggers ]
/tmp/_gbsbuild/obj/scene_30.rel           [ scene_30 ]
/tmp/_gbsbuild/obj/scene_31_collisions.rel
                                          [ scene_31_collisions ]
/tmp/_gbsbuild/obj/scene_31_init.rel      [ scene_31_init ]
/tmp/_gbsbuild/obj/scene_31_triggers.rel  [ scene_31_triggers ]
/tmp/_gbsbuild/obj/scene_31.rel           [ scene_31 ]
/tmp/_gbsbuild/obj/scene_32_collisions.rel
                                          [ scene_32_collisions ]
/tmp/_gbsbuild/obj/scene_32_init.rel      [ scene_32_init ]
/tmp/_gbsbuild/obj/scene_32_triggers.rel  [ scene_32_triggers ]
/tmp/_gbsbuild/obj/scene_32.rel           [ scene_32 ]
/tmp/_gbsbuild/obj/scene_33_actors.rel    [ scene_33_actors ]
/tmp/_gbsbuild/obj/scene_33_collisions.rel
                                          [ scene_33_collisions ]
/tmp/_gbsbuild/obj/scene_33_init.rel      [ scene_33_init ]
/tmp/_gbsbuild/obj/scene_33_sprites.rel   [ scene_33_sprites ]
/tmp/_gbsbuild/obj/scene_33_triggers.rel  [ scene_33_triggers ]
/tmp/_gbsbuild/obj/scene_33.rel           [ scene_33 ]
/tmp/_gbsbuild/obj/scene_34_actors.rel    [ scene_34_actors ]
/tmp/_gbsbuild/obj/scene_34_collisions.rel
                                          [ scene_34_collisions ]
/tmp/_gbsbuild/obj/scene_34_init.rel      [ scene_34_init ]
/tmp/_gbsbuild/obj/scene_34_sprites.rel   [ scene_34_sprites ]
/tmp/_gbsbuild/obj/scene_34_triggers.rel  [ scene_34_triggers ]
/tmp/_gbsbuild/obj/scene_34.rel           [ scene_34 ]
/tmp/_gbsbuild/obj/scene_35_collisions.rel
                                          [ scene_35_collisions ]
/tmp/_gbsbuild/obj/scene_35_init.rel      [ scene_35_init ]
/tmp/_gbsbuild/obj/scene_35_triggers.rel  [ scene_35_triggers ]
/tmp/_gbsbuild/obj/scene_35.rel           [ scene_35 ]
/tmp/_gbsbuild/obj/scene_37_actors.rel    [ scene_37_actors ]
/tmp/_gbsbuild/obj/scene_37_collisions.rel
                                          [ scene_37_collisions ]
/tmp/_gbsbuild/obj/scene_37_init.rel      [ scene_37_init ]
/tmp/_gbsbuild/obj/scene_37_sprites.rel   [ scene_37_sprites ]
/tmp/_gbsbuild/obj/scene_37.rel           [ scene_37 ]
/tmp/_gbsbuild/obj/scene_38_collisions.rel
                                          [ scene_38_collisions ]
/tmp/_gbsbuild/obj/scene_38_init.rel      [ scene_38_init ]
/tmp/_gbsbuild/obj/scene_38.rel           [ scene_38 ]
/tmp/_gbsbuild/obj/scene_39_actors.rel    [ scene_39_actors ]
/tmp/_gbsbuild/obj/scene_39_collisions.rel
                                          [ scene_39_collisions ]
/tmp/_gbsbuild/obj/scene_39_init.rel      [ scene_39_init ]
/tmp/_gbsbuild/obj/scene_39_sprites.rel   [ scene_39_sprites ]
/tmp/_gbsbuild/obj/scene_39.rel           [ scene_39 ]
/tmp/_gbsbuild/obj/scene_4_collisions.rel
                                          [ scene_4_collisions ]
/tmp/_gbsbuild/obj/scene_4_init.rel       [ scene_4_init ]
/tmp/_gbsbuild/obj/scene_4.rel            [ scene_4 ]
/tmp/_gbsbuild/obj/scene_40_collisions.rel
                                          [ scene_40_collisions ]
/tmp/_gbsbuild/obj/scene_40_init.rel      [ scene_40_init ]
/tmp/_gbsbuild/obj/scene_40_triggers.rel  [ scene_40_triggers ]
/tmp/_gbsbuild/obj/scene_40.rel           [ scene_40 ]
/tmp/_gbsbuild/obj/scene_41_collisions.rel
                                          [ scene_41_collisions ]
/tmp/_gbsbuild/obj/scene_41_init.rel      [ scene_41_init ]
/tmp/_gbsbuild/obj/scene_41_triggers.rel  [ scene_41_triggers ]
/tmp/_gbsbuild/obj/scene_41.rel           [ scene_41 ]
/tmp/_gbsbuild/obj/scene_42_collisions.rel
                                          [ scene_42_collisions ]
/tmp/_gbsbuild/obj/scene_42_init.rel      [ scene_42_init ]
/tmp/_gbsbuild/obj/scene_42_triggers.rel  [ scene_42_triggers ]
/tmp/_gbsbuild/obj/scene_42.rel           [ scene_42 ]
/tmp/_gbsbuild/obj/scene_43_collisions.rel
                                          [ scene_43_collisions ]
/tmp/_gbsbuild/obj/scene_43_init.rel      [ scene_43_init ]
/tmp/_gbsbuild/obj/scene_43_triggers.rel  [ scene_43_triggers ]
/tmp/_gbsbuild/obj/scene_43.rel           [ scene_43 ]
/tmp/_gbsbuild/obj/scene_44_collisions.rel
                                          [ scene_44_collisions ]
/tmp/_gbsbuild/obj/scene_44_init.rel      [ scene_44_init ]
/tmp/_gbsbuild/obj/scene_44_triggers.rel  [ scene_44_triggers ]
/tmp/_gbsbuild/obj/scene_44.rel           [ scene_44 ]
/tmp/_gbsbuild/obj/scene_45_actors.rel    [ scene_45_actors ]
/tmp/_gbsbuild/obj/scene_45_collisions.rel
                                          [ scene_45_collisions ]
/tmp/_gbsbuild/obj/scene_45_init.rel      [ scene_45_init ]
/tmp/_gbsbuild/obj/scene_45_sprites.rel   [ scene_45_sprites ]
/tmp/_gbsbuild/obj/scene_45_triggers.rel  [ scene_45_triggers ]
/tmp/_gbsbuild/obj/scene_45.rel           [ scene_45 ]
/tmp/_gbsbuild/obj/scene_46_actors.rel    [ scene_46_actors ]
/tmp/_gbsbuild/obj/scene_46_collisions.rel
                                          [ scene_46_collisions ]
/tmp/_gbsbuild/obj/scene_46_init.rel      [ scene_46_init ]
/tmp/_gbsbuild/obj/scene_46_p_hit1.rel    [ scene_46_p_hit1 ]
/tmp/_gbsbuild/obj/scene_46_projectiles.rel
                                          [ scene_46_projectiles ]
/tmp/_gbsbuild/obj/scene_46_sprites.rel   [ scene_46_sprites ]
/tmp/_gbsbuild/obj/scene_46_triggers.rel  [ scene_46_triggers ]
/tmp/_gbsbuild/obj/scene_46.rel           [ scene_46 ]
/tmp/_gbsbuild/obj/scene_47_collisions.rel
                                          [ scene_47_collisions ]
/tmp/_gbsbuild/obj/scene_47_init.rel      [ scene_47_init ]
/tmp/_gbsbuild/obj/scene_47.rel           [ scene_47 ]
/tmp/_gbsbuild/obj/scene_48_actors.rel    [ scene_48_actors ]
/tmp/_gbsbuild/obj/scene_48_collisions.rel
                                          [ scene_48_collisions ]
/tmp/_gbsbuild/obj/scene_48_init.rel      [ scene_48_init ]
/tmp/_gbsbuild/obj/scene_48_p_hit1.rel    [ scene_48_p_hit1 ]
/tmp/_gbsbuild/obj/scene_48_projectiles.rel
                                          [ scene_48_projectiles ]
/tmp/_gbsbuild/obj/scene_48_sprites.rel   [ scene_48_sprites ]
/tmp/_gbsbuild/obj/scene_48_triggers.rel  [ scene_48_triggers ]
/tmp/_gbsbuild/obj/scene_48.rel           [ scene_48 ]
/tmp/_gbsbuild/obj/scene_49_actors.rel    [ scene_49_actors ]
/tmp/_gbsbuild/obj/scene_49_collisions.rel
                                          [ scene_49_collisions ]
/tmp/_gbsbuild/obj/scene_49_init.rel      [ scene_49_init ]
/tmp/_gbsbuild/obj/scene_49_p_hit1.rel    [ scene_49_p_hit1 ]
/tmp/_gbsbuild/obj/scene_49_projectiles.rel
                                          [ scene_49_projectiles ]
/tmp/_gbsbuild/obj/scene_49_sprites.rel   [ scene_49_sprites ]
/tmp/_gbsbuild/obj/scene_49_triggers.rel  [ scene_49_triggers ]
/tmp/_gbsbuild/obj/scene_49.rel           [ scene_49 ]
/tmp/_gbsbuild/obj/scene_5_collisions.rel
                                          [ scene_5_collisions ]
/tmp/_gbsbuild/obj/scene_5_init.rel       [ scene_5_init ]
/tmp/_gbsbuild/obj/scene_5.rel            [ scene_5 ]
/tmp/_gbsbuild/obj/scene_50_actors.rel    [ scene_50_actors ]
/tmp/_gbsbuild/obj/scene_50_collisions.rel
                                          [ scene_50_collisions ]
/tmp/_gbsbuild/obj/scene_50_init.rel      [ scene_50_init ]
/tmp/_gbsbuild/obj/scene_50_projectiles.rel
                                          [ scene_50_projectiles ]
/tmp/_gbsbuild/obj/scene_50_sprites.rel   [ scene_50_sprites ]
/tmp/_gbsbuild/obj/scene_50_triggers.rel  [ scene_50_triggers ]
/tmp/_gbsbuild/obj/scene_50.rel           [ scene_50 ]
/tmp/_gbsbuild/obj/scene_51_actors.rel    [ scene_51_actors ]
/tmp/_gbsbuild/obj/scene_51_collisions.rel
                                          [ scene_51_collisions ]
/tmp/_gbsbuild/obj/scene_51_init.rel      [ scene_51_init ]
/tmp/_gbsbuild/obj/scene_51_sprites.rel   [ scene_51_sprites ]
/tmp/_gbsbuild/obj/scene_51_triggers.rel  [ scene_51_triggers ]
/tmp/_gbsbuild/obj/scene_51.rel           [ scene_51 ]
/tmp/_gbsbuild/obj/scene_52_actors.rel    [ scene_52_actors ]
/tmp/_gbsbuild/obj/scene_52_collisions.rel
                                          [ scene_52_collisions ]
/tmp/_gbsbuild/obj/scene_52_init.rel      [ scene_52_init ]
/tmp/_gbsbuild/obj/scene_52_sprites.rel   [ scene_52_sprites ]
/tmp/_gbsbuild/obj/scene_52.rel           [ scene_52 ]
/tmp/_gbsbuild/obj/scene_53_actors.rel    [ scene_53_actors ]
/tmp/_gbsbuild/obj/scene_53_collisions.rel
                                          [ scene_53_collisions ]
/tmp/_gbsbuild/obj/scene_53_init.rel      [ scene_53_init ]
/tmp/_gbsbuild/obj/scene_53_sprites.rel   [ scene_53_sprites ]
/tmp/_gbsbuild/obj/scene_53_triggers.rel  [ scene_53_triggers ]
/tmp/_gbsbuild/obj/scene_53.rel           [ scene_53 ]
/tmp/_gbsbuild/obj/scene_54_actors.rel    [ scene_54_actors ]
/tmp/_gbsbuild/obj/scene_54_collisions.rel
                                          [ scene_54_collisions ]
/tmp/_gbsbuild/obj/scene_54_init.rel      [ scene_54_init ]
/tmp/_gbsbuild/obj/scene_54_sprites.rel   [ scene_54_sprites ]
/tmp/_gbsbuild/obj/scene_54_triggers.rel  [ scene_54_triggers ]
/tmp/_gbsbuild/obj/scene_54.rel           [ scene_54 ]
/tmp/_gbsbuild/obj/scene_55_collisions.rel
                                          [ scene_55_collisions ]
/tmp/_gbsbuild/obj/scene_55_init.rel      [ scene_55_init ]
/tmp/_gbsbuild/obj/scene_55_triggers.rel  [ scene_55_triggers ]
/tmp/_gbsbuild/obj/scene_55.rel           [ scene_55 ]
/tmp/_gbsbuild/obj/scene_56_collisions.rel
                                          [ scene_56_collisions ]
/tmp/_gbsbuild/obj/scene_56_init.rel      [ scene_56_init ]
/tmp/_gbsbuild/obj/scene_56_triggers.rel  [ scene_56_triggers ]
/tmp/_gbsbuild/obj/scene_56.rel           [ scene_56 ]
/tmp/_gbsbuild/obj/scene_57_collisions.rel
                                          [ scene_57_collisions ]
/tmp/_gbsbuild/obj/scene_57_init.rel      [ scene_57_init ]
/tmp/_gbsbuild/obj/scene_57_triggers.rel  [ scene_57_triggers ]
/tmp/_gbsbuild/obj/scene_57.rel           [ scene_57 ]
/tmp/_gbsbuild/obj/scene_58_actors.rel    [ scene_58_actors ]
/tmp/_gbsbuild/obj/scene_58_collisions.rel
                                          [ scene_58_collisions ]
/tmp/_gbsbuild/obj/scene_58_init.rel      [ scene_58_init ]
/tmp/_gbsbuild/obj/scene_58_sprites.rel   [ scene_58_sprites ]
/tmp/_gbsbuild/obj/scene_58_triggers.rel  [ scene_58_triggers ]
/tmp/_gbsbuild/obj/scene_58.rel           [ scene_58 ]
/tmp/_gbsbuild/obj/scene_59_collisions.rel
                                          [ scene_59_collisions ]
/tmp/_gbsbuild/obj/scene_59_init.rel      [ scene_59_init ]
/tmp/_gbsbuild/obj/scene_59_triggers.rel  [ scene_59_triggers ]
/tmp/_gbsbuild/obj/scene_59.rel           [ scene_59 ]
/tmp/_gbsbuild/obj/scene_6_collisions.rel
                                          [ scene_6_collisions ]
/tmp/_gbsbuild/obj/scene_6_init.rel       [ scene_6_init ]
/tmp/_gbsbuild/obj/scene_6.rel            [ scene_6 ]
/tmp/_gbsbuild/obj/scene_60_actors.rel    [ scene_60_actors ]
/tmp/_gbsbuild/obj/scene_60_collisions.rel
                                          [ scene_60_collisions ]
/tmp/_gbsbuild/obj/scene_60_init.rel      [ scene_60_init ]
/tmp/_gbsbuild/obj/scene_60_sprites.rel   [ scene_60_sprites ]
/tmp/_gbsbuild/obj/scene_60_triggers.rel  [ scene_60_triggers ]
/tmp/_gbsbuild/obj/scene_60.rel           [ scene_60 ]
/tmp/_gbsbuild/obj/scene_61_actors.rel    [ scene_61_actors ]
/tmp/_gbsbuild/obj/scene_61_collisions.rel
                                          [ scene_61_collisions ]
/tmp/_gbsbuild/obj/scene_61_init.rel      [ scene_61_init ]
/tmp/_gbsbuild/obj/scene_61_sprites.rel   [ scene_61_sprites ]
/tmp/_gbsbuild/obj/scene_61_triggers.rel  [ scene_61_triggers ]
/tmp/_gbsbuild/obj/scene_61.rel           [ scene_61 ]
/tmp/_gbsbuild/obj/scene_62_collisions.rel
                                          [ scene_62_collisions ]
/tmp/_gbsbuild/obj/scene_62_init.rel      [ scene_62_init ]
/tmp/_gbsbuild/obj/scene_62_triggers.rel  [ scene_62_triggers ]
/tmp/_gbsbuild/obj/scene_62.rel           [ scene_62 ]
/tmp/_gbsbuild/obj/scene_63_collisions.rel
                                          [ scene_63_collisions ]
/tmp/_gbsbuild/obj/scene_63_init.rel      [ scene_63_init ]
/tmp/_gbsbuild/obj/scene_63_triggers.rel  [ scene_63_triggers ]
/tmp/_gbsbuild/obj/scene_63.rel           [ scene_63 ]
/tmp/_gbsbuild/obj/scene_64_actors.rel    [ scene_64_actors ]
/tmp/_gbsbuild/obj/scene_64_collisions.rel
                                          [ scene_64_collisions ]
/tmp/_gbsbuild/obj/scene_64_init.rel      [ scene_64_init ]
/tmp/_gbsbuild/obj/scene_64_sprites.rel   [ scene_64_sprites ]
/tmp/_gbsbuild/obj/scene_64_triggers.rel  [ scene_64_triggers ]
/tmp/_gbsbuild/obj/scene_64.rel           [ scene_64 ]
/tmp/_gbsbuild/obj/scene_65_collisions.rel
                                          [ scene_65_collisions ]
/tmp/_gbsbuild/obj/scene_65_init.rel      [ scene_65_init ]
/tmp/_gbsbuild/obj/scene_65_triggers.rel  [ scene_65_triggers ]
/tmp/_gbsbuild/obj/scene_65.rel           [ scene_65 ]
/tmp/_gbsbuild/obj/scene_66_collisions.rel
                                          [ scene_66_collisions ]
/tmp/_gbsbuild/obj/scene_66_init.rel      [ scene_66_init ]
/tmp/_gbsbuild/obj/scene_66_triggers.rel  [ scene_66_triggers ]
/tmp/_gbsbuild/obj/scene_66.rel           [ scene_66 ]
/tmp/_gbsbuild/obj/scene_67_collisions.rel
                                          [ scene_67_collisions ]
/tmp/_gbsbuild/obj/scene_67_init.rel      [ scene_67_init ]
/tmp/_gbsbuild/obj/scene_67_triggers.rel  [ scene_67_triggers ]
/tmp/_gbsbuild/obj/scene_67.rel           [ scene_67 ]
/tmp/_gbsbuild/obj/scene_68_collisions.rel
                                          [ scene_68_collisions ]
/tmp/_gbsbuild/obj/scene_68_init.rel      [ scene_68_init ]
/tmp/_gbsbuild/obj/scene_68_triggers.rel  [ scene_68_triggers ]
/tmp/_gbsbuild/obj/scene_68.rel           [ scene_68 ]
/tmp/_gbsbuild/obj/scene_69_collisions.rel
                                          [ scene_69_collisions ]
/tmp/_gbsbuild/obj/scene_69_init.rel      [ scene_69_init ]
/tmp/_gbsbuild/obj/scene_69.rel           [ scene_69 ]
/tmp/_gbsbuild/obj/scene_7_collisions.rel
                                          [ scene_7_collisions ]
/tmp/_gbsbuild/obj/scene_7_init.rel       [ scene_7_init ]
/tmp/_gbsbuild/obj/scene_7.rel            [ scene_7 ]
/tmp/_gbsbuild/obj/scene_70_collisions.rel
                                          [ scene_70_collisions ]
/tmp/_gbsbuild/obj/scene_70_init.rel      [ scene_70_init ]
/tmp/_gbsbuild/obj/scene_70_triggers.rel  [ scene_70_triggers ]
/tmp/_gbsbuild/obj/scene_70.rel           [ scene_70 ]
/tmp/_gbsbuild/obj/scene_71_actors.rel    [ scene_71_actors ]
/tmp/_gbsbuild/obj/scene_71_collisions.rel
                                          [ scene_71_collisions ]
/tmp/_gbsbuild/obj/scene_71_init.rel      [ scene_71_init ]
/tmp/_gbsbuild/obj/scene_71_sprites.rel   [ scene_71_sprites ]
/tmp/_gbsbuild/obj/scene_71_triggers.rel  [ scene_71_triggers ]
/tmp/_gbsbuild/obj/scene_71.rel           [ scene_71 ]
/tmp/_gbsbuild/obj/scene_72_collisions.rel
                                          [ scene_72_collisions ]
/tmp/_gbsbuild/obj/scene_72_init.rel      [ scene_72_init ]
/tmp/_gbsbuild/obj/scene_72_triggers.rel  [ scene_72_triggers ]
/tmp/_gbsbuild/obj/scene_72.rel           [ scene_72 ]
/tmp/_gbsbuild/obj/scene_73_actors.rel    [ scene_73_actors ]
/tmp/_gbsbuild/obj/scene_73_collisions.rel
                                          [ scene_73_collisions ]
/tmp/_gbsbuild/obj/scene_73_init.rel      [ scene_73_init ]
/tmp/_gbsbuild/obj/scene_73_sprites.rel   [ scene_73_sprites ]
/tmp/_gbsbuild/obj/scene_73.rel           [ scene_73 ]
/tmp/_gbsbuild/obj/scene_74_collisions.rel
                                          [ scene_74_collisions ]
/tmp/_gbsbuild/obj/scene_74_init.rel      [ scene_74_init ]
/tmp/_gbsbuild/obj/scene_74.rel           [ scene_74 ]
/tmp/_gbsbuild/obj/scene_75_collisions.rel
                                          [ scene_75_collisions ]
/tmp/_gbsbuild/obj/scene_75_init.rel      [ scene_75_init ]
/tmp/_gbsbuild/obj/scene_75_triggers.rel  [ scene_75_triggers ]
/tmp/_gbsbuild/obj/scene_75.rel           [ scene_75 ]
/tmp/_gbsbuild/obj/scene_76_actors.rel    [ scene_76_actors ]
/tmp/_gbsbuild/obj/scene_76_collisions.rel
                                          [ scene_76_collisions ]
/tmp/_gbsbuild/obj/scene_76_init.rel      [ scene_76_init ]
/tmp/_gbsbuild/obj/scene_76_sprites.rel   [ scene_76_sprites ]
/tmp/_gbsbuild/obj/scene_76_triggers.rel  [ scene_76_triggers ]
/tmp/_gbsbuild/obj/scene_76.rel           [ scene_76 ]
/tmp/_gbsbuild/obj/scene_77_collisions.rel
                                          [ scene_77_collisions ]
/tmp/_gbsbuild/obj/scene_77_init.rel      [ scene_77_init ]
/tmp/_gbsbuild/obj/scene_77_triggers.rel  [ scene_77_triggers ]
/tmp/_gbsbuild/obj/scene_77.rel           [ scene_77 ]
/tmp/_gbsbuild/obj/scene_78_collisions.rel
                                          [ scene_78_collisions ]
/tmp/_gbsbuild/obj/scene_78_init.rel      [ scene_78_init ]
/tmp/_gbsbuild/obj/scene_78_triggers.rel  [ scene_78_triggers ]
/tmp/_gbsbuild/obj/scene_78.rel           [ scene_78 ]
/tmp/_gbsbuild/obj/scene_79_collisions.rel
                                          [ scene_79_collisions ]
/tmp/_gbsbuild/obj/scene_79_init.rel      [ scene_79_init ]
/tmp/_gbsbuild/obj/scene_79_triggers.rel  [ scene_79_triggers ]
/tmp/_gbsbuild/obj/scene_79.rel           [ scene_79 ]
/tmp/_gbsbuild/obj/scene_8_collisions.rel
                                          [ scene_8_collisions ]
/tmp/_gbsbuild/obj/scene_8_init.rel       [ scene_8_init ]
/tmp/_gbsbuild/obj/scene_8.rel            [ scene_8 ]
/tmp/_gbsbuild/obj/scene_80_collisions.rel
                                          [ scene_80_collisions ]
/tmp/_gbsbuild/obj/scene_80_init.rel      [ scene_80_init ]
/tmp/_gbsbuild/obj/scene_80_triggers.rel  [ scene_80_triggers ]
/tmp/_gbsbuild/obj/scene_80.rel           [ scene_80 ]
/tmp/_gbsbuild/obj/scene_81_collisions.rel
                                          [ scene_81_collisions ]
/tmp/_gbsbuild/obj/scene_81_init.rel      [ scene_81_init ]
/tmp/_gbsbuild/obj/scene_81_triggers.rel  [ scene_81_triggers ]
/tmp/_gbsbuild/obj/scene_81.rel           [ scene_81 ]
/tmp/_gbsbuild/obj/scene_82_collisions.rel
                                          [ scene_82_collisions ]
/tmp/_gbsbuild/obj/scene_82_init.rel      [ scene_82_init ]
/tmp/_gbsbuild/obj/scene_82_triggers.rel  [ scene_82_triggers ]
/tmp/_gbsbuild/obj/scene_82.rel           [ scene_82 ]
/tmp/_gbsbuild/obj/scene_83_collisions.rel
                                          [ scene_83_collisions ]
/tmp/_gbsbuild/obj/scene_83_init.rel      [ scene_83_init ]
/tmp/_gbsbuild/obj/scene_83_triggers.rel  [ scene_83_triggers ]
/tmp/_gbsbuild/obj/scene_83.rel           [ scene_83 ]
/tmp/_gbsbuild/obj/scene_84_collisions.rel
                                          [ scene_84_collisions ]
/tmp/_gbsbuild/obj/scene_84_init.rel      [ scene_84_init ]
/tmp/_gbsbuild/obj/scene_84_triggers.rel  [ scene_84_triggers ]
/tmp/_gbsbuild/obj/scene_84.rel           [ scene_84 ]
/tmp/_gbsbuild/obj/scene_85_collisions.rel
                                          [ scene_85_collisions ]
/tmp/_gbsbuild/obj/scene_85_init.rel      [ scene_85_init ]
/tmp/_gbsbuild/obj/scene_85.rel           [ scene_85 ]
/tmp/_gbsbuild/obj/scene_86_actors.rel    [ scene_86_actors ]
/tmp/_gbsbuild/obj/scene_86_collisions.rel
                                          [ scene_86_collisions ]
/tmp/_gbsbuild/obj/scene_86_init.rel      [ scene_86_init ]
/tmp/_gbsbuild/obj/scene_86_sprites.rel   [ scene_86_sprites ]
/tmp/_gbsbuild/obj/scene_86_triggers.rel  [ scene_86_triggers ]
/tmp/_gbsbuild/obj/scene_86.rel           [ scene_86 ]
/tmp/_gbsbuild/obj/scene_87_collisions.rel
                                          [ scene_87_collisions ]
/tmp/_gbsbuild/obj/scene_87_init.rel      [ scene_87_init ]
/tmp/_gbsbuild/obj/scene_87.rel           [ scene_87 ]
/tmp/_gbsbuild/obj/scene_88_collisions.rel
                                          [ scene_88_collisions ]
/tmp/_gbsbuild/obj/scene_88_init.rel      [ scene_88_init ]
/tmp/_gbsbuild/obj/scene_88_triggers.rel  [ scene_88_triggers ]
/tmp/_gbsbuild/obj/scene_88.rel           [ scene_88 ]
/tmp/_gbsbuild/obj/scene_89_collisions.rel
                                          [ scene_89_collisions ]
/tmp/_gbsbuild/obj/scene_89_init.rel      [ scene_89_init ]
/tmp/_gbsbuild/obj/scene_89_triggers.rel  [ scene_89_triggers ]
/tmp/_gbsbuild/obj/scene_89.rel           [ scene_89 ]
/tmp/_gbsbuild/obj/scene_9_collisions.rel
                                          [ scene_9_collisions ]
/tmp/_gbsbuild/obj/scene_9_init.rel       [ scene_9_init ]
/tmp/_gbsbuild/obj/scene_9.rel            [ scene_9 ]
/tmp/_gbsbuild/obj/scene_90_actors.rel    [ scene_90_actors ]
/tmp/_gbsbuild/obj/scene_90_collisions.rel
                                          [ scene_90_collisions ]
/tmp/_gbsbuild/obj/scene_90_init.rel      [ scene_90_init ]
/tmp/_gbsbuild/obj/scene_90_sprites.rel   [ scene_90_sprites ]
/tmp/_gbsbuild/obj/scene_90_triggers.rel  [ scene_90_triggers ]
/tmp/_gbsbuild/obj/scene_90.rel           [ scene_90 ]
/tmp/_gbsbuild/obj/scene_91_actors.rel    [ scene_91_actors ]
/tmp/_gbsbuild/obj/scene_91_collisions.rel
                                          [ scene_91_collisions ]
/tmp/_gbsbuild/obj/scene_91_init.rel      [ scene_91_init ]
/tmp/_gbsbuild/obj/scene_91_sprites.rel   [ scene_91_sprites ]
/tmp/_gbsbuild/obj/scene_91_triggers.rel  [ scene_91_triggers ]
/tmp/_gbsbuild/obj/scene_91.rel           [ scene_91 ]
/tmp/_gbsbuild/obj/scene_92_actors.rel    [ scene_92_actors ]
/tmp/_gbsbuild/obj/scene_92_collisions.rel
                                          [ scene_92_collisions ]
/tmp/_gbsbuild/obj/scene_92_init.rel      [ scene_92_init ]
/tmp/_gbsbuild/obj/scene_92_sprites.rel   [ scene_92_sprites ]
/tmp/_gbsbuild/obj/scene_92.rel           [ scene_92 ]
/tmp/_gbsbuild/obj/scene_93_actors.rel    [ scene_93_actors ]
/tmp/_gbsbuild/obj/scene_93_collisions.rel
                                          [ scene_93_collisions ]
/tmp/_gbsbuild/obj/scene_93_init.rel      [ scene_93_init ]
/tmp/_gbsbuild/obj/scene_93_p_hit1.rel    [ scene_93_p_hit1 ]
/tmp/_gbsbuild/obj/scene_93_projectiles.rel
                                          [ scene_93_projectiles ]
/tmp/_gbsbuild/obj/scene_93_sprites.rel   [ scene_93_sprites ]
/tmp/_gbsbuild/obj/scene_93_triggers.rel  [ scene_93_triggers ]
/tmp/_gbsbuild/obj/scene_93.rel           [ scene_93 ]
/tmp/_gbsbuild/obj/scene_94_actors.rel    [ scene_94_actors ]
/tmp/_gbsbuild/obj/scene_94_collisions.rel
                                          [ scene_94_collisions ]
/tmp/_gbsbuild/obj/scene_94_init.rel      [ scene_94_init ]
/tmp/_gbsbuild/obj/scene_94_p_hit1.rel    [ scene_94_p_hit1 ]
/tmp/_gbsbuild/obj/scene_94_projectiles.rel
                                          [ scene_94_projectiles ]
/tmp/_gbsbuild/obj/scene_94_sprites.rel   [ scene_94_sprites ]
/tmp/_gbsbuild/obj/scene_94.rel           [ scene_94 ]
/tmp/_gbsbuild/obj/scene_95_collisions.rel
                                          [ scene_95_collisions ]
/tmp/_gbsbuild/obj/scene_95_init.rel      [ scene_95_init ]
/tmp/_gbsbuild/obj/scene_95.rel           [ scene_95 ]
/tmp/_gbsbuild/obj/scene_96_collisions.rel
                                          [ scene_96_collisions ]
/tmp/_gbsbuild/obj/scene_96_init.rel      [ scene_96_init ]
/tmp/_gbsbuild/obj/scene_96.rel           [ scene_96 ]
/tmp/_gbsbuild/obj/scene_97_collisions.rel
                                          [ scene_97_collisions ]
/tmp/_gbsbuild/obj/scene_97_init.rel      [ scene_97_init ]
/tmp/_gbsbuild/obj/scene_97.rel           [ scene_97 ]
/tmp/_gbsbuild/obj/scene_98_collisions.rel
                                          [ scene_98_collisions ]
/tmp/_gbsbuild/obj/scene_98_init.rel      [ scene_98_init ]
/tmp/_gbsbuild/obj/scene_98.rel           [ scene_98 ]
/tmp/_gbsbuild/obj/scene_99_actors.rel    [ scene_99_actors ]
/tmp/_gbsbuild/obj/scene_99_collisions.rel
                                          [ scene_99_collisions ]
/tmp/_gbsbuild/obj/scene_99_init.rel      [ scene_99_init ]
/tmp/_gbsbuild/obj/scene_99_sprites.rel   [ scene_99_sprites ]
/tmp/_gbsbuild/obj/scene_99.rel           [ scene_99 ]
/tmp/_gbsbuild/obj/script_engine_init.rel
                                          [  ]
/tmp/_gbsbuild/obj/script_input_0.rel     [ script_input_0 ]
/tmp/_gbsbuild/obj/script_input_1.rel     [ script_input_1 ]
/tmp/_gbsbuild/obj/script_input_10.rel    [ script_input_10 ]
/tmp/_gbsbuild/obj/script_input_11.rel    [ script_input_11 ]
/tmp/_gbsbuild/obj/script_input_12.rel    [ script_input_12 ]
/tmp/_gbsbuild/obj/script_input_13.rel    [ script_input_13 ]
/tmp/_gbsbuild/obj/script_input_14.rel    [ script_input_14 ]
/tmp/_gbsbuild/obj/script_input_2.rel     [ script_input_2 ]
/tmp/_gbsbuild/obj/script_input_3.rel     [ script_input_3 ]
/tmp/_gbsbuild/obj/script_input_4.rel     [ script_input_4 ]
/tmp/_gbsbuild/obj/script_input_5.rel     [ script_input_5 ]
/tmp/_gbsbuild/obj/script_input_6.rel     [ script_input_6 ]
/tmp/_gbsbuild/obj/script_input_7.rel     [ script_input_7 ]
/tmp/_gbsbuild/obj/script_input_8.rel     [ script_input_8 ]
/tmp/_gbsbuild/obj/script_input_9.rel     [ script_input_9 ]
/tmp/_gbsbuild/obj/script_timer_0.rel     [ script_timer_0 ]
/tmp/_gbsbuild/obj/script_timer_1.rel     [ script_timer_1 ]
/tmp/_gbsbuild/obj/script_timer_10.rel    [ script_timer_10 ]
/tmp/_gbsbuild/obj/script_timer_11.rel    [ script_timer_11 ]
/tmp/_gbsbuild/obj/script_timer_12.rel    [ script_timer_12 ]
/tmp/_gbsbuild/obj/script_timer_13.rel    [ script_timer_13 ]
/tmp/_gbsbuild/obj/script_timer_2.rel     [ script_timer_2 ]
/tmp/_gbsbuild/obj/script_timer_3.rel     [ script_timer_3 ]
/tmp/_gbsbuild/obj/script_timer_4.rel     [ script_timer_4 ]
/tmp/_gbsbuild/obj/script_timer_5.rel     [ script_timer_5 ]
/tmp/_gbsbuild/obj/script_timer_6.rel     [ script_timer_6 ]
/tmp/_gbsbuild/obj/script_timer_7.rel     [ script_timer_7 ]
/tmp/_gbsbuild/obj/script_timer_8.rel     [ script_timer_8 ]
/tmp/_gbsbuild/obj/script_timer_9.rel     [ script_timer_9 ]
/tmp/_gbsbuild/obj/sprite_blank_interactable_c_0_tileset.rel
                                          [ sprite_blank_interactable_c_0_ti ]
/tmp/_gbsbuild/obj/sprite_blank_interactable_c_0.rel
                                          [ sprite_blank_interactable_c_0 ]
/tmp/_gbsbuild/obj/sprite_blank_interactable_c_tileset.rel
                                          [ sprite_blank_interactable_c_tile ]
/tmp/_gbsbuild/obj/sprite_blank_interactable_c.rel
                                          [ sprite_blank_interactable_c ]
/tmp/_gbsbuild/obj/sprite_car_tileset.rel
                                          [ sprite_car_tileset ]
/tmp/_gbsbuild/obj/sprite_car.rel         [ sprite_car ]
/tmp/_gbsbuild/obj/sprite_cataa_tileset.rel
                                          [ sprite_cataa_tileset ]
/tmp/_gbsbuild/obj/sprite_cataa.rel       [ sprite_cataa ]
/tmp/_gbsbuild/obj/sprite_dhilly_5_level_copy__tileset.rel
                                          [ sprite_dhilly_5_level_copy__tile ]
/tmp/_gbsbuild/obj/sprite_dhilly_5_level_copy_.rel
                                          [ sprite_dhilly_5_level_copy_ ]
/tmp/_gbsbuild/obj/sprite_dhilly_bridge_intera_0_tileset.rel
                                          [ sprite_dhilly_bridge_intera_0_ti ]
/tmp/_gbsbuild/obj/sprite_dhilly_bridge_intera_0.rel
                                          [ sprite_dhilly_bridge_intera_0 ]
/tmp/_gbsbuild/obj/sprite_dhilly_bridge_intera_tileset.rel
                                          [ sprite_dhilly_bridge_intera_tile ]
/tmp/_gbsbuild/obj/sprite_dhilly_bridge_intera.rel
                                          [ sprite_dhilly_bridge_intera ]
/tmp/_gbsbuild/obj/sprite_dhilly_saveselect_co_0_tileset.rel
                                          [ sprite_dhilly_saveselect_co_0_ti ]
/tmp/_gbsbuild/obj/sprite_dhilly_saveselect_co_0.rel
                                          [ sprite_dhilly_saveselect_co_0 ]
/tmp/_gbsbuild/obj/sprite_dhilly_saveselect_co_1_tileset.rel
                                          [ sprite_dhilly_saveselect_co_1_ti ]
/tmp/_gbsbuild/obj/sprite_dhilly_saveselect_co_1.rel
                                          [ sprite_dhilly_saveselect_co_1 ]
/tmp/_gbsbuild/obj/sprite_dhilly_saveselect_co_tileset.rel
                                          [ sprite_dhilly_saveselect_co_tile ]
/tmp/_gbsbuild/obj/sprite_dhilly_saveselect_co.rel
                                          [ sprite_dhilly_saveselect_co ]
/tmp/_gbsbuild/obj/sprite_dhilly_saveselect_tileset.rel
                                          [ sprite_dhilly_saveselect_tileset ]
/tmp/_gbsbuild/obj/sprite_dhilly_saveselect.rel
                                          [ sprite_dhilly_saveselect ]
/tmp/_gbsbuild/obj/sprite_highlight_options_co_tileset.rel
                                          [ sprite_highlight_options_co_tile ]
/tmp/_gbsbuild/obj/sprite_highlight_options_co.rel
                                          [ sprite_highlight_options_co ]
/tmp/_gbsbuild/obj/sprite_iceos_cursor_copy_.rel
                                          [ sprite_iceos_cursor_copy_ ]
/tmp/_gbsbuild/obj/sprite_iceosapp_ctf_copy_0_tileset.rel
                                          [ sprite_iceosapp_ctf_copy_0_tiles ]
/tmp/_gbsbuild/obj/sprite_iceosapp_ctf_copy_0.rel
                                          [ sprite_iceosapp_ctf_copy_0 ]
/tmp/_gbsbuild/obj/sprite_iceosapp_pltfrmr_cop_tileset.rel
                                          [ sprite_iceosapp_pltfrmr_cop_tile ]
/tmp/_gbsbuild/obj/sprite_iceosapp_pltfrmr_cop.rel
                                          [ sprite_iceosapp_pltfrmr_cop ]
/tmp/_gbsbuild/obj/sprite_iceosapp_settings_co_tileset.rel
                                          [ sprite_iceosapp_settings_co_tile ]
/tmp/_gbsbuild/obj/sprite_iceosapp_settings_co.rel
                                          [ sprite_iceosapp_settings_co ]
/tmp/_gbsbuild/obj/sprite_iceosapp_wveruner_co_tileset.rel
                                          [ sprite_iceosapp_wveruner_co_tile ]
/tmp/_gbsbuild/obj/sprite_iceosapp_wveruner_co.rel
                                          [ sprite_iceosapp_wveruner_co ]
/tmp/_gbsbuild/obj/sprite_knife_down_copy__tileset.rel
                                          [ sprite_knife_down_copy__tileset ]
/tmp/_gbsbuild/obj/sprite_knife_down_copy_.rel
                                          [ sprite_knife_down_copy_ ]
/tmp/_gbsbuild/obj/sprite_len_city_dhilly_hous.rel
                                          [ sprite_len_city_dhilly_hous ]
/tmp/_gbsbuild/obj/sprite_mzdesigns_tileset.rel
                                          [ sprite_mzdesigns_tileset ]
/tmp/_gbsbuild/obj/sprite_mzdesigns.rel   [ sprite_mzdesigns ]
/tmp/_gbsbuild/obj/sprite_piece_dhilly3_ver_co_tileset.rel
                                          [ sprite_piece_dhilly3_ver_co_tile ]
/tmp/_gbsbuild/obj/sprite_piece_dhilly3_ver_co.rel
                                          [ sprite_piece_dhilly3_ver_co ]
/tmp/_gbsbuild/obj/sprite_piece_dhilly3_ver_tileset.rel
                                          [ sprite_piece_dhilly3_ver_tileset ]
/tmp/_gbsbuild/obj/sprite_piece_dhilly3_ver.rel
                                          [ sprite_piece_dhilly3_ver ]
/tmp/_gbsbuild/obj/sprite_pixelperfectvoti_cop_tileset.rel
                                          [ sprite_pixelperfectvoti_cop_tile ]
/tmp/_gbsbuild/obj/sprite_pixelperfectvoti_cop.rel
                                          [ sprite_pixelperfectvoti_cop ]
/tmp/_gbsbuild/obj/sprite_pixelperfectvoti_tileset.rel
                                          [ sprite_pixelperfectvoti_tileset ]
/tmp/_gbsbuild/obj/sprite_pixelperfectvoti.rel
                                          [ sprite_pixelperfectvoti ]
/tmp/_gbsbuild/obj/sprite_shapiro_tileset.rel
                                          [ sprite_shapiro_tileset ]
/tmp/_gbsbuild/obj/sprite_shapiro.rel     [ sprite_shapiro ]
/tmp/_gbsbuild/obj/sprite_square_cart_copy__tileset.rel
                                          [ sprite_square_cart_copy__tileset ]
/tmp/_gbsbuild/obj/sprite_square_cart_copy_.rel
                                          [ sprite_square_cart_copy_ ]
/tmp/_gbsbuild/obj/sprite_square_full_hitbox_c_1_tileset.rel
                                          [ sprite_square_full_hitbox_c_1_ti ]
/tmp/_gbsbuild/obj/sprite_square_full_hitbox_c_1.rel
                                          [ sprite_square_full_hitbox_c_1 ]
/tmp/_gbsbuild/obj/sprite_square_full_hitbox_c_2_tileset.rel
                                          [ sprite_square_full_hitbox_c_2_ti ]
/tmp/_gbsbuild/obj/sprite_square_full_hitbox_c_2.rel
                                          [ sprite_square_full_hitbox_c_2 ]
/tmp/_gbsbuild/obj/sprite_square_full_hitbox_c_3_tileset.rel
                                          [ sprite_square_full_hitbox_c_3_ti ]
/tmp/_gbsbuild/obj/sprite_square_full_hitbox_c_3.rel
                                          [ sprite_square_full_hitbox_c_3 ]
/tmp/_gbsbuild/obj/sprite_square_full_hitbox_c_4_tileset.rel
                                          [ sprite_square_full_hitbox_c_4_ti ]
/tmp/_gbsbuild/obj/sprite_square_full_hitbox_c_4.rel
                                          [ sprite_square_full_hitbox_c_4 ]
/tmp/_gbsbuild/obj/sprite_square_full_hitbox_c_5_tileset.rel
                                          [ sprite_square_full_hitbox_c_5_ti ]
/tmp/_gbsbuild/obj/sprite_square_full_hitbox_c_5.rel
                                          [ sprite_square_full_hitbox_c_5 ]
/tmp/_gbsbuild/obj/sprite_square_full_hitbox_c_tileset.rel
                                          [ sprite_square_full_hitbox_c_tile ]
/tmp/_gbsbuild/obj/sprite_square_full_hitbox_c.rel
                                          [ sprite_square_full_hitbox_c ]
/tmp/_gbsbuild/obj/sprite_square_platforming_c_tileset.rel
                                          [ sprite_square_platforming_c_tile ]
/tmp/_gbsbuild/obj/sprite_square_platforming_c.rel
                                          [ sprite_square_platforming_c ]
/tmp/_gbsbuild/obj/sprite_static_copy_0_tileset.rel
                                          [ sprite_static_copy_0_tileset ]
/tmp/_gbsbuild/obj/sprite_static_copy_0.rel
                                          [ sprite_static_copy_0 ]
/tmp/_gbsbuild/obj/sprite_static_copy_tileset.rel
                                          [ sprite_static_copy_tileset ]
/tmp/_gbsbuild/obj/sprite_static_copy.rel
                                          [ sprite_static_copy ]
/tmp/_gbsbuild/obj/spritesheet_none.rel   [ spritesheet_none ]
/tmp/_gbsbuild/obj/trigger_0_interact.rel
                                          [ trigger_0_interact ]
/tmp/_gbsbuild/obj/trigger_1_interact.rel
                                          [ trigger_1_interact ]
/tmp/_gbsbuild/obj/trigger_10_interact.rel
                                          [ trigger_10_interact ]
/tmp/_gbsbuild/obj/trigger_100_interact.rel
                                          [ trigger_100_interact ]
/tmp/_gbsbuild/obj/trigger_101_interact.rel
                                          [ trigger_101_interact ]
/tmp/_gbsbuild/obj/trigger_102_interact.rel
                                          [ trigger_102_interact ]
/tmp/_gbsbuild/obj/trigger_103_interact.rel
                                          [ trigger_103_interact ]
/tmp/_gbsbuild/obj/trigger_104_interact.rel
                                          [ trigger_104_interact ]
/tmp/_gbsbuild/obj/trigger_105_interact.rel
                                          [ trigger_105_interact ]
/tmp/_gbsbuild/obj/trigger_106_interact.rel
                                          [ trigger_106_interact ]
/tmp/_gbsbuild/obj/trigger_107_interact.rel
                                          [ trigger_107_interact ]
/tmp/_gbsbuild/obj/trigger_108_interact.rel
                                          [ trigger_108_interact ]
/tmp/_gbsbuild/obj/trigger_109_interact.rel
                                          [ trigger_109_interact ]
/tmp/_gbsbuild/obj/trigger_11_interact.rel
                                          [ trigger_11_interact ]
/tmp/_gbsbuild/obj/trigger_110_interact.rel
                                          [ trigger_110_interact ]
/tmp/_gbsbuild/obj/trigger_111_interact.rel
                                          [ trigger_111_interact ]
/tmp/_gbsbuild/obj/trigger_112_interact.rel
                                          [ trigger_112_interact ]
/tmp/_gbsbuild/obj/trigger_113_interact.rel
                                          [ trigger_113_interact ]
/tmp/_gbsbuild/obj/trigger_114_interact.rel
                                          [ trigger_114_interact ]
/tmp/_gbsbuild/obj/trigger_115_interact.rel
                                          [ trigger_115_interact ]
/tmp/_gbsbuild/obj/trigger_116_interact.rel
                                          [ trigger_116_interact ]
/tmp/_gbsbuild/obj/trigger_117_interact.rel
                                          [ trigger_117_interact ]
/tmp/_gbsbuild/obj/trigger_118_interact.rel
                                          [ trigger_118_interact ]
/tmp/_gbsbuild/obj/trigger_119_interact.rel
                                          [ trigger_119_interact ]
/tmp/_gbsbuild/obj/trigger_12_interact.rel
                                          [ trigger_12_interact ]
/tmp/_gbsbuild/obj/trigger_120_interact.rel
                                          [ trigger_120_interact ]
/tmp/_gbsbuild/obj/trigger_121_interact.rel
                                          [ trigger_121_interact ]
/tmp/_gbsbuild/obj/trigger_13_interact.rel
                                          [ trigger_13_interact ]
/tmp/_gbsbuild/obj/trigger_14_interact.rel
                                          [ trigger_14_interact ]
/tmp/_gbsbuild/obj/trigger_15_interact.rel
                                          [ trigger_15_interact ]
/tmp/_gbsbuild/obj/trigger_16_interact.rel
                                          [ trigger_16_interact ]
/tmp/_gbsbuild/obj/trigger_17_interact.rel
                                          [ trigger_17_interact ]
/tmp/_gbsbuild/obj/trigger_18_interact.rel
                                          [ trigger_18_interact ]
/tmp/_gbsbuild/obj/trigger_19_interact.rel
                                          [ trigger_19_interact ]
/tmp/_gbsbuild/obj/trigger_2_interact.rel
                                          [ trigger_2_interact ]
/tmp/_gbsbuild/obj/trigger_20_interact.rel
                                          [ trigger_20_interact ]
/tmp/_gbsbuild/obj/trigger_21_interact.rel
                                          [ trigger_21_interact ]
/tmp/_gbsbuild/obj/trigger_22_interact.rel
                                          [ trigger_22_interact ]
/tmp/_gbsbuild/obj/trigger_23_interact.rel
                                          [ trigger_23_interact ]
/tmp/_gbsbuild/obj/trigger_24_interact.rel
                                          [ trigger_24_interact ]
/tmp/_gbsbuild/obj/trigger_25_interact.rel
                                          [ trigger_25_interact ]
/tmp/_gbsbuild/obj/trigger_26_interact.rel
                                          [ trigger_26_interact ]
/tmp/_gbsbuild/obj/trigger_27_interact.rel
                                          [ trigger_27_interact ]
/tmp/_gbsbuild/obj/trigger_28_interact.rel
                                          [ trigger_28_interact ]
/tmp/_gbsbuild/obj/trigger_29_interact.rel
                                          [ trigger_29_interact ]
/tmp/_gbsbuild/obj/trigger_30_interact.rel
                                          [ trigger_30_interact ]
/tmp/_gbsbuild/obj/trigger_31_interact.rel
                                          [ trigger_31_interact ]
/tmp/_gbsbuild/obj/trigger_32_interact.rel
                                          [ trigger_32_interact ]
/tmp/_gbsbuild/obj/trigger_33_interact.rel
                                          [ trigger_33_interact ]
/tmp/_gbsbuild/obj/trigger_34_interact.rel
                                          [ trigger_34_interact ]
/tmp/_gbsbuild/obj/trigger_35_interact.rel
                                          [ trigger_35_interact ]
/tmp/_gbsbuild/obj/trigger_36_interact.rel
                                          [ trigger_36_interact ]
/tmp/_gbsbuild/obj/trigger_37_interact.rel
                                          [ trigger_37_interact ]
/tmp/_gbsbuild/obj/trigger_38_interact.rel
                                          [ trigger_38_interact ]
/tmp/_gbsbuild/obj/trigger_39_interact.rel
                                          [ trigger_39_interact ]
/tmp/_gbsbuild/obj/trigger_4_interact.rel
                                          [ trigger_4_interact ]
/tmp/_gbsbuild/obj/trigger_40_interact.rel
                                          [ trigger_40_interact ]
/tmp/_gbsbuild/obj/trigger_41_interact.rel
                                          [ trigger_41_interact ]
/tmp/_gbsbuild/obj/trigger_42_interact.rel
                                          [ trigger_42_interact ]
/tmp/_gbsbuild/obj/trigger_43_interact.rel
                                          [ trigger_43_interact ]
/tmp/_gbsbuild/obj/trigger_44_interact.rel
                                          [ trigger_44_interact ]
/tmp/_gbsbuild/obj/trigger_45_interact.rel
                                          [ trigger_45_interact ]
/tmp/_gbsbuild/obj/trigger_46_interact.rel
                                          [ trigger_46_interact ]
/tmp/_gbsbuild/obj/trigger_47_interact.rel
                                          [ trigger_47_interact ]
/tmp/_gbsbuild/obj/trigger_48_interact.rel
                                          [ trigger_48_interact ]
/tmp/_gbsbuild/obj/trigger_5_interact.rel
                                          [ trigger_5_interact ]
/tmp/_gbsbuild/obj/trigger_50_interact.rel
                                          [ trigger_50_interact ]
/tmp/_gbsbuild/obj/trigger_51_interact.rel
                                          [ trigger_51_interact ]
/tmp/_gbsbuild/obj/trigger_52_interact.rel
                                          [ trigger_52_interact ]
/tmp/_gbsbuild/obj/trigger_53_interact.rel
                                          [ trigger_53_interact ]
/tmp/_gbsbuild/obj/trigger_54_interact.rel
                                          [ trigger_54_interact ]
/tmp/_gbsbuild/obj/trigger_55_interact.rel
                                          [ trigger_55_interact ]
/tmp/_gbsbuild/obj/trigger_56_interact.rel
                                          [ trigger_56_interact ]
/tmp/_gbsbuild/obj/trigger_57_interact.rel
                                          [ trigger_57_interact ]
/tmp/_gbsbuild/obj/trigger_58_interact.rel
                                          [ trigger_58_interact ]
/tmp/_gbsbuild/obj/trigger_59_interact.rel
                                          [ trigger_59_interact ]
/tmp/_gbsbuild/obj/trigger_6_interact.rel
                                          [ trigger_6_interact ]
/tmp/_gbsbuild/obj/trigger_60_interact.rel
                                          [ trigger_60_interact ]
/tmp/_gbsbuild/obj/trigger_61_interact.rel
                                          [ trigger_61_interact ]
/tmp/_gbsbuild/obj/trigger_62_interact.rel
                                          [ trigger_62_interact ]
/tmp/_gbsbuild/obj/trigger_63_interact.rel
                                          [ trigger_63_interact ]
/tmp/_gbsbuild/obj/trigger_64_interact.rel
                                          [ trigger_64_interact ]
/tmp/_gbsbuild/obj/trigger_65_interact.rel
                                          [ trigger_65_interact ]
/tmp/_gbsbuild/obj/trigger_66_interact.rel
                                          [ trigger_66_interact ]
/tmp/_gbsbuild/obj/trigger_67_interact.rel
                                          [ trigger_67_interact ]
/tmp/_gbsbuild/obj/trigger_68_interact.rel
                                          [ trigger_68_interact ]
/tmp/_gbsbuild/obj/trigger_69_interact.rel
                                          [ trigger_69_interact ]
/tmp/_gbsbuild/obj/trigger_7_interact.rel
                                          [ trigger_7_interact ]
/tmp/_gbsbuild/obj/trigger_70_interact.rel
                                          [ trigger_70_interact ]
/tmp/_gbsbuild/obj/trigger_71_interact.rel
                                          [ trigger_71_interact ]
/tmp/_gbsbuild/obj/trigger_72_interact.rel
                                          [ trigger_72_interact ]
/tmp/_gbsbuild/obj/trigger_73_interact.rel
                                          [ trigger_73_interact ]
/tmp/_gbsbuild/obj/trigger_74_interact.rel
                                          [ trigger_74_interact ]
/tmp/_gbsbuild/obj/trigger_75_interact.rel
                                          [ trigger_75_interact ]
/tmp/_gbsbuild/obj/trigger_76_interact.rel
                                          [ trigger_76_interact ]
/tmp/_gbsbuild/obj/trigger_77_interact.rel
                                          [ trigger_77_interact ]
/tmp/_gbsbuild/obj/trigger_78_interact.rel
                                          [ trigger_78_interact ]
/tmp/_gbsbuild/obj/trigger_79_interact.rel
                                          [ trigger_79_interact ]
/tmp/_gbsbuild/obj/trigger_8_interact.rel
                                          [ trigger_8_interact ]
/tmp/_gbsbuild/obj/trigger_80_interact.rel
                                          [ trigger_80_interact ]
/tmp/_gbsbuild/obj/trigger_81_interact.rel
                                          [ trigger_81_interact ]
/tmp/_gbsbuild/obj/trigger_82_interact.rel
                                          [ trigger_82_interact ]
/tmp/_gbsbuild/obj/trigger_83_interact.rel
                                          [ trigger_83_interact ]
/tmp/_gbsbuild/obj/trigger_84_interact.rel
                                          [ trigger_84_interact ]
/tmp/_gbsbuild/obj/trigger_85_interact.rel
                                          [ trigger_85_interact ]
/tmp/_gbsbuild/obj/trigger_86_interact.rel
                                          [ trigger_86_interact ]
/tmp/_gbsbuild/obj/trigger_87_interact.rel
                                          [ trigger_87_interact ]
/tmp/_gbsbuild/obj/trigger_88_interact.rel
                                          [ trigger_88_interact ]
/tmp/_gbsbuild/obj/trigger_89_interact.rel
                                          [ trigger_89_interact ]
/tmp/_gbsbuild/obj/trigger_9_interact.rel
                                          [ trigger_9_interact ]
/tmp/_gbsbuild/obj/trigger_90_interact.rel
                                          [ trigger_90_interact ]
/tmp/_gbsbuild/obj/trigger_91_interact.rel
                                          [ trigger_91_interact ]
/tmp/_gbsbuild/obj/trigger_92_interact.rel
                                          [ trigger_92_interact ]
/tmp/_gbsbuild/obj/trigger_93_interact.rel
                                          [ trigger_93_interact ]
/tmp/_gbsbuild/obj/trigger_94_interact.rel
                                          [ trigger_94_interact ]
/tmp/_gbsbuild/obj/trigger_95_interact.rel
                                          [ trigger_95_interact ]
/tmp/_gbsbuild/obj/trigger_96_interact.rel
                                          [ trigger_96_interact ]
/tmp/_gbsbuild/obj/trigger_97_interact.rel
                                          [ trigger_97_interact ]
/tmp/_gbsbuild/obj/trigger_98_interact.rel
                                          [ trigger_98_interact ]
/tmp/_gbsbuild/obj/trigger_99_interact.rel
                                          [ trigger_99_interact ]
/tmp/_gbsbuild/obj/main.rel               [ main ]
/tmp/_gbsbuild/obj/adventure.rel          [ adventure ]
/tmp/_gbsbuild/obj/logo.rel               [ logo ]
/tmp/_gbsbuild/obj/platform.rel           [ platform ]
/tmp/_gbsbuild/obj/pointnclick.rel        [ pointnclick ]
/tmp/_gbsbuild/obj/shmup.rel              [ shmup ]
/tmp/_gbsbuild/obj/states_ptrs.rel        [  ]
/tmp/_gbsbuild/obj/topdown.rel            [ topdown ]


Libraries Linked                          [ object file ]

/tmp/_gbstools/gbdk/lib/gb/gb.lib         [ fill_rect_wi.o ]
/tmp/_gbstools/gbdk/lib/sm83/sm83.lib     [ rand.o ]
lib/hUGEDriver.lib                        [ hUGEDriver.o ]
/tmp/_gbstools/gbdk/lib/gb/gb.lib         [ sfr.o ]
/tmp/_gbstools/gbdk/lib/gb/gb.lib         [ get_data.o ]
/tmp/_gbstools/gbdk/lib/gb/gb.lib         [ get_tile.o ]
/tmp/_gbstools/gbdk/lib/gb/gb.lib         [ cgb_palettes.o ]
/tmp/_gbstools/gbdk/lib/gb/gb.lib         [ metasprites_hide_spr.o ]
/tmp/_gbstools/gbdk/lib/sm83/sm83.lib     [ mul.o ]
/tmp/_gbstools/gbdk/lib/gb/gb.lib         [ set_tile.o ]
/tmp/_gbstools/gbdk/lib/sm83/sm83.lib     [ abs.o ]
/tmp/_gbstools/gbdk/lib/gb/gb.lib         [ set_wi_t.o ]
/tmp/_gbstools/gbdk/lib/gb/gb.lib         [ set_data.o ]
/tmp/_gbstools/gbdk/lib/sm83/sm83.lib     [ reverse.o ]
/tmp/_gbstools/gbdk/lib/gb/gb.lib         [ far_ptr.o ]
/tmp/_gbstools/gbdk/lib/gb/gb.lib         [ sgb.o ]
/tmp/_gbstools/gbdk/lib/gb/gb.lib         [ lcd.o ]
/tmp/_gbstools/gbdk/lib/gb/gb.lib         [ fill_rect.o ]
/tmp/_gbstools/gbdk/lib/gb/gb.lib         [ pad_ex.o ]
/tmp/_gbstools/gbdk/lib/gb/gb.lib         [ cpy_data.o ]
/tmp/_gbstools/gbdk/lib/gb/gb.lib         [ fill_rect_bk.o ]
/tmp/_gbstools/gbdk/lib/gb/gb.lib         [ metasprites.o ]
/tmp/_gbstools/gbdk/lib/sm83/sm83.lib     [ __sdcc_call_hl.o ]
/tmp/_gbstools/gbdk/lib/sm83/sm83.lib     [ memcpy.o ]
/tmp/_gbstools/gbdk/lib/sm83/sm83.lib     [ _memset.o ]
/tmp/_gbstools/gbdk/lib/gb/gb.lib         [ set_xy_t.o ]
/tmp/_gbstools/gbdk/lib/gb/gb.lib         [ ___sdcc_bcall_ehl.o ]
/tmp/_gbstools/gbdk/lib/gb/gb.lib         [ cgb.o ]
/tmp/_gbstools/gbdk/lib/sm83/sm83.lib     [ div.o ]
/tmp/_gbstools/gbdk/lib/gb/gb.lib         [ set_bk_t.o ]

ASxxxx Linker V03.00/V05.40 + sdld,  page 151.

User Base Address Definitions

_DATA=0xC0A0
_CODE=0x0200
ASxxxx Linker V03.00/V05.40 + sdld,  page 152.

User Global Definitions

.STACK=0xDF00
_shadow_OAM=0xC000
.refresh_OAM=0xFF80
__start_save=28

